   1              		.syntax unified
   2              		.cpu cortex-m3
   3              		.fpu softvfp
   4              		.eabi_attribute 20, 1
   5              		.eabi_attribute 21, 1
   6              		.eabi_attribute 23, 3
   7              		.eabi_attribute 24, 1
   8              		.eabi_attribute 25, 1
   9              		.eabi_attribute 26, 1
  10              		.eabi_attribute 30, 6
  11              		.eabi_attribute 34, 1
  12              		.eabi_attribute 18, 4
  13              		.thumb
  14              		.file	"openserial.c"
  15              		.text
  16              	.Ltext0:
  17              		.cfi_sections	.debug_frame
  18              		.section	.rodata
  19              		.align	2
  22              	rreg_uriquery:
  23 0000 683D7563 		.ascii	"h=ucb\000"
  23      6200
  24 0006 0000     		.align	2
  27              	infoBoardname:
  28 0008 43433235 		.ascii	"CC2538\000"
  28      333800
  29 000f 00       		.align	2
  32              	infouCName:
  33 0010 43433235 		.ascii	"CC2538\000"
  33      333800
  34 0017 00       		.align	2
  37              	infoRadioName:
  38 0018 43433235 		.ascii	"CC2538 SoC\000"
  38      33382053 
  38      6F4300
  39 0023 00       		.align	2
  42              	infoStackName:
  43 0024 4F70656E 		.ascii	"OpenWSN \000"
  43      57534E20 
  43      00
  44 002d 000000   		.align	2
  47              	chTemplate_default:
  48 0030 05       		.byte	5
  49 0031 06       		.byte	6
  50 0032 0C       		.byte	12
  51 0033 07       		.byte	7
  52 0034 0F       		.byte	15
  53 0035 04       		.byte	4
  54 0036 0E       		.byte	14
  55 0037 0B       		.byte	11
  56 0038 08       		.byte	8
  57 0039 00       		.byte	0
  58 003a 01       		.byte	1
  59 003b 02       		.byte	2
  60 003c 0D       		.byte	13
  61 003d 03       		.byte	3
  62 003e 09       		.byte	9
  63 003f 0A       		.byte	10
  64              		.align	2
  67              	ebIEsBytestream:
  68 0040 1A       		.byte	26
  69 0041 88       		.byte	-120
  70 0042 06       		.byte	6
  71 0043 1A       		.byte	26
  72 0044 00       		.byte	0
  73 0045 00       		.byte	0
  74 0046 00       		.byte	0
  75 0047 00       		.byte	0
  76 0048 00       		.byte	0
  77 0049 00       		.byte	0
  78 004a 01       		.byte	1
  79 004b 1C       		.byte	28
  80 004c 00       		.byte	0
  81 004d 01       		.byte	1
  82 004e C8       		.byte	-56
  83 004f 00       		.byte	0
  84 0050 0A       		.byte	10
  85 0051 1B       		.byte	27
  86 0052 01       		.byte	1
  87 0053 00       		.byte	0
  88 0054 65       		.byte	101
  89 0055 00       		.byte	0
  90 0056 01       		.byte	1
  91 0057 00       		.byte	0
  92 0058 00       		.byte	0
  93 0059 00       		.byte	0
  94 005a 00       		.byte	0
  95 005b 0F       		.byte	15
  96              		.align	2
  99              	all_routers_multicast:
 100 005c FF       		.byte	-1
 101 005d 02       		.byte	2
 102 005e 00       		.byte	0
 103 005f 00       		.byte	0
 104 0060 00       		.byte	0
 105 0061 00       		.byte	0
 106 0062 00       		.byte	0
 107 0063 00       		.byte	0
 108 0064 00       		.byte	0
 109 0065 00       		.byte	0
 110 0066 00       		.byte	0
 111 0067 00       		.byte	0
 112 0068 00       		.byte	0
 113 0069 00       		.byte	0
 114 006a 00       		.byte	0
 115 006b 1A       		.byte	26
 116              		.align	2
 119              	linklocalprefix:
 120 006c FE       		.byte	-2
 121 006d 80       		.byte	-128
 122 006e 00       		.byte	0
 123 006f 00       		.byte	0
 124 0070 00       		.byte	0
 125 0071 00       		.byte	0
 126 0072 00       		.byte	0
 127 0073 00       		.byte	0
 128              		.align	2
 131              	fcstab:
 132 0074 0000     		.short	0
 133 0076 8911     		.short	4489
 134 0078 1223     		.short	8978
 135 007a 9B32     		.short	12955
 136 007c 2446     		.short	17956
 137 007e AD57     		.short	22445
 138 0080 3665     		.short	25910
 139 0082 BF74     		.short	29887
 140 0084 488C     		.short	-29624
 141 0086 C19D     		.short	-25151
 142 0088 5AAF     		.short	-20646
 143 008a D3BE     		.short	-16685
 144 008c 6CCA     		.short	-13716
 145 008e E5DB     		.short	-9243
 146 0090 7EE9     		.short	-5762
 147 0092 F7F8     		.short	-1801
 148 0094 8110     		.short	4225
 149 0096 0801     		.short	264
 150 0098 9333     		.short	13203
 151 009a 1A22     		.short	8730
 152 009c A556     		.short	22181
 153 009e 2C47     		.short	18220
 154 00a0 B775     		.short	30135
 155 00a2 3E64     		.short	25662
 156 00a4 C99C     		.short	-25399
 157 00a6 408D     		.short	-29376
 158 00a8 DBBF     		.short	-16421
 159 00aa 52AE     		.short	-20910
 160 00ac EDDA     		.short	-9491
 161 00ae 64CB     		.short	-13468
 162 00b0 FFF9     		.short	-1537
 163 00b2 76E8     		.short	-6026
 164 00b4 0221     		.short	8450
 165 00b6 8B30     		.short	12427
 166 00b8 1002     		.short	528
 167 00ba 9913     		.short	5017
 168 00bc 2667     		.short	26406
 169 00be AF76     		.short	30383
 170 00c0 3444     		.short	17460
 171 00c2 BD55     		.short	21949
 172 00c4 4AAD     		.short	-21174
 173 00c6 C3BC     		.short	-17213
 174 00c8 588E     		.short	-29096
 175 00ca D19F     		.short	-24623
 176 00cc 6EEB     		.short	-5266
 177 00ce E7FA     		.short	-1305
 178 00d0 7CC8     		.short	-14212
 179 00d2 F5D9     		.short	-9739
 180 00d4 8331     		.short	12675
 181 00d6 0A20     		.short	8202
 182 00d8 9112     		.short	4753
 183 00da 1803     		.short	792
 184 00dc A777     		.short	30631
 185 00de 2E66     		.short	26158
 186 00e0 B554     		.short	21685
 187 00e2 3C45     		.short	17724
 188 00e4 CBBD     		.short	-16949
 189 00e6 42AC     		.short	-21438
 190 00e8 D99E     		.short	-24871
 191 00ea 508F     		.short	-28848
 192 00ec EFFB     		.short	-1041
 193 00ee 66EA     		.short	-5530
 194 00f0 FDD8     		.short	-9987
 195 00f2 74C9     		.short	-13964
 196 00f4 0442     		.short	16900
 197 00f6 8D53     		.short	21389
 198 00f8 1661     		.short	24854
 199 00fa 9F70     		.short	28831
 200 00fc 2004     		.short	1056
 201 00fe A915     		.short	5545
 202 0100 3227     		.short	10034
 203 0102 BB36     		.short	14011
 204 0104 4CCE     		.short	-12724
 205 0106 C5DF     		.short	-8251
 206 0108 5EED     		.short	-4770
 207 010a D7FC     		.short	-809
 208 010c 6888     		.short	-30616
 209 010e E199     		.short	-26143
 210 0110 7AAB     		.short	-21638
 211 0112 F3BA     		.short	-17677
 212 0114 8552     		.short	21125
 213 0116 0C43     		.short	17164
 214 0118 9771     		.short	29079
 215 011a 1E60     		.short	24606
 216 011c A114     		.short	5281
 217 011e 2805     		.short	1320
 218 0120 B337     		.short	14259
 219 0122 3A26     		.short	9786
 220 0124 CDDE     		.short	-8499
 221 0126 44CF     		.short	-12476
 222 0128 DFFD     		.short	-545
 223 012a 56EC     		.short	-5034
 224 012c E998     		.short	-26391
 225 012e 6089     		.short	-30368
 226 0130 FBBB     		.short	-17413
 227 0132 72AA     		.short	-21902
 228 0134 0663     		.short	25350
 229 0136 8F72     		.short	29327
 230 0138 1440     		.short	16404
 231 013a 9D51     		.short	20893
 232 013c 2225     		.short	9506
 233 013e AB34     		.short	13483
 234 0140 3006     		.short	1584
 235 0142 B917     		.short	6073
 236 0144 4EEF     		.short	-4274
 237 0146 C7FE     		.short	-313
 238 0148 5CCC     		.short	-13220
 239 014a D5DD     		.short	-8747
 240 014c 6AA9     		.short	-22166
 241 014e E3B8     		.short	-18205
 242 0150 788A     		.short	-30088
 243 0152 F19B     		.short	-25615
 244 0154 8773     		.short	29575
 245 0156 0E62     		.short	25102
 246 0158 9550     		.short	20629
 247 015a 1C41     		.short	16668
 248 015c A335     		.short	13731
 249 015e 2A24     		.short	9258
 250 0160 B116     		.short	5809
 251 0162 3807     		.short	1848
 252 0164 CFFF     		.short	-49
 253 0166 46EE     		.short	-4538
 254 0168 DDDC     		.short	-8995
 255 016a 54CD     		.short	-12972
 256 016c EBB9     		.short	-17941
 257 016e 62A8     		.short	-22430
 258 0170 F99A     		.short	-25863
 259 0172 708B     		.short	-29840
 260 0174 0884     		.short	-31736
 261 0176 8195     		.short	-27263
 262 0178 1AA7     		.short	-22758
 263 017a 93B6     		.short	-18797
 264 017c 2CC2     		.short	-15828
 265 017e A5D3     		.short	-11355
 266 0180 3EE1     		.short	-7874
 267 0182 B7F0     		.short	-3913
 268 0184 4008     		.short	2112
 269 0186 C919     		.short	6601
 270 0188 522B     		.short	11090
 271 018a DB3A     		.short	15067
 272 018c 644E     		.short	20068
 273 018e ED5F     		.short	24557
 274 0190 766D     		.short	28022
 275 0192 FF7C     		.short	31999
 276 0194 8994     		.short	-27511
 277 0196 0085     		.short	-31488
 278 0198 9BB7     		.short	-18533
 279 019a 12A6     		.short	-23022
 280 019c ADD2     		.short	-11603
 281 019e 24C3     		.short	-15580
 282 01a0 BFF1     		.short	-3649
 283 01a2 36E0     		.short	-8138
 284 01a4 C118     		.short	6337
 285 01a6 4809     		.short	2376
 286 01a8 D33B     		.short	15315
 287 01aa 5A2A     		.short	10842
 288 01ac E55E     		.short	24293
 289 01ae 6C4F     		.short	20332
 290 01b0 F77D     		.short	32247
 291 01b2 7E6C     		.short	27774
 292 01b4 0AA5     		.short	-23286
 293 01b6 83B4     		.short	-19325
 294 01b8 1886     		.short	-31208
 295 01ba 9197     		.short	-26735
 296 01bc 2EE3     		.short	-7378
 297 01be A7F2     		.short	-3417
 298 01c0 3CC0     		.short	-16324
 299 01c2 B5D1     		.short	-11851
 300 01c4 4229     		.short	10562
 301 01c6 CB38     		.short	14539
 302 01c8 500A     		.short	2640
 303 01ca D91B     		.short	7129
 304 01cc 666F     		.short	28518
 305 01ce EF7E     		.short	32495
 306 01d0 744C     		.short	19572
 307 01d2 FD5D     		.short	24061
 308 01d4 8BB5     		.short	-19061
 309 01d6 02A4     		.short	-23550
 310 01d8 9996     		.short	-26983
 311 01da 1087     		.short	-30960
 312 01dc AFF3     		.short	-3153
 313 01de 26E2     		.short	-7642
 314 01e0 BDD0     		.short	-12099
 315 01e2 34C1     		.short	-16076
 316 01e4 C339     		.short	14787
 317 01e6 4A28     		.short	10314
 318 01e8 D11A     		.short	6865
 319 01ea 580B     		.short	2904
 320 01ec E77F     		.short	32743
 321 01ee 6E6E     		.short	28270
 322 01f0 F55C     		.short	23797
 323 01f2 7C4D     		.short	19836
 324 01f4 0CC6     		.short	-14836
 325 01f6 85D7     		.short	-10363
 326 01f8 1EE5     		.short	-6882
 327 01fa 97F4     		.short	-2921
 328 01fc 2880     		.short	-32728
 329 01fe A191     		.short	-28255
 330 0200 3AA3     		.short	-23750
 331 0202 B3B2     		.short	-19789
 332 0204 444A     		.short	19012
 333 0206 CD5B     		.short	23501
 334 0208 5669     		.short	26966
 335 020a DF78     		.short	30943
 336 020c 600C     		.short	3168
 337 020e E91D     		.short	7657
 338 0210 722F     		.short	12146
 339 0212 FB3E     		.short	16123
 340 0214 8DD6     		.short	-10611
 341 0216 04C7     		.short	-14588
 342 0218 9FF5     		.short	-2657
 343 021a 16E4     		.short	-7146
 344 021c A990     		.short	-28503
 345 021e 2081     		.short	-32480
 346 0220 BBB3     		.short	-19525
 347 0222 32A2     		.short	-24014
 348 0224 C55A     		.short	23237
 349 0226 4C4B     		.short	19276
 350 0228 D779     		.short	31191
 351 022a 5E68     		.short	26718
 352 022c E11C     		.short	7393
 353 022e 680D     		.short	3432
 354 0230 F33F     		.short	16371
 355 0232 7A2E     		.short	11898
 356 0234 0EE7     		.short	-6386
 357 0236 87F6     		.short	-2425
 358 0238 1CC4     		.short	-15332
 359 023a 95D5     		.short	-10859
 360 023c 2AA1     		.short	-24278
 361 023e A3B0     		.short	-20317
 362 0240 3882     		.short	-32200
 363 0242 B193     		.short	-27727
 364 0244 466B     		.short	27462
 365 0246 CF7A     		.short	31439
 366 0248 5448     		.short	18516
 367 024a DD59     		.short	23005
 368 024c 622D     		.short	11618
 369 024e EB3C     		.short	15595
 370 0250 700E     		.short	3696
 371 0252 F91F     		.short	8185
 372 0254 8FF7     		.short	-2161
 373 0256 06E6     		.short	-6650
 374 0258 9DD4     		.short	-11107
 375 025a 14C5     		.short	-15084
 376 025c ABB1     		.short	-20053
 377 025e 22A0     		.short	-24542
 378 0260 B992     		.short	-27975
 379 0262 3083     		.short	-31952
 380 0264 C77B     		.short	31687
 381 0266 4E6A     		.short	27214
 382 0268 D558     		.short	22741
 383 026a 5C49     		.short	18780
 384 026c E33D     		.short	15843
 385 026e 6A2C     		.short	11370
 386 0270 F11E     		.short	7921
 387 0272 780F     		.short	3960
 388              		.comm	openserial_vars,1252,4
 389              		.text
 390              		.align	2
 391              		.global	openserial_init
 392              		.thumb
 393              		.thumb_func
 395              	openserial_init:
 396              	.LFB0:
 397              		.file 1 "build/openmote-cc2538_armgcc/drivers/common/openserial.c"
   1:build/openmote-cc2538_armgcc/drivers/common/openserial.c **** /**
   2:build/openmote-cc2538_armgcc/drivers/common/openserial.c **** \brief Definition of the "openserial" driver.
   3:build/openmote-cc2538_armgcc/drivers/common/openserial.c **** 
   4:build/openmote-cc2538_armgcc/drivers/common/openserial.c **** \author Fabien Chraim <chraim@eecs.berkeley.edu>, March 2012.
   5:build/openmote-cc2538_armgcc/drivers/common/openserial.c **** \author Thomas Watteyne <thomas.watteyne@inria.fr>, August 2016.
   6:build/openmote-cc2538_armgcc/drivers/common/openserial.c **** */
   7:build/openmote-cc2538_armgcc/drivers/common/openserial.c **** #include <stdio.h>
   8:build/openmote-cc2538_armgcc/drivers/common/openserial.c **** #include <stdarg.h>
   9:build/openmote-cc2538_armgcc/drivers/common/openserial.c **** #include <string.h>
  10:build/openmote-cc2538_armgcc/drivers/common/openserial.c **** 
  11:build/openmote-cc2538_armgcc/drivers/common/openserial.c **** #include "opendefs.h"
  12:build/openmote-cc2538_armgcc/drivers/common/openserial.c **** #include "openserial.h"
  13:build/openmote-cc2538_armgcc/drivers/common/openserial.c **** #include "IEEE802154E.h"
  14:build/openmote-cc2538_armgcc/drivers/common/openserial.c **** #include "neighbors.h"
  15:build/openmote-cc2538_armgcc/drivers/common/openserial.c **** #include "sixtop.h"
  16:build/openmote-cc2538_armgcc/drivers/common/openserial.c **** #include "icmpv6echo.h"
  17:build/openmote-cc2538_armgcc/drivers/common/openserial.c **** #include "idmanager.h"
  18:build/openmote-cc2538_armgcc/drivers/common/openserial.c **** #include "openqueue.h"
  19:build/openmote-cc2538_armgcc/drivers/common/openserial.c **** #include "openbridge.h"
  20:build/openmote-cc2538_armgcc/drivers/common/openserial.c **** #include "leds.h"
  21:build/openmote-cc2538_armgcc/drivers/common/openserial.c **** #include "schedule.h"
  22:build/openmote-cc2538_armgcc/drivers/common/openserial.c **** #include "uart.h"
  23:build/openmote-cc2538_armgcc/drivers/common/openserial.c **** #include "opentimers.h"
  24:build/openmote-cc2538_armgcc/drivers/common/openserial.c **** #include "openhdlc.h"
  25:build/openmote-cc2538_armgcc/drivers/common/openserial.c **** #include "schedule.h"
  26:build/openmote-cc2538_armgcc/drivers/common/openserial.c **** #include "icmpv6rpl.h"
  27:build/openmote-cc2538_armgcc/drivers/common/openserial.c **** #include "icmpv6echo.h"
  28:build/openmote-cc2538_armgcc/drivers/common/openserial.c **** #include "msf.h"
  29:build/openmote-cc2538_armgcc/drivers/common/openserial.c **** 
  30:build/openmote-cc2538_armgcc/drivers/common/openserial.c **** 
  31:build/openmote-cc2538_armgcc/drivers/common/openserial.c **** 
  32:build/openmote-cc2538_armgcc/drivers/common/openserial.c **** //=========================== variables =======================================
  33:build/openmote-cc2538_armgcc/drivers/common/openserial.c **** 
  34:build/openmote-cc2538_armgcc/drivers/common/openserial.c **** openserial_vars_t openserial_vars;
  35:build/openmote-cc2538_armgcc/drivers/common/openserial.c **** 
  36:build/openmote-cc2538_armgcc/drivers/common/openserial.c **** enum{
  37:build/openmote-cc2538_armgcc/drivers/common/openserial.c ****     TYPE_STR = 0,       //subtype for the printf message
  38:build/openmote-cc2538_armgcc/drivers/common/openserial.c ****     TYPE_INT = 1
  39:build/openmote-cc2538_armgcc/drivers/common/openserial.c **** };
  40:build/openmote-cc2538_armgcc/drivers/common/openserial.c **** //=========================== prototypes ======================================
  41:build/openmote-cc2538_armgcc/drivers/common/openserial.c **** 
  42:build/openmote-cc2538_armgcc/drivers/common/openserial.c **** // printing
  43:build/openmote-cc2538_armgcc/drivers/common/openserial.c **** owerror_t openserial_printInfoErrorCritical(
  44:build/openmote-cc2538_armgcc/drivers/common/openserial.c ****     char             severity,
  45:build/openmote-cc2538_armgcc/drivers/common/openserial.c ****     uint8_t          calling_component,
  46:build/openmote-cc2538_armgcc/drivers/common/openserial.c ****     uint8_t          error_code,
  47:build/openmote-cc2538_armgcc/drivers/common/openserial.c ****     errorparameter_t arg1,
  48:build/openmote-cc2538_armgcc/drivers/common/openserial.c ****     errorparameter_t arg2
  49:build/openmote-cc2538_armgcc/drivers/common/openserial.c **** );
  50:build/openmote-cc2538_armgcc/drivers/common/openserial.c **** 
  51:build/openmote-cc2538_armgcc/drivers/common/openserial.c **** // command handlers
  52:build/openmote-cc2538_armgcc/drivers/common/openserial.c **** void openserial_handleEcho(uint8_t* but, uint8_t bufLen);
  53:build/openmote-cc2538_armgcc/drivers/common/openserial.c **** void openserial_get6pInfo(uint8_t commandId, uint8_t* code,uint8_t* cellOptions,uint8_t* numCells,c
  54:build/openmote-cc2538_armgcc/drivers/common/openserial.c **** void openserial_handleCommands(void);
  55:build/openmote-cc2538_armgcc/drivers/common/openserial.c **** 
  56:build/openmote-cc2538_armgcc/drivers/common/openserial.c **** // misc
  57:build/openmote-cc2538_armgcc/drivers/common/openserial.c **** void openserial_board_reset_cb(opentimers_id_t id);
  58:build/openmote-cc2538_armgcc/drivers/common/openserial.c **** 
  59:build/openmote-cc2538_armgcc/drivers/common/openserial.c **** // HDLC output
  60:build/openmote-cc2538_armgcc/drivers/common/openserial.c **** void outputHdlcOpen(void);
  61:build/openmote-cc2538_armgcc/drivers/common/openserial.c **** void outputHdlcWrite(uint8_t b);
  62:build/openmote-cc2538_armgcc/drivers/common/openserial.c **** void outputHdlcClose(void);
  63:build/openmote-cc2538_armgcc/drivers/common/openserial.c **** 
  64:build/openmote-cc2538_armgcc/drivers/common/openserial.c **** // HDLC input
  65:build/openmote-cc2538_armgcc/drivers/common/openserial.c **** void inputHdlcOpen(void);
  66:build/openmote-cc2538_armgcc/drivers/common/openserial.c **** void inputHdlcWrite(uint8_t b);
  67:build/openmote-cc2538_armgcc/drivers/common/openserial.c **** void inputHdlcClose(void);
  68:build/openmote-cc2538_armgcc/drivers/common/openserial.c **** 
  69:build/openmote-cc2538_armgcc/drivers/common/openserial.c **** //=========================== public ==========================================
  70:build/openmote-cc2538_armgcc/drivers/common/openserial.c **** 
  71:build/openmote-cc2538_armgcc/drivers/common/openserial.c **** //===== admin
  72:build/openmote-cc2538_armgcc/drivers/common/openserial.c **** 
  73:build/openmote-cc2538_armgcc/drivers/common/openserial.c **** void openserial_init(void) {
 398              		.loc 1 73 0
 399              		.cfi_startproc
 400              		@ args = 0, pretend = 0, frame = 8
 401              		@ frame_needed = 1, uses_anonymous_args = 0
 402 0000 80B5     		push	{r7, lr}
 403              		.cfi_def_cfa_offset 8
 404              		.cfi_offset 7, -8
 405              		.cfi_offset 14, -4
 406 0002 82B0     		sub	sp, sp, #8
 407              		.cfi_def_cfa_offset 16
 408 0004 00AF     		add	r7, sp, #0
 409              		.cfi_def_cfa_register 7
  74:build/openmote-cc2538_armgcc/drivers/common/openserial.c ****     uint16_t crc;
  75:build/openmote-cc2538_armgcc/drivers/common/openserial.c **** 
  76:build/openmote-cc2538_armgcc/drivers/common/openserial.c ****     // reset variable
  77:build/openmote-cc2538_armgcc/drivers/common/openserial.c ****     memset(&openserial_vars,0,sizeof(openserial_vars_t));
 410              		.loc 1 77 0
 411 0006 2848     		ldr	r0, .L2
 412 0008 0021     		movs	r1, #0
 413 000a 40F2E442 		movw	r2, #1252
 414 000e FFF7FEFF 		bl	memset
  78:build/openmote-cc2538_armgcc/drivers/common/openserial.c **** 
  79:build/openmote-cc2538_armgcc/drivers/common/openserial.c ****     // admin
  80:build/openmote-cc2538_armgcc/drivers/common/openserial.c ****     openserial_vars.mode               = MODE_OFF;
 415              		.loc 1 80 0
 416 0012 254B     		ldr	r3, .L2
 417 0014 0022     		movs	r2, #0
 418 0016 1A70     		strb	r2, [r3]
  81:build/openmote-cc2538_armgcc/drivers/common/openserial.c ****     openserial_vars.debugPrintCounter  = 0;
 419              		.loc 1 81 0
 420 0018 234B     		ldr	r3, .L2
 421 001a 0022     		movs	r2, #0
 422 001c 5A70     		strb	r2, [r3, #1]
  82:build/openmote-cc2538_armgcc/drivers/common/openserial.c **** 
  83:build/openmote-cc2538_armgcc/drivers/common/openserial.c ****     // input
  84:build/openmote-cc2538_armgcc/drivers/common/openserial.c ****     openserial_vars.reqFrame[0]        = HDLC_FLAG;
 423              		.loc 1 84 0
 424 001e 224B     		ldr	r3, .L2
 425 0020 7E22     		movs	r2, #126
 426 0022 1A72     		strb	r2, [r3, #8]
  85:build/openmote-cc2538_armgcc/drivers/common/openserial.c ****     openserial_vars.reqFrame[1]        = SERFRAME_MOTE2PC_REQUEST;
 427              		.loc 1 85 0
 428 0024 204B     		ldr	r3, .L2
 429 0026 5222     		movs	r2, #82
 430 0028 5A72     		strb	r2, [r3, #9]
  86:build/openmote-cc2538_armgcc/drivers/common/openserial.c ****     crc = HDLC_CRCINIT;
 431              		.loc 1 86 0
 432 002a 4FF6FF73 		movw	r3, #65535
 433 002e FB80     		strh	r3, [r7, #6]	@ movhi
  87:build/openmote-cc2538_armgcc/drivers/common/openserial.c ****     crc = crcIteration(crc,openserial_vars.reqFrame[1]);
 434              		.loc 1 87 0
 435 0030 1D4B     		ldr	r3, .L2
 436 0032 5B7A     		ldrb	r3, [r3, #9]	@ zero_extendqisi2
 437 0034 FA88     		ldrh	r2, [r7, #6]
 438 0036 1046     		mov	r0, r2
 439 0038 1946     		mov	r1, r3
 440 003a FFF7FEFF 		bl	crcIteration
 441 003e 0346     		mov	r3, r0
 442 0040 FB80     		strh	r3, [r7, #6]	@ movhi
  88:build/openmote-cc2538_armgcc/drivers/common/openserial.c ****     crc = ~crc;
 443              		.loc 1 88 0
 444 0042 FB88     		ldrh	r3, [r7, #6]	@ movhi
 445 0044 DB43     		mvns	r3, r3
 446 0046 FB80     		strh	r3, [r7, #6]	@ movhi
  89:build/openmote-cc2538_armgcc/drivers/common/openserial.c ****     openserial_vars.reqFrame[2]        = (crc>>0)&0xff;
 447              		.loc 1 89 0
 448 0048 FB88     		ldrh	r3, [r7, #6]	@ movhi
 449 004a DAB2     		uxtb	r2, r3
 450 004c 164B     		ldr	r3, .L2
 451 004e 9A72     		strb	r2, [r3, #10]
  90:build/openmote-cc2538_armgcc/drivers/common/openserial.c ****     openserial_vars.reqFrame[3]        = (crc>>8)&0xff;
 452              		.loc 1 90 0
 453 0050 FB88     		ldrh	r3, [r7, #6]
 454 0052 1B0A     		lsrs	r3, r3, #8
 455 0054 9BB2     		uxth	r3, r3
 456 0056 DAB2     		uxtb	r2, r3
 457 0058 134B     		ldr	r3, .L2
 458 005a DA72     		strb	r2, [r3, #11]
  91:build/openmote-cc2538_armgcc/drivers/common/openserial.c ****     openserial_vars.reqFrame[4]        = HDLC_FLAG;
 459              		.loc 1 91 0
 460 005c 124B     		ldr	r3, .L2
 461 005e 7E22     		movs	r2, #126
 462 0060 1A73     		strb	r2, [r3, #12]
  92:build/openmote-cc2538_armgcc/drivers/common/openserial.c ****     openserial_vars.reqFrameIdx        = 0;
 463              		.loc 1 92 0
 464 0062 114B     		ldr	r3, .L2
 465 0064 0022     		movs	r2, #0
 466 0066 5A73     		strb	r2, [r3, #13]
  93:build/openmote-cc2538_armgcc/drivers/common/openserial.c ****     openserial_vars.lastRxByte         = HDLC_FLAG;
 467              		.loc 1 93 0
 468 0068 0F4B     		ldr	r3, .L2
 469 006a 7E22     		movs	r2, #126
 470 006c 9A73     		strb	r2, [r3, #14]
  94:build/openmote-cc2538_armgcc/drivers/common/openserial.c ****     openserial_vars.busyReceiving      = FALSE;
 471              		.loc 1 94 0
 472 006e 0E4B     		ldr	r3, .L2
 473 0070 0022     		movs	r2, #0
 474 0072 DA73     		strb	r2, [r3, #15]
  95:build/openmote-cc2538_armgcc/drivers/common/openserial.c ****     openserial_vars.inputEscaping      = FALSE;
 475              		.loc 1 95 0
 476 0074 0C4B     		ldr	r3, .L2
 477 0076 0022     		movs	r2, #0
 478 0078 1A74     		strb	r2, [r3, #16]
  96:build/openmote-cc2538_armgcc/drivers/common/openserial.c ****     openserial_vars.inputBufFill       = 0;
 479              		.loc 1 96 0
 480 007a 0B4B     		ldr	r3, .L2
 481 007c 0022     		movs	r2, #0
 482 007e 1A75     		strb	r2, [r3, #20]
  97:build/openmote-cc2538_armgcc/drivers/common/openserial.c **** 
  98:build/openmote-cc2538_armgcc/drivers/common/openserial.c ****     // ouput
  99:build/openmote-cc2538_armgcc/drivers/common/openserial.c ****     openserial_vars.outputBufFilled    = FALSE;
 483              		.loc 1 99 0
 484 0080 094B     		ldr	r3, .L2
 485 0082 0022     		movs	r2, #0
 486 0084 83F8DD20 		strb	r2, [r3, #221]
 100:build/openmote-cc2538_armgcc/drivers/common/openserial.c ****     openserial_vars.outputBufIdxR      = 0;
 487              		.loc 1 100 0
 488 0088 074B     		ldr	r3, .L2
 489 008a 0022     		movs	r2, #0
 490 008c A3F8E220 		strh	r2, [r3, #226]	@ movhi
 101:build/openmote-cc2538_armgcc/drivers/common/openserial.c ****     openserial_vars.outputBufIdxW      = 0;
 491              		.loc 1 101 0
 492 0090 054B     		ldr	r3, .L2
 493 0092 0022     		movs	r2, #0
 494 0094 A3F8E020 		strh	r2, [r3, #224]	@ movhi
 102:build/openmote-cc2538_armgcc/drivers/common/openserial.c **** 
 103:build/openmote-cc2538_armgcc/drivers/common/openserial.c ****     // set callbacks
 104:build/openmote-cc2538_armgcc/drivers/common/openserial.c ****     uart_setCallbacks(
 495              		.loc 1 104 0
 496 0098 0448     		ldr	r0, .L2+4
 497 009a 0549     		ldr	r1, .L2+8
 498 009c FFF7FEFF 		bl	uart_setCallbacks
 105:build/openmote-cc2538_armgcc/drivers/common/openserial.c ****         isr_openserial_tx,
 106:build/openmote-cc2538_armgcc/drivers/common/openserial.c ****         isr_openserial_rx
 107:build/openmote-cc2538_armgcc/drivers/common/openserial.c ****     );
 108:build/openmote-cc2538_armgcc/drivers/common/openserial.c **** }
 499              		.loc 1 108 0
 500 00a0 0837     		adds	r7, r7, #8
 501              		.cfi_def_cfa_offset 8
 502 00a2 BD46     		mov	sp, r7
 503              		.cfi_def_cfa_register 13
 504              		@ sp needed
 505 00a4 80BD     		pop	{r7, pc}
 506              	.L3:
 507 00a6 00BF     		.align	2
 508              	.L2:
 509 00a8 00000000 		.word	openserial_vars
 510 00ac 00000000 		.word	isr_openserial_tx
 511 00b0 00000000 		.word	isr_openserial_rx
 512              		.cfi_endproc
 513              	.LFE0:
 515              		.align	2
 516              		.global	openserial_register
 517              		.thumb
 518              		.thumb_func
 520              	openserial_register:
 521              	.LFB1:
 109:build/openmote-cc2538_armgcc/drivers/common/openserial.c **** 
 110:build/openmote-cc2538_armgcc/drivers/common/openserial.c **** void openserial_register(openserial_rsvpt* rsvp) {
 522              		.loc 1 110 0
 523              		.cfi_startproc
 524              		@ args = 0, pretend = 0, frame = 8
 525              		@ frame_needed = 1, uses_anonymous_args = 0
 526              		@ link register save eliminated.
 527 00b4 80B4     		push	{r7}
 528              		.cfi_def_cfa_offset 4
 529              		.cfi_offset 7, -4
 530 00b6 83B0     		sub	sp, sp, #12
 531              		.cfi_def_cfa_offset 16
 532 00b8 00AF     		add	r7, sp, #0
 533              		.cfi_def_cfa_register 7
 534 00ba 7860     		str	r0, [r7, #4]
 111:build/openmote-cc2538_armgcc/drivers/common/openserial.c ****     // FIXME: register multiple commands (linked list)
 112:build/openmote-cc2538_armgcc/drivers/common/openserial.c ****     openserial_vars.registeredCmd = rsvp;
 535              		.loc 1 112 0
 536 00bc 034A     		ldr	r2, .L5
 537 00be 7B68     		ldr	r3, [r7, #4]
 538 00c0 5360     		str	r3, [r2, #4]
 113:build/openmote-cc2538_armgcc/drivers/common/openserial.c **** }
 539              		.loc 1 113 0
 540 00c2 0C37     		adds	r7, r7, #12
 541              		.cfi_def_cfa_offset 4
 542 00c4 BD46     		mov	sp, r7
 543              		.cfi_def_cfa_register 13
 544              		@ sp needed
 545 00c6 5DF8047B 		ldr	r7, [sp], #4
 546              		.cfi_restore 7
 547              		.cfi_def_cfa_offset 0
 548 00ca 7047     		bx	lr
 549              	.L6:
 550              		.align	2
 551              	.L5:
 552 00cc 00000000 		.word	openserial_vars
 553              		.cfi_endproc
 554              	.LFE1:
 556              		.align	2
 557              		.global	openserial_printStatus
 558              		.thumb
 559              		.thumb_func
 561              	openserial_printStatus:
 562              	.LFB2:
 114:build/openmote-cc2538_armgcc/drivers/common/openserial.c **** 
 115:build/openmote-cc2538_armgcc/drivers/common/openserial.c **** //===== printing
 116:build/openmote-cc2538_armgcc/drivers/common/openserial.c **** 
 117:build/openmote-cc2538_armgcc/drivers/common/openserial.c **** owerror_t openserial_printStatus(
 118:build/openmote-cc2538_armgcc/drivers/common/openserial.c ****     uint8_t             statusElement,
 119:build/openmote-cc2538_armgcc/drivers/common/openserial.c ****     uint8_t*            buffer,
 120:build/openmote-cc2538_armgcc/drivers/common/openserial.c ****     uint8_t             length
 121:build/openmote-cc2538_armgcc/drivers/common/openserial.c **** ) {
 563              		.loc 1 121 0
 564              		.cfi_startproc
 565              		@ args = 0, pretend = 0, frame = 16
 566              		@ frame_needed = 1, uses_anonymous_args = 0
 567 00d0 80B5     		push	{r7, lr}
 568              		.cfi_def_cfa_offset 8
 569              		.cfi_offset 7, -8
 570              		.cfi_offset 14, -4
 571 00d2 84B0     		sub	sp, sp, #16
 572              		.cfi_def_cfa_offset 24
 573 00d4 00AF     		add	r7, sp, #0
 574              		.cfi_def_cfa_register 7
 575 00d6 0346     		mov	r3, r0
 576 00d8 3960     		str	r1, [r7]
 577 00da FB71     		strb	r3, [r7, #7]
 578 00dc 1346     		mov	r3, r2
 579 00de BB71     		strb	r3, [r7, #6]
 122:build/openmote-cc2538_armgcc/drivers/common/openserial.c ****     uint8_t i;
 123:build/openmote-cc2538_armgcc/drivers/common/openserial.c ****     INTERRUPT_DECLARATION();
 124:build/openmote-cc2538_armgcc/drivers/common/openserial.c **** 
 125:build/openmote-cc2538_armgcc/drivers/common/openserial.c ****     DISABLE_INTERRUPTS();
 580              		.loc 1 125 0
 581 00e0 FFF7FEFF 		bl	IntMasterDisable
 126:build/openmote-cc2538_armgcc/drivers/common/openserial.c ****     openserial_vars.outputBufFilled  = TRUE;
 582              		.loc 1 126 0
 583 00e4 1B4B     		ldr	r3, .L11
 584 00e6 0122     		movs	r2, #1
 585 00e8 83F8DD20 		strb	r2, [r3, #221]
 127:build/openmote-cc2538_armgcc/drivers/common/openserial.c ****     outputHdlcOpen();
 586              		.loc 1 127 0
 587 00ec FFF7FEFF 		bl	outputHdlcOpen
 128:build/openmote-cc2538_armgcc/drivers/common/openserial.c ****     outputHdlcWrite(SERFRAME_MOTE2PC_STATUS);
 588              		.loc 1 128 0
 589 00f0 5320     		movs	r0, #83
 590 00f2 FFF7FEFF 		bl	outputHdlcWrite
 129:build/openmote-cc2538_armgcc/drivers/common/openserial.c ****     outputHdlcWrite(idmanager_getMyID(ADDR_16B)->addr_16b[0]);
 591              		.loc 1 129 0
 592 00f6 0120     		movs	r0, #1
 593 00f8 FFF7FEFF 		bl	idmanager_getMyID
 594 00fc 0346     		mov	r3, r0
 595 00fe 5B78     		ldrb	r3, [r3, #1]	@ zero_extendqisi2
 596 0100 1846     		mov	r0, r3
 597 0102 FFF7FEFF 		bl	outputHdlcWrite
 130:build/openmote-cc2538_armgcc/drivers/common/openserial.c ****     outputHdlcWrite(idmanager_getMyID(ADDR_16B)->addr_16b[1]);
 598              		.loc 1 130 0
 599 0106 0120     		movs	r0, #1
 600 0108 FFF7FEFF 		bl	idmanager_getMyID
 601 010c 0346     		mov	r3, r0
 602 010e 9B78     		ldrb	r3, [r3, #2]	@ zero_extendqisi2
 603 0110 1846     		mov	r0, r3
 604 0112 FFF7FEFF 		bl	outputHdlcWrite
 131:build/openmote-cc2538_armgcc/drivers/common/openserial.c ****     outputHdlcWrite(statusElement);
 605              		.loc 1 131 0
 606 0116 FB79     		ldrb	r3, [r7, #7]	@ zero_extendqisi2
 607 0118 1846     		mov	r0, r3
 608 011a FFF7FEFF 		bl	outputHdlcWrite
 132:build/openmote-cc2538_armgcc/drivers/common/openserial.c ****     for (i=0;i<length;i++){
 609              		.loc 1 132 0
 610 011e 0023     		movs	r3, #0
 611 0120 FB73     		strb	r3, [r7, #15]
 612 0122 09E0     		b	.L8
 613              	.L9:
 133:build/openmote-cc2538_armgcc/drivers/common/openserial.c ****         outputHdlcWrite(buffer[i]);
 614              		.loc 1 133 0 discriminator 3
 615 0124 FB7B     		ldrb	r3, [r7, #15]	@ zero_extendqisi2
 616 0126 3A68     		ldr	r2, [r7]
 617 0128 1344     		add	r3, r3, r2
 618 012a 1B78     		ldrb	r3, [r3]	@ zero_extendqisi2
 619 012c 1846     		mov	r0, r3
 620 012e FFF7FEFF 		bl	outputHdlcWrite
 132:build/openmote-cc2538_armgcc/drivers/common/openserial.c ****     for (i=0;i<length;i++){
 621              		.loc 1 132 0 discriminator 3
 622 0132 FB7B     		ldrb	r3, [r7, #15]	@ zero_extendqisi2
 623 0134 0133     		adds	r3, r3, #1
 624 0136 FB73     		strb	r3, [r7, #15]
 625              	.L8:
 132:build/openmote-cc2538_armgcc/drivers/common/openserial.c ****     for (i=0;i<length;i++){
 626              		.loc 1 132 0 is_stmt 0 discriminator 1
 627 0138 FA7B     		ldrb	r2, [r7, #15]	@ zero_extendqisi2
 628 013a BB79     		ldrb	r3, [r7, #6]	@ zero_extendqisi2
 629 013c 9A42     		cmp	r2, r3
 630 013e F1D3     		bcc	.L9
 134:build/openmote-cc2538_armgcc/drivers/common/openserial.c ****     }
 135:build/openmote-cc2538_armgcc/drivers/common/openserial.c ****     outputHdlcClose();
 631              		.loc 1 135 0 is_stmt 1
 632 0140 FFF7FEFF 		bl	outputHdlcClose
 136:build/openmote-cc2538_armgcc/drivers/common/openserial.c ****     ENABLE_INTERRUPTS();
 633              		.loc 1 136 0
 634 0144 FFF7FEFF 		bl	IntMasterEnable
 137:build/openmote-cc2538_armgcc/drivers/common/openserial.c **** 
 138:build/openmote-cc2538_armgcc/drivers/common/openserial.c ****     return E_SUCCESS;
 635              		.loc 1 138 0
 636 0148 0023     		movs	r3, #0
 139:build/openmote-cc2538_armgcc/drivers/common/openserial.c **** }
 637              		.loc 1 139 0
 638 014a 1846     		mov	r0, r3
 639 014c 1037     		adds	r7, r7, #16
 640              		.cfi_def_cfa_offset 8
 641 014e BD46     		mov	sp, r7
 642              		.cfi_def_cfa_register 13
 643              		@ sp needed
 644 0150 80BD     		pop	{r7, pc}
 645              	.L12:
 646 0152 00BF     		.align	2
 647              	.L11:
 648 0154 00000000 		.word	openserial_vars
 649              		.cfi_endproc
 650              	.LFE2:
 652              		.align	2
 653              		.global	openserial_printInfo
 654              		.thumb
 655              		.thumb_func
 657              	openserial_printInfo:
 658              	.LFB3:
 140:build/openmote-cc2538_armgcc/drivers/common/openserial.c **** 
 141:build/openmote-cc2538_armgcc/drivers/common/openserial.c **** owerror_t openserial_printInfo(
 142:build/openmote-cc2538_armgcc/drivers/common/openserial.c ****     uint8_t             calling_component,
 143:build/openmote-cc2538_armgcc/drivers/common/openserial.c ****     uint8_t             error_code,
 144:build/openmote-cc2538_armgcc/drivers/common/openserial.c ****     errorparameter_t    arg1,
 145:build/openmote-cc2538_armgcc/drivers/common/openserial.c ****     errorparameter_t    arg2
 146:build/openmote-cc2538_armgcc/drivers/common/openserial.c **** ) {
 659              		.loc 1 146 0
 660              		.cfi_startproc
 661              		@ args = 0, pretend = 0, frame = 8
 662              		@ frame_needed = 1, uses_anonymous_args = 0
 663 0158 90B5     		push	{r4, r7, lr}
 664              		.cfi_def_cfa_offset 12
 665              		.cfi_offset 4, -12
 666              		.cfi_offset 7, -8
 667              		.cfi_offset 14, -4
 668 015a 85B0     		sub	sp, sp, #20
 669              		.cfi_def_cfa_offset 32
 670 015c 02AF     		add	r7, sp, #8
 671              		.cfi_def_cfa 7, 24
 672 015e 0446     		mov	r4, r0
 673 0160 0846     		mov	r0, r1
 674 0162 1146     		mov	r1, r2
 675 0164 1A46     		mov	r2, r3
 676 0166 2346     		mov	r3, r4
 677 0168 FB71     		strb	r3, [r7, #7]
 678 016a 0346     		mov	r3, r0
 679 016c BB71     		strb	r3, [r7, #6]
 680 016e 0B46     		mov	r3, r1	@ movhi
 681 0170 BB80     		strh	r3, [r7, #4]	@ movhi
 682 0172 1346     		mov	r3, r2	@ movhi
 683 0174 7B80     		strh	r3, [r7, #2]	@ movhi
 147:build/openmote-cc2538_armgcc/drivers/common/openserial.c ****     return openserial_printInfoErrorCritical(
 684              		.loc 1 147 0
 685 0176 F979     		ldrb	r1, [r7, #7]	@ zero_extendqisi2
 686 0178 BA79     		ldrb	r2, [r7, #6]	@ zero_extendqisi2
 687 017a BC88     		ldrh	r4, [r7, #4]
 688 017c 7B88     		ldrh	r3, [r7, #2]
 689 017e 0093     		str	r3, [sp]
 690 0180 4920     		movs	r0, #73
 691 0182 2346     		mov	r3, r4
 692 0184 FFF7FEFF 		bl	openserial_printInfoErrorCritical
 693 0188 0346     		mov	r3, r0
 148:build/openmote-cc2538_armgcc/drivers/common/openserial.c ****         SERFRAME_MOTE2PC_INFO,
 149:build/openmote-cc2538_armgcc/drivers/common/openserial.c ****         calling_component,
 150:build/openmote-cc2538_armgcc/drivers/common/openserial.c ****         error_code,
 151:build/openmote-cc2538_armgcc/drivers/common/openserial.c ****         arg1,
 152:build/openmote-cc2538_armgcc/drivers/common/openserial.c ****         arg2
 153:build/openmote-cc2538_armgcc/drivers/common/openserial.c ****     );
 154:build/openmote-cc2538_armgcc/drivers/common/openserial.c **** }
 694              		.loc 1 154 0
 695 018a 1846     		mov	r0, r3
 696 018c 0C37     		adds	r7, r7, #12
 697              		.cfi_def_cfa_offset 12
 698 018e BD46     		mov	sp, r7
 699              		.cfi_def_cfa_register 13
 700              		@ sp needed
 701 0190 90BD     		pop	{r4, r7, pc}
 702              		.cfi_endproc
 703              	.LFE3:
 705 0192 00BF     		.align	2
 706              		.global	openserial_printError
 707              		.thumb
 708              		.thumb_func
 710              	openserial_printError:
 711              	.LFB4:
 155:build/openmote-cc2538_armgcc/drivers/common/openserial.c **** 
 156:build/openmote-cc2538_armgcc/drivers/common/openserial.c **** owerror_t openserial_printError(
 157:build/openmote-cc2538_armgcc/drivers/common/openserial.c ****     uint8_t             calling_component,
 158:build/openmote-cc2538_armgcc/drivers/common/openserial.c ****     uint8_t             error_code,
 159:build/openmote-cc2538_armgcc/drivers/common/openserial.c ****     errorparameter_t    arg1,
 160:build/openmote-cc2538_armgcc/drivers/common/openserial.c ****     errorparameter_t    arg2
 161:build/openmote-cc2538_armgcc/drivers/common/openserial.c **** ) {
 712              		.loc 1 161 0
 713              		.cfi_startproc
 714              		@ args = 0, pretend = 0, frame = 8
 715              		@ frame_needed = 1, uses_anonymous_args = 0
 716 0194 90B5     		push	{r4, r7, lr}
 717              		.cfi_def_cfa_offset 12
 718              		.cfi_offset 4, -12
 719              		.cfi_offset 7, -8
 720              		.cfi_offset 14, -4
 721 0196 85B0     		sub	sp, sp, #20
 722              		.cfi_def_cfa_offset 32
 723 0198 02AF     		add	r7, sp, #8
 724              		.cfi_def_cfa 7, 24
 725 019a 0446     		mov	r4, r0
 726 019c 0846     		mov	r0, r1
 727 019e 1146     		mov	r1, r2
 728 01a0 1A46     		mov	r2, r3
 729 01a2 2346     		mov	r3, r4
 730 01a4 FB71     		strb	r3, [r7, #7]
 731 01a6 0346     		mov	r3, r0
 732 01a8 BB71     		strb	r3, [r7, #6]
 733 01aa 0B46     		mov	r3, r1	@ movhi
 734 01ac BB80     		strh	r3, [r7, #4]	@ movhi
 735 01ae 1346     		mov	r3, r2	@ movhi
 736 01b0 7B80     		strh	r3, [r7, #2]	@ movhi
 162:build/openmote-cc2538_armgcc/drivers/common/openserial.c ****     // toggle error LED
 163:build/openmote-cc2538_armgcc/drivers/common/openserial.c ****     leds_error_toggle();
 737              		.loc 1 163 0
 738 01b2 FFF7FEFF 		bl	leds_error_toggle
 164:build/openmote-cc2538_armgcc/drivers/common/openserial.c **** 
 165:build/openmote-cc2538_armgcc/drivers/common/openserial.c ****     return openserial_printInfoErrorCritical(
 739              		.loc 1 165 0
 740 01b6 F979     		ldrb	r1, [r7, #7]	@ zero_extendqisi2
 741 01b8 BA79     		ldrb	r2, [r7, #6]	@ zero_extendqisi2
 742 01ba BC88     		ldrh	r4, [r7, #4]
 743 01bc 7B88     		ldrh	r3, [r7, #2]
 744 01be 0093     		str	r3, [sp]
 745 01c0 4520     		movs	r0, #69
 746 01c2 2346     		mov	r3, r4
 747 01c4 FFF7FEFF 		bl	openserial_printInfoErrorCritical
 748 01c8 0346     		mov	r3, r0
 166:build/openmote-cc2538_armgcc/drivers/common/openserial.c ****         SERFRAME_MOTE2PC_ERROR,
 167:build/openmote-cc2538_armgcc/drivers/common/openserial.c ****         calling_component,
 168:build/openmote-cc2538_armgcc/drivers/common/openserial.c ****         error_code,
 169:build/openmote-cc2538_armgcc/drivers/common/openserial.c ****         arg1,
 170:build/openmote-cc2538_armgcc/drivers/common/openserial.c ****         arg2
 171:build/openmote-cc2538_armgcc/drivers/common/openserial.c ****     );
 172:build/openmote-cc2538_armgcc/drivers/common/openserial.c **** }
 749              		.loc 1 172 0
 750 01ca 1846     		mov	r0, r3
 751 01cc 0C37     		adds	r7, r7, #12
 752              		.cfi_def_cfa_offset 12
 753 01ce BD46     		mov	sp, r7
 754              		.cfi_def_cfa_register 13
 755              		@ sp needed
 756 01d0 90BD     		pop	{r4, r7, pc}
 757              		.cfi_endproc
 758              	.LFE4:
 760 01d2 00BF     		.align	2
 761              		.global	openserial_printCritical
 762              		.thumb
 763              		.thumb_func
 765              	openserial_printCritical:
 766              	.LFB5:
 173:build/openmote-cc2538_armgcc/drivers/common/openserial.c **** 
 174:build/openmote-cc2538_armgcc/drivers/common/openserial.c **** owerror_t openserial_printCritical(
 175:build/openmote-cc2538_armgcc/drivers/common/openserial.c ****     uint8_t             calling_component,
 176:build/openmote-cc2538_armgcc/drivers/common/openserial.c ****     uint8_t             error_code,
 177:build/openmote-cc2538_armgcc/drivers/common/openserial.c ****     errorparameter_t    arg1,
 178:build/openmote-cc2538_armgcc/drivers/common/openserial.c ****     errorparameter_t    arg2
 179:build/openmote-cc2538_armgcc/drivers/common/openserial.c **** ) {
 767              		.loc 1 179 0
 768              		.cfi_startproc
 769              		@ args = 0, pretend = 0, frame = 16
 770              		@ frame_needed = 1, uses_anonymous_args = 0
 771 01d4 90B5     		push	{r4, r7, lr}
 772              		.cfi_def_cfa_offset 12
 773              		.cfi_offset 4, -12
 774              		.cfi_offset 7, -8
 775              		.cfi_offset 14, -4
 776 01d6 87B0     		sub	sp, sp, #28
 777              		.cfi_def_cfa_offset 40
 778 01d8 02AF     		add	r7, sp, #8
 779              		.cfi_def_cfa 7, 32
 780 01da 0446     		mov	r4, r0
 781 01dc 0846     		mov	r0, r1
 782 01de 1146     		mov	r1, r2
 783 01e0 1A46     		mov	r2, r3
 784 01e2 2346     		mov	r3, r4
 785 01e4 FB71     		strb	r3, [r7, #7]
 786 01e6 0346     		mov	r3, r0
 787 01e8 BB71     		strb	r3, [r7, #6]
 788 01ea 0B46     		mov	r3, r1	@ movhi
 789 01ec BB80     		strh	r3, [r7, #4]	@ movhi
 790 01ee 1346     		mov	r3, r2	@ movhi
 791 01f0 7B80     		strh	r3, [r7, #2]	@ movhi
 180:build/openmote-cc2538_armgcc/drivers/common/openserial.c ****     opentimers_id_t id;
 181:build/openmote-cc2538_armgcc/drivers/common/openserial.c ****     uint32_t         reference;
 182:build/openmote-cc2538_armgcc/drivers/common/openserial.c **** 
 183:build/openmote-cc2538_armgcc/drivers/common/openserial.c ****     // blink error LED, this is serious
 184:build/openmote-cc2538_armgcc/drivers/common/openserial.c ****     leds_error_blink();
 792              		.loc 1 184 0
 793 01f2 FFF7FEFF 		bl	leds_error_blink
 185:build/openmote-cc2538_armgcc/drivers/common/openserial.c **** 
 186:build/openmote-cc2538_armgcc/drivers/common/openserial.c ****     // schedule for the mote to reboot in 10s
 187:build/openmote-cc2538_armgcc/drivers/common/openserial.c ****     id        = opentimers_create();
 794              		.loc 1 187 0
 795 01f6 FFF7FEFF 		bl	opentimers_create
 796 01fa 0346     		mov	r3, r0
 797 01fc FB73     		strb	r3, [r7, #15]
 188:build/openmote-cc2538_armgcc/drivers/common/openserial.c ****     reference = opentimers_getValue();
 798              		.loc 1 188 0
 799 01fe FFF7FEFF 		bl	opentimers_getValue
 800 0202 B860     		str	r0, [r7, #8]
 189:build/openmote-cc2538_armgcc/drivers/common/openserial.c ****     opentimers_scheduleAbsolute(
 801              		.loc 1 189 0
 802 0204 FA7B     		ldrb	r2, [r7, #15]	@ zero_extendqisi2
 803 0206 0B4B     		ldr	r3, .L19
 804 0208 0093     		str	r3, [sp]
 805 020a 1046     		mov	r0, r2
 806 020c 42F21071 		movw	r1, #10000
 807 0210 BA68     		ldr	r2, [r7, #8]
 808 0212 0023     		movs	r3, #0
 809 0214 FFF7FEFF 		bl	opentimers_scheduleAbsolute
 190:build/openmote-cc2538_armgcc/drivers/common/openserial.c ****         id,                             // timerId
 191:build/openmote-cc2538_armgcc/drivers/common/openserial.c ****         10000,                          // duration
 192:build/openmote-cc2538_armgcc/drivers/common/openserial.c ****         reference,                      // reference
 193:build/openmote-cc2538_armgcc/drivers/common/openserial.c ****         TIME_MS,                        // timetype
 194:build/openmote-cc2538_armgcc/drivers/common/openserial.c ****         openserial_board_reset_cb       // callback
 195:build/openmote-cc2538_armgcc/drivers/common/openserial.c ****     );
 196:build/openmote-cc2538_armgcc/drivers/common/openserial.c **** 
 197:build/openmote-cc2538_armgcc/drivers/common/openserial.c ****     return openserial_printInfoErrorCritical(
 810              		.loc 1 197 0
 811 0218 F979     		ldrb	r1, [r7, #7]	@ zero_extendqisi2
 812 021a BA79     		ldrb	r2, [r7, #6]	@ zero_extendqisi2
 813 021c BC88     		ldrh	r4, [r7, #4]
 814 021e 7B88     		ldrh	r3, [r7, #2]
 815 0220 0093     		str	r3, [sp]
 816 0222 4320     		movs	r0, #67
 817 0224 2346     		mov	r3, r4
 818 0226 FFF7FEFF 		bl	openserial_printInfoErrorCritical
 819 022a 0346     		mov	r3, r0
 198:build/openmote-cc2538_armgcc/drivers/common/openserial.c ****         SERFRAME_MOTE2PC_CRITICAL,
 199:build/openmote-cc2538_armgcc/drivers/common/openserial.c ****         calling_component,
 200:build/openmote-cc2538_armgcc/drivers/common/openserial.c ****         error_code,
 201:build/openmote-cc2538_armgcc/drivers/common/openserial.c ****         arg1,
 202:build/openmote-cc2538_armgcc/drivers/common/openserial.c ****         arg2
 203:build/openmote-cc2538_armgcc/drivers/common/openserial.c ****     );
 204:build/openmote-cc2538_armgcc/drivers/common/openserial.c **** }
 820              		.loc 1 204 0
 821 022c 1846     		mov	r0, r3
 822 022e 1437     		adds	r7, r7, #20
 823              		.cfi_def_cfa_offset 12
 824 0230 BD46     		mov	sp, r7
 825              		.cfi_def_cfa_register 13
 826              		@ sp needed
 827 0232 90BD     		pop	{r4, r7, pc}
 828              	.L20:
 829              		.align	2
 830              	.L19:
 831 0234 00000000 		.word	openserial_board_reset_cb
 832              		.cfi_endproc
 833              	.LFE5:
 835              		.align	2
 836              		.global	openserial_printData
 837              		.thumb
 838              		.thumb_func
 840              	openserial_printData:
 841              	.LFB6:
 205:build/openmote-cc2538_armgcc/drivers/common/openserial.c **** 
 206:build/openmote-cc2538_armgcc/drivers/common/openserial.c **** owerror_t openserial_printData(uint8_t* buffer, uint8_t length) {
 842              		.loc 1 206 0
 843              		.cfi_startproc
 844              		@ args = 0, pretend = 0, frame = 16
 845              		@ frame_needed = 1, uses_anonymous_args = 0
 846 0238 80B5     		push	{r7, lr}
 847              		.cfi_def_cfa_offset 8
 848              		.cfi_offset 7, -8
 849              		.cfi_offset 14, -4
 850 023a 84B0     		sub	sp, sp, #16
 851              		.cfi_def_cfa_offset 24
 852 023c 00AF     		add	r7, sp, #0
 853              		.cfi_def_cfa_register 7
 854 023e 7860     		str	r0, [r7, #4]
 855 0240 0B46     		mov	r3, r1
 856 0242 FB70     		strb	r3, [r7, #3]
 207:build/openmote-cc2538_armgcc/drivers/common/openserial.c ****     uint8_t  i;
 208:build/openmote-cc2538_armgcc/drivers/common/openserial.c ****     uint8_t  asn[5];
 209:build/openmote-cc2538_armgcc/drivers/common/openserial.c ****     INTERRUPT_DECLARATION();
 210:build/openmote-cc2538_armgcc/drivers/common/openserial.c **** 
 211:build/openmote-cc2538_armgcc/drivers/common/openserial.c ****     // retrieve ASN
 212:build/openmote-cc2538_armgcc/drivers/common/openserial.c ****     ieee154e_getAsn(asn);
 857              		.loc 1 212 0
 858 0244 07F10803 		add	r3, r7, #8
 859 0248 1846     		mov	r0, r3
 860 024a FFF7FEFF 		bl	ieee154e_getAsn
 213:build/openmote-cc2538_armgcc/drivers/common/openserial.c **** 
 214:build/openmote-cc2538_armgcc/drivers/common/openserial.c ****     DISABLE_INTERRUPTS();
 861              		.loc 1 214 0
 862 024e FFF7FEFF 		bl	IntMasterDisable
 215:build/openmote-cc2538_armgcc/drivers/common/openserial.c ****     openserial_vars.outputBufFilled  = TRUE;
 863              		.loc 1 215 0
 864 0252 234B     		ldr	r3, .L25
 865 0254 0122     		movs	r2, #1
 866 0256 83F8DD20 		strb	r2, [r3, #221]
 216:build/openmote-cc2538_armgcc/drivers/common/openserial.c ****     outputHdlcOpen();
 867              		.loc 1 216 0
 868 025a FFF7FEFF 		bl	outputHdlcOpen
 217:build/openmote-cc2538_armgcc/drivers/common/openserial.c ****     outputHdlcWrite(SERFRAME_MOTE2PC_DATA);
 869              		.loc 1 217 0
 870 025e 4420     		movs	r0, #68
 871 0260 FFF7FEFF 		bl	outputHdlcWrite
 218:build/openmote-cc2538_armgcc/drivers/common/openserial.c ****     outputHdlcWrite(idmanager_getMyID(ADDR_16B)->addr_16b[0]);
 872              		.loc 1 218 0
 873 0264 0120     		movs	r0, #1
 874 0266 FFF7FEFF 		bl	idmanager_getMyID
 875 026a 0346     		mov	r3, r0
 876 026c 5B78     		ldrb	r3, [r3, #1]	@ zero_extendqisi2
 877 026e 1846     		mov	r0, r3
 878 0270 FFF7FEFF 		bl	outputHdlcWrite
 219:build/openmote-cc2538_armgcc/drivers/common/openserial.c ****     outputHdlcWrite(idmanager_getMyID(ADDR_16B)->addr_16b[1]);
 879              		.loc 1 219 0
 880 0274 0120     		movs	r0, #1
 881 0276 FFF7FEFF 		bl	idmanager_getMyID
 882 027a 0346     		mov	r3, r0
 883 027c 9B78     		ldrb	r3, [r3, #2]	@ zero_extendqisi2
 884 027e 1846     		mov	r0, r3
 885 0280 FFF7FEFF 		bl	outputHdlcWrite
 220:build/openmote-cc2538_armgcc/drivers/common/openserial.c ****     outputHdlcWrite(asn[0]);
 886              		.loc 1 220 0
 887 0284 3B7A     		ldrb	r3, [r7, #8]	@ zero_extendqisi2
 888 0286 1846     		mov	r0, r3
 889 0288 FFF7FEFF 		bl	outputHdlcWrite
 221:build/openmote-cc2538_armgcc/drivers/common/openserial.c ****     outputHdlcWrite(asn[1]);
 890              		.loc 1 221 0
 891 028c 7B7A     		ldrb	r3, [r7, #9]	@ zero_extendqisi2
 892 028e 1846     		mov	r0, r3
 893 0290 FFF7FEFF 		bl	outputHdlcWrite
 222:build/openmote-cc2538_armgcc/drivers/common/openserial.c ****     outputHdlcWrite(asn[2]);
 894              		.loc 1 222 0
 895 0294 BB7A     		ldrb	r3, [r7, #10]	@ zero_extendqisi2
 896 0296 1846     		mov	r0, r3
 897 0298 FFF7FEFF 		bl	outputHdlcWrite
 223:build/openmote-cc2538_armgcc/drivers/common/openserial.c ****     outputHdlcWrite(asn[3]);
 898              		.loc 1 223 0
 899 029c FB7A     		ldrb	r3, [r7, #11]	@ zero_extendqisi2
 900 029e 1846     		mov	r0, r3
 901 02a0 FFF7FEFF 		bl	outputHdlcWrite
 224:build/openmote-cc2538_armgcc/drivers/common/openserial.c ****     outputHdlcWrite(asn[4]);
 902              		.loc 1 224 0
 903 02a4 3B7B     		ldrb	r3, [r7, #12]	@ zero_extendqisi2
 904 02a6 1846     		mov	r0, r3
 905 02a8 FFF7FEFF 		bl	outputHdlcWrite
 225:build/openmote-cc2538_armgcc/drivers/common/openserial.c ****     for (i=0;i<length;i++){
 906              		.loc 1 225 0
 907 02ac 0023     		movs	r3, #0
 908 02ae FB73     		strb	r3, [r7, #15]
 909 02b0 09E0     		b	.L22
 910              	.L23:
 226:build/openmote-cc2538_armgcc/drivers/common/openserial.c ****         outputHdlcWrite(buffer[i]);
 911              		.loc 1 226 0 discriminator 3
 912 02b2 FB7B     		ldrb	r3, [r7, #15]	@ zero_extendqisi2
 913 02b4 7A68     		ldr	r2, [r7, #4]
 914 02b6 1344     		add	r3, r3, r2
 915 02b8 1B78     		ldrb	r3, [r3]	@ zero_extendqisi2
 916 02ba 1846     		mov	r0, r3
 917 02bc FFF7FEFF 		bl	outputHdlcWrite
 225:build/openmote-cc2538_armgcc/drivers/common/openserial.c ****     for (i=0;i<length;i++){
 918              		.loc 1 225 0 discriminator 3
 919 02c0 FB7B     		ldrb	r3, [r7, #15]	@ zero_extendqisi2
 920 02c2 0133     		adds	r3, r3, #1
 921 02c4 FB73     		strb	r3, [r7, #15]
 922              	.L22:
 225:build/openmote-cc2538_armgcc/drivers/common/openserial.c ****     for (i=0;i<length;i++){
 923              		.loc 1 225 0 is_stmt 0 discriminator 1
 924 02c6 FA7B     		ldrb	r2, [r7, #15]	@ zero_extendqisi2
 925 02c8 FB78     		ldrb	r3, [r7, #3]	@ zero_extendqisi2
 926 02ca 9A42     		cmp	r2, r3
 927 02cc F1D3     		bcc	.L23
 227:build/openmote-cc2538_armgcc/drivers/common/openserial.c ****     }
 228:build/openmote-cc2538_armgcc/drivers/common/openserial.c ****     outputHdlcClose();
 928              		.loc 1 228 0 is_stmt 1
 929 02ce FFF7FEFF 		bl	outputHdlcClose
 229:build/openmote-cc2538_armgcc/drivers/common/openserial.c ****     ENABLE_INTERRUPTS();
 930              		.loc 1 229 0
 931 02d2 FFF7FEFF 		bl	IntMasterEnable
 230:build/openmote-cc2538_armgcc/drivers/common/openserial.c **** 
 231:build/openmote-cc2538_armgcc/drivers/common/openserial.c ****     return E_SUCCESS;
 932              		.loc 1 231 0
 933 02d6 0023     		movs	r3, #0
 232:build/openmote-cc2538_armgcc/drivers/common/openserial.c **** }
 934              		.loc 1 232 0
 935 02d8 1846     		mov	r0, r3
 936 02da 1037     		adds	r7, r7, #16
 937              		.cfi_def_cfa_offset 8
 938 02dc BD46     		mov	sp, r7
 939              		.cfi_def_cfa_register 13
 940              		@ sp needed
 941 02de 80BD     		pop	{r7, pc}
 942              	.L26:
 943              		.align	2
 944              	.L25:
 945 02e0 00000000 		.word	openserial_vars
 946              		.cfi_endproc
 947              	.LFE6:
 949              		.align	2
 950              		.global	openserial_printSniffedPacket
 951              		.thumb
 952              		.thumb_func
 954              	openserial_printSniffedPacket:
 955              	.LFB7:
 233:build/openmote-cc2538_armgcc/drivers/common/openserial.c **** 
 234:build/openmote-cc2538_armgcc/drivers/common/openserial.c **** owerror_t openserial_printSniffedPacket(uint8_t* buffer, uint8_t length, uint8_t channel) {
 956              		.loc 1 234 0
 957              		.cfi_startproc
 958              		@ args = 0, pretend = 0, frame = 16
 959              		@ frame_needed = 1, uses_anonymous_args = 0
 960 02e4 80B5     		push	{r7, lr}
 961              		.cfi_def_cfa_offset 8
 962              		.cfi_offset 7, -8
 963              		.cfi_offset 14, -4
 964 02e6 84B0     		sub	sp, sp, #16
 965              		.cfi_def_cfa_offset 24
 966 02e8 00AF     		add	r7, sp, #0
 967              		.cfi_def_cfa_register 7
 968 02ea 7860     		str	r0, [r7, #4]
 969 02ec 0B46     		mov	r3, r1
 970 02ee FB70     		strb	r3, [r7, #3]
 971 02f0 1346     		mov	r3, r2
 972 02f2 BB70     		strb	r3, [r7, #2]
 235:build/openmote-cc2538_armgcc/drivers/common/openserial.c ****     uint8_t  i;
 236:build/openmote-cc2538_armgcc/drivers/common/openserial.c ****     INTERRUPT_DECLARATION();
 237:build/openmote-cc2538_armgcc/drivers/common/openserial.c **** 
 238:build/openmote-cc2538_armgcc/drivers/common/openserial.c ****     DISABLE_INTERRUPTS();
 973              		.loc 1 238 0
 974 02f4 FFF7FEFF 		bl	IntMasterDisable
 239:build/openmote-cc2538_armgcc/drivers/common/openserial.c ****     openserial_vars.outputBufFilled  = TRUE;
 975              		.loc 1 239 0
 976 02f8 1B4B     		ldr	r3, .L31
 977 02fa 0122     		movs	r2, #1
 978 02fc 83F8DD20 		strb	r2, [r3, #221]
 240:build/openmote-cc2538_armgcc/drivers/common/openserial.c ****     outputHdlcOpen();
 979              		.loc 1 240 0
 980 0300 FFF7FEFF 		bl	outputHdlcOpen
 241:build/openmote-cc2538_armgcc/drivers/common/openserial.c ****     outputHdlcWrite(SERFRAME_MOTE2PC_SNIFFED_PACKET);
 981              		.loc 1 241 0
 982 0304 5020     		movs	r0, #80
 983 0306 FFF7FEFF 		bl	outputHdlcWrite
 242:build/openmote-cc2538_armgcc/drivers/common/openserial.c ****     outputHdlcWrite(idmanager_getMyID(ADDR_16B)->addr_16b[0]);
 984              		.loc 1 242 0
 985 030a 0120     		movs	r0, #1
 986 030c FFF7FEFF 		bl	idmanager_getMyID
 987 0310 0346     		mov	r3, r0
 988 0312 5B78     		ldrb	r3, [r3, #1]	@ zero_extendqisi2
 989 0314 1846     		mov	r0, r3
 990 0316 FFF7FEFF 		bl	outputHdlcWrite
 243:build/openmote-cc2538_armgcc/drivers/common/openserial.c ****     outputHdlcWrite(idmanager_getMyID(ADDR_16B)->addr_16b[1]);
 991              		.loc 1 243 0
 992 031a 0120     		movs	r0, #1
 993 031c FFF7FEFF 		bl	idmanager_getMyID
 994 0320 0346     		mov	r3, r0
 995 0322 9B78     		ldrb	r3, [r3, #2]	@ zero_extendqisi2
 996 0324 1846     		mov	r0, r3
 997 0326 FFF7FEFF 		bl	outputHdlcWrite
 244:build/openmote-cc2538_armgcc/drivers/common/openserial.c ****     for (i=0;i<length;i++){
 998              		.loc 1 244 0
 999 032a 0023     		movs	r3, #0
 1000 032c FB73     		strb	r3, [r7, #15]
 1001 032e 09E0     		b	.L28
 1002              	.L29:
 245:build/openmote-cc2538_armgcc/drivers/common/openserial.c ****        outputHdlcWrite(buffer[i]);
 1003              		.loc 1 245 0 discriminator 3
 1004 0330 FB7B     		ldrb	r3, [r7, #15]	@ zero_extendqisi2
 1005 0332 7A68     		ldr	r2, [r7, #4]
 1006 0334 1344     		add	r3, r3, r2
 1007 0336 1B78     		ldrb	r3, [r3]	@ zero_extendqisi2
 1008 0338 1846     		mov	r0, r3
 1009 033a FFF7FEFF 		bl	outputHdlcWrite
 244:build/openmote-cc2538_armgcc/drivers/common/openserial.c ****     for (i=0;i<length;i++){
 1010              		.loc 1 244 0 discriminator 3
 1011 033e FB7B     		ldrb	r3, [r7, #15]	@ zero_extendqisi2
 1012 0340 0133     		adds	r3, r3, #1
 1013 0342 FB73     		strb	r3, [r7, #15]
 1014              	.L28:
 244:build/openmote-cc2538_armgcc/drivers/common/openserial.c ****     for (i=0;i<length;i++){
 1015              		.loc 1 244 0 is_stmt 0 discriminator 1
 1016 0344 FA7B     		ldrb	r2, [r7, #15]	@ zero_extendqisi2
 1017 0346 FB78     		ldrb	r3, [r7, #3]	@ zero_extendqisi2
 1018 0348 9A42     		cmp	r2, r3
 1019 034a F1D3     		bcc	.L29
 246:build/openmote-cc2538_armgcc/drivers/common/openserial.c ****     }
 247:build/openmote-cc2538_armgcc/drivers/common/openserial.c ****     outputHdlcWrite(channel);
 1020              		.loc 1 247 0 is_stmt 1
 1021 034c BB78     		ldrb	r3, [r7, #2]	@ zero_extendqisi2
 1022 034e 1846     		mov	r0, r3
 1023 0350 FFF7FEFF 		bl	outputHdlcWrite
 248:build/openmote-cc2538_armgcc/drivers/common/openserial.c ****     outputHdlcClose();
 1024              		.loc 1 248 0
 1025 0354 FFF7FEFF 		bl	outputHdlcClose
 249:build/openmote-cc2538_armgcc/drivers/common/openserial.c **** 
 250:build/openmote-cc2538_armgcc/drivers/common/openserial.c ****     ENABLE_INTERRUPTS();
 1026              		.loc 1 250 0
 1027 0358 FFF7FEFF 		bl	IntMasterEnable
 251:build/openmote-cc2538_armgcc/drivers/common/openserial.c **** 
 252:build/openmote-cc2538_armgcc/drivers/common/openserial.c ****     return E_SUCCESS;
 1028              		.loc 1 252 0
 1029 035c 0023     		movs	r3, #0
 253:build/openmote-cc2538_armgcc/drivers/common/openserial.c **** }
 1030              		.loc 1 253 0
 1031 035e 1846     		mov	r0, r3
 1032 0360 1037     		adds	r7, r7, #16
 1033              		.cfi_def_cfa_offset 8
 1034 0362 BD46     		mov	sp, r7
 1035              		.cfi_def_cfa_register 13
 1036              		@ sp needed
 1037 0364 80BD     		pop	{r7, pc}
 1038              	.L32:
 1039 0366 00BF     		.align	2
 1040              	.L31:
 1041 0368 00000000 		.word	openserial_vars
 1042              		.cfi_endproc
 1043              	.LFE7:
 1045              		.align	2
 1046              		.global	openserial_print_uint32_t
 1047              		.thumb
 1048              		.thumb_func
 1050              	openserial_print_uint32_t:
 1051              	.LFB8:
 254:build/openmote-cc2538_armgcc/drivers/common/openserial.c **** 
 255:build/openmote-cc2538_armgcc/drivers/common/openserial.c **** owerror_t openserial_print_uint32_t(uint32_t value) {
 1052              		.loc 1 255 0
 1053              		.cfi_startproc
 1054              		@ args = 0, pretend = 0, frame = 16
 1055              		@ frame_needed = 1, uses_anonymous_args = 0
 1056 036c 80B5     		push	{r7, lr}
 1057              		.cfi_def_cfa_offset 8
 1058              		.cfi_offset 7, -8
 1059              		.cfi_offset 14, -4
 1060 036e 84B0     		sub	sp, sp, #16
 1061              		.cfi_def_cfa_offset 24
 1062 0370 00AF     		add	r7, sp, #0
 1063              		.cfi_def_cfa_register 7
 1064 0372 7860     		str	r0, [r7, #4]
 256:build/openmote-cc2538_armgcc/drivers/common/openserial.c **** #ifdef OPENSERIAL_PRINTF
 257:build/openmote-cc2538_armgcc/drivers/common/openserial.c ****    uint8_t  i;
 258:build/openmote-cc2538_armgcc/drivers/common/openserial.c ****    uint8_t  pvalue[4];
 259:build/openmote-cc2538_armgcc/drivers/common/openserial.c ****    INTERRUPT_DECLARATION();
 260:build/openmote-cc2538_armgcc/drivers/common/openserial.c **** 
 261:build/openmote-cc2538_armgcc/drivers/common/openserial.c ****    DISABLE_INTERRUPTS();
 1065              		.loc 1 261 0
 1066 0374 FFF7FEFF 		bl	IntMasterDisable
 262:build/openmote-cc2538_armgcc/drivers/common/openserial.c ****    openserial_vars.outputBufFilled  = TRUE;
 1067              		.loc 1 262 0
 1068 0378 144B     		ldr	r3, .L37
 1069 037a 0122     		movs	r2, #1
 1070 037c 83F8DD20 		strb	r2, [r3, #221]
 263:build/openmote-cc2538_armgcc/drivers/common/openserial.c ****    outputHdlcOpen();
 1071              		.loc 1 263 0
 1072 0380 FFF7FEFF 		bl	outputHdlcOpen
 264:build/openmote-cc2538_armgcc/drivers/common/openserial.c ****    outputHdlcWrite(SERFRAME_MOTE2PC_PRINTF);
 1073              		.loc 1 264 0
 1074 0384 4620     		movs	r0, #70
 1075 0386 FFF7FEFF 		bl	outputHdlcWrite
 265:build/openmote-cc2538_armgcc/drivers/common/openserial.c ****    outputHdlcWrite(TYPE_INT);
 1076              		.loc 1 265 0
 1077 038a 0120     		movs	r0, #1
 1078 038c FFF7FEFF 		bl	outputHdlcWrite
 266:build/openmote-cc2538_armgcc/drivers/common/openserial.c ****    memcpy(pvalue, &value, 4);
 1079              		.loc 1 266 0
 1080 0390 7B68     		ldr	r3, [r7, #4]
 1081 0392 BB60     		str	r3, [r7, #8]
 267:build/openmote-cc2538_armgcc/drivers/common/openserial.c ****    for (i=0;i<4;i++)
 1082              		.loc 1 267 0
 1083 0394 0023     		movs	r3, #0
 1084 0396 FB73     		strb	r3, [r7, #15]
 1085 0398 0BE0     		b	.L34
 1086              	.L35:
 268:build/openmote-cc2538_armgcc/drivers/common/openserial.c ****       outputHdlcWrite(pvalue[i]);
 1087              		.loc 1 268 0 discriminator 3
 1088 039a FB7B     		ldrb	r3, [r7, #15]	@ zero_extendqisi2
 1089 039c 07F11002 		add	r2, r7, #16
 1090 03a0 1344     		add	r3, r3, r2
 1091 03a2 13F8083C 		ldrb	r3, [r3, #-8]	@ zero_extendqisi2
 1092 03a6 1846     		mov	r0, r3
 1093 03a8 FFF7FEFF 		bl	outputHdlcWrite
 267:build/openmote-cc2538_armgcc/drivers/common/openserial.c ****    for (i=0;i<4;i++)
 1094              		.loc 1 267 0 discriminator 3
 1095 03ac FB7B     		ldrb	r3, [r7, #15]	@ zero_extendqisi2
 1096 03ae 0133     		adds	r3, r3, #1
 1097 03b0 FB73     		strb	r3, [r7, #15]
 1098              	.L34:
 267:build/openmote-cc2538_armgcc/drivers/common/openserial.c ****    for (i=0;i<4;i++)
 1099              		.loc 1 267 0 is_stmt 0 discriminator 1
 1100 03b2 FB7B     		ldrb	r3, [r7, #15]	@ zero_extendqisi2
 1101 03b4 032B     		cmp	r3, #3
 1102 03b6 F0D9     		bls	.L35
 269:build/openmote-cc2538_armgcc/drivers/common/openserial.c ****    outputHdlcClose();
 1103              		.loc 1 269 0 is_stmt 1
 1104 03b8 FFF7FEFF 		bl	outputHdlcClose
 270:build/openmote-cc2538_armgcc/drivers/common/openserial.c ****    ENABLE_INTERRUPTS();
 1105              		.loc 1 270 0
 1106 03bc FFF7FEFF 		bl	IntMasterEnable
 271:build/openmote-cc2538_armgcc/drivers/common/openserial.c **** 
 272:build/openmote-cc2538_armgcc/drivers/common/openserial.c **** #endif
 273:build/openmote-cc2538_armgcc/drivers/common/openserial.c **** 
 274:build/openmote-cc2538_armgcc/drivers/common/openserial.c ****    return E_SUCCESS;
 1107              		.loc 1 274 0
 1108 03c0 0023     		movs	r3, #0
 275:build/openmote-cc2538_armgcc/drivers/common/openserial.c **** }
 1109              		.loc 1 275 0
 1110 03c2 1846     		mov	r0, r3
 1111 03c4 1037     		adds	r7, r7, #16
 1112              		.cfi_def_cfa_offset 8
 1113 03c6 BD46     		mov	sp, r7
 1114              		.cfi_def_cfa_register 13
 1115              		@ sp needed
 1116 03c8 80BD     		pop	{r7, pc}
 1117              	.L38:
 1118 03ca 00BF     		.align	2
 1119              	.L37:
 1120 03cc 00000000 		.word	openserial_vars
 1121              		.cfi_endproc
 1122              	.LFE8:
 1124              		.align	2
 1125              		.global	openserial_print_str
 1126              		.thumb
 1127              		.thumb_func
 1129              	openserial_print_str:
 1130              	.LFB9:
 276:build/openmote-cc2538_armgcc/drivers/common/openserial.c **** 
 277:build/openmote-cc2538_armgcc/drivers/common/openserial.c **** owerror_t openserial_print_str(char* buffer, uint8_t length) {
 1131              		.loc 1 277 0
 1132              		.cfi_startproc
 1133              		@ args = 0, pretend = 0, frame = 16
 1134              		@ frame_needed = 1, uses_anonymous_args = 0
 1135 03d0 80B5     		push	{r7, lr}
 1136              		.cfi_def_cfa_offset 8
 1137              		.cfi_offset 7, -8
 1138              		.cfi_offset 14, -4
 1139 03d2 84B0     		sub	sp, sp, #16
 1140              		.cfi_def_cfa_offset 24
 1141 03d4 00AF     		add	r7, sp, #0
 1142              		.cfi_def_cfa_register 7
 1143 03d6 7860     		str	r0, [r7, #4]
 1144 03d8 0B46     		mov	r3, r1
 1145 03da FB70     		strb	r3, [r7, #3]
 278:build/openmote-cc2538_armgcc/drivers/common/openserial.c **** #ifdef OPENSERIAL_PRINTF
 279:build/openmote-cc2538_armgcc/drivers/common/openserial.c ****    uint8_t  i;
 280:build/openmote-cc2538_armgcc/drivers/common/openserial.c ****    uint8_t  asn[5];
 281:build/openmote-cc2538_armgcc/drivers/common/openserial.c ****    INTERRUPT_DECLARATION();
 282:build/openmote-cc2538_armgcc/drivers/common/openserial.c **** 
 283:build/openmote-cc2538_armgcc/drivers/common/openserial.c ****    // retrieve ASN
 284:build/openmote-cc2538_armgcc/drivers/common/openserial.c ****    ieee154e_getAsn(asn);
 1146              		.loc 1 284 0
 1147 03dc 07F10803 		add	r3, r7, #8
 1148 03e0 1846     		mov	r0, r3
 1149 03e2 FFF7FEFF 		bl	ieee154e_getAsn
 285:build/openmote-cc2538_armgcc/drivers/common/openserial.c **** 
 286:build/openmote-cc2538_armgcc/drivers/common/openserial.c ****    DISABLE_INTERRUPTS();
 1150              		.loc 1 286 0
 1151 03e6 FFF7FEFF 		bl	IntMasterDisable
 287:build/openmote-cc2538_armgcc/drivers/common/openserial.c ****    openserial_vars.outputBufFilled  = TRUE;
 1152              		.loc 1 287 0
 1153 03ea 244B     		ldr	r3, .L45
 1154 03ec 0122     		movs	r2, #1
 1155 03ee 83F8DD20 		strb	r2, [r3, #221]
 288:build/openmote-cc2538_armgcc/drivers/common/openserial.c ****    outputHdlcOpen();
 1156              		.loc 1 288 0
 1157 03f2 FFF7FEFF 		bl	outputHdlcOpen
 289:build/openmote-cc2538_armgcc/drivers/common/openserial.c ****    outputHdlcWrite(SERFRAME_MOTE2PC_PRINTF);
 1158              		.loc 1 289 0
 1159 03f6 4620     		movs	r0, #70
 1160 03f8 FFF7FEFF 		bl	outputHdlcWrite
 290:build/openmote-cc2538_armgcc/drivers/common/openserial.c ****    outputHdlcWrite(TYPE_STR);
 1161              		.loc 1 290 0
 1162 03fc 0020     		movs	r0, #0
 1163 03fe FFF7FEFF 		bl	outputHdlcWrite
 291:build/openmote-cc2538_armgcc/drivers/common/openserial.c ****    outputHdlcWrite(idmanager_getMyID(ADDR_16B)->addr_16b[0]);
 1164              		.loc 1 291 0
 1165 0402 0120     		movs	r0, #1
 1166 0404 FFF7FEFF 		bl	idmanager_getMyID
 1167 0408 0346     		mov	r3, r0
 1168 040a 5B78     		ldrb	r3, [r3, #1]	@ zero_extendqisi2
 1169 040c 1846     		mov	r0, r3
 1170 040e FFF7FEFF 		bl	outputHdlcWrite
 292:build/openmote-cc2538_armgcc/drivers/common/openserial.c ****    outputHdlcWrite(idmanager_getMyID(ADDR_16B)->addr_16b[1]);
 1171              		.loc 1 292 0
 1172 0412 0120     		movs	r0, #1
 1173 0414 FFF7FEFF 		bl	idmanager_getMyID
 1174 0418 0346     		mov	r3, r0
 1175 041a 9B78     		ldrb	r3, [r3, #2]	@ zero_extendqisi2
 1176 041c 1846     		mov	r0, r3
 1177 041e FFF7FEFF 		bl	outputHdlcWrite
 293:build/openmote-cc2538_armgcc/drivers/common/openserial.c ****    for(i=0; i<5;i++)
 1178              		.loc 1 293 0
 1179 0422 0023     		movs	r3, #0
 1180 0424 FB73     		strb	r3, [r7, #15]
 1181 0426 0BE0     		b	.L40
 1182              	.L41:
 294:build/openmote-cc2538_armgcc/drivers/common/openserial.c ****        outputHdlcWrite(asn[i]);
 1183              		.loc 1 294 0 discriminator 3
 1184 0428 FB7B     		ldrb	r3, [r7, #15]	@ zero_extendqisi2
 1185 042a 07F11002 		add	r2, r7, #16
 1186 042e 1344     		add	r3, r3, r2
 1187 0430 13F8083C 		ldrb	r3, [r3, #-8]	@ zero_extendqisi2
 1188 0434 1846     		mov	r0, r3
 1189 0436 FFF7FEFF 		bl	outputHdlcWrite
 293:build/openmote-cc2538_armgcc/drivers/common/openserial.c ****    for(i=0; i<5;i++)
 1190              		.loc 1 293 0 discriminator 3
 1191 043a FB7B     		ldrb	r3, [r7, #15]	@ zero_extendqisi2
 1192 043c 0133     		adds	r3, r3, #1
 1193 043e FB73     		strb	r3, [r7, #15]
 1194              	.L40:
 293:build/openmote-cc2538_armgcc/drivers/common/openserial.c ****    for(i=0; i<5;i++)
 1195              		.loc 1 293 0 is_stmt 0 discriminator 1
 1196 0440 FB7B     		ldrb	r3, [r7, #15]	@ zero_extendqisi2
 1197 0442 042B     		cmp	r3, #4
 1198 0444 F0D9     		bls	.L41
 295:build/openmote-cc2538_armgcc/drivers/common/openserial.c ****    for (i=0;i<length;i++)
 1199              		.loc 1 295 0 is_stmt 1
 1200 0446 0023     		movs	r3, #0
 1201 0448 FB73     		strb	r3, [r7, #15]
 1202 044a 09E0     		b	.L42
 1203              	.L43:
 296:build/openmote-cc2538_armgcc/drivers/common/openserial.c ****       outputHdlcWrite(buffer[i]);
 1204              		.loc 1 296 0 discriminator 3
 1205 044c FB7B     		ldrb	r3, [r7, #15]	@ zero_extendqisi2
 1206 044e 7A68     		ldr	r2, [r7, #4]
 1207 0450 1344     		add	r3, r3, r2
 1208 0452 1B78     		ldrb	r3, [r3]	@ zero_extendqisi2
 1209 0454 1846     		mov	r0, r3
 1210 0456 FFF7FEFF 		bl	outputHdlcWrite
 295:build/openmote-cc2538_armgcc/drivers/common/openserial.c ****    for (i=0;i<length;i++)
 1211              		.loc 1 295 0 discriminator 3
 1212 045a FB7B     		ldrb	r3, [r7, #15]	@ zero_extendqisi2
 1213 045c 0133     		adds	r3, r3, #1
 1214 045e FB73     		strb	r3, [r7, #15]
 1215              	.L42:
 295:build/openmote-cc2538_armgcc/drivers/common/openserial.c ****    for (i=0;i<length;i++)
 1216              		.loc 1 295 0 is_stmt 0 discriminator 1
 1217 0460 FA7B     		ldrb	r2, [r7, #15]	@ zero_extendqisi2
 1218 0462 FB78     		ldrb	r3, [r7, #3]	@ zero_extendqisi2
 1219 0464 9A42     		cmp	r2, r3
 1220 0466 F1D3     		bcc	.L43
 297:build/openmote-cc2538_armgcc/drivers/common/openserial.c ****    outputHdlcClose();
 1221              		.loc 1 297 0 is_stmt 1
 1222 0468 FFF7FEFF 		bl	outputHdlcClose
 298:build/openmote-cc2538_armgcc/drivers/common/openserial.c ****    ENABLE_INTERRUPTS();
 1223              		.loc 1 298 0
 1224 046c FFF7FEFF 		bl	IntMasterEnable
 299:build/openmote-cc2538_armgcc/drivers/common/openserial.c **** 
 300:build/openmote-cc2538_armgcc/drivers/common/openserial.c **** #endif
 301:build/openmote-cc2538_armgcc/drivers/common/openserial.c **** 
 302:build/openmote-cc2538_armgcc/drivers/common/openserial.c ****    return E_SUCCESS;
 1225              		.loc 1 302 0
 1226 0470 0023     		movs	r3, #0
 303:build/openmote-cc2538_armgcc/drivers/common/openserial.c **** }
 1227              		.loc 1 303 0
 1228 0472 1846     		mov	r0, r3
 1229 0474 1037     		adds	r7, r7, #16
 1230              		.cfi_def_cfa_offset 8
 1231 0476 BD46     		mov	sp, r7
 1232              		.cfi_def_cfa_register 13
 1233              		@ sp needed
 1234 0478 80BD     		pop	{r7, pc}
 1235              	.L46:
 1236 047a 00BF     		.align	2
 1237              	.L45:
 1238 047c 00000000 		.word	openserial_vars
 1239              		.cfi_endproc
 1240              	.LFE9:
 1242              		.align	2
 1243              		.global	openserial_getInputBufferFilllevel
 1244              		.thumb
 1245              		.thumb_func
 1247              	openserial_getInputBufferFilllevel:
 1248              	.LFB10:
 304:build/openmote-cc2538_armgcc/drivers/common/openserial.c **** 
 305:build/openmote-cc2538_armgcc/drivers/common/openserial.c **** //===== retrieving inputBuffer
 306:build/openmote-cc2538_armgcc/drivers/common/openserial.c **** 
 307:build/openmote-cc2538_armgcc/drivers/common/openserial.c **** uint8_t openserial_getInputBufferFilllevel(void) {
 1249              		.loc 1 307 0
 1250              		.cfi_startproc
 1251              		@ args = 0, pretend = 0, frame = 8
 1252              		@ frame_needed = 1, uses_anonymous_args = 0
 1253 0480 80B5     		push	{r7, lr}
 1254              		.cfi_def_cfa_offset 8
 1255              		.cfi_offset 7, -8
 1256              		.cfi_offset 14, -4
 1257 0482 82B0     		sub	sp, sp, #8
 1258              		.cfi_def_cfa_offset 16
 1259 0484 00AF     		add	r7, sp, #0
 1260              		.cfi_def_cfa_register 7
 308:build/openmote-cc2538_armgcc/drivers/common/openserial.c ****     uint8_t inputBufFill;
 309:build/openmote-cc2538_armgcc/drivers/common/openserial.c ****     INTERRUPT_DECLARATION();
 310:build/openmote-cc2538_armgcc/drivers/common/openserial.c **** 
 311:build/openmote-cc2538_armgcc/drivers/common/openserial.c ****     DISABLE_INTERRUPTS();
 1261              		.loc 1 311 0
 1262 0486 FFF7FEFF 		bl	IntMasterDisable
 312:build/openmote-cc2538_armgcc/drivers/common/openserial.c ****     inputBufFill = openserial_vars.inputBufFill;
 1263              		.loc 1 312 0
 1264 048a 064B     		ldr	r3, .L49
 1265 048c 1B7D     		ldrb	r3, [r3, #20]
 1266 048e FB71     		strb	r3, [r7, #7]
 313:build/openmote-cc2538_armgcc/drivers/common/openserial.c ****     ENABLE_INTERRUPTS();
 1267              		.loc 1 313 0
 1268 0490 FFF7FEFF 		bl	IntMasterEnable
 314:build/openmote-cc2538_armgcc/drivers/common/openserial.c **** 
 315:build/openmote-cc2538_armgcc/drivers/common/openserial.c ****     return inputBufFill-1; // removing the command byte
 1269              		.loc 1 315 0
 1270 0494 FB79     		ldrb	r3, [r7, #7]
 1271 0496 013B     		subs	r3, r3, #1
 1272 0498 DBB2     		uxtb	r3, r3
 316:build/openmote-cc2538_armgcc/drivers/common/openserial.c **** }
 1273              		.loc 1 316 0
 1274 049a 1846     		mov	r0, r3
 1275 049c 0837     		adds	r7, r7, #8
 1276              		.cfi_def_cfa_offset 8
 1277 049e BD46     		mov	sp, r7
 1278              		.cfi_def_cfa_register 13
 1279              		@ sp needed
 1280 04a0 80BD     		pop	{r7, pc}
 1281              	.L50:
 1282 04a2 00BF     		.align	2
 1283              	.L49:
 1284 04a4 00000000 		.word	openserial_vars
 1285              		.cfi_endproc
 1286              	.LFE10:
 1288              		.align	2
 1289              		.global	openserial_getInputBuffer
 1290              		.thumb
 1291              		.thumb_func
 1293              	openserial_getInputBuffer:
 1294              	.LFB11:
 317:build/openmote-cc2538_armgcc/drivers/common/openserial.c **** 
 318:build/openmote-cc2538_armgcc/drivers/common/openserial.c **** uint8_t openserial_getInputBuffer(uint8_t* bufferToWrite, uint8_t maxNumBytes) {
 1295              		.loc 1 318 0
 1296              		.cfi_startproc
 1297              		@ args = 0, pretend = 0, frame = 16
 1298              		@ frame_needed = 1, uses_anonymous_args = 0
 1299 04a8 80B5     		push	{r7, lr}
 1300              		.cfi_def_cfa_offset 8
 1301              		.cfi_offset 7, -8
 1302              		.cfi_offset 14, -4
 1303 04aa 84B0     		sub	sp, sp, #16
 1304              		.cfi_def_cfa_offset 24
 1305 04ac 00AF     		add	r7, sp, #0
 1306              		.cfi_def_cfa_register 7
 1307 04ae 7860     		str	r0, [r7, #4]
 1308 04b0 0B46     		mov	r3, r1
 1309 04b2 FB70     		strb	r3, [r7, #3]
 319:build/openmote-cc2538_armgcc/drivers/common/openserial.c ****     uint8_t numBytesWritten;
 320:build/openmote-cc2538_armgcc/drivers/common/openserial.c ****     uint8_t inputBufFill;
 321:build/openmote-cc2538_armgcc/drivers/common/openserial.c ****     INTERRUPT_DECLARATION();
 322:build/openmote-cc2538_armgcc/drivers/common/openserial.c **** 
 323:build/openmote-cc2538_armgcc/drivers/common/openserial.c ****     DISABLE_INTERRUPTS();
 1310              		.loc 1 323 0
 1311 04b4 FFF7FEFF 		bl	IntMasterDisable
 324:build/openmote-cc2538_armgcc/drivers/common/openserial.c ****     inputBufFill = openserial_vars.inputBufFill;
 1312              		.loc 1 324 0
 1313 04b8 124B     		ldr	r3, .L55
 1314 04ba 1B7D     		ldrb	r3, [r3, #20]
 1315 04bc BB73     		strb	r3, [r7, #14]
 325:build/openmote-cc2538_armgcc/drivers/common/openserial.c ****     ENABLE_INTERRUPTS();
 1316              		.loc 1 325 0
 1317 04be FFF7FEFF 		bl	IntMasterEnable
 326:build/openmote-cc2538_armgcc/drivers/common/openserial.c **** 
 327:build/openmote-cc2538_armgcc/drivers/common/openserial.c ****     if (maxNumBytes<inputBufFill-1) {
 1318              		.loc 1 327 0
 1319 04c2 FA78     		ldrb	r2, [r7, #3]	@ zero_extendqisi2
 1320 04c4 BB7B     		ldrb	r3, [r7, #14]	@ zero_extendqisi2
 1321 04c6 013B     		subs	r3, r3, #1
 1322 04c8 9A42     		cmp	r2, r3
 1323 04ca 0CDA     		bge	.L52
 328:build/openmote-cc2538_armgcc/drivers/common/openserial.c ****         openserial_printError(
 1324              		.loc 1 328 0
 1325 04cc FB78     		ldrb	r3, [r7, #3]	@ zero_extendqisi2
 1326 04ce 9AB2     		uxth	r2, r3
 1327 04d0 BB7B     		ldrb	r3, [r7, #14]	@ zero_extendqisi2
 1328 04d2 9BB2     		uxth	r3, r3
 1329 04d4 013B     		subs	r3, r3, #1
 1330 04d6 9BB2     		uxth	r3, r3
 1331 04d8 0420     		movs	r0, #4
 1332 04da 0321     		movs	r1, #3
 1333 04dc FFF7FEFF 		bl	openserial_printError
 329:build/openmote-cc2538_armgcc/drivers/common/openserial.c ****             COMPONENT_OPENSERIAL,
 330:build/openmote-cc2538_armgcc/drivers/common/openserial.c ****             ERR_GETDATA_ASKS_TOO_FEW_BYTES,
 331:build/openmote-cc2538_armgcc/drivers/common/openserial.c ****             (errorparameter_t)maxNumBytes,
 332:build/openmote-cc2538_armgcc/drivers/common/openserial.c ****             (errorparameter_t)inputBufFill-1
 333:build/openmote-cc2538_armgcc/drivers/common/openserial.c ****         );
 334:build/openmote-cc2538_armgcc/drivers/common/openserial.c ****         numBytesWritten = 0;
 1334              		.loc 1 334 0
 1335 04e0 0023     		movs	r3, #0
 1336 04e2 FB73     		strb	r3, [r7, #15]
 1337 04e4 08E0     		b	.L53
 1338              	.L52:
 335:build/openmote-cc2538_armgcc/drivers/common/openserial.c ****     } else {
 336:build/openmote-cc2538_armgcc/drivers/common/openserial.c ****         numBytesWritten = inputBufFill-1;
 1339              		.loc 1 336 0
 1340 04e6 BB7B     		ldrb	r3, [r7, #14]
 1341 04e8 013B     		subs	r3, r3, #1
 1342 04ea FB73     		strb	r3, [r7, #15]
 337:build/openmote-cc2538_armgcc/drivers/common/openserial.c ****         memcpy(bufferToWrite,&(openserial_vars.inputBuf[1]),numBytesWritten);
 1343              		.loc 1 337 0
 1344 04ec FB7B     		ldrb	r3, [r7, #15]	@ zero_extendqisi2
 1345 04ee 7868     		ldr	r0, [r7, #4]
 1346 04f0 0549     		ldr	r1, .L55+4
 1347 04f2 1A46     		mov	r2, r3
 1348 04f4 FFF7FEFF 		bl	memcpy
 1349              	.L53:
 338:build/openmote-cc2538_armgcc/drivers/common/openserial.c ****     }
 339:build/openmote-cc2538_armgcc/drivers/common/openserial.c **** 
 340:build/openmote-cc2538_armgcc/drivers/common/openserial.c ****     return numBytesWritten;
 1350              		.loc 1 340 0
 1351 04f8 FB7B     		ldrb	r3, [r7, #15]	@ zero_extendqisi2
 341:build/openmote-cc2538_armgcc/drivers/common/openserial.c **** }
 1352              		.loc 1 341 0
 1353 04fa 1846     		mov	r0, r3
 1354 04fc 1037     		adds	r7, r7, #16
 1355              		.cfi_def_cfa_offset 8
 1356 04fe BD46     		mov	sp, r7
 1357              		.cfi_def_cfa_register 13
 1358              		@ sp needed
 1359 0500 80BD     		pop	{r7, pc}
 1360              	.L56:
 1361 0502 00BF     		.align	2
 1362              	.L55:
 1363 0504 00000000 		.word	openserial_vars
 1364 0508 16000000 		.word	openserial_vars+22
 1365              		.cfi_endproc
 1366              	.LFE11:
 1368              		.align	2
 1369              		.global	openserial_startInput
 1370              		.thumb
 1371              		.thumb_func
 1373              	openserial_startInput:
 1374              	.LFB12:
 342:build/openmote-cc2538_armgcc/drivers/common/openserial.c **** 
 343:build/openmote-cc2538_armgcc/drivers/common/openserial.c **** //===== scheduling
 344:build/openmote-cc2538_armgcc/drivers/common/openserial.c **** 
 345:build/openmote-cc2538_armgcc/drivers/common/openserial.c **** void openserial_startInput(void) {
 1375              		.loc 1 345 0
 1376              		.cfi_startproc
 1377              		@ args = 0, pretend = 0, frame = 0
 1378              		@ frame_needed = 1, uses_anonymous_args = 0
 1379 050c 80B5     		push	{r7, lr}
 1380              		.cfi_def_cfa_offset 8
 1381              		.cfi_offset 7, -8
 1382              		.cfi_offset 14, -4
 1383 050e 00AF     		add	r7, sp, #0
 1384              		.cfi_def_cfa_register 7
 346:build/openmote-cc2538_armgcc/drivers/common/openserial.c ****     INTERRUPT_DECLARATION();
 347:build/openmote-cc2538_armgcc/drivers/common/openserial.c **** 
 348:build/openmote-cc2538_armgcc/drivers/common/openserial.c ****     if (openserial_vars.inputBufFill>0) {
 1385              		.loc 1 348 0
 1386 0510 184B     		ldr	r3, .L59
 1387 0512 1B7D     		ldrb	r3, [r3, #20]	@ zero_extendqisi2
 1388 0514 002B     		cmp	r3, #0
 1389 0516 0FD0     		beq	.L58
 349:build/openmote-cc2538_armgcc/drivers/common/openserial.c ****         openserial_printError(
 350:build/openmote-cc2538_armgcc/drivers/common/openserial.c ****             COMPONENT_OPENSERIAL,
 351:build/openmote-cc2538_armgcc/drivers/common/openserial.c ****             ERR_INPUTBUFFER_LENGTH,
 352:build/openmote-cc2538_armgcc/drivers/common/openserial.c ****             (errorparameter_t)openserial_vars.inputBufFill,
 1390              		.loc 1 352 0
 1391 0518 164B     		ldr	r3, .L59
 1392 051a 1B7D     		ldrb	r3, [r3, #20]	@ zero_extendqisi2
 349:build/openmote-cc2538_armgcc/drivers/common/openserial.c ****         openserial_printError(
 1393              		.loc 1 349 0
 1394 051c 9BB2     		uxth	r3, r3
 1395 051e 0420     		movs	r0, #4
 1396 0520 3421     		movs	r1, #52
 1397 0522 1A46     		mov	r2, r3
 1398 0524 0023     		movs	r3, #0
 1399 0526 FFF7FEFF 		bl	openserial_printError
 353:build/openmote-cc2538_armgcc/drivers/common/openserial.c ****             (errorparameter_t)0
 354:build/openmote-cc2538_armgcc/drivers/common/openserial.c ****         );
 355:build/openmote-cc2538_armgcc/drivers/common/openserial.c ****         DISABLE_INTERRUPTS();
 1400              		.loc 1 355 0
 1401 052a FFF7FEFF 		bl	IntMasterDisable
 356:build/openmote-cc2538_armgcc/drivers/common/openserial.c ****         openserial_vars.inputBufFill=0;
 1402              		.loc 1 356 0
 1403 052e 114B     		ldr	r3, .L59
 1404 0530 0022     		movs	r2, #0
 1405 0532 1A75     		strb	r2, [r3, #20]
 357:build/openmote-cc2538_armgcc/drivers/common/openserial.c ****         ENABLE_INTERRUPTS();
 1406              		.loc 1 357 0
 1407 0534 FFF7FEFF 		bl	IntMasterEnable
 1408              	.L58:
 358:build/openmote-cc2538_armgcc/drivers/common/openserial.c ****     }
 359:build/openmote-cc2538_armgcc/drivers/common/openserial.c **** 
 360:build/openmote-cc2538_armgcc/drivers/common/openserial.c ****     uart_clearTxInterrupts();
 1409              		.loc 1 360 0
 1410 0538 FFF7FEFF 		bl	uart_clearTxInterrupts
 361:build/openmote-cc2538_armgcc/drivers/common/openserial.c ****     uart_clearRxInterrupts();      // clear possible pending interrupts
 1411              		.loc 1 361 0
 1412 053c FFF7FEFF 		bl	uart_clearRxInterrupts
 362:build/openmote-cc2538_armgcc/drivers/common/openserial.c ****     uart_enableInterrupts();       // Enable USCI_A1 TX & RX interrupt
 1413              		.loc 1 362 0
 1414 0540 FFF7FEFF 		bl	uart_enableInterrupts
 363:build/openmote-cc2538_armgcc/drivers/common/openserial.c **** 
 364:build/openmote-cc2538_armgcc/drivers/common/openserial.c ****     DISABLE_INTERRUPTS();
 1415              		.loc 1 364 0
 1416 0544 FFF7FEFF 		bl	IntMasterDisable
 365:build/openmote-cc2538_armgcc/drivers/common/openserial.c ****     openserial_vars.busyReceiving  = FALSE;
 1417              		.loc 1 365 0
 1418 0548 0A4B     		ldr	r3, .L59
 1419 054a 0022     		movs	r2, #0
 1420 054c DA73     		strb	r2, [r3, #15]
 366:build/openmote-cc2538_armgcc/drivers/common/openserial.c ****     openserial_vars.mode           = MODE_INPUT;
 1421              		.loc 1 366 0
 1422 054e 094B     		ldr	r3, .L59
 1423 0550 0122     		movs	r2, #1
 1424 0552 1A70     		strb	r2, [r3]
 367:build/openmote-cc2538_armgcc/drivers/common/openserial.c ****     openserial_vars.reqFrameIdx    = 0;
 1425              		.loc 1 367 0
 1426 0554 074B     		ldr	r3, .L59
 1427 0556 0022     		movs	r2, #0
 1428 0558 5A73     		strb	r2, [r3, #13]
 368:build/openmote-cc2538_armgcc/drivers/common/openserial.c **** #ifdef FASTSIM
 369:build/openmote-cc2538_armgcc/drivers/common/openserial.c ****     uart_writeBufferByLen_FASTSIM(
 370:build/openmote-cc2538_armgcc/drivers/common/openserial.c ****         openserial_vars.reqFrame,
 371:build/openmote-cc2538_armgcc/drivers/common/openserial.c ****         sizeof(openserial_vars.reqFrame)
 372:build/openmote-cc2538_armgcc/drivers/common/openserial.c ****     );
 373:build/openmote-cc2538_armgcc/drivers/common/openserial.c ****     openserial_vars.reqFrameIdx = sizeof(openserial_vars.reqFrame);
 374:build/openmote-cc2538_armgcc/drivers/common/openserial.c **** #else
 375:build/openmote-cc2538_armgcc/drivers/common/openserial.c ****     uart_writeByte(openserial_vars.reqFrame[openserial_vars.reqFrameIdx]);
 1429              		.loc 1 375 0
 1430 055a 064B     		ldr	r3, .L59
 1431 055c 5B7B     		ldrb	r3, [r3, #13]	@ zero_extendqisi2
 1432 055e 1A46     		mov	r2, r3
 1433 0560 044B     		ldr	r3, .L59
 1434 0562 1344     		add	r3, r3, r2
 1435 0564 1B7A     		ldrb	r3, [r3, #8]	@ zero_extendqisi2
 1436 0566 1846     		mov	r0, r3
 1437 0568 FFF7FEFF 		bl	uart_writeByte
 376:build/openmote-cc2538_armgcc/drivers/common/openserial.c **** #endif
 377:build/openmote-cc2538_armgcc/drivers/common/openserial.c ****     ENABLE_INTERRUPTS();
 1438              		.loc 1 377 0
 1439 056c FFF7FEFF 		bl	IntMasterEnable
 378:build/openmote-cc2538_armgcc/drivers/common/openserial.c **** }
 1440              		.loc 1 378 0
 1441 0570 80BD     		pop	{r7, pc}
 1442              	.L60:
 1443 0572 00BF     		.align	2
 1444              	.L59:
 1445 0574 00000000 		.word	openserial_vars
 1446              		.cfi_endproc
 1447              	.LFE12:
 1449              		.align	2
 1450              		.global	openserial_startOutput
 1451              		.thumb
 1452              		.thumb_func
 1454              	openserial_startOutput:
 1455              	.LFB13:
 379:build/openmote-cc2538_armgcc/drivers/common/openserial.c **** 
 380:build/openmote-cc2538_armgcc/drivers/common/openserial.c **** void openserial_startOutput(void) {
 1456              		.loc 1 380 0
 1457              		.cfi_startproc
 1458              		@ args = 0, pretend = 0, frame = 8
 1459              		@ frame_needed = 1, uses_anonymous_args = 0
 1460 0578 80B5     		push	{r7, lr}
 1461              		.cfi_def_cfa_offset 8
 1462              		.cfi_offset 7, -8
 1463              		.cfi_offset 14, -4
 1464 057a 82B0     		sub	sp, sp, #8
 1465              		.cfi_def_cfa_offset 16
 1466 057c 00AF     		add	r7, sp, #0
 1467              		.cfi_def_cfa_register 7
 381:build/openmote-cc2538_armgcc/drivers/common/openserial.c ****     uint8_t debugPrintCounter;
 382:build/openmote-cc2538_armgcc/drivers/common/openserial.c ****     INTERRUPT_DECLARATION();
 383:build/openmote-cc2538_armgcc/drivers/common/openserial.c **** 
 384:build/openmote-cc2538_armgcc/drivers/common/openserial.c ****     //=== made modules print debug information
 385:build/openmote-cc2538_armgcc/drivers/common/openserial.c **** 
 386:build/openmote-cc2538_armgcc/drivers/common/openserial.c ****     DISABLE_INTERRUPTS();
 1468              		.loc 1 386 0
 1469 057e FFF7FEFF 		bl	IntMasterDisable
 387:build/openmote-cc2538_armgcc/drivers/common/openserial.c ****     openserial_vars.debugPrintCounter = (openserial_vars.debugPrintCounter+1)%STATUS_MAX;
 1470              		.loc 1 387 0
 1471 0582 564B     		ldr	r3, .L79
 1472 0584 5B78     		ldrb	r3, [r3, #1]	@ zero_extendqisi2
 1473 0586 5A1C     		adds	r2, r3, #1
 1474 0588 554B     		ldr	r3, .L79+4
 1475 058a 83FB0213 		smull	r1, r3, r3, r2
 1476 058e 5910     		asrs	r1, r3, #1
 1477 0590 D317     		asrs	r3, r2, #31
 1478 0592 C91A     		subs	r1, r1, r3
 1479 0594 0B46     		mov	r3, r1
 1480 0596 5B00     		lsls	r3, r3, #1
 1481 0598 0B44     		add	r3, r3, r1
 1482 059a 9B00     		lsls	r3, r3, #2
 1483 059c D11A     		subs	r1, r2, r3
 1484 059e CAB2     		uxtb	r2, r1
 1485 05a0 4E4B     		ldr	r3, .L79
 1486 05a2 5A70     		strb	r2, [r3, #1]
 388:build/openmote-cc2538_armgcc/drivers/common/openserial.c ****     debugPrintCounter = openserial_vars.debugPrintCounter;
 1487              		.loc 1 388 0
 1488 05a4 4D4B     		ldr	r3, .L79
 1489 05a6 5B78     		ldrb	r3, [r3, #1]
 1490 05a8 FB71     		strb	r3, [r7, #7]
 389:build/openmote-cc2538_armgcc/drivers/common/openserial.c ****     ENABLE_INTERRUPTS();
 1491              		.loc 1 389 0
 1492 05aa FFF7FEFF 		bl	IntMasterEnable
 390:build/openmote-cc2538_armgcc/drivers/common/openserial.c **** 
 391:build/openmote-cc2538_armgcc/drivers/common/openserial.c ****     switch (debugPrintCounter) {
 1493              		.loc 1 391 0
 1494 05ae FB79     		ldrb	r3, [r7, #7]	@ zero_extendqisi2
 1495 05b0 0B2B     		cmp	r3, #11
 1496 05b2 63D8     		bhi	.L62
 1497 05b4 01A2     		adr	r2, .L64
 1498 05b6 52F823F0 		ldr	pc, [r2, r3, lsl #2]
 1499 05ba 00BF     		.p2align 2
 1500              	.L64:
 1501 05bc ED050000 		.word	.L63+1
 1502 05c0 F9050000 		.word	.L65+1
 1503 05c4 05060000 		.word	.L66+1
 1504 05c8 11060000 		.word	.L67+1
 1505 05cc 1D060000 		.word	.L68+1
 1506 05d0 29060000 		.word	.L69+1
 1507 05d4 35060000 		.word	.L70+1
 1508 05d8 41060000 		.word	.L71+1
 1509 05dc 4D060000 		.word	.L72+1
 1510 05e0 59060000 		.word	.L73+1
 1511 05e4 65060000 		.word	.L74+1
 1512 05e8 71060000 		.word	.L75+1
 1513              		.p2align 1
 1514              	.L63:
 392:build/openmote-cc2538_armgcc/drivers/common/openserial.c ****         case STATUS_ISSYNC:
 393:build/openmote-cc2538_armgcc/drivers/common/openserial.c ****             if (debugPrint_isSync()==TRUE) {
 1515              		.loc 1 393 0
 1516 05ec FFF7FEFF 		bl	debugPrint_isSync
 1517 05f0 0346     		mov	r3, r0
 1518 05f2 002B     		cmp	r3, #0
 1519 05f4 00D0     		beq	.L65
 394:build/openmote-cc2538_armgcc/drivers/common/openserial.c ****                 break;
 1520              		.loc 1 394 0
 1521 05f6 48E0     		b	.L76
 1522              	.L65:
 395:build/openmote-cc2538_armgcc/drivers/common/openserial.c ****             }
 396:build/openmote-cc2538_armgcc/drivers/common/openserial.c ****         case STATUS_ID:
 397:build/openmote-cc2538_armgcc/drivers/common/openserial.c ****             if (debugPrint_id()==TRUE) {
 1523              		.loc 1 397 0
 1524 05f8 FFF7FEFF 		bl	debugPrint_id
 1525 05fc 0346     		mov	r3, r0
 1526 05fe 002B     		cmp	r3, #0
 1527 0600 00D0     		beq	.L66
 398:build/openmote-cc2538_armgcc/drivers/common/openserial.c ****                break;
 1528              		.loc 1 398 0
 1529 0602 42E0     		b	.L76
 1530              	.L66:
 399:build/openmote-cc2538_armgcc/drivers/common/openserial.c ****             }
 400:build/openmote-cc2538_armgcc/drivers/common/openserial.c ****         case STATUS_DAGRANK:
 401:build/openmote-cc2538_armgcc/drivers/common/openserial.c ****             if (debugPrint_myDAGrank()==TRUE) {
 1531              		.loc 1 401 0
 1532 0604 FFF7FEFF 		bl	debugPrint_myDAGrank
 1533 0608 0346     		mov	r3, r0
 1534 060a 002B     		cmp	r3, #0
 1535 060c 00D0     		beq	.L67
 402:build/openmote-cc2538_armgcc/drivers/common/openserial.c ****                 break;
 1536              		.loc 1 402 0
 1537 060e 3CE0     		b	.L76
 1538              	.L67:
 403:build/openmote-cc2538_armgcc/drivers/common/openserial.c ****             }
 404:build/openmote-cc2538_armgcc/drivers/common/openserial.c ****         case STATUS_OUTBUFFERINDEXES:
 405:build/openmote-cc2538_armgcc/drivers/common/openserial.c ****             if (debugPrint_outBufferIndexes()==TRUE) {
 1539              		.loc 1 405 0
 1540 0610 FFF7FEFF 		bl	debugPrint_outBufferIndexes
 1541 0614 0346     		mov	r3, r0
 1542 0616 002B     		cmp	r3, #0
 1543 0618 00D0     		beq	.L68
 406:build/openmote-cc2538_armgcc/drivers/common/openserial.c ****                 break;
 1544              		.loc 1 406 0
 1545 061a 36E0     		b	.L76
 1546              	.L68:
 407:build/openmote-cc2538_armgcc/drivers/common/openserial.c ****             }
 408:build/openmote-cc2538_armgcc/drivers/common/openserial.c ****         case STATUS_ASN:
 409:build/openmote-cc2538_armgcc/drivers/common/openserial.c ****             if (debugPrint_asn()==TRUE) {
 1547              		.loc 1 409 0
 1548 061c FFF7FEFF 		bl	debugPrint_asn
 1549 0620 0346     		mov	r3, r0
 1550 0622 002B     		cmp	r3, #0
 1551 0624 00D0     		beq	.L69
 410:build/openmote-cc2538_armgcc/drivers/common/openserial.c ****                 break;
 1552              		.loc 1 410 0
 1553 0626 30E0     		b	.L76
 1554              	.L69:
 411:build/openmote-cc2538_armgcc/drivers/common/openserial.c ****             }
 412:build/openmote-cc2538_armgcc/drivers/common/openserial.c ****         case STATUS_MACSTATS:
 413:build/openmote-cc2538_armgcc/drivers/common/openserial.c ****             if (debugPrint_macStats()==TRUE) {
 1555              		.loc 1 413 0
 1556 0628 FFF7FEFF 		bl	debugPrint_macStats
 1557 062c 0346     		mov	r3, r0
 1558 062e 002B     		cmp	r3, #0
 1559 0630 00D0     		beq	.L70
 414:build/openmote-cc2538_armgcc/drivers/common/openserial.c ****                 break;
 1560              		.loc 1 414 0
 1561 0632 2AE0     		b	.L76
 1562              	.L70:
 415:build/openmote-cc2538_armgcc/drivers/common/openserial.c ****             }
 416:build/openmote-cc2538_armgcc/drivers/common/openserial.c ****         case STATUS_SCHEDULE:
 417:build/openmote-cc2538_armgcc/drivers/common/openserial.c ****             if(debugPrint_schedule()==TRUE) {
 1563              		.loc 1 417 0
 1564 0634 FFF7FEFF 		bl	debugPrint_schedule
 1565 0638 0346     		mov	r3, r0
 1566 063a 002B     		cmp	r3, #0
 1567 063c 00D0     		beq	.L71
 418:build/openmote-cc2538_armgcc/drivers/common/openserial.c ****                 break;
 1568              		.loc 1 418 0
 1569 063e 24E0     		b	.L76
 1570              	.L71:
 419:build/openmote-cc2538_armgcc/drivers/common/openserial.c ****             }
 420:build/openmote-cc2538_armgcc/drivers/common/openserial.c ****         case STATUS_BACKOFF:
 421:build/openmote-cc2538_armgcc/drivers/common/openserial.c ****             if(debugPrint_backoff()==TRUE) {
 1571              		.loc 1 421 0
 1572 0640 FFF7FEFF 		bl	debugPrint_backoff
 1573 0644 0346     		mov	r3, r0
 1574 0646 002B     		cmp	r3, #0
 1575 0648 00D0     		beq	.L72
 422:build/openmote-cc2538_armgcc/drivers/common/openserial.c ****                 break;
 1576              		.loc 1 422 0
 1577 064a 1EE0     		b	.L76
 1578              	.L72:
 423:build/openmote-cc2538_armgcc/drivers/common/openserial.c ****             }
 424:build/openmote-cc2538_armgcc/drivers/common/openserial.c ****         case STATUS_QUEUE:
 425:build/openmote-cc2538_armgcc/drivers/common/openserial.c ****             if(debugPrint_queue()==TRUE) {
 1579              		.loc 1 425 0
 1580 064c FFF7FEFF 		bl	debugPrint_queue
 1581 0650 0346     		mov	r3, r0
 1582 0652 002B     		cmp	r3, #0
 1583 0654 00D0     		beq	.L73
 426:build/openmote-cc2538_armgcc/drivers/common/openserial.c ****                 break;
 1584              		.loc 1 426 0
 1585 0656 18E0     		b	.L76
 1586              	.L73:
 427:build/openmote-cc2538_armgcc/drivers/common/openserial.c ****             }
 428:build/openmote-cc2538_armgcc/drivers/common/openserial.c ****         case STATUS_NEIGHBORS:
 429:build/openmote-cc2538_armgcc/drivers/common/openserial.c ****             if (debugPrint_neighbors()==TRUE) {
 1587              		.loc 1 429 0
 1588 0658 FFF7FEFF 		bl	debugPrint_neighbors
 1589 065c 0346     		mov	r3, r0
 1590 065e 002B     		cmp	r3, #0
 1591 0660 00D0     		beq	.L74
 430:build/openmote-cc2538_armgcc/drivers/common/openserial.c ****                 break;
 1592              		.loc 1 430 0
 1593 0662 12E0     		b	.L76
 1594              	.L74:
 431:build/openmote-cc2538_armgcc/drivers/common/openserial.c ****             }
 432:build/openmote-cc2538_armgcc/drivers/common/openserial.c ****         case STATUS_KAPERIOD:
 433:build/openmote-cc2538_armgcc/drivers/common/openserial.c ****             if (debugPrint_kaPeriod()==TRUE) {
 1595              		.loc 1 433 0
 1596 0664 FFF7FEFF 		bl	debugPrint_kaPeriod
 1597 0668 0346     		mov	r3, r0
 1598 066a 002B     		cmp	r3, #0
 1599 066c 00D0     		beq	.L75
 434:build/openmote-cc2538_armgcc/drivers/common/openserial.c ****                 break;
 1600              		.loc 1 434 0
 1601 066e 0CE0     		b	.L76
 1602              	.L75:
 435:build/openmote-cc2538_armgcc/drivers/common/openserial.c ****             }
 436:build/openmote-cc2538_armgcc/drivers/common/openserial.c ****         case STATUS_JOINED:
 437:build/openmote-cc2538_armgcc/drivers/common/openserial.c ****             if (debugPrint_joined()==TRUE) {
 1603              		.loc 1 437 0
 1604 0670 FFF7FEFF 		bl	debugPrint_joined
 1605 0674 0346     		mov	r3, r0
 1606 0676 002B     		cmp	r3, #0
 1607 0678 00D0     		beq	.L62
 438:build/openmote-cc2538_armgcc/drivers/common/openserial.c ****                 break;
 1608              		.loc 1 438 0
 1609 067a 06E0     		b	.L76
 1610              	.L62:
 439:build/openmote-cc2538_armgcc/drivers/common/openserial.c ****             }
 440:build/openmote-cc2538_armgcc/drivers/common/openserial.c ****         default:
 441:build/openmote-cc2538_armgcc/drivers/common/openserial.c ****             DISABLE_INTERRUPTS();
 1611              		.loc 1 441 0
 1612 067c FFF7FEFF 		bl	IntMasterDisable
 442:build/openmote-cc2538_armgcc/drivers/common/openserial.c ****             openserial_vars.debugPrintCounter=0;
 1613              		.loc 1 442 0
 1614 0680 164B     		ldr	r3, .L79
 1615 0682 0022     		movs	r2, #0
 1616 0684 5A70     		strb	r2, [r3, #1]
 443:build/openmote-cc2538_armgcc/drivers/common/openserial.c ****             ENABLE_INTERRUPTS();
 1617              		.loc 1 443 0
 1618 0686 FFF7FEFF 		bl	IntMasterEnable
 1619              	.L76:
 444:build/openmote-cc2538_armgcc/drivers/common/openserial.c ****     }
 445:build/openmote-cc2538_armgcc/drivers/common/openserial.c **** 
 446:build/openmote-cc2538_armgcc/drivers/common/openserial.c ****     //=== flush TX buffer
 447:build/openmote-cc2538_armgcc/drivers/common/openserial.c **** 
 448:build/openmote-cc2538_armgcc/drivers/common/openserial.c ****     uart_clearTxInterrupts();
 1620              		.loc 1 448 0
 1621 068a FFF7FEFF 		bl	uart_clearTxInterrupts
 449:build/openmote-cc2538_armgcc/drivers/common/openserial.c ****     uart_clearRxInterrupts();          // clear possible pending interrupts
 1622              		.loc 1 449 0
 1623 068e FFF7FEFF 		bl	uart_clearRxInterrupts
 450:build/openmote-cc2538_armgcc/drivers/common/openserial.c ****     uart_enableInterrupts();           // Enable USCI_A1 TX & RX interrupt
 1624              		.loc 1 450 0
 1625 0692 FFF7FEFF 		bl	uart_enableInterrupts
 451:build/openmote-cc2538_armgcc/drivers/common/openserial.c **** 
 452:build/openmote-cc2538_armgcc/drivers/common/openserial.c ****     DISABLE_INTERRUPTS();
 1626              		.loc 1 452 0
 1627 0696 FFF7FEFF 		bl	IntMasterDisable
 453:build/openmote-cc2538_armgcc/drivers/common/openserial.c ****     openserial_vars.mode=MODE_OUTPUT;
 1628              		.loc 1 453 0
 1629 069a 104B     		ldr	r3, .L79
 1630 069c 0222     		movs	r2, #2
 1631 069e 1A70     		strb	r2, [r3]
 454:build/openmote-cc2538_armgcc/drivers/common/openserial.c ****     if (openserial_vars.outputBufFilled) {
 1632              		.loc 1 454 0
 1633 06a0 0E4B     		ldr	r3, .L79
 1634 06a2 93F8DD30 		ldrb	r3, [r3, #221]	@ zero_extendqisi2
 1635 06a6 002B     		cmp	r3, #0
 1636 06a8 11D0     		beq	.L77
 455:build/openmote-cc2538_armgcc/drivers/common/openserial.c **** #ifdef FASTSIM
 456:build/openmote-cc2538_armgcc/drivers/common/openserial.c ****         uart_writeCircularBuffer_FASTSIM(
 457:build/openmote-cc2538_armgcc/drivers/common/openserial.c ****             openserial_vars.outputBuf,
 458:build/openmote-cc2538_armgcc/drivers/common/openserial.c ****             &openserial_vars.outputBufIdxR,
 459:build/openmote-cc2538_armgcc/drivers/common/openserial.c ****             &openserial_vars.outputBufIdxW
 460:build/openmote-cc2538_armgcc/drivers/common/openserial.c ****         );
 461:build/openmote-cc2538_armgcc/drivers/common/openserial.c **** #else
 462:build/openmote-cc2538_armgcc/drivers/common/openserial.c ****         uart_writeByte(openserial_vars.outputBuf[OUTPUT_BUFFER_MASK & (openserial_vars.outputBufIdx
 1637              		.loc 1 462 0
 1638 06aa 0C4B     		ldr	r3, .L79
 1639 06ac B3F8E230 		ldrh	r3, [r3, #226]
 1640 06b0 5A1C     		adds	r2, r3, #1
 1641 06b2 91B2     		uxth	r1, r2
 1642 06b4 094A     		ldr	r2, .L79
 1643 06b6 A2F8E210 		strh	r1, [r2, #226]	@ movhi
 1644 06ba C3F30903 		ubfx	r3, r3, #0, #10
 1645 06be 074A     		ldr	r2, .L79
 1646 06c0 1344     		add	r3, r3, r2
 1647 06c2 93F8E430 		ldrb	r3, [r3, #228]	@ zero_extendqisi2
 1648 06c6 1846     		mov	r0, r3
 1649 06c8 FFF7FEFF 		bl	uart_writeByte
 1650 06cc 01E0     		b	.L78
 1651              	.L77:
 463:build/openmote-cc2538_armgcc/drivers/common/openserial.c **** #endif
 464:build/openmote-cc2538_armgcc/drivers/common/openserial.c ****     } else {
 465:build/openmote-cc2538_armgcc/drivers/common/openserial.c ****         openserial_stop();
 1652              		.loc 1 465 0
 1653 06ce FFF7FEFF 		bl	openserial_stop
 1654              	.L78:
 466:build/openmote-cc2538_armgcc/drivers/common/openserial.c ****     }
 467:build/openmote-cc2538_armgcc/drivers/common/openserial.c ****     ENABLE_INTERRUPTS();
 1655              		.loc 1 467 0
 1656 06d2 FFF7FEFF 		bl	IntMasterEnable
 468:build/openmote-cc2538_armgcc/drivers/common/openserial.c **** }
 1657              		.loc 1 468 0
 1658 06d6 0837     		adds	r7, r7, #8
 1659              		.cfi_def_cfa_offset 8
 1660 06d8 BD46     		mov	sp, r7
 1661              		.cfi_def_cfa_register 13
 1662              		@ sp needed
 1663 06da 80BD     		pop	{r7, pc}
 1664              	.L80:
 1665              		.align	2
 1666              	.L79:
 1667 06dc 00000000 		.word	openserial_vars
 1668 06e0 ABAAAA2A 		.word	715827883
 1669              		.cfi_endproc
 1670              	.LFE13:
 1672              		.align	2
 1673              		.global	openserial_stop
 1674              		.thumb
 1675              		.thumb_func
 1677              	openserial_stop:
 1678              	.LFB14:
 469:build/openmote-cc2538_armgcc/drivers/common/openserial.c **** 
 470:build/openmote-cc2538_armgcc/drivers/common/openserial.c **** void openserial_stop(void) {
 1679              		.loc 1 470 0
 1680              		.cfi_startproc
 1681              		@ args = 0, pretend = 0, frame = 8
 1682              		@ frame_needed = 1, uses_anonymous_args = 0
 1683 06e4 80B5     		push	{r7, lr}
 1684              		.cfi_def_cfa_offset 8
 1685              		.cfi_offset 7, -8
 1686              		.cfi_offset 14, -4
 1687 06e6 82B0     		sub	sp, sp, #8
 1688              		.cfi_def_cfa_offset 16
 1689 06e8 00AF     		add	r7, sp, #0
 1690              		.cfi_def_cfa_register 7
 471:build/openmote-cc2538_armgcc/drivers/common/openserial.c ****     uint8_t inputBufFill;
 472:build/openmote-cc2538_armgcc/drivers/common/openserial.c ****     uint8_t cmdByte;
 473:build/openmote-cc2538_armgcc/drivers/common/openserial.c ****     bool    busyReceiving;
 474:build/openmote-cc2538_armgcc/drivers/common/openserial.c ****     INTERRUPT_DECLARATION();
 475:build/openmote-cc2538_armgcc/drivers/common/openserial.c **** 
 476:build/openmote-cc2538_armgcc/drivers/common/openserial.c ****     DISABLE_INTERRUPTS();
 1691              		.loc 1 476 0
 1692 06ea FFF7FEFF 		bl	IntMasterDisable
 477:build/openmote-cc2538_armgcc/drivers/common/openserial.c ****     busyReceiving = openserial_vars.busyReceiving;
 1693              		.loc 1 477 0
 1694 06ee 424B     		ldr	r3, .L91
 1695 06f0 DB7B     		ldrb	r3, [r3, #15]
 1696 06f2 FB71     		strb	r3, [r7, #7]
 478:build/openmote-cc2538_armgcc/drivers/common/openserial.c ****     inputBufFill  = openserial_vars.inputBufFill;
 1697              		.loc 1 478 0
 1698 06f4 404B     		ldr	r3, .L91
 1699 06f6 1B7D     		ldrb	r3, [r3, #20]
 1700 06f8 BB71     		strb	r3, [r7, #6]
 479:build/openmote-cc2538_armgcc/drivers/common/openserial.c ****     ENABLE_INTERRUPTS();
 1701              		.loc 1 479 0
 1702 06fa FFF7FEFF 		bl	IntMasterEnable
 480:build/openmote-cc2538_armgcc/drivers/common/openserial.c **** 
 481:build/openmote-cc2538_armgcc/drivers/common/openserial.c ****     // disable UART interrupts
 482:build/openmote-cc2538_armgcc/drivers/common/openserial.c ****     uart_disableInterrupts();
 1703              		.loc 1 482 0
 1704 06fe FFF7FEFF 		bl	uart_disableInterrupts
 483:build/openmote-cc2538_armgcc/drivers/common/openserial.c **** 
 484:build/openmote-cc2538_armgcc/drivers/common/openserial.c ****     DISABLE_INTERRUPTS();
 1705              		.loc 1 484 0
 1706 0702 FFF7FEFF 		bl	IntMasterDisable
 485:build/openmote-cc2538_armgcc/drivers/common/openserial.c ****     openserial_vars.mode=MODE_OFF;
 1707              		.loc 1 485 0
 1708 0706 3C4B     		ldr	r3, .L91
 1709 0708 0022     		movs	r2, #0
 1710 070a 1A70     		strb	r2, [r3]
 486:build/openmote-cc2538_armgcc/drivers/common/openserial.c ****     ENABLE_INTERRUPTS();
 1711              		.loc 1 486 0
 1712 070c FFF7FEFF 		bl	IntMasterEnable
 487:build/openmote-cc2538_armgcc/drivers/common/openserial.c **** 
 488:build/openmote-cc2538_armgcc/drivers/common/openserial.c ****     // the inputBuffer has to be reset if it is not reset where the data is read.
 489:build/openmote-cc2538_armgcc/drivers/common/openserial.c ****     // or the function openserial_getInputBuffer is called (which resets the buffer)
 490:build/openmote-cc2538_armgcc/drivers/common/openserial.c ****     if (busyReceiving==TRUE) {
 1713              		.loc 1 490 0
 1714 0710 FB79     		ldrb	r3, [r7, #7]	@ zero_extendqisi2
 1715 0712 002B     		cmp	r3, #0
 1716 0714 06D0     		beq	.L82
 491:build/openmote-cc2538_armgcc/drivers/common/openserial.c ****         openserial_printError(
 1717              		.loc 1 491 0
 1718 0716 BB79     		ldrb	r3, [r7, #6]	@ zero_extendqisi2
 1719 0718 9BB2     		uxth	r3, r3
 1720 071a 0420     		movs	r0, #4
 1721 071c 3821     		movs	r1, #56
 1722 071e 0022     		movs	r2, #0
 1723 0720 FFF7FEFF 		bl	openserial_printError
 1724              	.L82:
 492:build/openmote-cc2538_armgcc/drivers/common/openserial.c ****             COMPONENT_OPENSERIAL,
 493:build/openmote-cc2538_armgcc/drivers/common/openserial.c ****             ERR_BUSY_RECEIVING,
 494:build/openmote-cc2538_armgcc/drivers/common/openserial.c ****             (errorparameter_t)0,
 495:build/openmote-cc2538_armgcc/drivers/common/openserial.c ****             (errorparameter_t)inputBufFill
 496:build/openmote-cc2538_armgcc/drivers/common/openserial.c ****         );
 497:build/openmote-cc2538_armgcc/drivers/common/openserial.c ****     }
 498:build/openmote-cc2538_armgcc/drivers/common/openserial.c **** 
 499:build/openmote-cc2538_armgcc/drivers/common/openserial.c ****     if (busyReceiving==FALSE && inputBufFill>0) {
 1725              		.loc 1 499 0
 1726 0724 FB79     		ldrb	r3, [r7, #7]
 1727 0726 83F00103 		eor	r3, r3, #1
 1728 072a DBB2     		uxtb	r3, r3
 1729 072c 002B     		cmp	r3, #0
 1730 072e 55D0     		beq	.L83
 1731              		.loc 1 499 0 is_stmt 0 discriminator 1
 1732 0730 BB79     		ldrb	r3, [r7, #6]	@ zero_extendqisi2
 1733 0732 002B     		cmp	r3, #0
 1734 0734 52D0     		beq	.L83
 500:build/openmote-cc2538_armgcc/drivers/common/openserial.c ****         DISABLE_INTERRUPTS();
 1735              		.loc 1 500 0 is_stmt 1
 1736 0736 FFF7FEFF 		bl	IntMasterDisable
 501:build/openmote-cc2538_armgcc/drivers/common/openserial.c ****         cmdByte = openserial_vars.inputBuf[0];
 1737              		.loc 1 501 0
 1738 073a 2F4B     		ldr	r3, .L91
 1739 073c 5B7D     		ldrb	r3, [r3, #21]
 1740 073e 7B71     		strb	r3, [r7, #5]
 502:build/openmote-cc2538_armgcc/drivers/common/openserial.c ****         ENABLE_INTERRUPTS();
 1741              		.loc 1 502 0
 1742 0740 FFF7FEFF 		bl	IntMasterEnable
 503:build/openmote-cc2538_armgcc/drivers/common/openserial.c ****         // call hard-coded commands
 504:build/openmote-cc2538_armgcc/drivers/common/openserial.c ****         // FIXME: needs to be replaced by registered commands only
 505:build/openmote-cc2538_armgcc/drivers/common/openserial.c ****         switch (cmdByte) {
 1743              		.loc 1 505 0
 1744 0744 7B79     		ldrb	r3, [r7, #5]	@ zero_extendqisi2
 1745 0746 433B     		subs	r3, r3, #67
 1746 0748 102B     		cmp	r3, #16
 1747 074a 39D8     		bhi	.L84
 1748 074c 01A2     		adr	r2, .L86
 1749 074e 52F823F0 		ldr	pc, [r2, r3, lsl #2]
 1750 0752 00BF     		.p2align 2
 1751              	.L86:
 1752 0754 BB070000 		.word	.L85+1
 1753 0758 A5070000 		.word	.L87+1
 1754 075c C1070000 		.word	.L84+1
 1755 0760 C1070000 		.word	.L84+1
 1756 0764 C1070000 		.word	.L84+1
 1757 0768 C1070000 		.word	.L84+1
 1758 076c C1070000 		.word	.L84+1
 1759 0770 C1070000 		.word	.L84+1
 1760 0774 C1070000 		.word	.L84+1
 1761 0778 C1070000 		.word	.L84+1
 1762 077c C1070000 		.word	.L84+1
 1763 0780 C1070000 		.word	.L84+1
 1764 0784 C1070000 		.word	.L84+1
 1765 0788 C1070000 		.word	.L84+1
 1766 078c 9F070000 		.word	.L88+1
 1767 0790 99070000 		.word	.L89+1
 1768 0794 AB070000 		.word	.L90+1
 1769              		.p2align 1
 1770              	.L89:
 506:build/openmote-cc2538_armgcc/drivers/common/openserial.c ****             case SERFRAME_PC2MOTE_SETROOT:
 507:build/openmote-cc2538_armgcc/drivers/common/openserial.c ****                 idmanager_triggerAboutRoot();
 1771              		.loc 1 507 0
 1772 0798 FFF7FEFF 		bl	idmanager_triggerAboutRoot
 508:build/openmote-cc2538_armgcc/drivers/common/openserial.c ****                 break;
 1773              		.loc 1 508 0
 1774 079c 10E0     		b	.L84
 1775              	.L88:
 509:build/openmote-cc2538_armgcc/drivers/common/openserial.c ****             case SERFRAME_PC2MOTE_RESET:
 510:build/openmote-cc2538_armgcc/drivers/common/openserial.c ****                 board_reset();
 1776              		.loc 1 510 0
 1777 079e FFF7FEFF 		bl	board_reset
 511:build/openmote-cc2538_armgcc/drivers/common/openserial.c ****                 break;
 1778              		.loc 1 511 0
 1779 07a2 0DE0     		b	.L84
 1780              	.L87:
 512:build/openmote-cc2538_armgcc/drivers/common/openserial.c ****             case SERFRAME_PC2MOTE_DATA:
 513:build/openmote-cc2538_armgcc/drivers/common/openserial.c ****                 openbridge_triggerData();
 1781              		.loc 1 513 0
 1782 07a4 FFF7FEFF 		bl	openbridge_triggerData
 514:build/openmote-cc2538_armgcc/drivers/common/openserial.c ****                 break;
 1783              		.loc 1 514 0
 1784 07a8 0AE0     		b	.L84
 1785              	.L90:
 515:build/openmote-cc2538_armgcc/drivers/common/openserial.c ****             case SERFRAME_PC2MOTE_TRIGGERSERIALECHO:
 516:build/openmote-cc2538_armgcc/drivers/common/openserial.c ****                 openserial_handleEcho(&openserial_vars.inputBuf[1],inputBufFill-1);
 1786              		.loc 1 516 0
 1787 07aa BB79     		ldrb	r3, [r7, #6]
 1788 07ac 013B     		subs	r3, r3, #1
 1789 07ae DBB2     		uxtb	r3, r3
 1790 07b0 1248     		ldr	r0, .L91+4
 1791 07b2 1946     		mov	r1, r3
 1792 07b4 FFF7FEFF 		bl	openserial_handleEcho
 517:build/openmote-cc2538_armgcc/drivers/common/openserial.c ****                 break;
 1793              		.loc 1 517 0
 1794 07b8 02E0     		b	.L84
 1795              	.L85:
 518:build/openmote-cc2538_armgcc/drivers/common/openserial.c ****             case SERFRAME_PC2MOTE_COMMAND:
 519:build/openmote-cc2538_armgcc/drivers/common/openserial.c ****                 openserial_handleCommands();
 1796              		.loc 1 519 0
 1797 07ba FFF7FEFF 		bl	openserial_handleCommands
 520:build/openmote-cc2538_armgcc/drivers/common/openserial.c ****                 break;
 1798              		.loc 1 520 0
 1799 07be 00BF     		nop
 1800              	.L84:
 521:build/openmote-cc2538_armgcc/drivers/common/openserial.c ****         }
 522:build/openmote-cc2538_armgcc/drivers/common/openserial.c ****         // call registered commands
 523:build/openmote-cc2538_armgcc/drivers/common/openserial.c ****         if (openserial_vars.registeredCmd!=NULL && openserial_vars.registeredCmd->cmdId==cmdByte) {
 1801              		.loc 1 523 0
 1802 07c0 0D4B     		ldr	r3, .L91
 1803 07c2 5B68     		ldr	r3, [r3, #4]
 1804 07c4 002B     		cmp	r3, #0
 1805 07c6 09D0     		beq	.L83
 1806              		.loc 1 523 0 is_stmt 0 discriminator 1
 1807 07c8 0B4B     		ldr	r3, .L91
 1808 07ca 5B68     		ldr	r3, [r3, #4]
 1809 07cc 1B78     		ldrb	r3, [r3]	@ zero_extendqisi2
 1810 07ce 7A79     		ldrb	r2, [r7, #5]	@ zero_extendqisi2
 1811 07d0 9A42     		cmp	r2, r3
 1812 07d2 03D1     		bne	.L83
 524:build/openmote-cc2538_armgcc/drivers/common/openserial.c **** 
 525:build/openmote-cc2538_armgcc/drivers/common/openserial.c ****             openserial_vars.registeredCmd->cb();
 1813              		.loc 1 525 0 is_stmt 1
 1814 07d4 084B     		ldr	r3, .L91
 1815 07d6 5B68     		ldr	r3, [r3, #4]
 1816 07d8 5B68     		ldr	r3, [r3, #4]
 1817 07da 9847     		blx	r3
 1818              	.L83:
 526:build/openmote-cc2538_armgcc/drivers/common/openserial.c ****         }
 527:build/openmote-cc2538_armgcc/drivers/common/openserial.c ****     }
 528:build/openmote-cc2538_armgcc/drivers/common/openserial.c **** 
 529:build/openmote-cc2538_armgcc/drivers/common/openserial.c ****     DISABLE_INTERRUPTS();
 1819              		.loc 1 529 0
 1820 07dc FFF7FEFF 		bl	IntMasterDisable
 530:build/openmote-cc2538_armgcc/drivers/common/openserial.c ****     openserial_vars.inputBufFill  = 0;
 1821              		.loc 1 530 0
 1822 07e0 054B     		ldr	r3, .L91
 1823 07e2 0022     		movs	r2, #0
 1824 07e4 1A75     		strb	r2, [r3, #20]
 531:build/openmote-cc2538_armgcc/drivers/common/openserial.c ****     openserial_vars.busyReceiving = FALSE;
 1825              		.loc 1 531 0
 1826 07e6 044B     		ldr	r3, .L91
 1827 07e8 0022     		movs	r2, #0
 1828 07ea DA73     		strb	r2, [r3, #15]
 532:build/openmote-cc2538_armgcc/drivers/common/openserial.c ****     ENABLE_INTERRUPTS();
 1829              		.loc 1 532 0
 1830 07ec FFF7FEFF 		bl	IntMasterEnable
 533:build/openmote-cc2538_armgcc/drivers/common/openserial.c **** }
 1831              		.loc 1 533 0
 1832 07f0 0837     		adds	r7, r7, #8
 1833              		.cfi_def_cfa_offset 8
 1834 07f2 BD46     		mov	sp, r7
 1835              		.cfi_def_cfa_register 13
 1836              		@ sp needed
 1837 07f4 80BD     		pop	{r7, pc}
 1838              	.L92:
 1839 07f6 00BF     		.align	2
 1840              	.L91:
 1841 07f8 00000000 		.word	openserial_vars
 1842 07fc 16000000 		.word	openserial_vars+22
 1843              		.cfi_endproc
 1844              	.LFE14:
 1846              		.align	2
 1847              		.global	debugPrint_outBufferIndexes
 1848              		.thumb
 1849              		.thumb_func
 1851              	debugPrint_outBufferIndexes:
 1852              	.LFB15:
 534:build/openmote-cc2538_armgcc/drivers/common/openserial.c **** 
 535:build/openmote-cc2538_armgcc/drivers/common/openserial.c **** //===== debugprint
 536:build/openmote-cc2538_armgcc/drivers/common/openserial.c **** 
 537:build/openmote-cc2538_armgcc/drivers/common/openserial.c **** /**
 538:build/openmote-cc2538_armgcc/drivers/common/openserial.c **** \brief Trigger this module to print status information, over serial.
 539:build/openmote-cc2538_armgcc/drivers/common/openserial.c **** 
 540:build/openmote-cc2538_armgcc/drivers/common/openserial.c **** debugPrint_* functions are used by the openserial module to continuously print
 541:build/openmote-cc2538_armgcc/drivers/common/openserial.c **** status information about several modules in the OpenWSN stack.
 542:build/openmote-cc2538_armgcc/drivers/common/openserial.c **** 
 543:build/openmote-cc2538_armgcc/drivers/common/openserial.c **** \returns TRUE if this function printed something, FALSE otherwise.
 544:build/openmote-cc2538_armgcc/drivers/common/openserial.c **** */
 545:build/openmote-cc2538_armgcc/drivers/common/openserial.c **** bool debugPrint_outBufferIndexes(void) {
 1853              		.loc 1 545 0
 1854              		.cfi_startproc
 1855              		@ args = 0, pretend = 0, frame = 8
 1856              		@ frame_needed = 1, uses_anonymous_args = 0
 1857 0800 80B5     		push	{r7, lr}
 1858              		.cfi_def_cfa_offset 8
 1859              		.cfi_offset 7, -8
 1860              		.cfi_offset 14, -4
 1861 0802 82B0     		sub	sp, sp, #8
 1862              		.cfi_def_cfa_offset 16
 1863 0804 00AF     		add	r7, sp, #0
 1864              		.cfi_def_cfa_register 7
 546:build/openmote-cc2538_armgcc/drivers/common/openserial.c ****     uint16_t temp_buffer[2];
 547:build/openmote-cc2538_armgcc/drivers/common/openserial.c ****     INTERRUPT_DECLARATION();
 548:build/openmote-cc2538_armgcc/drivers/common/openserial.c **** 
 549:build/openmote-cc2538_armgcc/drivers/common/openserial.c ****     DISABLE_INTERRUPTS();
 1865              		.loc 1 549 0
 1866 0806 FFF7FEFF 		bl	IntMasterDisable
 550:build/openmote-cc2538_armgcc/drivers/common/openserial.c ****     temp_buffer[0] = openserial_vars.outputBufIdxW;
 1867              		.loc 1 550 0
 1868 080a 0A4B     		ldr	r3, .L95
 1869 080c B3F8E030 		ldrh	r3, [r3, #224]
 1870 0810 BB80     		strh	r3, [r7, #4]	@ movhi
 551:build/openmote-cc2538_armgcc/drivers/common/openserial.c ****     temp_buffer[1] = openserial_vars.outputBufIdxR;
 1871              		.loc 1 551 0
 1872 0812 084B     		ldr	r3, .L95
 1873 0814 B3F8E230 		ldrh	r3, [r3, #226]
 1874 0818 FB80     		strh	r3, [r7, #6]	@ movhi
 552:build/openmote-cc2538_armgcc/drivers/common/openserial.c ****     ENABLE_INTERRUPTS();
 1875              		.loc 1 552 0
 1876 081a FFF7FEFF 		bl	IntMasterEnable
 553:build/openmote-cc2538_armgcc/drivers/common/openserial.c **** 
 554:build/openmote-cc2538_armgcc/drivers/common/openserial.c ****     openserial_printStatus(
 1877              		.loc 1 554 0
 1878 081e 3B1D     		adds	r3, r7, #4
 1879 0820 0320     		movs	r0, #3
 1880 0822 1946     		mov	r1, r3
 1881 0824 0422     		movs	r2, #4
 1882 0826 FFF7FEFF 		bl	openserial_printStatus
 555:build/openmote-cc2538_armgcc/drivers/common/openserial.c ****         STATUS_OUTBUFFERINDEXES,
 556:build/openmote-cc2538_armgcc/drivers/common/openserial.c ****         (uint8_t*)temp_buffer,
 557:build/openmote-cc2538_armgcc/drivers/common/openserial.c ****         sizeof(temp_buffer)
 558:build/openmote-cc2538_armgcc/drivers/common/openserial.c ****     );
 559:build/openmote-cc2538_armgcc/drivers/common/openserial.c **** 
 560:build/openmote-cc2538_armgcc/drivers/common/openserial.c ****     return TRUE;
 1883              		.loc 1 560 0
 1884 082a 0123     		movs	r3, #1
 561:build/openmote-cc2538_armgcc/drivers/common/openserial.c **** }
 1885              		.loc 1 561 0
 1886 082c 1846     		mov	r0, r3
 1887 082e 0837     		adds	r7, r7, #8
 1888              		.cfi_def_cfa_offset 8
 1889 0830 BD46     		mov	sp, r7
 1890              		.cfi_def_cfa_register 13
 1891              		@ sp needed
 1892 0832 80BD     		pop	{r7, pc}
 1893              	.L96:
 1894              		.align	2
 1895              	.L95:
 1896 0834 00000000 		.word	openserial_vars
 1897              		.cfi_endproc
 1898              	.LFE15:
 1900              		.align	2
 1901              		.global	openserial_printInfoErrorCritical
 1902              		.thumb
 1903              		.thumb_func
 1905              	openserial_printInfoErrorCritical:
 1906              	.LFB16:
 562:build/openmote-cc2538_armgcc/drivers/common/openserial.c **** 
 563:build/openmote-cc2538_armgcc/drivers/common/openserial.c **** //=========================== private =========================================
 564:build/openmote-cc2538_armgcc/drivers/common/openserial.c **** 
 565:build/openmote-cc2538_armgcc/drivers/common/openserial.c **** //===== printing
 566:build/openmote-cc2538_armgcc/drivers/common/openserial.c **** 
 567:build/openmote-cc2538_armgcc/drivers/common/openserial.c **** owerror_t openserial_printInfoErrorCritical(
 568:build/openmote-cc2538_armgcc/drivers/common/openserial.c ****     char             severity,
 569:build/openmote-cc2538_armgcc/drivers/common/openserial.c ****     uint8_t          calling_component,
 570:build/openmote-cc2538_armgcc/drivers/common/openserial.c ****     uint8_t          error_code,
 571:build/openmote-cc2538_armgcc/drivers/common/openserial.c ****     errorparameter_t arg1,
 572:build/openmote-cc2538_armgcc/drivers/common/openserial.c ****     errorparameter_t arg2
 573:build/openmote-cc2538_armgcc/drivers/common/openserial.c **** ) {
 1907              		.loc 1 573 0
 1908              		.cfi_startproc
 1909              		@ args = 4, pretend = 0, frame = 8
 1910              		@ frame_needed = 1, uses_anonymous_args = 0
 1911 0838 90B5     		push	{r4, r7, lr}
 1912              		.cfi_def_cfa_offset 12
 1913              		.cfi_offset 4, -12
 1914              		.cfi_offset 7, -8
 1915              		.cfi_offset 14, -4
 1916 083a 83B0     		sub	sp, sp, #12
 1917              		.cfi_def_cfa_offset 24
 1918 083c 00AF     		add	r7, sp, #0
 1919              		.cfi_def_cfa_register 7
 1920 083e 0446     		mov	r4, r0
 1921 0840 0846     		mov	r0, r1
 1922 0842 1146     		mov	r1, r2
 1923 0844 1A46     		mov	r2, r3
 1924 0846 2346     		mov	r3, r4
 1925 0848 FB71     		strb	r3, [r7, #7]
 1926 084a 0346     		mov	r3, r0
 1927 084c BB71     		strb	r3, [r7, #6]
 1928 084e 0B46     		mov	r3, r1
 1929 0850 7B71     		strb	r3, [r7, #5]
 1930 0852 1346     		mov	r3, r2	@ movhi
 1931 0854 7B80     		strh	r3, [r7, #2]	@ movhi
 574:build/openmote-cc2538_armgcc/drivers/common/openserial.c ****     INTERRUPT_DECLARATION();
 575:build/openmote-cc2538_armgcc/drivers/common/openserial.c **** 
 576:build/openmote-cc2538_armgcc/drivers/common/openserial.c ****     DISABLE_INTERRUPTS();
 1932              		.loc 1 576 0
 1933 0856 FFF7FEFF 		bl	IntMasterDisable
 577:build/openmote-cc2538_armgcc/drivers/common/openserial.c ****     openserial_vars.outputBufFilled  = TRUE;
 1934              		.loc 1 577 0
 1935 085a 214B     		ldr	r3, .L99
 1936 085c 0122     		movs	r2, #1
 1937 085e 83F8DD20 		strb	r2, [r3, #221]
 578:build/openmote-cc2538_armgcc/drivers/common/openserial.c ****     outputHdlcOpen();
 1938              		.loc 1 578 0
 1939 0862 FFF7FEFF 		bl	outputHdlcOpen
 579:build/openmote-cc2538_armgcc/drivers/common/openserial.c ****     outputHdlcWrite(severity);
 1940              		.loc 1 579 0
 1941 0866 FB79     		ldrb	r3, [r7, #7]	@ zero_extendqisi2
 1942 0868 1846     		mov	r0, r3
 1943 086a FFF7FEFF 		bl	outputHdlcWrite
 580:build/openmote-cc2538_armgcc/drivers/common/openserial.c ****     outputHdlcWrite(idmanager_getMyID(ADDR_16B)->addr_16b[0]);
 1944              		.loc 1 580 0
 1945 086e 0120     		movs	r0, #1
 1946 0870 FFF7FEFF 		bl	idmanager_getMyID
 1947 0874 0346     		mov	r3, r0
 1948 0876 5B78     		ldrb	r3, [r3, #1]	@ zero_extendqisi2
 1949 0878 1846     		mov	r0, r3
 1950 087a FFF7FEFF 		bl	outputHdlcWrite
 581:build/openmote-cc2538_armgcc/drivers/common/openserial.c ****     outputHdlcWrite(idmanager_getMyID(ADDR_16B)->addr_16b[1]);
 1951              		.loc 1 581 0
 1952 087e 0120     		movs	r0, #1
 1953 0880 FFF7FEFF 		bl	idmanager_getMyID
 1954 0884 0346     		mov	r3, r0
 1955 0886 9B78     		ldrb	r3, [r3, #2]	@ zero_extendqisi2
 1956 0888 1846     		mov	r0, r3
 1957 088a FFF7FEFF 		bl	outputHdlcWrite
 582:build/openmote-cc2538_armgcc/drivers/common/openserial.c ****     outputHdlcWrite(calling_component);
 1958              		.loc 1 582 0
 1959 088e BB79     		ldrb	r3, [r7, #6]	@ zero_extendqisi2
 1960 0890 1846     		mov	r0, r3
 1961 0892 FFF7FEFF 		bl	outputHdlcWrite
 583:build/openmote-cc2538_armgcc/drivers/common/openserial.c ****     outputHdlcWrite(error_code);
 1962              		.loc 1 583 0
 1963 0896 7B79     		ldrb	r3, [r7, #5]	@ zero_extendqisi2
 1964 0898 1846     		mov	r0, r3
 1965 089a FFF7FEFF 		bl	outputHdlcWrite
 584:build/openmote-cc2538_armgcc/drivers/common/openserial.c ****     outputHdlcWrite((uint8_t)((arg1 & 0xff00)>>8));
 1966              		.loc 1 584 0
 1967 089e 7B88     		ldrh	r3, [r7, #2]
 1968 08a0 1B0A     		lsrs	r3, r3, #8
 1969 08a2 9BB2     		uxth	r3, r3
 1970 08a4 DBB2     		uxtb	r3, r3
 1971 08a6 1846     		mov	r0, r3
 1972 08a8 FFF7FEFF 		bl	outputHdlcWrite
 585:build/openmote-cc2538_armgcc/drivers/common/openserial.c ****     outputHdlcWrite((uint8_t) (arg1 & 0x00ff));
 1973              		.loc 1 585 0
 1974 08ac 7B88     		ldrh	r3, [r7, #2]	@ movhi
 1975 08ae DBB2     		uxtb	r3, r3
 1976 08b0 1846     		mov	r0, r3
 1977 08b2 FFF7FEFF 		bl	outputHdlcWrite
 586:build/openmote-cc2538_armgcc/drivers/common/openserial.c ****     outputHdlcWrite((uint8_t)((arg2 & 0xff00)>>8));
 1978              		.loc 1 586 0
 1979 08b6 3B8B     		ldrh	r3, [r7, #24]
 1980 08b8 1B0A     		lsrs	r3, r3, #8
 1981 08ba 9BB2     		uxth	r3, r3
 1982 08bc DBB2     		uxtb	r3, r3
 1983 08be 1846     		mov	r0, r3
 1984 08c0 FFF7FEFF 		bl	outputHdlcWrite
 587:build/openmote-cc2538_armgcc/drivers/common/openserial.c ****     outputHdlcWrite((uint8_t) (arg2 & 0x00ff));
 1985              		.loc 1 587 0
 1986 08c4 3B8B     		ldrh	r3, [r7, #24]	@ movhi
 1987 08c6 DBB2     		uxtb	r3, r3
 1988 08c8 1846     		mov	r0, r3
 1989 08ca FFF7FEFF 		bl	outputHdlcWrite
 588:build/openmote-cc2538_armgcc/drivers/common/openserial.c ****     outputHdlcClose();
 1990              		.loc 1 588 0
 1991 08ce FFF7FEFF 		bl	outputHdlcClose
 589:build/openmote-cc2538_armgcc/drivers/common/openserial.c ****     ENABLE_INTERRUPTS();
 1992              		.loc 1 589 0
 1993 08d2 FFF7FEFF 		bl	IntMasterEnable
 590:build/openmote-cc2538_armgcc/drivers/common/openserial.c **** 
 591:build/openmote-cc2538_armgcc/drivers/common/openserial.c ****     return E_SUCCESS;
 1994              		.loc 1 591 0
 1995 08d6 0023     		movs	r3, #0
 592:build/openmote-cc2538_armgcc/drivers/common/openserial.c **** }
 1996              		.loc 1 592 0
 1997 08d8 1846     		mov	r0, r3
 1998 08da 0C37     		adds	r7, r7, #12
 1999              		.cfi_def_cfa_offset 12
 2000 08dc BD46     		mov	sp, r7
 2001              		.cfi_def_cfa_register 13
 2002              		@ sp needed
 2003 08de 90BD     		pop	{r4, r7, pc}
 2004              	.L100:
 2005              		.align	2
 2006              	.L99:
 2007 08e0 00000000 		.word	openserial_vars
 2008              		.cfi_endproc
 2009              	.LFE16:
 2011              		.align	2
 2012              		.global	openserial_handleEcho
 2013              		.thumb
 2014              		.thumb_func
 2016              	openserial_handleEcho:
 2017              	.LFB17:
 593:build/openmote-cc2538_armgcc/drivers/common/openserial.c **** 
 594:build/openmote-cc2538_armgcc/drivers/common/openserial.c **** //===== command handlers
 595:build/openmote-cc2538_armgcc/drivers/common/openserial.c **** 
 596:build/openmote-cc2538_armgcc/drivers/common/openserial.c **** void openserial_handleEcho(uint8_t* buf, uint8_t bufLen){
 2018              		.loc 1 596 0
 2019              		.cfi_startproc
 2020              		@ args = 0, pretend = 0, frame = 8
 2021              		@ frame_needed = 1, uses_anonymous_args = 0
 2022 08e4 80B5     		push	{r7, lr}
 2023              		.cfi_def_cfa_offset 8
 2024              		.cfi_offset 7, -8
 2025              		.cfi_offset 14, -4
 2026 08e6 82B0     		sub	sp, sp, #8
 2027              		.cfi_def_cfa_offset 16
 2028 08e8 00AF     		add	r7, sp, #0
 2029              		.cfi_def_cfa_register 7
 2030 08ea 7860     		str	r0, [r7, #4]
 2031 08ec 0B46     		mov	r3, r1
 2032 08ee FB70     		strb	r3, [r7, #3]
 597:build/openmote-cc2538_armgcc/drivers/common/openserial.c ****     // echo back what you received
 598:build/openmote-cc2538_armgcc/drivers/common/openserial.c ****     openserial_printData(
 2033              		.loc 1 598 0
 2034 08f0 FB78     		ldrb	r3, [r7, #3]	@ zero_extendqisi2
 2035 08f2 7868     		ldr	r0, [r7, #4]
 2036 08f4 1946     		mov	r1, r3
 2037 08f6 FFF7FEFF 		bl	openserial_printData
 599:build/openmote-cc2538_armgcc/drivers/common/openserial.c ****         buf,
 600:build/openmote-cc2538_armgcc/drivers/common/openserial.c ****         bufLen
 601:build/openmote-cc2538_armgcc/drivers/common/openserial.c ****     );
 602:build/openmote-cc2538_armgcc/drivers/common/openserial.c **** }
 2038              		.loc 1 602 0
 2039 08fa 0837     		adds	r7, r7, #8
 2040              		.cfi_def_cfa_offset 8
 2041 08fc BD46     		mov	sp, r7
 2042              		.cfi_def_cfa_register 13
 2043              		@ sp needed
 2044 08fe 80BD     		pop	{r7, pc}
 2045              		.cfi_endproc
 2046              	.LFE17:
 2048              		.align	2
 2049              		.global	openserial_get6pInfo
 2050              		.thumb
 2051              		.thumb_func
 2053              	openserial_get6pInfo:
 2054              	.LFB18:
 603:build/openmote-cc2538_armgcc/drivers/common/openserial.c **** 
 604:build/openmote-cc2538_armgcc/drivers/common/openserial.c **** void openserial_get6pInfo(uint8_t commandId, uint8_t* code,uint8_t* cellOptions,uint8_t* numCells,c
 2055              		.loc 1 604 0
 2056              		.cfi_startproc
 2057              		@ args = 24, pretend = 0, frame = 24
 2058              		@ frame_needed = 1, uses_anonymous_args = 0
 2059              		@ link register save eliminated.
 2060 0900 80B4     		push	{r7}
 2061              		.cfi_def_cfa_offset 4
 2062              		.cfi_offset 7, -4
 2063 0902 87B0     		sub	sp, sp, #28
 2064              		.cfi_def_cfa_offset 32
 2065 0904 00AF     		add	r7, sp, #0
 2066              		.cfi_def_cfa_register 7
 2067 0906 B960     		str	r1, [r7, #8]
 2068 0908 7A60     		str	r2, [r7, #4]
 2069 090a 3B60     		str	r3, [r7]
 2070 090c 0346     		mov	r3, r0
 2071 090e FB73     		strb	r3, [r7, #15]
 605:build/openmote-cc2538_armgcc/drivers/common/openserial.c ****     uint8_t i;
 606:build/openmote-cc2538_armgcc/drivers/common/openserial.c ****     uint8_t celllistLen;
 607:build/openmote-cc2538_armgcc/drivers/common/openserial.c **** 
 608:build/openmote-cc2538_armgcc/drivers/common/openserial.c ****     // clear command
 609:build/openmote-cc2538_armgcc/drivers/common/openserial.c ****     if (commandId == COMMAND_SET_6P_CLEAR){
 2072              		.loc 1 609 0
 2073 0910 FB7B     		ldrb	r3, [r7, #15]	@ zero_extendqisi2
 2074 0912 0E2B     		cmp	r3, #14
 2075 0914 03D1     		bne	.L103
 610:build/openmote-cc2538_armgcc/drivers/common/openserial.c ****         *code = IANA_6TOP_CMD_CLEAR;
 2076              		.loc 1 610 0
 2077 0916 BB68     		ldr	r3, [r7, #8]
 2078 0918 0722     		movs	r2, #7
 2079 091a 1A70     		strb	r2, [r3]
 611:build/openmote-cc2538_armgcc/drivers/common/openserial.c ****         return;
 2080              		.loc 1 611 0
 2081 091c 64E1     		b	.L102
 2082              	.L103:
 612:build/openmote-cc2538_armgcc/drivers/common/openserial.c ****     }
 613:build/openmote-cc2538_armgcc/drivers/common/openserial.c **** 
 614:build/openmote-cc2538_armgcc/drivers/common/openserial.c ****     *cellOptions  = openserial_vars.inputBuf[ptr];
 2083              		.loc 1 614 0
 2084 091e 97F83030 		ldrb	r3, [r7, #48]	@ zero_extendqisi2
 2085 0922 B44A     		ldr	r2, .L117
 2086 0924 1344     		add	r3, r3, r2
 2087 0926 5A7D     		ldrb	r2, [r3, #21]	@ zero_extendqisi2
 2088 0928 7B68     		ldr	r3, [r7, #4]
 2089 092a 1A70     		strb	r2, [r3]
 615:build/openmote-cc2538_armgcc/drivers/common/openserial.c ****     ptr          += 1;
 2090              		.loc 1 615 0
 2091 092c 97F83030 		ldrb	r3, [r7, #48]
 2092 0930 0133     		adds	r3, r3, #1
 2093 0932 87F83030 		strb	r3, [r7, #48]
 616:build/openmote-cc2538_armgcc/drivers/common/openserial.c ****     commandLen   -= 1;
 2094              		.loc 1 616 0
 2095 0936 97F83430 		ldrb	r3, [r7, #52]
 2096 093a 013B     		subs	r3, r3, #1
 2097 093c 87F83430 		strb	r3, [r7, #52]
 617:build/openmote-cc2538_armgcc/drivers/common/openserial.c **** 
 618:build/openmote-cc2538_armgcc/drivers/common/openserial.c ****     // list command
 619:build/openmote-cc2538_armgcc/drivers/common/openserial.c ****     if (commandId == COMMAND_SET_6P_LIST){
 2098              		.loc 1 619 0
 2099 0940 FB7B     		ldrb	r3, [r7, #15]	@ zero_extendqisi2
 2100 0942 0D2B     		cmp	r3, #13
 2101 0944 1BD1     		bne	.L105
 620:build/openmote-cc2538_armgcc/drivers/common/openserial.c ****         *code = IANA_6TOP_CMD_LIST;
 2102              		.loc 1 620 0
 2103 0946 BB68     		ldr	r3, [r7, #8]
 2104 0948 0522     		movs	r2, #5
 2105 094a 1A70     		strb	r2, [r3]
 621:build/openmote-cc2538_armgcc/drivers/common/openserial.c ****         *listOffset   = openserial_vars.inputBuf[ptr];
 2106              		.loc 1 621 0
 2107 094c 97F83030 		ldrb	r3, [r7, #48]	@ zero_extendqisi2
 2108 0950 A84A     		ldr	r2, .L117
 2109 0952 1344     		add	r3, r3, r2
 2110 0954 5A7D     		ldrb	r2, [r3, #21]	@ zero_extendqisi2
 2111 0956 BB6A     		ldr	r3, [r7, #40]
 2112 0958 1A70     		strb	r2, [r3]
 622:build/openmote-cc2538_armgcc/drivers/common/openserial.c ****         ptr += 1;
 2113              		.loc 1 622 0
 2114 095a 97F83030 		ldrb	r3, [r7, #48]
 2115 095e 0133     		adds	r3, r3, #1
 2116 0960 87F83030 		strb	r3, [r7, #48]
 623:build/openmote-cc2538_armgcc/drivers/common/openserial.c ****         *maxListLen   = openserial_vars.inputBuf[ptr];
 2117              		.loc 1 623 0
 2118 0964 97F83030 		ldrb	r3, [r7, #48]	@ zero_extendqisi2
 2119 0968 A24A     		ldr	r2, .L117
 2120 096a 1344     		add	r3, r3, r2
 2121 096c 5A7D     		ldrb	r2, [r3, #21]	@ zero_extendqisi2
 2122 096e FB6A     		ldr	r3, [r7, #44]
 2123 0970 1A70     		strb	r2, [r3]
 624:build/openmote-cc2538_armgcc/drivers/common/openserial.c ****         ptr += 1;
 2124              		.loc 1 624 0
 2125 0972 97F83030 		ldrb	r3, [r7, #48]
 2126 0976 0133     		adds	r3, r3, #1
 2127 0978 87F83030 		strb	r3, [r7, #48]
 625:build/openmote-cc2538_armgcc/drivers/common/openserial.c ****         return;
 2128              		.loc 1 625 0
 2129 097c 34E1     		b	.L102
 2130              	.L105:
 626:build/openmote-cc2538_armgcc/drivers/common/openserial.c ****     }
 627:build/openmote-cc2538_armgcc/drivers/common/openserial.c **** 
 628:build/openmote-cc2538_armgcc/drivers/common/openserial.c ****     // count command
 629:build/openmote-cc2538_armgcc/drivers/common/openserial.c ****     if (commandId == COMMAND_SET_6P_COUNT){
 2131              		.loc 1 629 0
 2132 097e FB7B     		ldrb	r3, [r7, #15]	@ zero_extendqisi2
 2133 0980 0C2B     		cmp	r3, #12
 2134 0982 03D1     		bne	.L106
 630:build/openmote-cc2538_armgcc/drivers/common/openserial.c ****         *code = IANA_6TOP_CMD_COUNT;
 2135              		.loc 1 630 0
 2136 0984 BB68     		ldr	r3, [r7, #8]
 2137 0986 0422     		movs	r2, #4
 2138 0988 1A70     		strb	r2, [r3]
 631:build/openmote-cc2538_armgcc/drivers/common/openserial.c ****         return;
 2139              		.loc 1 631 0
 2140 098a 2DE1     		b	.L102
 2141              	.L106:
 632:build/openmote-cc2538_armgcc/drivers/common/openserial.c ****     }
 633:build/openmote-cc2538_armgcc/drivers/common/openserial.c **** 
 634:build/openmote-cc2538_armgcc/drivers/common/openserial.c ****     *numCells   = openserial_vars.inputBuf[ptr];
 2142              		.loc 1 634 0
 2143 098c 97F83030 		ldrb	r3, [r7, #48]	@ zero_extendqisi2
 2144 0990 984A     		ldr	r2, .L117
 2145 0992 1344     		add	r3, r3, r2
 2146 0994 5A7D     		ldrb	r2, [r3, #21]	@ zero_extendqisi2
 2147 0996 3B68     		ldr	r3, [r7]
 2148 0998 1A70     		strb	r2, [r3]
 635:build/openmote-cc2538_armgcc/drivers/common/openserial.c ****     ptr        += 1;
 2149              		.loc 1 635 0
 2150 099a 97F83030 		ldrb	r3, [r7, #48]
 2151 099e 0133     		adds	r3, r3, #1
 2152 09a0 87F83030 		strb	r3, [r7, #48]
 636:build/openmote-cc2538_armgcc/drivers/common/openserial.c ****     commandLen -= 1;
 2153              		.loc 1 636 0
 2154 09a4 97F83430 		ldrb	r3, [r7, #52]
 2155 09a8 013B     		subs	r3, r3, #1
 2156 09aa 87F83430 		strb	r3, [r7, #52]
 637:build/openmote-cc2538_armgcc/drivers/common/openserial.c **** 
 638:build/openmote-cc2538_armgcc/drivers/common/openserial.c ****     // add command
 639:build/openmote-cc2538_armgcc/drivers/common/openserial.c ****     if (commandId == COMMAND_SET_6P_ADD){
 2157              		.loc 1 639 0
 2158 09ae FB7B     		ldrb	r3, [r7, #15]	@ zero_extendqisi2
 2159 09b0 092B     		cmp	r3, #9
 2160 09b2 42D1     		bne	.L107
 640:build/openmote-cc2538_armgcc/drivers/common/openserial.c ****         *code = IANA_6TOP_CMD_ADD;
 2161              		.loc 1 640 0
 2162 09b4 BB68     		ldr	r3, [r7, #8]
 2163 09b6 0122     		movs	r2, #1
 2164 09b8 1A70     		strb	r2, [r3]
 641:build/openmote-cc2538_armgcc/drivers/common/openserial.c ****         // retrieve cell list
 642:build/openmote-cc2538_armgcc/drivers/common/openserial.c ****         i = 0;
 2165              		.loc 1 642 0
 2166 09ba 0023     		movs	r3, #0
 2167 09bc FB75     		strb	r3, [r7, #23]
 643:build/openmote-cc2538_armgcc/drivers/common/openserial.c ****         celllistLen = commandLen/2;
 2168              		.loc 1 643 0
 2169 09be 97F83430 		ldrb	r3, [r7, #52]	@ zero_extendqisi2
 2170 09c2 5B08     		lsrs	r3, r3, #1
 2171 09c4 BB75     		strb	r3, [r7, #22]
 644:build/openmote-cc2538_armgcc/drivers/common/openserial.c ****         while(commandLen>celllistLen){
 2172              		.loc 1 644 0
 2173 09c6 32E0     		b	.L108
 2174              	.L109:
 645:build/openmote-cc2538_armgcc/drivers/common/openserial.c ****             celllist_add[i].slotoffset     = openserial_vars.inputBuf[ptr];
 2175              		.loc 1 645 0
 2176 09c8 FA7D     		ldrb	r2, [r7, #23]	@ zero_extendqisi2
 2177 09ca 1346     		mov	r3, r2
 2178 09cc 9B00     		lsls	r3, r3, #2
 2179 09ce 1344     		add	r3, r3, r2
 2180 09d0 3A6A     		ldr	r2, [r7, #32]
 2181 09d2 1344     		add	r3, r3, r2
 2182 09d4 97F83020 		ldrb	r2, [r7, #48]	@ zero_extendqisi2
 2183 09d8 8649     		ldr	r1, .L117
 2184 09da 0A44     		add	r2, r2, r1
 2185 09dc 527D     		ldrb	r2, [r2, #21]	@ zero_extendqisi2
 2186 09de 92B2     		uxth	r2, r2
 2187 09e0 A3F80120 		strh	r2, [r3, #1]	@ unaligned
 646:build/openmote-cc2538_armgcc/drivers/common/openserial.c ****             celllist_add[i].channeloffset  = openserial_vars.inputBuf[ptr+celllistLen];
 2188              		.loc 1 646 0
 2189 09e4 FA7D     		ldrb	r2, [r7, #23]	@ zero_extendqisi2
 2190 09e6 1346     		mov	r3, r2
 2191 09e8 9B00     		lsls	r3, r3, #2
 2192 09ea 1344     		add	r3, r3, r2
 2193 09ec 3A6A     		ldr	r2, [r7, #32]
 2194 09ee 1344     		add	r3, r3, r2
 2195 09f0 97F83010 		ldrb	r1, [r7, #48]	@ zero_extendqisi2
 2196 09f4 BA7D     		ldrb	r2, [r7, #22]	@ zero_extendqisi2
 2197 09f6 0A44     		add	r2, r2, r1
 2198 09f8 7E49     		ldr	r1, .L117
 2199 09fa 0A44     		add	r2, r2, r1
 2200 09fc 527D     		ldrb	r2, [r2, #21]	@ zero_extendqisi2
 2201 09fe 92B2     		uxth	r2, r2
 2202 0a00 A3F80320 		strh	r2, [r3, #3]	@ unaligned
 647:build/openmote-cc2538_armgcc/drivers/common/openserial.c ****             celllist_add[i].isUsed         = TRUE;
 2203              		.loc 1 647 0
 2204 0a04 FA7D     		ldrb	r2, [r7, #23]	@ zero_extendqisi2
 2205 0a06 1346     		mov	r3, r2
 2206 0a08 9B00     		lsls	r3, r3, #2
 2207 0a0a 1344     		add	r3, r3, r2
 2208 0a0c 3A6A     		ldr	r2, [r7, #32]
 2209 0a0e 1344     		add	r3, r3, r2
 2210 0a10 0122     		movs	r2, #1
 2211 0a12 1A70     		strb	r2, [r3]
 648:build/openmote-cc2538_armgcc/drivers/common/openserial.c ****             ptr         += 1;
 2212              		.loc 1 648 0
 2213 0a14 97F83030 		ldrb	r3, [r7, #48]
 2214 0a18 0133     		adds	r3, r3, #1
 2215 0a1a 87F83030 		strb	r3, [r7, #48]
 649:build/openmote-cc2538_armgcc/drivers/common/openserial.c ****             commandLen  -= 1;
 2216              		.loc 1 649 0
 2217 0a1e 97F83430 		ldrb	r3, [r7, #52]
 2218 0a22 013B     		subs	r3, r3, #1
 2219 0a24 87F83430 		strb	r3, [r7, #52]
 650:build/openmote-cc2538_armgcc/drivers/common/openserial.c ****             i++;
 2220              		.loc 1 650 0
 2221 0a28 FB7D     		ldrb	r3, [r7, #23]	@ zero_extendqisi2
 2222 0a2a 0133     		adds	r3, r3, #1
 2223 0a2c FB75     		strb	r3, [r7, #23]
 2224              	.L108:
 644:build/openmote-cc2538_armgcc/drivers/common/openserial.c ****             celllist_add[i].slotoffset     = openserial_vars.inputBuf[ptr];
 2225              		.loc 1 644 0
 2226 0a2e 97F83420 		ldrb	r2, [r7, #52]	@ zero_extendqisi2
 2227 0a32 BB7D     		ldrb	r3, [r7, #22]	@ zero_extendqisi2
 2228 0a34 9A42     		cmp	r2, r3
 2229 0a36 C7D8     		bhi	.L109
 651:build/openmote-cc2538_armgcc/drivers/common/openserial.c ****         }
 652:build/openmote-cc2538_armgcc/drivers/common/openserial.c ****         return;
 2230              		.loc 1 652 0
 2231 0a38 D6E0     		b	.L102
 2232              	.L107:
 653:build/openmote-cc2538_armgcc/drivers/common/openserial.c ****     }
 654:build/openmote-cc2538_armgcc/drivers/common/openserial.c **** 
 655:build/openmote-cc2538_armgcc/drivers/common/openserial.c ****     // delete command
 656:build/openmote-cc2538_armgcc/drivers/common/openserial.c ****     if (commandId == COMMAND_SET_6P_DELETE){
 2233              		.loc 1 656 0
 2234 0a3a FB7B     		ldrb	r3, [r7, #15]	@ zero_extendqisi2
 2235 0a3c 0A2B     		cmp	r3, #10
 2236 0a3e 42D1     		bne	.L110
 657:build/openmote-cc2538_armgcc/drivers/common/openserial.c ****         *code = IANA_6TOP_CMD_DELETE;
 2237              		.loc 1 657 0
 2238 0a40 BB68     		ldr	r3, [r7, #8]
 2239 0a42 0222     		movs	r2, #2
 2240 0a44 1A70     		strb	r2, [r3]
 658:build/openmote-cc2538_armgcc/drivers/common/openserial.c ****         // retrieve cell list
 659:build/openmote-cc2538_armgcc/drivers/common/openserial.c ****         i = 0;
 2241              		.loc 1 659 0
 2242 0a46 0023     		movs	r3, #0
 2243 0a48 FB75     		strb	r3, [r7, #23]
 660:build/openmote-cc2538_armgcc/drivers/common/openserial.c ****         celllistLen = commandLen/2;
 2244              		.loc 1 660 0
 2245 0a4a 97F83430 		ldrb	r3, [r7, #52]	@ zero_extendqisi2
 2246 0a4e 5B08     		lsrs	r3, r3, #1
 2247 0a50 BB75     		strb	r3, [r7, #22]
 661:build/openmote-cc2538_armgcc/drivers/common/openserial.c ****         while(commandLen>celllistLen){
 2248              		.loc 1 661 0
 2249 0a52 32E0     		b	.L111
 2250              	.L112:
 662:build/openmote-cc2538_armgcc/drivers/common/openserial.c ****             celllist_delete[i].slotoffset     = openserial_vars.inputBuf[ptr];
 2251              		.loc 1 662 0
 2252 0a54 FA7D     		ldrb	r2, [r7, #23]	@ zero_extendqisi2
 2253 0a56 1346     		mov	r3, r2
 2254 0a58 9B00     		lsls	r3, r3, #2
 2255 0a5a 1344     		add	r3, r3, r2
 2256 0a5c 7A6A     		ldr	r2, [r7, #36]
 2257 0a5e 1344     		add	r3, r3, r2
 2258 0a60 97F83020 		ldrb	r2, [r7, #48]	@ zero_extendqisi2
 2259 0a64 6349     		ldr	r1, .L117
 2260 0a66 0A44     		add	r2, r2, r1
 2261 0a68 527D     		ldrb	r2, [r2, #21]	@ zero_extendqisi2
 2262 0a6a 92B2     		uxth	r2, r2
 2263 0a6c A3F80120 		strh	r2, [r3, #1]	@ unaligned
 663:build/openmote-cc2538_armgcc/drivers/common/openserial.c ****             celllist_delete[i].channeloffset  = openserial_vars.inputBuf[ptr+celllistLen];
 2264              		.loc 1 663 0
 2265 0a70 FA7D     		ldrb	r2, [r7, #23]	@ zero_extendqisi2
 2266 0a72 1346     		mov	r3, r2
 2267 0a74 9B00     		lsls	r3, r3, #2
 2268 0a76 1344     		add	r3, r3, r2
 2269 0a78 7A6A     		ldr	r2, [r7, #36]
 2270 0a7a 1344     		add	r3, r3, r2
 2271 0a7c 97F83010 		ldrb	r1, [r7, #48]	@ zero_extendqisi2
 2272 0a80 BA7D     		ldrb	r2, [r7, #22]	@ zero_extendqisi2
 2273 0a82 0A44     		add	r2, r2, r1
 2274 0a84 5B49     		ldr	r1, .L117
 2275 0a86 0A44     		add	r2, r2, r1
 2276 0a88 527D     		ldrb	r2, [r2, #21]	@ zero_extendqisi2
 2277 0a8a 92B2     		uxth	r2, r2
 2278 0a8c A3F80320 		strh	r2, [r3, #3]	@ unaligned
 664:build/openmote-cc2538_armgcc/drivers/common/openserial.c ****             celllist_delete[i].isUsed         = TRUE;
 2279              		.loc 1 664 0
 2280 0a90 FA7D     		ldrb	r2, [r7, #23]	@ zero_extendqisi2
 2281 0a92 1346     		mov	r3, r2
 2282 0a94 9B00     		lsls	r3, r3, #2
 2283 0a96 1344     		add	r3, r3, r2
 2284 0a98 7A6A     		ldr	r2, [r7, #36]
 2285 0a9a 1344     		add	r3, r3, r2
 2286 0a9c 0122     		movs	r2, #1
 2287 0a9e 1A70     		strb	r2, [r3]
 665:build/openmote-cc2538_armgcc/drivers/common/openserial.c ****             ptr         += 1;
 2288              		.loc 1 665 0
 2289 0aa0 97F83030 		ldrb	r3, [r7, #48]
 2290 0aa4 0133     		adds	r3, r3, #1
 2291 0aa6 87F83030 		strb	r3, [r7, #48]
 666:build/openmote-cc2538_armgcc/drivers/common/openserial.c ****             commandLen  -= 1;
 2292              		.loc 1 666 0
 2293 0aaa 97F83430 		ldrb	r3, [r7, #52]
 2294 0aae 013B     		subs	r3, r3, #1
 2295 0ab0 87F83430 		strb	r3, [r7, #52]
 667:build/openmote-cc2538_armgcc/drivers/common/openserial.c ****             i++;
 2296              		.loc 1 667 0
 2297 0ab4 FB7D     		ldrb	r3, [r7, #23]	@ zero_extendqisi2
 2298 0ab6 0133     		adds	r3, r3, #1
 2299 0ab8 FB75     		strb	r3, [r7, #23]
 2300              	.L111:
 661:build/openmote-cc2538_armgcc/drivers/common/openserial.c ****             celllist_delete[i].slotoffset     = openserial_vars.inputBuf[ptr];
 2301              		.loc 1 661 0
 2302 0aba 97F83420 		ldrb	r2, [r7, #52]	@ zero_extendqisi2
 2303 0abe BB7D     		ldrb	r3, [r7, #22]	@ zero_extendqisi2
 2304 0ac0 9A42     		cmp	r2, r3
 2305 0ac2 C7D8     		bhi	.L112
 668:build/openmote-cc2538_armgcc/drivers/common/openserial.c ****         }
 669:build/openmote-cc2538_armgcc/drivers/common/openserial.c ****         return;
 2306              		.loc 1 669 0 discriminator 2
 2307 0ac4 90E0     		b	.L102
 2308              	.L110:
 670:build/openmote-cc2538_armgcc/drivers/common/openserial.c ****     }
 671:build/openmote-cc2538_armgcc/drivers/common/openserial.c **** 
 672:build/openmote-cc2538_armgcc/drivers/common/openserial.c ****     // relocate command
 673:build/openmote-cc2538_armgcc/drivers/common/openserial.c ****     if (commandId == COMMAND_SET_6P_RELOCATE){
 2309              		.loc 1 673 0
 2310 0ac6 FB7B     		ldrb	r3, [r7, #15]	@ zero_extendqisi2
 2311 0ac8 0B2B     		cmp	r3, #11
 2312 0aca 40F08D80 		bne	.L102
 674:build/openmote-cc2538_armgcc/drivers/common/openserial.c ****         *code = IANA_6TOP_CMD_RELOCATE;
 2313              		.loc 1 674 0
 2314 0ace BB68     		ldr	r3, [r7, #8]
 2315 0ad0 0322     		movs	r2, #3
 2316 0ad2 1A70     		strb	r2, [r3]
 675:build/openmote-cc2538_armgcc/drivers/common/openserial.c ****         // retrieve cell list to be relocated
 676:build/openmote-cc2538_armgcc/drivers/common/openserial.c ****         i = 0;
 2317              		.loc 1 676 0
 2318 0ad4 0023     		movs	r3, #0
 2319 0ad6 FB75     		strb	r3, [r7, #23]
 677:build/openmote-cc2538_armgcc/drivers/common/openserial.c ****         while(i<*numCells){
 2320              		.loc 1 677 0
 2321 0ad8 2EE0     		b	.L113
 2322              	.L114:
 678:build/openmote-cc2538_armgcc/drivers/common/openserial.c ****             celllist_delete[i].slotoffset     = openserial_vars.inputBuf[ptr];
 2323              		.loc 1 678 0
 2324 0ada FA7D     		ldrb	r2, [r7, #23]	@ zero_extendqisi2
 2325 0adc 1346     		mov	r3, r2
 2326 0ade 9B00     		lsls	r3, r3, #2
 2327 0ae0 1344     		add	r3, r3, r2
 2328 0ae2 7A6A     		ldr	r2, [r7, #36]
 2329 0ae4 1344     		add	r3, r3, r2
 2330 0ae6 97F83020 		ldrb	r2, [r7, #48]	@ zero_extendqisi2
 2331 0aea 4249     		ldr	r1, .L117
 2332 0aec 0A44     		add	r2, r2, r1
 2333 0aee 527D     		ldrb	r2, [r2, #21]	@ zero_extendqisi2
 2334 0af0 92B2     		uxth	r2, r2
 2335 0af2 A3F80120 		strh	r2, [r3, #1]	@ unaligned
 679:build/openmote-cc2538_armgcc/drivers/common/openserial.c ****             celllist_delete[i].channeloffset  = openserial_vars.inputBuf[ptr+*numCells];
 2336              		.loc 1 679 0
 2337 0af6 FA7D     		ldrb	r2, [r7, #23]	@ zero_extendqisi2
 2338 0af8 1346     		mov	r3, r2
 2339 0afa 9B00     		lsls	r3, r3, #2
 2340 0afc 1344     		add	r3, r3, r2
 2341 0afe 7A6A     		ldr	r2, [r7, #36]
 2342 0b00 1344     		add	r3, r3, r2
 2343 0b02 97F83020 		ldrb	r2, [r7, #48]	@ zero_extendqisi2
 2344 0b06 3968     		ldr	r1, [r7]
 2345 0b08 0978     		ldrb	r1, [r1]	@ zero_extendqisi2
 2346 0b0a 0A44     		add	r2, r2, r1
 2347 0b0c 3949     		ldr	r1, .L117
 2348 0b0e 0A44     		add	r2, r2, r1
 2349 0b10 527D     		ldrb	r2, [r2, #21]	@ zero_extendqisi2
 2350 0b12 92B2     		uxth	r2, r2
 2351 0b14 A3F80320 		strh	r2, [r3, #3]	@ unaligned
 680:build/openmote-cc2538_armgcc/drivers/common/openserial.c ****             celllist_delete[i].isUsed         = TRUE;
 2352              		.loc 1 680 0
 2353 0b18 FA7D     		ldrb	r2, [r7, #23]	@ zero_extendqisi2
 2354 0b1a 1346     		mov	r3, r2
 2355 0b1c 9B00     		lsls	r3, r3, #2
 2356 0b1e 1344     		add	r3, r3, r2
 2357 0b20 7A6A     		ldr	r2, [r7, #36]
 2358 0b22 1344     		add	r3, r3, r2
 2359 0b24 0122     		movs	r2, #1
 2360 0b26 1A70     		strb	r2, [r3]
 681:build/openmote-cc2538_armgcc/drivers/common/openserial.c ****             ptr         += 1;
 2361              		.loc 1 681 0
 2362 0b28 97F83030 		ldrb	r3, [r7, #48]
 2363 0b2c 0133     		adds	r3, r3, #1
 2364 0b2e 87F83030 		strb	r3, [r7, #48]
 682:build/openmote-cc2538_armgcc/drivers/common/openserial.c ****             i++;
 2365              		.loc 1 682 0
 2366 0b32 FB7D     		ldrb	r3, [r7, #23]	@ zero_extendqisi2
 2367 0b34 0133     		adds	r3, r3, #1
 2368 0b36 FB75     		strb	r3, [r7, #23]
 2369              	.L113:
 677:build/openmote-cc2538_armgcc/drivers/common/openserial.c ****             celllist_delete[i].slotoffset     = openserial_vars.inputBuf[ptr];
 2370              		.loc 1 677 0
 2371 0b38 3B68     		ldr	r3, [r7]
 2372 0b3a 1B78     		ldrb	r3, [r3]	@ zero_extendqisi2
 2373 0b3c FA7D     		ldrb	r2, [r7, #23]	@ zero_extendqisi2
 2374 0b3e 9A42     		cmp	r2, r3
 2375 0b40 CBD3     		bcc	.L114
 683:build/openmote-cc2538_armgcc/drivers/common/openserial.c ****         }
 684:build/openmote-cc2538_armgcc/drivers/common/openserial.c **** 
 685:build/openmote-cc2538_armgcc/drivers/common/openserial.c ****         commandLen      -= (*numCells) * 2;
 2376              		.loc 1 685 0
 2377 0b42 3B68     		ldr	r3, [r7]
 2378 0b44 1B78     		ldrb	r3, [r3]	@ zero_extendqisi2
 2379 0b46 1A46     		mov	r2, r3
 2380 0b48 D201     		lsls	r2, r2, #7
 2381 0b4a D31A     		subs	r3, r2, r3
 2382 0b4c 5B00     		lsls	r3, r3, #1
 2383 0b4e DAB2     		uxtb	r2, r3
 2384 0b50 97F83430 		ldrb	r3, [r7, #52]
 2385 0b54 1344     		add	r3, r3, r2
 2386 0b56 87F83430 		strb	r3, [r7, #52]
 686:build/openmote-cc2538_armgcc/drivers/common/openserial.c ****         ptr             += *numCells;
 2387              		.loc 1 686 0
 2388 0b5a 3B68     		ldr	r3, [r7]
 2389 0b5c 1A78     		ldrb	r2, [r3]	@ zero_extendqisi2
 2390 0b5e 97F83030 		ldrb	r3, [r7, #48]
 2391 0b62 1344     		add	r3, r3, r2
 2392 0b64 87F83030 		strb	r3, [r7, #48]
 687:build/openmote-cc2538_armgcc/drivers/common/openserial.c ****         // retrieve cell list to be relocated
 688:build/openmote-cc2538_armgcc/drivers/common/openserial.c ****         i = 0;
 2393              		.loc 1 688 0
 2394 0b68 0023     		movs	r3, #0
 2395 0b6a FB75     		strb	r3, [r7, #23]
 689:build/openmote-cc2538_armgcc/drivers/common/openserial.c ****         celllistLen = commandLen/2;
 2396              		.loc 1 689 0
 2397 0b6c 97F83430 		ldrb	r3, [r7, #52]	@ zero_extendqisi2
 2398 0b70 5B08     		lsrs	r3, r3, #1
 2399 0b72 BB75     		strb	r3, [r7, #22]
 690:build/openmote-cc2538_armgcc/drivers/common/openserial.c ****         while(commandLen>celllistLen){
 2400              		.loc 1 690 0
 2401 0b74 32E0     		b	.L115
 2402              	.L116:
 691:build/openmote-cc2538_armgcc/drivers/common/openserial.c ****             celllist_add[i].slotoffset     = openserial_vars.inputBuf[ptr];
 2403              		.loc 1 691 0
 2404 0b76 FA7D     		ldrb	r2, [r7, #23]	@ zero_extendqisi2
 2405 0b78 1346     		mov	r3, r2
 2406 0b7a 9B00     		lsls	r3, r3, #2
 2407 0b7c 1344     		add	r3, r3, r2
 2408 0b7e 3A6A     		ldr	r2, [r7, #32]
 2409 0b80 1344     		add	r3, r3, r2
 2410 0b82 97F83020 		ldrb	r2, [r7, #48]	@ zero_extendqisi2
 2411 0b86 1B49     		ldr	r1, .L117
 2412 0b88 0A44     		add	r2, r2, r1
 2413 0b8a 527D     		ldrb	r2, [r2, #21]	@ zero_extendqisi2
 2414 0b8c 92B2     		uxth	r2, r2
 2415 0b8e A3F80120 		strh	r2, [r3, #1]	@ unaligned
 692:build/openmote-cc2538_armgcc/drivers/common/openserial.c ****             celllist_add[i].channeloffset  = openserial_vars.inputBuf[ptr+celllistLen];
 2416              		.loc 1 692 0
 2417 0b92 FA7D     		ldrb	r2, [r7, #23]	@ zero_extendqisi2
 2418 0b94 1346     		mov	r3, r2
 2419 0b96 9B00     		lsls	r3, r3, #2
 2420 0b98 1344     		add	r3, r3, r2
 2421 0b9a 3A6A     		ldr	r2, [r7, #32]
 2422 0b9c 1344     		add	r3, r3, r2
 2423 0b9e 97F83010 		ldrb	r1, [r7, #48]	@ zero_extendqisi2
 2424 0ba2 BA7D     		ldrb	r2, [r7, #22]	@ zero_extendqisi2
 2425 0ba4 0A44     		add	r2, r2, r1
 2426 0ba6 1349     		ldr	r1, .L117
 2427 0ba8 0A44     		add	r2, r2, r1
 2428 0baa 527D     		ldrb	r2, [r2, #21]	@ zero_extendqisi2
 2429 0bac 92B2     		uxth	r2, r2
 2430 0bae A3F80320 		strh	r2, [r3, #3]	@ unaligned
 693:build/openmote-cc2538_armgcc/drivers/common/openserial.c ****             celllist_add[i].isUsed         = TRUE;
 2431              		.loc 1 693 0
 2432 0bb2 FA7D     		ldrb	r2, [r7, #23]	@ zero_extendqisi2
 2433 0bb4 1346     		mov	r3, r2
 2434 0bb6 9B00     		lsls	r3, r3, #2
 2435 0bb8 1344     		add	r3, r3, r2
 2436 0bba 3A6A     		ldr	r2, [r7, #32]
 2437 0bbc 1344     		add	r3, r3, r2
 2438 0bbe 0122     		movs	r2, #1
 2439 0bc0 1A70     		strb	r2, [r3]
 694:build/openmote-cc2538_armgcc/drivers/common/openserial.c ****             ptr         += 1;
 2440              		.loc 1 694 0
 2441 0bc2 97F83030 		ldrb	r3, [r7, #48]
 2442 0bc6 0133     		adds	r3, r3, #1
 2443 0bc8 87F83030 		strb	r3, [r7, #48]
 695:build/openmote-cc2538_armgcc/drivers/common/openserial.c ****             commandLen  -= 1;
 2444              		.loc 1 695 0
 2445 0bcc 97F83430 		ldrb	r3, [r7, #52]
 2446 0bd0 013B     		subs	r3, r3, #1
 2447 0bd2 87F83430 		strb	r3, [r7, #52]
 696:build/openmote-cc2538_armgcc/drivers/common/openserial.c ****             i++;
 2448              		.loc 1 696 0
 2449 0bd6 FB7D     		ldrb	r3, [r7, #23]	@ zero_extendqisi2
 2450 0bd8 0133     		adds	r3, r3, #1
 2451 0bda FB75     		strb	r3, [r7, #23]
 2452              	.L115:
 690:build/openmote-cc2538_armgcc/drivers/common/openserial.c ****             celllist_add[i].slotoffset     = openserial_vars.inputBuf[ptr];
 2453              		.loc 1 690 0
 2454 0bdc 97F83420 		ldrb	r2, [r7, #52]	@ zero_extendqisi2
 2455 0be0 BB7D     		ldrb	r3, [r7, #22]	@ zero_extendqisi2
 2456 0be2 9A42     		cmp	r2, r3
 2457 0be4 C7D8     		bhi	.L116
 697:build/openmote-cc2538_armgcc/drivers/common/openserial.c ****         }
 698:build/openmote-cc2538_armgcc/drivers/common/openserial.c ****         return;
 2458              		.loc 1 698 0 discriminator 3
 2459 0be6 00BF     		nop
 2460              	.L102:
 699:build/openmote-cc2538_armgcc/drivers/common/openserial.c ****     }
 700:build/openmote-cc2538_armgcc/drivers/common/openserial.c **** }
 2461              		.loc 1 700 0
 2462 0be8 1C37     		adds	r7, r7, #28
 2463              		.cfi_def_cfa_offset 4
 2464 0bea BD46     		mov	sp, r7
 2465              		.cfi_def_cfa_register 13
 2466              		@ sp needed
 2467 0bec 5DF8047B 		ldr	r7, [sp], #4
 2468              		.cfi_restore 7
 2469              		.cfi_def_cfa_offset 0
 2470 0bf0 7047     		bx	lr
 2471              	.L118:
 2472 0bf2 00BF     		.align	2
 2473              	.L117:
 2474 0bf4 00000000 		.word	openserial_vars
 2475              		.cfi_endproc
 2476              	.LFE18:
 2478              		.align	2
 2479              		.global	openserial_handleCommands
 2480              		.thumb
 2481              		.thumb_func
 2483              	openserial_handleCommands:
 2484              	.LFB19:
 701:build/openmote-cc2538_armgcc/drivers/common/openserial.c **** 
 702:build/openmote-cc2538_armgcc/drivers/common/openserial.c **** void openserial_handleCommands(void){
 2485              		.loc 1 702 0
 2486              		.cfi_startproc
 2487              		@ args = 0, pretend = 0, frame = 112
 2488              		@ frame_needed = 1, uses_anonymous_args = 0
 2489 0bf8 2DE9F041 		push	{r4, r5, r6, r7, r8, lr}
 2490              		.cfi_def_cfa_offset 24
 2491              		.cfi_offset 4, -24
 2492              		.cfi_offset 5, -20
 2493              		.cfi_offset 6, -16
 2494              		.cfi_offset 7, -12
 2495              		.cfi_offset 8, -8
 2496              		.cfi_offset 14, -4
 2497 0bfc A2B0     		sub	sp, sp, #136
 2498              		.cfi_def_cfa_offset 160
 2499 0bfe 06AF     		add	r7, sp, #24
 2500              		.cfi_def_cfa 7, 136
 703:build/openmote-cc2538_armgcc/drivers/common/openserial.c ****     uint8_t  input_buffer[20];
 704:build/openmote-cc2538_armgcc/drivers/common/openserial.c ****     uint8_t  numDataBytes;
 705:build/openmote-cc2538_armgcc/drivers/common/openserial.c ****     uint8_t  commandId;
 706:build/openmote-cc2538_armgcc/drivers/common/openserial.c ****     uint8_t  commandLen;
 707:build/openmote-cc2538_armgcc/drivers/common/openserial.c ****     uint8_t  comandParam_8;
 708:build/openmote-cc2538_armgcc/drivers/common/openserial.c ****     uint16_t comandParam_16;
 709:build/openmote-cc2538_armgcc/drivers/common/openserial.c **** 
 710:build/openmote-cc2538_armgcc/drivers/common/openserial.c ****     uint8_t  code,cellOptions,numCell,listOffset,maxListLen;
 711:build/openmote-cc2538_armgcc/drivers/common/openserial.c ****     uint8_t  ptr;
 712:build/openmote-cc2538_armgcc/drivers/common/openserial.c ****     cellInfo_ht celllist_add[CELLLIST_MAX_LEN];
 713:build/openmote-cc2538_armgcc/drivers/common/openserial.c ****     cellInfo_ht celllist_delete[CELLLIST_MAX_LEN];
 714:build/openmote-cc2538_armgcc/drivers/common/openserial.c **** 
 715:build/openmote-cc2538_armgcc/drivers/common/openserial.c ****     open_addr_t neighbor;
 716:build/openmote-cc2538_armgcc/drivers/common/openserial.c ****     bool        foundNeighbor;
 717:build/openmote-cc2538_armgcc/drivers/common/openserial.c **** 
 718:build/openmote-cc2538_armgcc/drivers/common/openserial.c ****     ptr = 0;
 2501              		.loc 1 718 0
 2502 0c00 0023     		movs	r3, #0
 2503 0c02 87F86F30 		strb	r3, [r7, #111]
 719:build/openmote-cc2538_armgcc/drivers/common/openserial.c ****     memset(celllist_add,0,CELLLIST_MAX_LEN*sizeof(cellInfo_ht));
 2504              		.loc 1 719 0
 2505 0c06 07F13003 		add	r3, r7, #48
 2506 0c0a 1846     		mov	r0, r3
 2507 0c0c 0021     		movs	r1, #0
 2508 0c0e 1922     		movs	r2, #25
 2509 0c10 FFF7FEFF 		bl	memset
 720:build/openmote-cc2538_armgcc/drivers/common/openserial.c ****     memset(celllist_delete,0,CELLLIST_MAX_LEN*sizeof(cellInfo_ht));
 2510              		.loc 1 720 0
 2511 0c14 07F11403 		add	r3, r7, #20
 2512 0c18 1846     		mov	r0, r3
 2513 0c1a 0021     		movs	r1, #0
 2514 0c1c 1922     		movs	r2, #25
 2515 0c1e FFF7FEFF 		bl	memset
 721:build/openmote-cc2538_armgcc/drivers/common/openserial.c **** 
 722:build/openmote-cc2538_armgcc/drivers/common/openserial.c ****     numDataBytes = openserial_getInputBufferFilllevel();
 2516              		.loc 1 722 0
 2517 0c22 FFF7FEFF 		bl	openserial_getInputBufferFilllevel
 2518 0c26 0346     		mov	r3, r0
 2519 0c28 87F86E30 		strb	r3, [r7, #110]
 723:build/openmote-cc2538_armgcc/drivers/common/openserial.c ****     //copying the buffer
 724:build/openmote-cc2538_armgcc/drivers/common/openserial.c ****     openserial_getInputBuffer(&(input_buffer[ptr]),numDataBytes);
 2520              		.loc 1 724 0
 2521 0c2c 97F86F30 		ldrb	r3, [r7, #111]	@ zero_extendqisi2
 2522 0c30 07F15002 		add	r2, r7, #80
 2523 0c34 1A44     		add	r2, r2, r3
 2524 0c36 97F86E30 		ldrb	r3, [r7, #110]	@ zero_extendqisi2
 2525 0c3a 1046     		mov	r0, r2
 2526 0c3c 1946     		mov	r1, r3
 2527 0c3e FFF7FEFF 		bl	openserial_getInputBuffer
 725:build/openmote-cc2538_armgcc/drivers/common/openserial.c ****     ptr++;
 2528              		.loc 1 725 0
 2529 0c42 97F86F30 		ldrb	r3, [r7, #111]	@ zero_extendqisi2
 2530 0c46 0133     		adds	r3, r3, #1
 2531 0c48 87F86F30 		strb	r3, [r7, #111]
 726:build/openmote-cc2538_armgcc/drivers/common/openserial.c ****     commandId  = openserial_vars.inputBuf[ptr];
 2532              		.loc 1 726 0
 2533 0c4c 97F86F30 		ldrb	r3, [r7, #111]	@ zero_extendqisi2
 2534 0c50 C64A     		ldr	r2, .L147
 2535 0c52 1344     		add	r3, r3, r2
 2536 0c54 5B7D     		ldrb	r3, [r3, #21]
 2537 0c56 87F86D30 		strb	r3, [r7, #109]
 727:build/openmote-cc2538_armgcc/drivers/common/openserial.c ****     ptr++;
 2538              		.loc 1 727 0
 2539 0c5a 97F86F30 		ldrb	r3, [r7, #111]	@ zero_extendqisi2
 2540 0c5e 0133     		adds	r3, r3, #1
 2541 0c60 87F86F30 		strb	r3, [r7, #111]
 728:build/openmote-cc2538_armgcc/drivers/common/openserial.c ****     commandLen = openserial_vars.inputBuf[ptr];
 2542              		.loc 1 728 0
 2543 0c64 97F86F30 		ldrb	r3, [r7, #111]	@ zero_extendqisi2
 2544 0c68 C04A     		ldr	r2, .L147
 2545 0c6a 1344     		add	r3, r3, r2
 2546 0c6c 5B7D     		ldrb	r3, [r3, #21]
 2547 0c6e 87F86C30 		strb	r3, [r7, #108]
 729:build/openmote-cc2538_armgcc/drivers/common/openserial.c ****     ptr++;
 2548              		.loc 1 729 0
 2549 0c72 97F86F30 		ldrb	r3, [r7, #111]	@ zero_extendqisi2
 2550 0c76 0133     		adds	r3, r3, #1
 2551 0c78 87F86F30 		strb	r3, [r7, #111]
 730:build/openmote-cc2538_armgcc/drivers/common/openserial.c **** 
 731:build/openmote-cc2538_armgcc/drivers/common/openserial.c ****     switch(commandId) {
 2552              		.loc 1 731 0
 2553 0c7c 97F86D30 		ldrb	r3, [r7, #109]	@ zero_extendqisi2
 2554 0c80 132B     		cmp	r3, #19
 2555 0c82 00F29D81 		bhi	.L146
 2556 0c86 01A2     		adr	r2, .L122
 2557 0c88 52F823F0 		ldr	pc, [r2, r3, lsl #2]
 2558              		.p2align 2
 2559              	.L122:
 2560 0c8c DD0C0000 		.word	.L121+1
 2561 0c90 F70C0000 		.word	.L123+1
 2562 0c94 110D0000 		.word	.L124+1
 2563 0c98 430D0000 		.word	.L125+1
 2564 0c9c 750D0000 		.word	.L126+1
 2565 0ca0 A70D0000 		.word	.L127+1
 2566 0ca4 D90D0000 		.word	.L128+1
 2567 0ca8 FD0D0000 		.word	.L129+1
 2568 0cac 2F0E0000 		.word	.L130+1
 2569 0cb0 530E0000 		.word	.L131+1
 2570 0cb4 530E0000 		.word	.L131+1
 2571 0cb8 530E0000 		.word	.L131+1
 2572 0cbc 530E0000 		.word	.L131+1
 2573 0cc0 530E0000 		.word	.L131+1
 2574 0cc4 530E0000 		.word	.L131+1
 2575 0cc8 ED0E0000 		.word	.L132+1
 2576 0ccc 1F0F0000 		.word	.L133+1
 2577 0cd0 510F0000 		.word	.L134+1
 2578 0cd4 710F0000 		.word	.L135+1
 2579 0cd8 A30F0000 		.word	.L136+1
 2580              		.p2align 1
 2581              	.L121:
 732:build/openmote-cc2538_armgcc/drivers/common/openserial.c ****         case COMMAND_SET_EBPERIOD:
 733:build/openmote-cc2538_armgcc/drivers/common/openserial.c ****             comandParam_8 = openserial_vars.inputBuf[ptr];
 2582              		.loc 1 733 0
 2583 0cdc 97F86F30 		ldrb	r3, [r7, #111]	@ zero_extendqisi2
 2584 0ce0 A24A     		ldr	r2, .L147
 2585 0ce2 1344     		add	r3, r3, r2
 2586 0ce4 5B7D     		ldrb	r3, [r3, #21]
 2587 0ce6 87F86B30 		strb	r3, [r7, #107]
 734:build/openmote-cc2538_armgcc/drivers/common/openserial.c ****             sixtop_setEBPeriod(comandParam_8); // one byte, in seconds
 2588              		.loc 1 734 0
 2589 0cea 97F86B30 		ldrb	r3, [r7, #107]	@ zero_extendqisi2
 2590 0cee 1846     		mov	r0, r3
 2591 0cf0 FFF7FEFF 		bl	sixtop_setEBPeriod
 735:build/openmote-cc2538_armgcc/drivers/common/openserial.c ****             break;
 2592              		.loc 1 735 0
 2593 0cf4 65E1     		b	.L119
 2594              	.L123:
 736:build/openmote-cc2538_armgcc/drivers/common/openserial.c ****         case COMMAND_SET_CHANNEL:
 737:build/openmote-cc2538_armgcc/drivers/common/openserial.c ****            comandParam_8 = openserial_vars.inputBuf[ptr];
 2595              		.loc 1 737 0
 2596 0cf6 97F86F30 		ldrb	r3, [r7, #111]	@ zero_extendqisi2
 2597 0cfa 9C4A     		ldr	r2, .L147
 2598 0cfc 1344     		add	r3, r3, r2
 2599 0cfe 5B7D     		ldrb	r3, [r3, #21]
 2600 0d00 87F86B30 		strb	r3, [r7, #107]
 738:build/openmote-cc2538_armgcc/drivers/common/openserial.c ****            // set communication channel for protocol stack
 739:build/openmote-cc2538_armgcc/drivers/common/openserial.c ****            ieee154e_setSingleChannel(comandParam_8); // one byte
 2601              		.loc 1 739 0
 2602 0d04 97F86B30 		ldrb	r3, [r7, #107]	@ zero_extendqisi2
 2603 0d08 1846     		mov	r0, r3
 2604 0d0a FFF7FEFF 		bl	ieee154e_setSingleChannel
 740:build/openmote-cc2538_armgcc/drivers/common/openserial.c ****            break;
 2605              		.loc 1 740 0
 2606 0d0e 58E1     		b	.L119
 2607              	.L124:
 741:build/openmote-cc2538_armgcc/drivers/common/openserial.c ****         case COMMAND_SET_KAPERIOD: // two bytes, in slots
 742:build/openmote-cc2538_armgcc/drivers/common/openserial.c ****             comandParam_16 = (openserial_vars.inputBuf[ptr] & 0x00ff) | \
 2608              		.loc 1 742 0
 2609 0d10 97F86F30 		ldrb	r3, [r7, #111]	@ zero_extendqisi2
 2610 0d14 954A     		ldr	r2, .L147
 2611 0d16 1344     		add	r3, r3, r2
 2612 0d18 5B7D     		ldrb	r3, [r3, #21]	@ zero_extendqisi2
 2613 0d1a 99B2     		uxth	r1, r3
 743:build/openmote-cc2538_armgcc/drivers/common/openserial.c ****                 ((openserial_vars.inputBuf[ptr+1]<<8) & 0xff00);
 2614              		.loc 1 743 0
 2615 0d1c 97F86F30 		ldrb	r3, [r7, #111]	@ zero_extendqisi2
 2616 0d20 0133     		adds	r3, r3, #1
 2617 0d22 924A     		ldr	r2, .L147
 2618 0d24 1344     		add	r3, r3, r2
 2619 0d26 5B7D     		ldrb	r3, [r3, #21]	@ zero_extendqisi2
 2620 0d28 1B02     		lsls	r3, r3, #8
 742:build/openmote-cc2538_armgcc/drivers/common/openserial.c ****                 ((openserial_vars.inputBuf[ptr+1]<<8) & 0xff00);
 2621              		.loc 1 742 0
 2622 0d2a 9BB2     		uxth	r3, r3
 2623 0d2c 0A46     		mov	r2, r1	@ movhi
 2624 0d2e 1343     		orrs	r3, r3, r2
 2625 0d30 9BB2     		uxth	r3, r3
 2626 0d32 A7F86830 		strh	r3, [r7, #104]	@ movhi
 744:build/openmote-cc2538_armgcc/drivers/common/openserial.c ****             sixtop_setKaPeriod(comandParam_16);
 2627              		.loc 1 744 0
 2628 0d36 B7F86830 		ldrh	r3, [r7, #104]
 2629 0d3a 1846     		mov	r0, r3
 2630 0d3c FFF7FEFF 		bl	sixtop_setKaPeriod
 745:build/openmote-cc2538_armgcc/drivers/common/openserial.c ****             break;
 2631              		.loc 1 745 0
 2632 0d40 3FE1     		b	.L119
 2633              	.L125:
 746:build/openmote-cc2538_armgcc/drivers/common/openserial.c ****         case COMMAND_SET_DIOPERIOD: // two bytes, in mili-seconds
 747:build/openmote-cc2538_armgcc/drivers/common/openserial.c ****             comandParam_16 = (openserial_vars.inputBuf[ptr] & 0x00ff) | \
 2634              		.loc 1 747 0
 2635 0d42 97F86F30 		ldrb	r3, [r7, #111]	@ zero_extendqisi2
 2636 0d46 894A     		ldr	r2, .L147
 2637 0d48 1344     		add	r3, r3, r2
 2638 0d4a 5B7D     		ldrb	r3, [r3, #21]	@ zero_extendqisi2
 2639 0d4c 99B2     		uxth	r1, r3
 748:build/openmote-cc2538_armgcc/drivers/common/openserial.c ****                 ((openserial_vars.inputBuf[ptr+1]<<8) & 0xff00);
 2640              		.loc 1 748 0
 2641 0d4e 97F86F30 		ldrb	r3, [r7, #111]	@ zero_extendqisi2
 2642 0d52 0133     		adds	r3, r3, #1
 2643 0d54 854A     		ldr	r2, .L147
 2644 0d56 1344     		add	r3, r3, r2
 2645 0d58 5B7D     		ldrb	r3, [r3, #21]	@ zero_extendqisi2
 2646 0d5a 1B02     		lsls	r3, r3, #8
 747:build/openmote-cc2538_armgcc/drivers/common/openserial.c ****                 ((openserial_vars.inputBuf[ptr+1]<<8) & 0xff00);
 2647              		.loc 1 747 0
 2648 0d5c 9BB2     		uxth	r3, r3
 2649 0d5e 0A46     		mov	r2, r1	@ movhi
 2650 0d60 1343     		orrs	r3, r3, r2
 2651 0d62 9BB2     		uxth	r3, r3
 2652 0d64 A7F86830 		strh	r3, [r7, #104]	@ movhi
 749:build/openmote-cc2538_armgcc/drivers/common/openserial.c ****             icmpv6rpl_setDIOPeriod(comandParam_16);
 2653              		.loc 1 749 0
 2654 0d68 B7F86830 		ldrh	r3, [r7, #104]
 2655 0d6c 1846     		mov	r0, r3
 2656 0d6e FFF7FEFF 		bl	icmpv6rpl_setDIOPeriod
 750:build/openmote-cc2538_armgcc/drivers/common/openserial.c ****             break;
 2657              		.loc 1 750 0
 2658 0d72 26E1     		b	.L119
 2659              	.L126:
 751:build/openmote-cc2538_armgcc/drivers/common/openserial.c ****         case COMMAND_SET_DAOPERIOD: // two bytes, in mili-seconds
 752:build/openmote-cc2538_armgcc/drivers/common/openserial.c ****             comandParam_16 = (openserial_vars.inputBuf[ptr] & 0x00ff) | \
 2660              		.loc 1 752 0
 2661 0d74 97F86F30 		ldrb	r3, [r7, #111]	@ zero_extendqisi2
 2662 0d78 7C4A     		ldr	r2, .L147
 2663 0d7a 1344     		add	r3, r3, r2
 2664 0d7c 5B7D     		ldrb	r3, [r3, #21]	@ zero_extendqisi2
 2665 0d7e 99B2     		uxth	r1, r3
 753:build/openmote-cc2538_armgcc/drivers/common/openserial.c ****                 ((openserial_vars.inputBuf[ptr+1]<<8) & 0xff00);
 2666              		.loc 1 753 0
 2667 0d80 97F86F30 		ldrb	r3, [r7, #111]	@ zero_extendqisi2
 2668 0d84 0133     		adds	r3, r3, #1
 2669 0d86 794A     		ldr	r2, .L147
 2670 0d88 1344     		add	r3, r3, r2
 2671 0d8a 5B7D     		ldrb	r3, [r3, #21]	@ zero_extendqisi2
 2672 0d8c 1B02     		lsls	r3, r3, #8
 752:build/openmote-cc2538_armgcc/drivers/common/openserial.c ****                 ((openserial_vars.inputBuf[ptr+1]<<8) & 0xff00);
 2673              		.loc 1 752 0
 2674 0d8e 9BB2     		uxth	r3, r3
 2675 0d90 0A46     		mov	r2, r1	@ movhi
 2676 0d92 1343     		orrs	r3, r3, r2
 2677 0d94 9BB2     		uxth	r3, r3
 2678 0d96 A7F86830 		strh	r3, [r7, #104]	@ movhi
 754:build/openmote-cc2538_armgcc/drivers/common/openserial.c ****             icmpv6rpl_setDAOPeriod(comandParam_16);
 2679              		.loc 1 754 0
 2680 0d9a B7F86830 		ldrh	r3, [r7, #104]
 2681 0d9e 1846     		mov	r0, r3
 2682 0da0 FFF7FEFF 		bl	icmpv6rpl_setDAOPeriod
 755:build/openmote-cc2538_armgcc/drivers/common/openserial.c ****             break;
 2683              		.loc 1 755 0
 2684 0da4 0DE1     		b	.L119
 2685              	.L127:
 756:build/openmote-cc2538_armgcc/drivers/common/openserial.c ****         case COMMAND_SET_DAGRANK: // two bytes
 757:build/openmote-cc2538_armgcc/drivers/common/openserial.c ****             comandParam_16 = (openserial_vars.inputBuf[ptr] & 0x00ff) | \
 2686              		.loc 1 757 0
 2687 0da6 97F86F30 		ldrb	r3, [r7, #111]	@ zero_extendqisi2
 2688 0daa 704A     		ldr	r2, .L147
 2689 0dac 1344     		add	r3, r3, r2
 2690 0dae 5B7D     		ldrb	r3, [r3, #21]	@ zero_extendqisi2
 2691 0db0 99B2     		uxth	r1, r3
 758:build/openmote-cc2538_armgcc/drivers/common/openserial.c ****                 ((openserial_vars.inputBuf[ptr+1]<<8) & 0xff00);
 2692              		.loc 1 758 0
 2693 0db2 97F86F30 		ldrb	r3, [r7, #111]	@ zero_extendqisi2
 2694 0db6 0133     		adds	r3, r3, #1
 2695 0db8 6C4A     		ldr	r2, .L147
 2696 0dba 1344     		add	r3, r3, r2
 2697 0dbc 5B7D     		ldrb	r3, [r3, #21]	@ zero_extendqisi2
 2698 0dbe 1B02     		lsls	r3, r3, #8
 757:build/openmote-cc2538_armgcc/drivers/common/openserial.c ****                 ((openserial_vars.inputBuf[ptr+1]<<8) & 0xff00);
 2699              		.loc 1 757 0
 2700 0dc0 9BB2     		uxth	r3, r3
 2701 0dc2 0A46     		mov	r2, r1	@ movhi
 2702 0dc4 1343     		orrs	r3, r3, r2
 2703 0dc6 9BB2     		uxth	r3, r3
 2704 0dc8 A7F86830 		strh	r3, [r7, #104]	@ movhi
 759:build/openmote-cc2538_armgcc/drivers/common/openserial.c ****             icmpv6rpl_setMyDAGrank(comandParam_16);
 2705              		.loc 1 759 0
 2706 0dcc B7F86830 		ldrh	r3, [r7, #104]
 2707 0dd0 1846     		mov	r0, r3
 2708 0dd2 FFF7FEFF 		bl	icmpv6rpl_setMyDAGrank
 760:build/openmote-cc2538_armgcc/drivers/common/openserial.c ****             break;
 2709              		.loc 1 760 0
 2710 0dd6 F4E0     		b	.L119
 2711              	.L128:
 761:build/openmote-cc2538_armgcc/drivers/common/openserial.c ****         case COMMAND_SET_SECURITY_STATUS: // one byte
 762:build/openmote-cc2538_armgcc/drivers/common/openserial.c ****             comandParam_8 = openserial_vars.inputBuf[ptr];
 2712              		.loc 1 762 0
 2713 0dd8 97F86F30 		ldrb	r3, [r7, #111]	@ zero_extendqisi2
 2714 0ddc 634A     		ldr	r2, .L147
 2715 0dde 1344     		add	r3, r3, r2
 2716 0de0 5B7D     		ldrb	r3, [r3, #21]
 2717 0de2 87F86B30 		strb	r3, [r7, #107]
 763:build/openmote-cc2538_armgcc/drivers/common/openserial.c ****             ieee154e_setIsSecurityEnabled(comandParam_8);
 2718              		.loc 1 763 0
 2719 0de6 97F86B30 		ldrb	r3, [r7, #107]	@ zero_extendqisi2
 2720 0dea 002B     		cmp	r3, #0
 2721 0dec 14BF     		ite	ne
 2722 0dee 0123     		movne	r3, #1
 2723 0df0 0023     		moveq	r3, #0
 2724 0df2 DBB2     		uxtb	r3, r3
 2725 0df4 1846     		mov	r0, r3
 2726 0df6 FFF7FEFF 		bl	ieee154e_setIsSecurityEnabled
 764:build/openmote-cc2538_armgcc/drivers/common/openserial.c ****             break;
 2727              		.loc 1 764 0
 2728 0dfa E2E0     		b	.L119
 2729              	.L129:
 765:build/openmote-cc2538_armgcc/drivers/common/openserial.c ****         case COMMAND_SET_SLOTFRAMELENGTH: // two bytes
 766:build/openmote-cc2538_armgcc/drivers/common/openserial.c ****             comandParam_16 = (openserial_vars.inputBuf[ptr] & 0x00ff) | \
 2730              		.loc 1 766 0
 2731 0dfc 97F86F30 		ldrb	r3, [r7, #111]	@ zero_extendqisi2
 2732 0e00 5A4A     		ldr	r2, .L147
 2733 0e02 1344     		add	r3, r3, r2
 2734 0e04 5B7D     		ldrb	r3, [r3, #21]	@ zero_extendqisi2
 2735 0e06 99B2     		uxth	r1, r3
 767:build/openmote-cc2538_armgcc/drivers/common/openserial.c ****                 ((openserial_vars.inputBuf[ptr+1]<<8) & 0xff00);
 2736              		.loc 1 767 0
 2737 0e08 97F86F30 		ldrb	r3, [r7, #111]	@ zero_extendqisi2
 2738 0e0c 0133     		adds	r3, r3, #1
 2739 0e0e 574A     		ldr	r2, .L147
 2740 0e10 1344     		add	r3, r3, r2
 2741 0e12 5B7D     		ldrb	r3, [r3, #21]	@ zero_extendqisi2
 2742 0e14 1B02     		lsls	r3, r3, #8
 766:build/openmote-cc2538_armgcc/drivers/common/openserial.c ****                 ((openserial_vars.inputBuf[ptr+1]<<8) & 0xff00);
 2743              		.loc 1 766 0
 2744 0e16 9BB2     		uxth	r3, r3
 2745 0e18 0A46     		mov	r2, r1	@ movhi
 2746 0e1a 1343     		orrs	r3, r3, r2
 2747 0e1c 9BB2     		uxth	r3, r3
 2748 0e1e A7F86830 		strh	r3, [r7, #104]	@ movhi
 768:build/openmote-cc2538_armgcc/drivers/common/openserial.c ****             schedule_setFrameLength(comandParam_16);
 2749              		.loc 1 768 0
 2750 0e22 B7F86830 		ldrh	r3, [r7, #104]
 2751 0e26 1846     		mov	r0, r3
 2752 0e28 FFF7FEFF 		bl	schedule_setFrameLength
 769:build/openmote-cc2538_armgcc/drivers/common/openserial.c ****             break;
 2753              		.loc 1 769 0
 2754 0e2c C9E0     		b	.L119
 2755              	.L130:
 770:build/openmote-cc2538_armgcc/drivers/common/openserial.c ****         case COMMAND_SET_ACK_STATUS:
 771:build/openmote-cc2538_armgcc/drivers/common/openserial.c ****             comandParam_8 = openserial_vars.inputBuf[ptr];
 2756              		.loc 1 771 0
 2757 0e2e 97F86F30 		ldrb	r3, [r7, #111]	@ zero_extendqisi2
 2758 0e32 4E4A     		ldr	r2, .L147
 2759 0e34 1344     		add	r3, r3, r2
 2760 0e36 5B7D     		ldrb	r3, [r3, #21]
 2761 0e38 87F86B30 		strb	r3, [r7, #107]
 772:build/openmote-cc2538_armgcc/drivers/common/openserial.c ****             ieee154e_setIsAckEnabled(comandParam_8);
 2762              		.loc 1 772 0
 2763 0e3c 97F86B30 		ldrb	r3, [r7, #107]	@ zero_extendqisi2
 2764 0e40 002B     		cmp	r3, #0
 2765 0e42 14BF     		ite	ne
 2766 0e44 0123     		movne	r3, #1
 2767 0e46 0023     		moveq	r3, #0
 2768 0e48 DBB2     		uxtb	r3, r3
 2769 0e4a 1846     		mov	r0, r3
 2770 0e4c FFF7FEFF 		bl	ieee154e_setIsAckEnabled
 773:build/openmote-cc2538_armgcc/drivers/common/openserial.c ****             break;
 2771              		.loc 1 773 0
 2772 0e50 B7E0     		b	.L119
 2773              	.L131:
 774:build/openmote-cc2538_armgcc/drivers/common/openserial.c ****         case COMMAND_SET_6P_ADD:
 775:build/openmote-cc2538_armgcc/drivers/common/openserial.c ****         case COMMAND_SET_6P_DELETE:
 776:build/openmote-cc2538_armgcc/drivers/common/openserial.c ****         case COMMAND_SET_6P_RELOCATE:
 777:build/openmote-cc2538_armgcc/drivers/common/openserial.c ****         case COMMAND_SET_6P_COUNT:
 778:build/openmote-cc2538_armgcc/drivers/common/openserial.c ****         case COMMAND_SET_6P_LIST:
 779:build/openmote-cc2538_armgcc/drivers/common/openserial.c ****         case COMMAND_SET_6P_CLEAR:
 780:build/openmote-cc2538_armgcc/drivers/common/openserial.c ****             // get preferred parent
 781:build/openmote-cc2538_armgcc/drivers/common/openserial.c ****             foundNeighbor =icmpv6rpl_getPreferredParentEui64(&neighbor);
 2774              		.loc 1 781 0
 2775 0e52 3B46     		mov	r3, r7
 2776 0e54 1846     		mov	r0, r3
 2777 0e56 FFF7FEFF 		bl	icmpv6rpl_getPreferredParentEui64
 2778 0e5a 0346     		mov	r3, r0
 2779 0e5c 87F86730 		strb	r3, [r7, #103]
 782:build/openmote-cc2538_armgcc/drivers/common/openserial.c ****             if (foundNeighbor==FALSE) {
 2780              		.loc 1 782 0
 2781 0e60 97F86730 		ldrb	r3, [r7, #103]
 2782 0e64 83F00103 		eor	r3, r3, #1
 2783 0e68 DBB2     		uxtb	r3, r3
 2784 0e6a 002B     		cmp	r3, #0
 2785 0e6c 00D0     		beq	.L138
 783:build/openmote-cc2538_armgcc/drivers/common/openserial.c ****                 break;
 2786              		.loc 1 783 0
 2787 0e6e A8E0     		b	.L119
 2788              	.L138:
 784:build/openmote-cc2538_armgcc/drivers/common/openserial.c ****             }
 785:build/openmote-cc2538_armgcc/drivers/common/openserial.c ****             // the following sequence of bytes are, slotframe, cellOption, numCell, celllist
 786:build/openmote-cc2538_armgcc/drivers/common/openserial.c ****             openserial_get6pInfo(commandId,&code,&cellOptions,&numCell,celllist_add,celllist_delete
 2789              		.loc 1 786 0
 2790 0e70 97F86D00 		ldrb	r0, [r7, #109]	@ zero_extendqisi2
 2791 0e74 07F14F01 		add	r1, r7, #79
 2792 0e78 07F14E02 		add	r2, r7, #78
 2793 0e7c 07F14D04 		add	r4, r7, #77
 2794 0e80 07F13003 		add	r3, r7, #48
 2795 0e84 0093     		str	r3, [sp]
 2796 0e86 07F11403 		add	r3, r7, #20
 2797 0e8a 0193     		str	r3, [sp, #4]
 2798 0e8c 07F14C03 		add	r3, r7, #76
 2799 0e90 0293     		str	r3, [sp, #8]
 2800 0e92 07F14B03 		add	r3, r7, #75
 2801 0e96 0393     		str	r3, [sp, #12]
 2802 0e98 97F86F30 		ldrb	r3, [r7, #111]	@ zero_extendqisi2
 2803 0e9c 0493     		str	r3, [sp, #16]
 2804 0e9e 97F86C30 		ldrb	r3, [r7, #108]	@ zero_extendqisi2
 2805 0ea2 0593     		str	r3, [sp, #20]
 2806 0ea4 2346     		mov	r3, r4
 2807 0ea6 FFF7FEFF 		bl	openserial_get6pInfo
 787:build/openmote-cc2538_armgcc/drivers/common/openserial.c ****             sixtop_request(
 2808              		.loc 1 787 0
 2809 0eaa 97F84F80 		ldrb	r8, [r7, #79]	@ zero_extendqisi2
 2810 0eae 97F84D50 		ldrb	r5, [r7, #77]	@ zero_extendqisi2
 2811 0eb2 97F84E40 		ldrb	r4, [r7, #78]	@ zero_extendqisi2
 2812 0eb6 FFF7FEFF 		bl	msf_getsfid
 2813 0eba 0346     		mov	r3, r0
 2814 0ebc 1846     		mov	r0, r3
 2815 0ebe 97F84C30 		ldrb	r3, [r7, #76]	@ zero_extendqisi2
 2816 0ec2 9AB2     		uxth	r2, r3
 2817 0ec4 97F84B30 		ldrb	r3, [r7, #75]	@ zero_extendqisi2
 2818 0ec8 9BB2     		uxth	r3, r3
 2819 0eca 3E46     		mov	r6, r7
 2820 0ecc 07F13001 		add	r1, r7, #48
 2821 0ed0 0091     		str	r1, [sp]
 2822 0ed2 07F11401 		add	r1, r7, #20
 2823 0ed6 0191     		str	r1, [sp, #4]
 2824 0ed8 0290     		str	r0, [sp, #8]
 2825 0eda 0392     		str	r2, [sp, #12]
 2826 0edc 0493     		str	r3, [sp, #16]
 2827 0ede 4046     		mov	r0, r8
 2828 0ee0 3146     		mov	r1, r6
 2829 0ee2 2A46     		mov	r2, r5
 2830 0ee4 2346     		mov	r3, r4
 2831 0ee6 FFF7FEFF 		bl	sixtop_request
 788:build/openmote-cc2538_armgcc/drivers/common/openserial.c ****                 code,              // code
 789:build/openmote-cc2538_armgcc/drivers/common/openserial.c ****                 &neighbor,         // neighbor
 790:build/openmote-cc2538_armgcc/drivers/common/openserial.c ****                 numCell,           // number cells
 791:build/openmote-cc2538_armgcc/drivers/common/openserial.c ****                 cellOptions,       // cellOptions
 792:build/openmote-cc2538_armgcc/drivers/common/openserial.c ****                 celllist_add,      // celllist to add
 793:build/openmote-cc2538_armgcc/drivers/common/openserial.c ****                 celllist_delete,   // celllist to delete (not used)
 794:build/openmote-cc2538_armgcc/drivers/common/openserial.c ****                 msf_getsfid(),     // sfid
 795:build/openmote-cc2538_armgcc/drivers/common/openserial.c ****                 listOffset,        // list command offset (not used)
 796:build/openmote-cc2538_armgcc/drivers/common/openserial.c ****                 maxListLen         // list command maximum celllist (not used)
 797:build/openmote-cc2538_armgcc/drivers/common/openserial.c ****             );
 798:build/openmote-cc2538_armgcc/drivers/common/openserial.c ****             break;
 2832              		.loc 1 798 0
 2833 0eea 6AE0     		b	.L119
 2834              	.L132:
 799:build/openmote-cc2538_armgcc/drivers/common/openserial.c ****         case COMMAND_SET_SLOTDURATION:
 800:build/openmote-cc2538_armgcc/drivers/common/openserial.c ****             comandParam_16 = (openserial_vars.inputBuf[ptr] & 0x00ff) | \
 2835              		.loc 1 800 0
 2836 0eec 97F86F30 		ldrb	r3, [r7, #111]	@ zero_extendqisi2
 2837 0ef0 1E4A     		ldr	r2, .L147
 2838 0ef2 1344     		add	r3, r3, r2
 2839 0ef4 5B7D     		ldrb	r3, [r3, #21]	@ zero_extendqisi2
 2840 0ef6 99B2     		uxth	r1, r3
 801:build/openmote-cc2538_armgcc/drivers/common/openserial.c ****                 ((openserial_vars.inputBuf[ptr+1]<<8) & 0xff00);
 2841              		.loc 1 801 0
 2842 0ef8 97F86F30 		ldrb	r3, [r7, #111]	@ zero_extendqisi2
 2843 0efc 0133     		adds	r3, r3, #1
 2844 0efe 1B4A     		ldr	r2, .L147
 2845 0f00 1344     		add	r3, r3, r2
 2846 0f02 5B7D     		ldrb	r3, [r3, #21]	@ zero_extendqisi2
 2847 0f04 1B02     		lsls	r3, r3, #8
 800:build/openmote-cc2538_armgcc/drivers/common/openserial.c ****                 ((openserial_vars.inputBuf[ptr+1]<<8) & 0xff00);
 2848              		.loc 1 800 0
 2849 0f06 9BB2     		uxth	r3, r3
 2850 0f08 0A46     		mov	r2, r1	@ movhi
 2851 0f0a 1343     		orrs	r3, r3, r2
 2852 0f0c 9BB2     		uxth	r3, r3
 2853 0f0e A7F86830 		strh	r3, [r7, #104]	@ movhi
 802:build/openmote-cc2538_armgcc/drivers/common/openserial.c ****             ieee154e_setSlotDuration(comandParam_16);
 2854              		.loc 1 802 0
 2855 0f12 B7F86830 		ldrh	r3, [r7, #104]
 2856 0f16 1846     		mov	r0, r3
 2857 0f18 FFF7FEFF 		bl	ieee154e_setSlotDuration
 803:build/openmote-cc2538_armgcc/drivers/common/openserial.c ****             break;
 2858              		.loc 1 803 0
 2859 0f1c 51E0     		b	.L119
 2860              	.L133:
 804:build/openmote-cc2538_armgcc/drivers/common/openserial.c ****         case COMMAND_SET_6PRESPONSE:
 805:build/openmote-cc2538_armgcc/drivers/common/openserial.c ****             comandParam_8 = openserial_vars.inputBuf[ptr];
 2861              		.loc 1 805 0
 2862 0f1e 97F86F30 		ldrb	r3, [r7, #111]	@ zero_extendqisi2
 2863 0f22 124A     		ldr	r2, .L147
 2864 0f24 1344     		add	r3, r3, r2
 2865 0f26 5B7D     		ldrb	r3, [r3, #21]
 2866 0f28 87F86B30 		strb	r3, [r7, #107]
 806:build/openmote-cc2538_armgcc/drivers/common/openserial.c ****             if (comandParam_8 ==1) {
 2867              		.loc 1 806 0
 2868 0f2c 97F86B30 		ldrb	r3, [r7, #107]	@ zero_extendqisi2
 2869 0f30 012B     		cmp	r3, #1
 2870 0f32 03D1     		bne	.L139
 807:build/openmote-cc2538_armgcc/drivers/common/openserial.c ****                 sixtop_setIsResponseEnabled(TRUE);
 2871              		.loc 1 807 0
 2872 0f34 0120     		movs	r0, #1
 2873 0f36 FFF7FEFF 		bl	sixtop_setIsResponseEnabled
 2874 0f3a 08E0     		b	.L140
 2875              	.L139:
 808:build/openmote-cc2538_armgcc/drivers/common/openserial.c ****             } else {
 809:build/openmote-cc2538_armgcc/drivers/common/openserial.c ****                 if (comandParam_8 == 0) {
 2876              		.loc 1 809 0
 2877 0f3c 97F86B30 		ldrb	r3, [r7, #107]	@ zero_extendqisi2
 2878 0f40 002B     		cmp	r3, #0
 2879 0f42 03D1     		bne	.L141
 810:build/openmote-cc2538_armgcc/drivers/common/openserial.c ****                     sixtop_setIsResponseEnabled(FALSE);
 2880              		.loc 1 810 0
 2881 0f44 0020     		movs	r0, #0
 2882 0f46 FFF7FEFF 		bl	sixtop_setIsResponseEnabled
 2883 0f4a 00E0     		b	.L140
 2884              	.L141:
 811:build/openmote-cc2538_armgcc/drivers/common/openserial.c ****                 } else {
 812:build/openmote-cc2538_armgcc/drivers/common/openserial.c ****                     // security only can be 1 or 0
 813:build/openmote-cc2538_armgcc/drivers/common/openserial.c ****                     break;
 2885              		.loc 1 813 0 discriminator 2
 2886 0f4c 39E0     		b	.L119
 2887              	.L140:
 814:build/openmote-cc2538_armgcc/drivers/common/openserial.c ****                 }
 815:build/openmote-cc2538_armgcc/drivers/common/openserial.c ****             }
 816:build/openmote-cc2538_armgcc/drivers/common/openserial.c ****             break;
 2888              		.loc 1 816 0 discriminator 3
 2889 0f4e 38E0     		b	.L119
 2890              	.L134:
 817:build/openmote-cc2538_armgcc/drivers/common/openserial.c ****         case COMMAND_SET_UINJECTPERIOD:
 818:build/openmote-cc2538_armgcc/drivers/common/openserial.c ****             comandParam_8 = openserial_vars.inputBuf[ptr];
 2891              		.loc 1 818 0
 2892 0f50 97F86F30 		ldrb	r3, [r7, #111]	@ zero_extendqisi2
 2893 0f54 054A     		ldr	r2, .L147
 2894 0f56 1344     		add	r3, r3, r2
 2895 0f58 5B7D     		ldrb	r3, [r3, #21]
 2896 0f5a 87F86B30 		strb	r3, [r7, #107]
 819:build/openmote-cc2538_armgcc/drivers/common/openserial.c ****             msf_appPktPeriod(comandParam_8);
 2897              		.loc 1 819 0
 2898 0f5e 97F86B30 		ldrb	r3, [r7, #107]	@ zero_extendqisi2
 2899 0f62 1846     		mov	r0, r3
 2900 0f64 FFF7FEFF 		bl	msf_appPktPeriod
 820:build/openmote-cc2538_armgcc/drivers/common/openserial.c ****             break;
 2901              		.loc 1 820 0
 2902 0f68 2BE0     		b	.L119
 2903              	.L148:
 2904 0f6a 00BF     		.align	2
 2905              	.L147:
 2906 0f6c 00000000 		.word	openserial_vars
 2907              	.L135:
 821:build/openmote-cc2538_armgcc/drivers/common/openserial.c ****         case COMMAND_SET_ECHO_REPLY_STATUS:
 822:build/openmote-cc2538_armgcc/drivers/common/openserial.c ****             comandParam_8 = openserial_vars.inputBuf[ptr];
 2908              		.loc 1 822 0
 2909 0f70 97F86F30 		ldrb	r3, [r7, #111]	@ zero_extendqisi2
 2910 0f74 154A     		ldr	r2, .L149
 2911 0f76 1344     		add	r3, r3, r2
 2912 0f78 5B7D     		ldrb	r3, [r3, #21]
 2913 0f7a 87F86B30 		strb	r3, [r7, #107]
 823:build/openmote-cc2538_armgcc/drivers/common/openserial.c ****             if (comandParam_8 == 1) {
 2914              		.loc 1 823 0
 2915 0f7e 97F86B30 		ldrb	r3, [r7, #107]	@ zero_extendqisi2
 2916 0f82 012B     		cmp	r3, #1
 2917 0f84 03D1     		bne	.L142
 824:build/openmote-cc2538_armgcc/drivers/common/openserial.c ****                 icmpv6echo_setIsReplyEnabled(TRUE);
 2918              		.loc 1 824 0
 2919 0f86 0120     		movs	r0, #1
 2920 0f88 FFF7FEFF 		bl	icmpv6echo_setIsReplyEnabled
 2921 0f8c 08E0     		b	.L143
 2922              	.L142:
 825:build/openmote-cc2538_armgcc/drivers/common/openserial.c ****             } else {
 826:build/openmote-cc2538_armgcc/drivers/common/openserial.c ****                 if (comandParam_8 == 0) {
 2923              		.loc 1 826 0
 2924 0f8e 97F86B30 		ldrb	r3, [r7, #107]	@ zero_extendqisi2
 2925 0f92 002B     		cmp	r3, #0
 2926 0f94 03D1     		bne	.L144
 827:build/openmote-cc2538_armgcc/drivers/common/openserial.c ****                     icmpv6echo_setIsReplyEnabled(FALSE);
 2927              		.loc 1 827 0
 2928 0f96 0020     		movs	r0, #0
 2929 0f98 FFF7FEFF 		bl	icmpv6echo_setIsReplyEnabled
 2930 0f9c 00E0     		b	.L143
 2931              	.L144:
 828:build/openmote-cc2538_armgcc/drivers/common/openserial.c ****                 } else {
 829:build/openmote-cc2538_armgcc/drivers/common/openserial.c ****                     // ack reply
 830:build/openmote-cc2538_armgcc/drivers/common/openserial.c ****                     break;
 2932              		.loc 1 830 0 discriminator 4
 2933 0f9e 10E0     		b	.L119
 2934              	.L143:
 831:build/openmote-cc2538_armgcc/drivers/common/openserial.c ****                 }
 832:build/openmote-cc2538_armgcc/drivers/common/openserial.c ****             }
 833:build/openmote-cc2538_armgcc/drivers/common/openserial.c ****             break;
 2935              		.loc 1 833 0 discriminator 5
 2936 0fa0 0FE0     		b	.L119
 2937              	.L136:
 834:build/openmote-cc2538_armgcc/drivers/common/openserial.c ****         case COMMAND_SET_JOIN_KEY:
 835:build/openmote-cc2538_armgcc/drivers/common/openserial.c ****             if (commandLen != 16) { break; }
 2938              		.loc 1 835 0
 2939 0fa2 97F86C30 		ldrb	r3, [r7, #108]	@ zero_extendqisi2
 2940 0fa6 102B     		cmp	r3, #16
 2941 0fa8 00D0     		beq	.L145
 2942              		.loc 1 835 0 is_stmt 0 discriminator 6
 2943 0faa 0AE0     		b	.L119
 2944              	.L145:
 836:build/openmote-cc2538_armgcc/drivers/common/openserial.c ****             idmanager_setJoinKey(&openserial_vars.inputBuf[ptr]);
 2945              		.loc 1 836 0 is_stmt 1
 2946 0fac 97F86F30 		ldrb	r3, [r7, #111]	@ zero_extendqisi2
 2947 0fb0 1033     		adds	r3, r3, #16
 2948 0fb2 064A     		ldr	r2, .L149
 2949 0fb4 1344     		add	r3, r3, r2
 2950 0fb6 0533     		adds	r3, r3, #5
 2951 0fb8 1846     		mov	r0, r3
 2952 0fba FFF7FEFF 		bl	idmanager_setJoinKey
 837:build/openmote-cc2538_armgcc/drivers/common/openserial.c ****             break;
 2953              		.loc 1 837 0
 2954 0fbe 00E0     		b	.L119
 2955              	.L146:
 838:build/openmote-cc2538_armgcc/drivers/common/openserial.c ****         default:
 839:build/openmote-cc2538_armgcc/drivers/common/openserial.c ****            // wrong command ID
 840:build/openmote-cc2538_armgcc/drivers/common/openserial.c ****            break;
 2956              		.loc 1 840 0
 2957 0fc0 00BF     		nop
 2958              	.L119:
 841:build/openmote-cc2538_armgcc/drivers/common/openserial.c ****    }
 842:build/openmote-cc2538_armgcc/drivers/common/openserial.c **** }
 2959              		.loc 1 842 0
 2960 0fc2 7037     		adds	r7, r7, #112
 2961              		.cfi_def_cfa_offset 24
 2962 0fc4 BD46     		mov	sp, r7
 2963              		.cfi_def_cfa_register 13
 2964              		@ sp needed
 2965 0fc6 BDE8F081 		pop	{r4, r5, r6, r7, r8, pc}
 2966              	.L150:
 2967 0fca 00BF     		.align	2
 2968              	.L149:
 2969 0fcc 00000000 		.word	openserial_vars
 2970              		.cfi_endproc
 2971              	.LFE19:
 2973              		.align	2
 2974              		.global	openserial_board_reset_cb
 2975              		.thumb
 2976              		.thumb_func
 2978              	openserial_board_reset_cb:
 2979              	.LFB20:
 843:build/openmote-cc2538_armgcc/drivers/common/openserial.c **** 
 844:build/openmote-cc2538_armgcc/drivers/common/openserial.c **** //===== misc
 845:build/openmote-cc2538_armgcc/drivers/common/openserial.c **** 
 846:build/openmote-cc2538_armgcc/drivers/common/openserial.c **** void openserial_board_reset_cb(opentimers_id_t id) {
 2980              		.loc 1 846 0
 2981              		.cfi_startproc
 2982              		@ args = 0, pretend = 0, frame = 8
 2983              		@ frame_needed = 1, uses_anonymous_args = 0
 2984 0fd0 80B5     		push	{r7, lr}
 2985              		.cfi_def_cfa_offset 8
 2986              		.cfi_offset 7, -8
 2987              		.cfi_offset 14, -4
 2988 0fd2 82B0     		sub	sp, sp, #8
 2989              		.cfi_def_cfa_offset 16
 2990 0fd4 00AF     		add	r7, sp, #0
 2991              		.cfi_def_cfa_register 7
 2992 0fd6 0346     		mov	r3, r0
 2993 0fd8 FB71     		strb	r3, [r7, #7]
 847:build/openmote-cc2538_armgcc/drivers/common/openserial.c ****     (void)id;
 848:build/openmote-cc2538_armgcc/drivers/common/openserial.c ****     board_reset();
 2994              		.loc 1 848 0
 2995 0fda FFF7FEFF 		bl	board_reset
 849:build/openmote-cc2538_armgcc/drivers/common/openserial.c **** }
 2996              		.loc 1 849 0
 2997 0fde 0837     		adds	r7, r7, #8
 2998              		.cfi_def_cfa_offset 8
 2999 0fe0 BD46     		mov	sp, r7
 3000              		.cfi_def_cfa_register 13
 3001              		@ sp needed
 3002 0fe2 80BD     		pop	{r7, pc}
 3003              		.cfi_endproc
 3004              	.LFE20:
 3006              		.align	2
 3007              		.global	outputHdlcOpen
 3008              		.thumb
 3009              		.thumb_func
 3011              	outputHdlcOpen:
 3012              	.LFB21:
 850:build/openmote-cc2538_armgcc/drivers/common/openserial.c **** 
 851:build/openmote-cc2538_armgcc/drivers/common/openserial.c **** //===== hdlc (output)
 852:build/openmote-cc2538_armgcc/drivers/common/openserial.c **** 
 853:build/openmote-cc2538_armgcc/drivers/common/openserial.c **** /**
 854:build/openmote-cc2538_armgcc/drivers/common/openserial.c **** \brief Start an HDLC frame in the output buffer.
 855:build/openmote-cc2538_armgcc/drivers/common/openserial.c **** */
 856:build/openmote-cc2538_armgcc/drivers/common/openserial.c **** port_INLINE void outputHdlcOpen(void) {
 3013              		.loc 1 856 0
 3014              		.cfi_startproc
 3015              		@ args = 0, pretend = 0, frame = 0
 3016              		@ frame_needed = 1, uses_anonymous_args = 0
 3017              		@ link register save eliminated.
 3018 0fe4 80B4     		push	{r7}
 3019              		.cfi_def_cfa_offset 4
 3020              		.cfi_offset 7, -4
 3021 0fe6 00AF     		add	r7, sp, #0
 3022              		.cfi_def_cfa_register 7
 857:build/openmote-cc2538_armgcc/drivers/common/openserial.c ****     // initialize the value of the CRC
 858:build/openmote-cc2538_armgcc/drivers/common/openserial.c ****     openserial_vars.outputCrc                                        = HDLC_CRCINIT;
 3023              		.loc 1 858 0
 3024 0fe8 0B4B     		ldr	r3, .L153
 3025 0fea 4FF6FF72 		movw	r2, #65535
 3026 0fee A3F8DE20 		strh	r2, [r3, #222]	@ movhi
 859:build/openmote-cc2538_armgcc/drivers/common/openserial.c **** 
 860:build/openmote-cc2538_armgcc/drivers/common/openserial.c ****     // write the opening HDLC flag
 861:build/openmote-cc2538_armgcc/drivers/common/openserial.c ****     openserial_vars.outputBuf[OUTPUT_BUFFER_MASK & (openserial_vars.outputBufIdxW++)]       = HDLC_
 3027              		.loc 1 861 0
 3028 0ff2 094B     		ldr	r3, .L153
 3029 0ff4 B3F8E030 		ldrh	r3, [r3, #224]
 3030 0ff8 5A1C     		adds	r2, r3, #1
 3031 0ffa 91B2     		uxth	r1, r2
 3032 0ffc 064A     		ldr	r2, .L153
 3033 0ffe A2F8E010 		strh	r1, [r2, #224]	@ movhi
 3034 1002 C3F30903 		ubfx	r3, r3, #0, #10
 3035 1006 044A     		ldr	r2, .L153
 3036 1008 1344     		add	r3, r3, r2
 3037 100a 7E22     		movs	r2, #126
 3038 100c 83F8E420 		strb	r2, [r3, #228]
 862:build/openmote-cc2538_armgcc/drivers/common/openserial.c **** }
 3039              		.loc 1 862 0
 3040 1010 BD46     		mov	sp, r7
 3041              		.cfi_def_cfa_register 13
 3042              		@ sp needed
 3043 1012 5DF8047B 		ldr	r7, [sp], #4
 3044              		.cfi_restore 7
 3045              		.cfi_def_cfa_offset 0
 3046 1016 7047     		bx	lr
 3047              	.L154:
 3048              		.align	2
 3049              	.L153:
 3050 1018 00000000 		.word	openserial_vars
 3051              		.cfi_endproc
 3052              	.LFE21:
 3054              		.align	2
 3055              		.global	outputHdlcWrite
 3056              		.thumb
 3057              		.thumb_func
 3059              	outputHdlcWrite:
 3060              	.LFB22:
 863:build/openmote-cc2538_armgcc/drivers/common/openserial.c **** /**
 864:build/openmote-cc2538_armgcc/drivers/common/openserial.c **** \brief Add a byte to the outgoing HDLC frame being built.
 865:build/openmote-cc2538_armgcc/drivers/common/openserial.c **** */
 866:build/openmote-cc2538_armgcc/drivers/common/openserial.c **** port_INLINE void outputHdlcWrite(uint8_t b) {
 3061              		.loc 1 866 0
 3062              		.cfi_startproc
 3063              		@ args = 0, pretend = 0, frame = 8
 3064              		@ frame_needed = 1, uses_anonymous_args = 0
 3065 101c 80B5     		push	{r7, lr}
 3066              		.cfi_def_cfa_offset 8
 3067              		.cfi_offset 7, -8
 3068              		.cfi_offset 14, -4
 3069 101e 82B0     		sub	sp, sp, #8
 3070              		.cfi_def_cfa_offset 16
 3071 1020 00AF     		add	r7, sp, #0
 3072              		.cfi_def_cfa_register 7
 3073 1022 0346     		mov	r3, r0
 3074 1024 FB71     		strb	r3, [r7, #7]
 867:build/openmote-cc2538_armgcc/drivers/common/openserial.c **** 
 868:build/openmote-cc2538_armgcc/drivers/common/openserial.c ****     // iterate through CRC calculator
 869:build/openmote-cc2538_armgcc/drivers/common/openserial.c ****     openserial_vars.outputCrc = crcIteration(openserial_vars.outputCrc,b);
 3075              		.loc 1 869 0
 3076 1026 1C4B     		ldr	r3, .L158
 3077 1028 B3F8DE20 		ldrh	r2, [r3, #222]
 3078 102c FB79     		ldrb	r3, [r7, #7]	@ zero_extendqisi2
 3079 102e 1046     		mov	r0, r2
 3080 1030 1946     		mov	r1, r3
 3081 1032 FFF7FEFF 		bl	crcIteration
 3082 1036 0346     		mov	r3, r0
 3083 1038 1A46     		mov	r2, r3
 3084 103a 174B     		ldr	r3, .L158
 3085 103c A3F8DE20 		strh	r2, [r3, #222]	@ movhi
 870:build/openmote-cc2538_armgcc/drivers/common/openserial.c **** 
 871:build/openmote-cc2538_armgcc/drivers/common/openserial.c ****     // add byte to buffer
 872:build/openmote-cc2538_armgcc/drivers/common/openserial.c ****     if (b==HDLC_FLAG || b==HDLC_ESCAPE) {
 3086              		.loc 1 872 0
 3087 1040 FB79     		ldrb	r3, [r7, #7]	@ zero_extendqisi2
 3088 1042 7E2B     		cmp	r3, #126
 3089 1044 02D0     		beq	.L156
 3090              		.loc 1 872 0 is_stmt 0 discriminator 1
 3091 1046 FB79     		ldrb	r3, [r7, #7]	@ zero_extendqisi2
 3092 1048 7D2B     		cmp	r3, #125
 3093 104a 12D1     		bne	.L157
 3094              	.L156:
 873:build/openmote-cc2538_armgcc/drivers/common/openserial.c ****         openserial_vars.outputBuf[OUTPUT_BUFFER_MASK & (openserial_vars.outputBufIdxW++)]   = HDLC_
 3095              		.loc 1 873 0 is_stmt 1
 3096 104c 124B     		ldr	r3, .L158
 3097 104e B3F8E030 		ldrh	r3, [r3, #224]
 3098 1052 5A1C     		adds	r2, r3, #1
 3099 1054 91B2     		uxth	r1, r2
 3100 1056 104A     		ldr	r2, .L158
 3101 1058 A2F8E010 		strh	r1, [r2, #224]	@ movhi
 3102 105c C3F30903 		ubfx	r3, r3, #0, #10
 3103 1060 0D4A     		ldr	r2, .L158
 3104 1062 1344     		add	r3, r3, r2
 3105 1064 7D22     		movs	r2, #125
 3106 1066 83F8E420 		strb	r2, [r3, #228]
 874:build/openmote-cc2538_armgcc/drivers/common/openserial.c ****         b                                                            = b^HDLC_ESCAPE_MASK;
 3107              		.loc 1 874 0
 3108 106a FB79     		ldrb	r3, [r7, #7]
 3109 106c 83F02003 		eor	r3, r3, #32
 3110 1070 FB71     		strb	r3, [r7, #7]
 3111              	.L157:
 875:build/openmote-cc2538_armgcc/drivers/common/openserial.c ****     }
 876:build/openmote-cc2538_armgcc/drivers/common/openserial.c ****     openserial_vars.outputBuf[OUTPUT_BUFFER_MASK & (openserial_vars.outputBufIdxW++)]       = b;
 3112              		.loc 1 876 0
 3113 1072 094B     		ldr	r3, .L158
 3114 1074 B3F8E030 		ldrh	r3, [r3, #224]
 3115 1078 5A1C     		adds	r2, r3, #1
 3116 107a 91B2     		uxth	r1, r2
 3117 107c 064A     		ldr	r2, .L158
 3118 107e A2F8E010 		strh	r1, [r2, #224]	@ movhi
 3119 1082 C3F30903 		ubfx	r3, r3, #0, #10
 3120 1086 044A     		ldr	r2, .L158
 3121 1088 1344     		add	r3, r3, r2
 3122 108a FA79     		ldrb	r2, [r7, #7]
 3123 108c 83F8E420 		strb	r2, [r3, #228]
 877:build/openmote-cc2538_armgcc/drivers/common/openserial.c **** }
 3124              		.loc 1 877 0
 3125 1090 0837     		adds	r7, r7, #8
 3126              		.cfi_def_cfa_offset 8
 3127 1092 BD46     		mov	sp, r7
 3128              		.cfi_def_cfa_register 13
 3129              		@ sp needed
 3130 1094 80BD     		pop	{r7, pc}
 3131              	.L159:
 3132 1096 00BF     		.align	2
 3133              	.L158:
 3134 1098 00000000 		.word	openserial_vars
 3135              		.cfi_endproc
 3136              	.LFE22:
 3138              		.align	2
 3139              		.global	outputHdlcClose
 3140              		.thumb
 3141              		.thumb_func
 3143              	outputHdlcClose:
 3144              	.LFB23:
 878:build/openmote-cc2538_armgcc/drivers/common/openserial.c **** /**
 879:build/openmote-cc2538_armgcc/drivers/common/openserial.c **** \brief Finalize the outgoing HDLC frame.
 880:build/openmote-cc2538_armgcc/drivers/common/openserial.c **** */
 881:build/openmote-cc2538_armgcc/drivers/common/openserial.c **** port_INLINE void outputHdlcClose(void) {
 3145              		.loc 1 881 0
 3146              		.cfi_startproc
 3147              		@ args = 0, pretend = 0, frame = 8
 3148              		@ frame_needed = 1, uses_anonymous_args = 0
 3149 109c 80B5     		push	{r7, lr}
 3150              		.cfi_def_cfa_offset 8
 3151              		.cfi_offset 7, -8
 3152              		.cfi_offset 14, -4
 3153 109e 82B0     		sub	sp, sp, #8
 3154              		.cfi_def_cfa_offset 16
 3155 10a0 00AF     		add	r7, sp, #0
 3156              		.cfi_def_cfa_register 7
 882:build/openmote-cc2538_armgcc/drivers/common/openserial.c ****     uint16_t   finalCrc;
 883:build/openmote-cc2538_armgcc/drivers/common/openserial.c **** 
 884:build/openmote-cc2538_armgcc/drivers/common/openserial.c ****     // finalize the calculation of the CRC
 885:build/openmote-cc2538_armgcc/drivers/common/openserial.c ****     finalCrc   = ~openserial_vars.outputCrc;
 3157              		.loc 1 885 0
 3158 10a2 114B     		ldr	r3, .L161
 3159 10a4 B3F8DE30 		ldrh	r3, [r3, #222]
 3160 10a8 DB43     		mvns	r3, r3
 3161 10aa FB80     		strh	r3, [r7, #6]	@ movhi
 886:build/openmote-cc2538_armgcc/drivers/common/openserial.c **** 
 887:build/openmote-cc2538_armgcc/drivers/common/openserial.c ****     // write the CRC value
 888:build/openmote-cc2538_armgcc/drivers/common/openserial.c ****     outputHdlcWrite((finalCrc>>0)&0xff);
 3162              		.loc 1 888 0
 3163 10ac FB88     		ldrh	r3, [r7, #6]	@ movhi
 3164 10ae DBB2     		uxtb	r3, r3
 3165 10b0 1846     		mov	r0, r3
 3166 10b2 FFF7FEFF 		bl	outputHdlcWrite
 889:build/openmote-cc2538_armgcc/drivers/common/openserial.c ****     outputHdlcWrite((finalCrc>>8)&0xff);
 3167              		.loc 1 889 0
 3168 10b6 FB88     		ldrh	r3, [r7, #6]
 3169 10b8 1B0A     		lsrs	r3, r3, #8
 3170 10ba 9BB2     		uxth	r3, r3
 3171 10bc DBB2     		uxtb	r3, r3
 3172 10be 1846     		mov	r0, r3
 3173 10c0 FFF7FEFF 		bl	outputHdlcWrite
 890:build/openmote-cc2538_armgcc/drivers/common/openserial.c **** 
 891:build/openmote-cc2538_armgcc/drivers/common/openserial.c ****     // write the closing HDLC flag
 892:build/openmote-cc2538_armgcc/drivers/common/openserial.c ****     openserial_vars.outputBuf[OUTPUT_BUFFER_MASK & (openserial_vars.outputBufIdxW++)]       = HDLC_
 3174              		.loc 1 892 0
 3175 10c4 084B     		ldr	r3, .L161
 3176 10c6 B3F8E030 		ldrh	r3, [r3, #224]
 3177 10ca 5A1C     		adds	r2, r3, #1
 3178 10cc 91B2     		uxth	r1, r2
 3179 10ce 064A     		ldr	r2, .L161
 3180 10d0 A2F8E010 		strh	r1, [r2, #224]	@ movhi
 3181 10d4 C3F30903 		ubfx	r3, r3, #0, #10
 3182 10d8 034A     		ldr	r2, .L161
 3183 10da 1344     		add	r3, r3, r2
 3184 10dc 7E22     		movs	r2, #126
 3185 10de 83F8E420 		strb	r2, [r3, #228]
 893:build/openmote-cc2538_armgcc/drivers/common/openserial.c **** }
 3186              		.loc 1 893 0
 3187 10e2 0837     		adds	r7, r7, #8
 3188              		.cfi_def_cfa_offset 8
 3189 10e4 BD46     		mov	sp, r7
 3190              		.cfi_def_cfa_register 13
 3191              		@ sp needed
 3192 10e6 80BD     		pop	{r7, pc}
 3193              	.L162:
 3194              		.align	2
 3195              	.L161:
 3196 10e8 00000000 		.word	openserial_vars
 3197              		.cfi_endproc
 3198              	.LFE23:
 3200              		.align	2
 3201              		.global	inputHdlcOpen
 3202              		.thumb
 3203              		.thumb_func
 3205              	inputHdlcOpen:
 3206              	.LFB24:
 894:build/openmote-cc2538_armgcc/drivers/common/openserial.c **** 
 895:build/openmote-cc2538_armgcc/drivers/common/openserial.c **** //===== hdlc (input)
 896:build/openmote-cc2538_armgcc/drivers/common/openserial.c **** 
 897:build/openmote-cc2538_armgcc/drivers/common/openserial.c **** /**
 898:build/openmote-cc2538_armgcc/drivers/common/openserial.c **** \brief Start an HDLC frame in the input buffer.
 899:build/openmote-cc2538_armgcc/drivers/common/openserial.c **** */
 900:build/openmote-cc2538_armgcc/drivers/common/openserial.c **** port_INLINE void inputHdlcOpen(void) {
 3207              		.loc 1 900 0
 3208              		.cfi_startproc
 3209              		@ args = 0, pretend = 0, frame = 0
 3210              		@ frame_needed = 1, uses_anonymous_args = 0
 3211              		@ link register save eliminated.
 3212 10ec 80B4     		push	{r7}
 3213              		.cfi_def_cfa_offset 4
 3214              		.cfi_offset 7, -4
 3215 10ee 00AF     		add	r7, sp, #0
 3216              		.cfi_def_cfa_register 7
 901:build/openmote-cc2538_armgcc/drivers/common/openserial.c ****     // reset the input buffer index
 902:build/openmote-cc2538_armgcc/drivers/common/openserial.c ****     openserial_vars.inputBufFill                                     = 0;
 3217              		.loc 1 902 0
 3218 10f0 054B     		ldr	r3, .L164
 3219 10f2 0022     		movs	r2, #0
 3220 10f4 1A75     		strb	r2, [r3, #20]
 903:build/openmote-cc2538_armgcc/drivers/common/openserial.c **** 
 904:build/openmote-cc2538_armgcc/drivers/common/openserial.c ****     // initialize the value of the CRC
 905:build/openmote-cc2538_armgcc/drivers/common/openserial.c ****     openserial_vars.inputCrc                                         = HDLC_CRCINIT;
 3221              		.loc 1 905 0
 3222 10f6 044B     		ldr	r3, .L164
 3223 10f8 4FF6FF72 		movw	r2, #65535
 3224 10fc 5A82     		strh	r2, [r3, #18]	@ movhi
 906:build/openmote-cc2538_armgcc/drivers/common/openserial.c **** }
 3225              		.loc 1 906 0
 3226 10fe BD46     		mov	sp, r7
 3227              		.cfi_def_cfa_register 13
 3228              		@ sp needed
 3229 1100 5DF8047B 		ldr	r7, [sp], #4
 3230              		.cfi_restore 7
 3231              		.cfi_def_cfa_offset 0
 3232 1104 7047     		bx	lr
 3233              	.L165:
 3234 1106 00BF     		.align	2
 3235              	.L164:
 3236 1108 00000000 		.word	openserial_vars
 3237              		.cfi_endproc
 3238              	.LFE24:
 3240              		.align	2
 3241              		.global	inputHdlcWrite
 3242              		.thumb
 3243              		.thumb_func
 3245              	inputHdlcWrite:
 3246              	.LFB25:
 907:build/openmote-cc2538_armgcc/drivers/common/openserial.c **** /**
 908:build/openmote-cc2538_armgcc/drivers/common/openserial.c **** \brief Add a byte to the incoming HDLC frame.
 909:build/openmote-cc2538_armgcc/drivers/common/openserial.c **** */
 910:build/openmote-cc2538_armgcc/drivers/common/openserial.c **** port_INLINE void inputHdlcWrite(uint8_t b) {
 3247              		.loc 1 910 0
 3248              		.cfi_startproc
 3249              		@ args = 0, pretend = 0, frame = 8
 3250              		@ frame_needed = 1, uses_anonymous_args = 0
 3251 110c 80B5     		push	{r7, lr}
 3252              		.cfi_def_cfa_offset 8
 3253              		.cfi_offset 7, -8
 3254              		.cfi_offset 14, -4
 3255 110e 82B0     		sub	sp, sp, #8
 3256              		.cfi_def_cfa_offset 16
 3257 1110 00AF     		add	r7, sp, #0
 3258              		.cfi_def_cfa_register 7
 3259 1112 0346     		mov	r3, r0
 3260 1114 FB71     		strb	r3, [r7, #7]
 911:build/openmote-cc2538_armgcc/drivers/common/openserial.c ****     if (b==HDLC_ESCAPE) {
 3261              		.loc 1 911 0
 3262 1116 FB79     		ldrb	r3, [r7, #7]	@ zero_extendqisi2
 3263 1118 7D2B     		cmp	r3, #125
 3264 111a 03D1     		bne	.L167
 912:build/openmote-cc2538_armgcc/drivers/common/openserial.c ****         openserial_vars.inputEscaping = TRUE;
 3265              		.loc 1 912 0
 3266 111c 144B     		ldr	r3, .L170
 3267 111e 0122     		movs	r2, #1
 3268 1120 1A74     		strb	r2, [r3, #16]
 3269 1122 22E0     		b	.L166
 3270              	.L167:
 913:build/openmote-cc2538_armgcc/drivers/common/openserial.c ****     } else {
 914:build/openmote-cc2538_armgcc/drivers/common/openserial.c ****         if (openserial_vars.inputEscaping==TRUE) {
 3271              		.loc 1 914 0
 3272 1124 124B     		ldr	r3, .L170
 3273 1126 1B7C     		ldrb	r3, [r3, #16]	@ zero_extendqisi2
 3274 1128 002B     		cmp	r3, #0
 3275 112a 06D0     		beq	.L169
 915:build/openmote-cc2538_armgcc/drivers/common/openserial.c ****             b                             = b^HDLC_ESCAPE_MASK;
 3276              		.loc 1 915 0
 3277 112c FB79     		ldrb	r3, [r7, #7]
 3278 112e 83F02003 		eor	r3, r3, #32
 3279 1132 FB71     		strb	r3, [r7, #7]
 916:build/openmote-cc2538_armgcc/drivers/common/openserial.c ****             openserial_vars.inputEscaping = FALSE;
 3280              		.loc 1 916 0
 3281 1134 0E4B     		ldr	r3, .L170
 3282 1136 0022     		movs	r2, #0
 3283 1138 1A74     		strb	r2, [r3, #16]
 3284              	.L169:
 917:build/openmote-cc2538_armgcc/drivers/common/openserial.c ****         }
 918:build/openmote-cc2538_armgcc/drivers/common/openserial.c **** 
 919:build/openmote-cc2538_armgcc/drivers/common/openserial.c ****         // add byte to input buffer
 920:build/openmote-cc2538_armgcc/drivers/common/openserial.c ****         openserial_vars.inputBuf[openserial_vars.inputBufFill] = b;
 3285              		.loc 1 920 0
 3286 113a 0D4B     		ldr	r3, .L170
 3287 113c 1B7D     		ldrb	r3, [r3, #20]	@ zero_extendqisi2
 3288 113e 1A46     		mov	r2, r3
 3289 1140 0B4B     		ldr	r3, .L170
 3290 1142 1344     		add	r3, r3, r2
 3291 1144 FA79     		ldrb	r2, [r7, #7]
 3292 1146 5A75     		strb	r2, [r3, #21]
 921:build/openmote-cc2538_armgcc/drivers/common/openserial.c ****         openserial_vars.inputBufFill++;
 3293              		.loc 1 921 0
 3294 1148 094B     		ldr	r3, .L170
 3295 114a 1B7D     		ldrb	r3, [r3, #20]	@ zero_extendqisi2
 3296 114c 0133     		adds	r3, r3, #1
 3297 114e DAB2     		uxtb	r2, r3
 3298 1150 074B     		ldr	r3, .L170
 3299 1152 1A75     		strb	r2, [r3, #20]
 922:build/openmote-cc2538_armgcc/drivers/common/openserial.c **** 
 923:build/openmote-cc2538_armgcc/drivers/common/openserial.c ****         // iterate through CRC calculator
 924:build/openmote-cc2538_armgcc/drivers/common/openserial.c ****         openserial_vars.inputCrc = crcIteration(openserial_vars.inputCrc,b);
 3300              		.loc 1 924 0
 3301 1154 064B     		ldr	r3, .L170
 3302 1156 5A8A     		ldrh	r2, [r3, #18]
 3303 1158 FB79     		ldrb	r3, [r7, #7]	@ zero_extendqisi2
 3304 115a 1046     		mov	r0, r2
 3305 115c 1946     		mov	r1, r3
 3306 115e FFF7FEFF 		bl	crcIteration
 3307 1162 0346     		mov	r3, r0
 3308 1164 1A46     		mov	r2, r3
 3309 1166 024B     		ldr	r3, .L170
 3310 1168 5A82     		strh	r2, [r3, #18]	@ movhi
 3311              	.L166:
 925:build/openmote-cc2538_armgcc/drivers/common/openserial.c ****     }
 926:build/openmote-cc2538_armgcc/drivers/common/openserial.c **** }
 3312              		.loc 1 926 0
 3313 116a 0837     		adds	r7, r7, #8
 3314              		.cfi_def_cfa_offset 8
 3315 116c BD46     		mov	sp, r7
 3316              		.cfi_def_cfa_register 13
 3317              		@ sp needed
 3318 116e 80BD     		pop	{r7, pc}
 3319              	.L171:
 3320              		.align	2
 3321              	.L170:
 3322 1170 00000000 		.word	openserial_vars
 3323              		.cfi_endproc
 3324              	.LFE25:
 3326              		.align	2
 3327              		.global	inputHdlcClose
 3328              		.thumb
 3329              		.thumb_func
 3331              	inputHdlcClose:
 3332              	.LFB26:
 927:build/openmote-cc2538_armgcc/drivers/common/openserial.c **** /**
 928:build/openmote-cc2538_armgcc/drivers/common/openserial.c **** \brief Finalize the incoming HDLC frame.
 929:build/openmote-cc2538_armgcc/drivers/common/openserial.c **** */
 930:build/openmote-cc2538_armgcc/drivers/common/openserial.c **** port_INLINE void inputHdlcClose(void) {
 3333              		.loc 1 930 0
 3334              		.cfi_startproc
 3335              		@ args = 0, pretend = 0, frame = 0
 3336              		@ frame_needed = 1, uses_anonymous_args = 0
 3337              		@ link register save eliminated.
 3338 1174 80B4     		push	{r7}
 3339              		.cfi_def_cfa_offset 4
 3340              		.cfi_offset 7, -4
 3341 1176 00AF     		add	r7, sp, #0
 3342              		.cfi_def_cfa_register 7
 931:build/openmote-cc2538_armgcc/drivers/common/openserial.c **** 
 932:build/openmote-cc2538_armgcc/drivers/common/openserial.c ****     // verify the validity of the frame
 933:build/openmote-cc2538_armgcc/drivers/common/openserial.c ****     if (openserial_vars.inputCrc==HDLC_CRCGOOD) {
 3343              		.loc 1 933 0
 3344 1178 094B     		ldr	r3, .L175
 3345 117a 5B8A     		ldrh	r3, [r3, #18]
 3346 117c 4FF2B802 		movw	r2, #61624
 3347 1180 9342     		cmp	r3, r2
 3348 1182 06D1     		bne	.L173
 934:build/openmote-cc2538_armgcc/drivers/common/openserial.c ****         // the CRC is correct
 935:build/openmote-cc2538_armgcc/drivers/common/openserial.c **** 
 936:build/openmote-cc2538_armgcc/drivers/common/openserial.c ****         // remove the CRC from the input buffer
 937:build/openmote-cc2538_armgcc/drivers/common/openserial.c ****         openserial_vars.inputBufFill    -= 2;
 3349              		.loc 1 937 0
 3350 1184 064B     		ldr	r3, .L175
 3351 1186 1B7D     		ldrb	r3, [r3, #20]	@ zero_extendqisi2
 3352 1188 023B     		subs	r3, r3, #2
 3353 118a DAB2     		uxtb	r2, r3
 3354 118c 044B     		ldr	r3, .L175
 3355 118e 1A75     		strb	r2, [r3, #20]
 3356 1190 02E0     		b	.L172
 3357              	.L173:
 938:build/openmote-cc2538_armgcc/drivers/common/openserial.c ****     } else {
 939:build/openmote-cc2538_armgcc/drivers/common/openserial.c ****         // the CRC is incorrect
 940:build/openmote-cc2538_armgcc/drivers/common/openserial.c **** 
 941:build/openmote-cc2538_armgcc/drivers/common/openserial.c ****         // drop the incoming fram
 942:build/openmote-cc2538_armgcc/drivers/common/openserial.c ****         openserial_vars.inputBufFill     = 0;
 3358              		.loc 1 942 0
 3359 1192 034B     		ldr	r3, .L175
 3360 1194 0022     		movs	r2, #0
 3361 1196 1A75     		strb	r2, [r3, #20]
 3362              	.L172:
 943:build/openmote-cc2538_armgcc/drivers/common/openserial.c ****     }
 944:build/openmote-cc2538_armgcc/drivers/common/openserial.c **** }
 3363              		.loc 1 944 0
 3364 1198 BD46     		mov	sp, r7
 3365              		.cfi_def_cfa_register 13
 3366              		@ sp needed
 3367 119a 5DF8047B 		ldr	r7, [sp], #4
 3368              		.cfi_restore 7
 3369              		.cfi_def_cfa_offset 0
 3370 119e 7047     		bx	lr
 3371              	.L176:
 3372              		.align	2
 3373              	.L175:
 3374 11a0 00000000 		.word	openserial_vars
 3375              		.cfi_endproc
 3376              	.LFE26:
 3378              		.align	2
 3379              		.global	isr_openserial_tx
 3380              		.thumb
 3381              		.thumb_func
 3383              	isr_openserial_tx:
 3384              	.LFB27:
 945:build/openmote-cc2538_armgcc/drivers/common/openserial.c **** 
 946:build/openmote-cc2538_armgcc/drivers/common/openserial.c **** //=========================== interrupt handlers ==============================
 947:build/openmote-cc2538_armgcc/drivers/common/openserial.c **** 
 948:build/openmote-cc2538_armgcc/drivers/common/openserial.c **** // executed in ISR, called from scheduler.c
 949:build/openmote-cc2538_armgcc/drivers/common/openserial.c **** void isr_openserial_tx(void) {
 3385              		.loc 1 949 0
 3386              		.cfi_startproc
 3387              		@ args = 0, pretend = 0, frame = 0
 3388              		@ frame_needed = 1, uses_anonymous_args = 0
 3389 11a4 80B5     		push	{r7, lr}
 3390              		.cfi_def_cfa_offset 8
 3391              		.cfi_offset 7, -8
 3392              		.cfi_offset 14, -4
 3393 11a6 00AF     		add	r7, sp, #0
 3394              		.cfi_def_cfa_register 7
 950:build/openmote-cc2538_armgcc/drivers/common/openserial.c ****     switch (openserial_vars.mode) {
 3395              		.loc 1 950 0
 3396 11a8 204B     		ldr	r3, .L186
 3397 11aa 1B78     		ldrb	r3, [r3]	@ zero_extendqisi2
 3398 11ac 012B     		cmp	r3, #1
 3399 11ae 02D0     		beq	.L179
 3400 11b0 022B     		cmp	r3, #2
 3401 11b2 15D0     		beq	.L180
 951:build/openmote-cc2538_armgcc/drivers/common/openserial.c ****         case MODE_INPUT:
 952:build/openmote-cc2538_armgcc/drivers/common/openserial.c ****             openserial_vars.reqFrameIdx++;
 953:build/openmote-cc2538_armgcc/drivers/common/openserial.c ****             if (openserial_vars.reqFrameIdx<sizeof(openserial_vars.reqFrame)) {
 954:build/openmote-cc2538_armgcc/drivers/common/openserial.c ****                 uart_writeByte(openserial_vars.reqFrame[openserial_vars.reqFrameIdx]);
 955:build/openmote-cc2538_armgcc/drivers/common/openserial.c ****             }
 956:build/openmote-cc2538_armgcc/drivers/common/openserial.c ****             break;
 957:build/openmote-cc2538_armgcc/drivers/common/openserial.c ****         case MODE_OUTPUT:
 958:build/openmote-cc2538_armgcc/drivers/common/openserial.c ****             if (openserial_vars.outputBufIdxW==openserial_vars.outputBufIdxR) {
 959:build/openmote-cc2538_armgcc/drivers/common/openserial.c ****                 openserial_vars.outputBufFilled = FALSE;
 960:build/openmote-cc2538_armgcc/drivers/common/openserial.c ****             }
 961:build/openmote-cc2538_armgcc/drivers/common/openserial.c ****             if (openserial_vars.outputBufFilled) {
 962:build/openmote-cc2538_armgcc/drivers/common/openserial.c ****                 uart_writeByte(openserial_vars.outputBuf[OUTPUT_BUFFER_MASK & (openserial_vars.outp
 963:build/openmote-cc2538_armgcc/drivers/common/openserial.c ****             }
 964:build/openmote-cc2538_armgcc/drivers/common/openserial.c ****             break;
 965:build/openmote-cc2538_armgcc/drivers/common/openserial.c ****         case MODE_OFF:
 966:build/openmote-cc2538_armgcc/drivers/common/openserial.c ****             default:
 967:build/openmote-cc2538_armgcc/drivers/common/openserial.c ****             break;
 3402              		.loc 1 967 0
 3403 11b4 38E0     		b	.L177
 3404              	.L179:
 952:build/openmote-cc2538_armgcc/drivers/common/openserial.c ****             if (openserial_vars.reqFrameIdx<sizeof(openserial_vars.reqFrame)) {
 3405              		.loc 1 952 0
 3406 11b6 1D4B     		ldr	r3, .L186
 3407 11b8 5B7B     		ldrb	r3, [r3, #13]	@ zero_extendqisi2
 3408 11ba 0133     		adds	r3, r3, #1
 3409 11bc DAB2     		uxtb	r2, r3
 3410 11be 1B4B     		ldr	r3, .L186
 3411 11c0 5A73     		strb	r2, [r3, #13]
 953:build/openmote-cc2538_armgcc/drivers/common/openserial.c ****                 uart_writeByte(openserial_vars.reqFrame[openserial_vars.reqFrameIdx]);
 3412              		.loc 1 953 0
 3413 11c2 1A4B     		ldr	r3, .L186
 3414 11c4 5B7B     		ldrb	r3, [r3, #13]	@ zero_extendqisi2
 3415 11c6 042B     		cmp	r3, #4
 3416 11c8 09D8     		bhi	.L181
 954:build/openmote-cc2538_armgcc/drivers/common/openserial.c ****             }
 3417              		.loc 1 954 0
 3418 11ca 184B     		ldr	r3, .L186
 3419 11cc 5B7B     		ldrb	r3, [r3, #13]	@ zero_extendqisi2
 3420 11ce 1A46     		mov	r2, r3
 3421 11d0 164B     		ldr	r3, .L186
 3422 11d2 1344     		add	r3, r3, r2
 3423 11d4 1B7A     		ldrb	r3, [r3, #8]	@ zero_extendqisi2
 3424 11d6 1846     		mov	r0, r3
 3425 11d8 FFF7FEFF 		bl	uart_writeByte
 956:build/openmote-cc2538_armgcc/drivers/common/openserial.c ****         case MODE_OUTPUT:
 3426              		.loc 1 956 0
 3427 11dc 24E0     		b	.L177
 3428              	.L181:
 3429 11de 23E0     		b	.L177
 3430              	.L180:
 958:build/openmote-cc2538_armgcc/drivers/common/openserial.c ****                 openserial_vars.outputBufFilled = FALSE;
 3431              		.loc 1 958 0
 3432 11e0 124B     		ldr	r3, .L186
 3433 11e2 B3F8E020 		ldrh	r2, [r3, #224]
 3434 11e6 114B     		ldr	r3, .L186
 3435 11e8 B3F8E230 		ldrh	r3, [r3, #226]
 3436 11ec 9A42     		cmp	r2, r3
 3437 11ee 03D1     		bne	.L183
 959:build/openmote-cc2538_armgcc/drivers/common/openserial.c ****             }
 3438              		.loc 1 959 0
 3439 11f0 0E4B     		ldr	r3, .L186
 3440 11f2 0022     		movs	r2, #0
 3441 11f4 83F8DD20 		strb	r2, [r3, #221]
 3442              	.L183:
 961:build/openmote-cc2538_armgcc/drivers/common/openserial.c ****                 uart_writeByte(openserial_vars.outputBuf[OUTPUT_BUFFER_MASK & (openserial_vars.outp
 3443              		.loc 1 961 0
 3444 11f8 0C4B     		ldr	r3, .L186
 3445 11fa 93F8DD30 		ldrb	r3, [r3, #221]	@ zero_extendqisi2
 3446 11fe 002B     		cmp	r3, #0
 3447 1200 11D0     		beq	.L184
 962:build/openmote-cc2538_armgcc/drivers/common/openserial.c ****             }
 3448              		.loc 1 962 0
 3449 1202 0A4B     		ldr	r3, .L186
 3450 1204 B3F8E230 		ldrh	r3, [r3, #226]
 3451 1208 5A1C     		adds	r2, r3, #1
 3452 120a 91B2     		uxth	r1, r2
 3453 120c 074A     		ldr	r2, .L186
 3454 120e A2F8E210 		strh	r1, [r2, #226]	@ movhi
 3455 1212 C3F30903 		ubfx	r3, r3, #0, #10
 3456 1216 054A     		ldr	r2, .L186
 3457 1218 1344     		add	r3, r3, r2
 3458 121a 93F8E430 		ldrb	r3, [r3, #228]	@ zero_extendqisi2
 3459 121e 1846     		mov	r0, r3
 3460 1220 FFF7FEFF 		bl	uart_writeByte
 964:build/openmote-cc2538_armgcc/drivers/common/openserial.c ****         case MODE_OFF:
 3461              		.loc 1 964 0
 3462 1224 FFE7     		b	.L185
 3463              	.L184:
 3464              	.L185:
 3465 1226 00BF     		nop
 3466              	.L177:
 968:build/openmote-cc2538_armgcc/drivers/common/openserial.c ****     }
 969:build/openmote-cc2538_armgcc/drivers/common/openserial.c **** }
 3467              		.loc 1 969 0
 3468 1228 80BD     		pop	{r7, pc}
 3469              	.L187:
 3470 122a 00BF     		.align	2
 3471              	.L186:
 3472 122c 00000000 		.word	openserial_vars
 3473              		.cfi_endproc
 3474              	.LFE27:
 3476              		.align	2
 3477              		.global	isr_openserial_rx
 3478              		.thumb
 3479              		.thumb_func
 3481              	isr_openserial_rx:
 3482              	.LFB28:
 970:build/openmote-cc2538_armgcc/drivers/common/openserial.c **** 
 971:build/openmote-cc2538_armgcc/drivers/common/openserial.c **** // executed in ISR, called from scheduler.c
 972:build/openmote-cc2538_armgcc/drivers/common/openserial.c **** void isr_openserial_rx(void) {
 3483              		.loc 1 972 0
 3484              		.cfi_startproc
 3485              		@ args = 0, pretend = 0, frame = 8
 3486              		@ frame_needed = 1, uses_anonymous_args = 0
 3487 1230 80B5     		push	{r7, lr}
 3488              		.cfi_def_cfa_offset 8
 3489              		.cfi_offset 7, -8
 3490              		.cfi_offset 14, -4
 3491 1232 82B0     		sub	sp, sp, #8
 3492              		.cfi_def_cfa_offset 16
 3493 1234 00AF     		add	r7, sp, #0
 3494              		.cfi_def_cfa_register 7
 973:build/openmote-cc2538_armgcc/drivers/common/openserial.c ****     uint8_t rxbyte;
 974:build/openmote-cc2538_armgcc/drivers/common/openserial.c ****     uint8_t inputBufFill;
 975:build/openmote-cc2538_armgcc/drivers/common/openserial.c **** 
 976:build/openmote-cc2538_armgcc/drivers/common/openserial.c ****     // stop if I'm not in input mode
 977:build/openmote-cc2538_armgcc/drivers/common/openserial.c ****     if (openserial_vars.mode!=MODE_INPUT) {
 3495              		.loc 1 977 0
 3496 1236 324B     		ldr	r3, .L196
 3497 1238 1B78     		ldrb	r3, [r3]	@ zero_extendqisi2
 3498 123a 012B     		cmp	r3, #1
 3499 123c 00D0     		beq	.L189
 978:build/openmote-cc2538_armgcc/drivers/common/openserial.c ****         return;
 3500              		.loc 1 978 0
 3501 123e 5BE0     		b	.L188
 3502              	.L189:
 979:build/openmote-cc2538_armgcc/drivers/common/openserial.c ****     }
 980:build/openmote-cc2538_armgcc/drivers/common/openserial.c **** 
 981:build/openmote-cc2538_armgcc/drivers/common/openserial.c ****     // read byte just received
 982:build/openmote-cc2538_armgcc/drivers/common/openserial.c ****     rxbyte = uart_readByte();
 3503              		.loc 1 982 0
 3504 1240 FFF7FEFF 		bl	uart_readByte
 3505 1244 0346     		mov	r3, r0
 3506 1246 FB71     		strb	r3, [r7, #7]
 983:build/openmote-cc2538_armgcc/drivers/common/openserial.c ****     // keep length
 984:build/openmote-cc2538_armgcc/drivers/common/openserial.c ****     inputBufFill=openserial_vars.inputBufFill;
 3507              		.loc 1 984 0
 3508 1248 2D4B     		ldr	r3, .L196
 3509 124a 1B7D     		ldrb	r3, [r3, #20]
 3510 124c BB71     		strb	r3, [r7, #6]
 985:build/openmote-cc2538_armgcc/drivers/common/openserial.c **** 
 986:build/openmote-cc2538_armgcc/drivers/common/openserial.c ****     if (
 987:build/openmote-cc2538_armgcc/drivers/common/openserial.c ****         openserial_vars.busyReceiving==FALSE  &&
 3511              		.loc 1 987 0
 3512 124e 2C4B     		ldr	r3, .L196
 3513 1250 DB7B     		ldrb	r3, [r3, #15]	@ zero_extendqisi2
 3514 1252 83F00103 		eor	r3, r3, #1
 3515 1256 DBB2     		uxtb	r3, r3
 986:build/openmote-cc2538_armgcc/drivers/common/openserial.c ****         openserial_vars.busyReceiving==FALSE  &&
 3516              		.loc 1 986 0
 3517 1258 002B     		cmp	r3, #0
 3518 125a 10D0     		beq	.L191
 988:build/openmote-cc2538_armgcc/drivers/common/openserial.c ****         openserial_vars.lastRxByte==HDLC_FLAG &&
 3519              		.loc 1 988 0
 3520 125c 284B     		ldr	r3, .L196
 3521 125e 9B7B     		ldrb	r3, [r3, #14]	@ zero_extendqisi2
 987:build/openmote-cc2538_armgcc/drivers/common/openserial.c ****         openserial_vars.lastRxByte==HDLC_FLAG &&
 3522              		.loc 1 987 0
 3523 1260 7E2B     		cmp	r3, #126
 3524 1262 0CD1     		bne	.L191
 3525              		.loc 1 988 0
 3526 1264 FB79     		ldrb	r3, [r7, #7]	@ zero_extendqisi2
 3527 1266 7E2B     		cmp	r3, #126
 3528 1268 09D0     		beq	.L191
 989:build/openmote-cc2538_armgcc/drivers/common/openserial.c ****         rxbyte!=HDLC_FLAG
 990:build/openmote-cc2538_armgcc/drivers/common/openserial.c ****     ) {
 991:build/openmote-cc2538_armgcc/drivers/common/openserial.c ****         // start of frame
 992:build/openmote-cc2538_armgcc/drivers/common/openserial.c **** 
 993:build/openmote-cc2538_armgcc/drivers/common/openserial.c ****         // I'm now receiving
 994:build/openmote-cc2538_armgcc/drivers/common/openserial.c ****         openserial_vars.busyReceiving         = TRUE;
 3529              		.loc 1 994 0
 3530 126a 254B     		ldr	r3, .L196
 3531 126c 0122     		movs	r2, #1
 3532 126e DA73     		strb	r2, [r3, #15]
 995:build/openmote-cc2538_armgcc/drivers/common/openserial.c **** 
 996:build/openmote-cc2538_armgcc/drivers/common/openserial.c ****         // create the HDLC frame
 997:build/openmote-cc2538_armgcc/drivers/common/openserial.c ****         inputHdlcOpen();
 3533              		.loc 1 997 0
 3534 1270 FFF7FEFF 		bl	inputHdlcOpen
 998:build/openmote-cc2538_armgcc/drivers/common/openserial.c **** 
 999:build/openmote-cc2538_armgcc/drivers/common/openserial.c ****         // add the byte just received
1000:build/openmote-cc2538_armgcc/drivers/common/openserial.c ****         inputHdlcWrite(rxbyte);
 3535              		.loc 1 1000 0
 3536 1274 FB79     		ldrb	r3, [r7, #7]	@ zero_extendqisi2
 3537 1276 1846     		mov	r0, r3
 3538 1278 FFF7FEFF 		bl	inputHdlcWrite
 3539 127c 39E0     		b	.L192
 3540              	.L191:
1001:build/openmote-cc2538_armgcc/drivers/common/openserial.c ****     } else if (
1002:build/openmote-cc2538_armgcc/drivers/common/openserial.c ****         openserial_vars.busyReceiving==TRUE   &&
 3541              		.loc 1 1002 0
 3542 127e 204B     		ldr	r3, .L196
 3543 1280 DB7B     		ldrb	r3, [r3, #15]	@ zero_extendqisi2
1001:build/openmote-cc2538_armgcc/drivers/common/openserial.c ****     } else if (
 3544              		.loc 1 1001 0
 3545 1282 002B     		cmp	r3, #0
 3546 1284 1BD0     		beq	.L193
 3547              		.loc 1 1002 0
 3548 1286 FB79     		ldrb	r3, [r7, #7]	@ zero_extendqisi2
 3549 1288 7E2B     		cmp	r3, #126
 3550 128a 18D0     		beq	.L193
1003:build/openmote-cc2538_armgcc/drivers/common/openserial.c ****         rxbyte!=HDLC_FLAG
1004:build/openmote-cc2538_armgcc/drivers/common/openserial.c ****     ) {
1005:build/openmote-cc2538_armgcc/drivers/common/openserial.c ****         // middle of frame
1006:build/openmote-cc2538_armgcc/drivers/common/openserial.c **** 
1007:build/openmote-cc2538_armgcc/drivers/common/openserial.c ****         // add the byte just received
1008:build/openmote-cc2538_armgcc/drivers/common/openserial.c ****         inputHdlcWrite(rxbyte);
 3551              		.loc 1 1008 0
 3552 128c FB79     		ldrb	r3, [r7, #7]	@ zero_extendqisi2
 3553 128e 1846     		mov	r0, r3
 3554 1290 FFF7FEFF 		bl	inputHdlcWrite
1009:build/openmote-cc2538_armgcc/drivers/common/openserial.c ****         if (openserial_vars.inputBufFill+1>SERIAL_INPUT_BUFFER_SIZE){
 3555              		.loc 1 1009 0
 3556 1294 1A4B     		ldr	r3, .L196
 3557 1296 1B7D     		ldrb	r3, [r3, #20]	@ zero_extendqisi2
 3558 1298 0133     		adds	r3, r3, #1
 3559 129a C82B     		cmp	r3, #200
 3560 129c 0EDD     		ble	.L194
1010:build/openmote-cc2538_armgcc/drivers/common/openserial.c ****             // input buffer overflow
1011:build/openmote-cc2538_armgcc/drivers/common/openserial.c ****             openserial_printError(
 3561              		.loc 1 1011 0
 3562 129e 0420     		movs	r0, #4
 3563 12a0 0421     		movs	r1, #4
 3564 12a2 0022     		movs	r2, #0
 3565 12a4 0023     		movs	r3, #0
 3566 12a6 FFF7FEFF 		bl	openserial_printError
1012:build/openmote-cc2538_armgcc/drivers/common/openserial.c ****                 COMPONENT_OPENSERIAL,
1013:build/openmote-cc2538_armgcc/drivers/common/openserial.c ****                 ERR_INPUT_BUFFER_OVERFLOW,
1014:build/openmote-cc2538_armgcc/drivers/common/openserial.c ****                 (errorparameter_t)0,
1015:build/openmote-cc2538_armgcc/drivers/common/openserial.c ****                 (errorparameter_t)0
1016:build/openmote-cc2538_armgcc/drivers/common/openserial.c ****             );
1017:build/openmote-cc2538_armgcc/drivers/common/openserial.c ****             openserial_vars.inputBufFill       = 0;
 3567              		.loc 1 1017 0
 3568 12aa 154B     		ldr	r3, .L196
 3569 12ac 0022     		movs	r2, #0
 3570 12ae 1A75     		strb	r2, [r3, #20]
1018:build/openmote-cc2538_armgcc/drivers/common/openserial.c ****             openserial_vars.busyReceiving      = FALSE;
 3571              		.loc 1 1018 0
 3572 12b0 134B     		ldr	r3, .L196
 3573 12b2 0022     		movs	r2, #0
 3574 12b4 DA73     		strb	r2, [r3, #15]
1019:build/openmote-cc2538_armgcc/drivers/common/openserial.c ****             openserial_stop();
 3575              		.loc 1 1019 0
 3576 12b6 FFF7FEFF 		bl	openserial_stop
1009:build/openmote-cc2538_armgcc/drivers/common/openserial.c ****             // input buffer overflow
 3577              		.loc 1 1009 0
 3578 12ba 1AE0     		b	.L192
 3579              	.L194:
 3580 12bc 19E0     		b	.L192
 3581              	.L193:
1020:build/openmote-cc2538_armgcc/drivers/common/openserial.c ****         }
1021:build/openmote-cc2538_armgcc/drivers/common/openserial.c ****     } else if (
1022:build/openmote-cc2538_armgcc/drivers/common/openserial.c ****         openserial_vars.busyReceiving==TRUE   &&
 3582              		.loc 1 1022 0
 3583 12be 104B     		ldr	r3, .L196
 3584 12c0 DB7B     		ldrb	r3, [r3, #15]	@ zero_extendqisi2
1021:build/openmote-cc2538_armgcc/drivers/common/openserial.c ****         openserial_vars.busyReceiving==TRUE   &&
 3585              		.loc 1 1021 0
 3586 12c2 002B     		cmp	r3, #0
 3587 12c4 15D0     		beq	.L192
 3588              		.loc 1 1022 0
 3589 12c6 FB79     		ldrb	r3, [r7, #7]	@ zero_extendqisi2
 3590 12c8 7E2B     		cmp	r3, #126
 3591 12ca 12D1     		bne	.L192
1023:build/openmote-cc2538_armgcc/drivers/common/openserial.c ****         rxbyte==HDLC_FLAG
1024:build/openmote-cc2538_armgcc/drivers/common/openserial.c ****     ) {
1025:build/openmote-cc2538_armgcc/drivers/common/openserial.c ****         // end of frame
1026:build/openmote-cc2538_armgcc/drivers/common/openserial.c **** 
1027:build/openmote-cc2538_armgcc/drivers/common/openserial.c ****         // finalize the HDLC frame
1028:build/openmote-cc2538_armgcc/drivers/common/openserial.c ****         inputHdlcClose();
 3592              		.loc 1 1028 0
 3593 12cc FFF7FEFF 		bl	inputHdlcClose
1029:build/openmote-cc2538_armgcc/drivers/common/openserial.c **** 
1030:build/openmote-cc2538_armgcc/drivers/common/openserial.c ****         if (openserial_vars.inputBufFill==0){
 3594              		.loc 1 1030 0
 3595 12d0 0B4B     		ldr	r3, .L196
 3596 12d2 1B7D     		ldrb	r3, [r3, #20]	@ zero_extendqisi2
 3597 12d4 002B     		cmp	r3, #0
 3598 12d6 07D1     		bne	.L195
1031:build/openmote-cc2538_armgcc/drivers/common/openserial.c ****             // invalid HDLC frame
1032:build/openmote-cc2538_armgcc/drivers/common/openserial.c ****             openserial_printError(
 3599              		.loc 1 1032 0
 3600 12d8 BB79     		ldrb	r3, [r7, #6]	@ zero_extendqisi2
 3601 12da 9BB2     		uxth	r3, r3
 3602 12dc 0420     		movs	r0, #4
 3603 12de 3921     		movs	r1, #57
 3604 12e0 1A46     		mov	r2, r3
 3605 12e2 0023     		movs	r3, #0
 3606 12e4 FFF7FEFF 		bl	openserial_printError
 3607              	.L195:
1033:build/openmote-cc2538_armgcc/drivers/common/openserial.c ****                 COMPONENT_OPENSERIAL,
1034:build/openmote-cc2538_armgcc/drivers/common/openserial.c ****                 ERR_WRONG_CRC_INPUT,
1035:build/openmote-cc2538_armgcc/drivers/common/openserial.c ****                 (errorparameter_t)inputBufFill,
1036:build/openmote-cc2538_armgcc/drivers/common/openserial.c ****                 (errorparameter_t)0
1037:build/openmote-cc2538_armgcc/drivers/common/openserial.c ****             );
1038:build/openmote-cc2538_armgcc/drivers/common/openserial.c ****         }
1039:build/openmote-cc2538_armgcc/drivers/common/openserial.c **** 
1040:build/openmote-cc2538_armgcc/drivers/common/openserial.c ****         openserial_vars.busyReceiving      = FALSE;
 3608              		.loc 1 1040 0
 3609 12e8 054B     		ldr	r3, .L196
 3610 12ea 0022     		movs	r2, #0
 3611 12ec DA73     		strb	r2, [r3, #15]
1041:build/openmote-cc2538_armgcc/drivers/common/openserial.c ****         openserial_stop();
 3612              		.loc 1 1041 0
 3613 12ee FFF7FEFF 		bl	openserial_stop
 3614              	.L192:
1042:build/openmote-cc2538_armgcc/drivers/common/openserial.c ****     }
1043:build/openmote-cc2538_armgcc/drivers/common/openserial.c **** 
1044:build/openmote-cc2538_armgcc/drivers/common/openserial.c ****     openserial_vars.lastRxByte = rxbyte;
 3615              		.loc 1 1044 0
 3616 12f2 034A     		ldr	r2, .L196
 3617 12f4 FB79     		ldrb	r3, [r7, #7]
 3618 12f6 9373     		strb	r3, [r2, #14]
 3619              	.L188:
1045:build/openmote-cc2538_armgcc/drivers/common/openserial.c **** }
 3620              		.loc 1 1045 0
 3621 12f8 0837     		adds	r7, r7, #8
 3622              		.cfi_def_cfa_offset 8
 3623 12fa BD46     		mov	sp, r7
 3624              		.cfi_def_cfa_register 13
 3625              		@ sp needed
 3626 12fc 80BD     		pop	{r7, pc}
 3627              	.L197:
 3628 12fe 00BF     		.align	2
 3629              	.L196:
 3630 1300 00000000 		.word	openserial_vars
 3631              		.cfi_endproc
 3632              	.LFE28:
 3634              	.Letext0:
 3635              		.file 2 "/usr/include/newlib/machine/_default_types.h"
 3636              		.file 3 "/usr/include/newlib/sys/_stdint.h"
 3637              		.file 4 "inc/opendefs.h"
 3638              		.file 5 "build/openmote-cc2538_armgcc/drivers/common/openserial.h"
 3639              		.file 6 "drivers/common/opentimers.h"
 3640              		.file 7 "bsp/boards/openmote-cc2538/board_info.h"
 3641              		.file 8 "openstack/02a-MAClow/IEEE802154E.h"
 3642              		.file 9 "openstack/03b-IPv6/icmpv6rpl.h"
 3643              		.file 10 "openstack/cross-layers/idmanager.h"
 3644              		.file 11 "build/openmote-cc2538_armgcc/drivers/common/openhdlc.h"