   1              		.syntax unified
   2              		.cpu cortex-m3
   3              		.fpu softvfp
   4              		.eabi_attribute 20, 1
   5              		.eabi_attribute 21, 1
   6              		.eabi_attribute 23, 3
   7              		.eabi_attribute 24, 1
   8              		.eabi_attribute 25, 1
   9              		.eabi_attribute 26, 1
  10              		.eabi_attribute 30, 6
  11              		.eabi_attribute 34, 1
  12              		.eabi_attribute 18, 4
  13              		.thumb
  14              		.file	"icmpv6rpl.c"
  15              		.text
  16              	.Ltext0:
  17              		.cfi_sections	.debug_frame
  18              		.section	.rodata
  19              		.align	2
  22              	rreg_uriquery:
  23 0000 683D7563 		.ascii	"h=ucb\000"
  23      6200
  24 0006 0000     		.align	2
  27              	infoBoardname:
  28 0008 43433235 		.ascii	"CC2538\000"
  28      333800
  29 000f 00       		.align	2
  32              	infouCName:
  33 0010 43433235 		.ascii	"CC2538\000"
  33      333800
  34 0017 00       		.align	2
  37              	infoRadioName:
  38 0018 43433235 		.ascii	"CC2538 SoC\000"
  38      33382053 
  38      6F4300
  39 0023 00       		.align	2
  42              	infoStackName:
  43 0024 4F70656E 		.ascii	"OpenWSN \000"
  43      57534E20 
  43      00
  44 002d 000000   		.align	2
  47              	all_routers_multicast:
  48 0030 FF       		.byte	-1
  49 0031 02       		.byte	2
  50 0032 00       		.byte	0
  51 0033 00       		.byte	0
  52 0034 00       		.byte	0
  53 0035 00       		.byte	0
  54 0036 00       		.byte	0
  55 0037 00       		.byte	0
  56 0038 00       		.byte	0
  57 0039 00       		.byte	0
  58 003a 00       		.byte	0
  59 003b 00       		.byte	0
  60 003c 00       		.byte	0
  61 003d 00       		.byte	0
  62 003e 00       		.byte	0
  63 003f 1A       		.byte	26
  64              		.align	2
  67              	linklocalprefix:
  68 0040 FE       		.byte	-2
  69 0041 80       		.byte	-128
  70 0042 00       		.byte	0
  71 0043 00       		.byte	0
  72 0044 00       		.byte	0
  73 0045 00       		.byte	0
  74 0046 00       		.byte	0
  75 0047 00       		.byte	0
  76              		.align	2
  79              	chTemplate_default:
  80 0048 05       		.byte	5
  81 0049 06       		.byte	6
  82 004a 0C       		.byte	12
  83 004b 07       		.byte	7
  84 004c 0F       		.byte	15
  85 004d 04       		.byte	4
  86 004e 0E       		.byte	14
  87 004f 0B       		.byte	11
  88 0050 08       		.byte	8
  89 0051 00       		.byte	0
  90 0052 01       		.byte	1
  91 0053 02       		.byte	2
  92 0054 0D       		.byte	13
  93 0055 03       		.byte	3
  94 0056 09       		.byte	9
  95 0057 0A       		.byte	10
  96              		.align	2
  99              	ebIEsBytestream:
 100 0058 1A       		.byte	26
 101 0059 88       		.byte	-120
 102 005a 06       		.byte	6
 103 005b 1A       		.byte	26
 104 005c 00       		.byte	0
 105 005d 00       		.byte	0
 106 005e 00       		.byte	0
 107 005f 00       		.byte	0
 108 0060 00       		.byte	0
 109 0061 00       		.byte	0
 110 0062 01       		.byte	1
 111 0063 1C       		.byte	28
 112 0064 00       		.byte	0
 113 0065 01       		.byte	1
 114 0066 C8       		.byte	-56
 115 0067 00       		.byte	0
 116 0068 0A       		.byte	10
 117 0069 1B       		.byte	27
 118 006a 01       		.byte	1
 119 006b 00       		.byte	0
 120 006c 65       		.byte	101
 121 006d 00       		.byte	0
 122 006e 01       		.byte	1
 123 006f 00       		.byte	0
 124 0070 00       		.byte	0
 125 0071 00       		.byte	0
 126 0072 00       		.byte	0
 127 0073 0F       		.byte	15
 128              		.comm	icmpv6rpl_vars,156,4
 129              		.text
 130              		.align	2
 131              		.global	icmpv6rpl_init
 132              		.thumb
 133              		.thumb_func
 135              	icmpv6rpl_init:
 136              	.LFB0:
 137              		.file 1 "build/openmote-cc2538_armgcc/openstack/03b-IPv6/icmpv6rpl.c"
   1:build/openmote-cc2538_armgcc/openstack/03b-IPv6/icmpv6rpl.c **** #include "opendefs.h"
   2:build/openmote-cc2538_armgcc/openstack/03b-IPv6/icmpv6rpl.c **** #include "icmpv6rpl.h"
   3:build/openmote-cc2538_armgcc/openstack/03b-IPv6/icmpv6rpl.c **** #include "icmpv6.h"
   4:build/openmote-cc2538_armgcc/openstack/03b-IPv6/icmpv6rpl.c **** #include "openserial.h"
   5:build/openmote-cc2538_armgcc/openstack/03b-IPv6/icmpv6rpl.c **** #include "openqueue.h"
   6:build/openmote-cc2538_armgcc/openstack/03b-IPv6/icmpv6rpl.c **** #include "neighbors.h"
   7:build/openmote-cc2538_armgcc/openstack/03b-IPv6/icmpv6rpl.c **** #include "packetfunctions.h"
   8:build/openmote-cc2538_armgcc/openstack/03b-IPv6/icmpv6rpl.c **** #include "openrandom.h"
   9:build/openmote-cc2538_armgcc/openstack/03b-IPv6/icmpv6rpl.c **** #include "scheduler.h"
  10:build/openmote-cc2538_armgcc/openstack/03b-IPv6/icmpv6rpl.c **** #include "idmanager.h"
  11:build/openmote-cc2538_armgcc/openstack/03b-IPv6/icmpv6rpl.c **** #include "opentimers.h"
  12:build/openmote-cc2538_armgcc/openstack/03b-IPv6/icmpv6rpl.c **** #include "IEEE802154E.h"
  13:build/openmote-cc2538_armgcc/openstack/03b-IPv6/icmpv6rpl.c **** #include "schedule.h"
  14:build/openmote-cc2538_armgcc/openstack/03b-IPv6/icmpv6rpl.c **** #include "msf.h"
  15:build/openmote-cc2538_armgcc/openstack/03b-IPv6/icmpv6rpl.c **** 
  16:build/openmote-cc2538_armgcc/openstack/03b-IPv6/icmpv6rpl.c **** //=========================== variables =======================================
  17:build/openmote-cc2538_armgcc/openstack/03b-IPv6/icmpv6rpl.c **** 
  18:build/openmote-cc2538_armgcc/openstack/03b-IPv6/icmpv6rpl.c **** icmpv6rpl_vars_t             icmpv6rpl_vars;
  19:build/openmote-cc2538_armgcc/openstack/03b-IPv6/icmpv6rpl.c **** 
  20:build/openmote-cc2538_armgcc/openstack/03b-IPv6/icmpv6rpl.c **** //=========================== prototypes ======================================
  21:build/openmote-cc2538_armgcc/openstack/03b-IPv6/icmpv6rpl.c **** 
  22:build/openmote-cc2538_armgcc/openstack/03b-IPv6/icmpv6rpl.c **** // DIO-related
  23:build/openmote-cc2538_armgcc/openstack/03b-IPv6/icmpv6rpl.c **** void icmpv6rpl_timer_DIO_cb(opentimers_id_t id);
  24:build/openmote-cc2538_armgcc/openstack/03b-IPv6/icmpv6rpl.c **** void icmpv6rpl_timer_DIO_task(void);
  25:build/openmote-cc2538_armgcc/openstack/03b-IPv6/icmpv6rpl.c **** void sendDIO(void);
  26:build/openmote-cc2538_armgcc/openstack/03b-IPv6/icmpv6rpl.c **** // DAO-related
  27:build/openmote-cc2538_armgcc/openstack/03b-IPv6/icmpv6rpl.c **** void icmpv6rpl_timer_DAO_cb(opentimers_id_t id);
  28:build/openmote-cc2538_armgcc/openstack/03b-IPv6/icmpv6rpl.c **** void icmpv6rpl_timer_DAO_task(void);
  29:build/openmote-cc2538_armgcc/openstack/03b-IPv6/icmpv6rpl.c **** void sendDAO(void);
  30:build/openmote-cc2538_armgcc/openstack/03b-IPv6/icmpv6rpl.c **** 
  31:build/openmote-cc2538_armgcc/openstack/03b-IPv6/icmpv6rpl.c **** //=========================== public ==========================================
  32:build/openmote-cc2538_armgcc/openstack/03b-IPv6/icmpv6rpl.c **** 
  33:build/openmote-cc2538_armgcc/openstack/03b-IPv6/icmpv6rpl.c **** /**
  34:build/openmote-cc2538_armgcc/openstack/03b-IPv6/icmpv6rpl.c **** \brief Initialize this module.
  35:build/openmote-cc2538_armgcc/openstack/03b-IPv6/icmpv6rpl.c **** */
  36:build/openmote-cc2538_armgcc/openstack/03b-IPv6/icmpv6rpl.c **** void icmpv6rpl_init(void) {
 138              		.loc 1 36 0
 139              		.cfi_startproc
 140              		@ args = 0, pretend = 0, frame = 16
 141              		@ frame_needed = 1, uses_anonymous_args = 0
 142 0000 B0B5     		push	{r4, r5, r7, lr}
 143              		.cfi_def_cfa_offset 16
 144              		.cfi_offset 4, -16
 145              		.cfi_offset 5, -12
 146              		.cfi_offset 7, -8
 147              		.cfi_offset 14, -4
 148 0002 86B0     		sub	sp, sp, #24
 149              		.cfi_def_cfa_offset 40
 150 0004 02AF     		add	r7, sp, #8
 151              		.cfi_def_cfa 7, 32
  37:build/openmote-cc2538_armgcc/openstack/03b-IPv6/icmpv6rpl.c **** 
  38:build/openmote-cc2538_armgcc/openstack/03b-IPv6/icmpv6rpl.c ****     uint8_t         dodagid[16];
  39:build/openmote-cc2538_armgcc/openstack/03b-IPv6/icmpv6rpl.c **** 
  40:build/openmote-cc2538_armgcc/openstack/03b-IPv6/icmpv6rpl.c ****     // retrieve my prefix and EUI64
  41:build/openmote-cc2538_armgcc/openstack/03b-IPv6/icmpv6rpl.c ****     memcpy(&dodagid[0],idmanager_getMyID(ADDR_PREFIX)->prefix,8); // prefix
 152              		.loc 1 41 0
 153 0006 0520     		movs	r0, #5
 154 0008 FFF7FEFF 		bl	idmanager_getMyID
 155 000c 0346     		mov	r3, r0
 156 000e 0133     		adds	r3, r3, #1
 157 0010 3A46     		mov	r2, r7
 158 0012 1046     		mov	r0, r2
 159 0014 1946     		mov	r1, r3
 160 0016 0822     		movs	r2, #8
 161 0018 FFF7FEFF 		bl	memcpy
  42:build/openmote-cc2538_armgcc/openstack/03b-IPv6/icmpv6rpl.c ****     memcpy(&dodagid[8],idmanager_getMyID(ADDR_64B)->addr_64b,8);  // eui64
 162              		.loc 1 42 0
 163 001c 0220     		movs	r0, #2
 164 001e FFF7FEFF 		bl	idmanager_getMyID
 165 0022 0346     		mov	r3, r0
 166 0024 5A1C     		adds	r2, r3, #1
 167 0026 3B46     		mov	r3, r7
 168 0028 0833     		adds	r3, r3, #8
 169 002a 1846     		mov	r0, r3
 170 002c 1146     		mov	r1, r2
 171 002e 0822     		movs	r2, #8
 172 0030 FFF7FEFF 		bl	memcpy
  43:build/openmote-cc2538_armgcc/openstack/03b-IPv6/icmpv6rpl.c **** 
  44:build/openmote-cc2538_armgcc/openstack/03b-IPv6/icmpv6rpl.c ****     //===== reset local variables
  45:build/openmote-cc2538_armgcc/openstack/03b-IPv6/icmpv6rpl.c ****     memset(&icmpv6rpl_vars,0,sizeof(icmpv6rpl_vars_t));
 173              		.loc 1 45 0
 174 0034 A648     		ldr	r0, .L5
 175 0036 0021     		movs	r1, #0
 176 0038 9C22     		movs	r2, #156
 177 003a FFF7FEFF 		bl	memset
  46:build/openmote-cc2538_armgcc/openstack/03b-IPv6/icmpv6rpl.c **** 
  47:build/openmote-cc2538_armgcc/openstack/03b-IPv6/icmpv6rpl.c ****     //=== routing
  48:build/openmote-cc2538_armgcc/openstack/03b-IPv6/icmpv6rpl.c ****     icmpv6rpl_vars.haveParent=FALSE;
 178              		.loc 1 48 0
 179 003e A44B     		ldr	r3, .L5
 180 0040 0022     		movs	r2, #0
 181 0042 83F88A20 		strb	r2, [r3, #138]
  49:build/openmote-cc2538_armgcc/openstack/03b-IPv6/icmpv6rpl.c ****     icmpv6rpl_vars.daoSent=FALSE;
 182              		.loc 1 49 0
 183 0046 A24B     		ldr	r3, .L5
 184 0048 0022     		movs	r2, #0
 185 004a 83F89820 		strb	r2, [r3, #152]
  50:build/openmote-cc2538_armgcc/openstack/03b-IPv6/icmpv6rpl.c ****     if (idmanager_getIsDAGroot()==TRUE) {
 186              		.loc 1 50 0
 187 004e FFF7FEFF 		bl	idmanager_getIsDAGroot
 188 0052 0346     		mov	r3, r0
 189 0054 002B     		cmp	r3, #0
 190 0056 05D0     		beq	.L2
  51:build/openmote-cc2538_armgcc/openstack/03b-IPv6/icmpv6rpl.c ****         icmpv6rpl_vars.myDAGrank=MINHOPRANKINCREASE;
 191              		.loc 1 51 0
 192 0058 9D4B     		ldr	r3, .L5
 193 005a 4FF48072 		mov	r2, #256
 194 005e A3F88620 		strh	r2, [r3, #134]	@ movhi
 195 0062 04E0     		b	.L3
 196              	.L2:
  52:build/openmote-cc2538_armgcc/openstack/03b-IPv6/icmpv6rpl.c ****     } else {
  53:build/openmote-cc2538_armgcc/openstack/03b-IPv6/icmpv6rpl.c ****         icmpv6rpl_vars.myDAGrank=DEFAULTDAGRANK;
 197              		.loc 1 53 0
 198 0064 9A4B     		ldr	r3, .L5
 199 0066 4FF6FF72 		movw	r2, #65535
 200 006a A3F88620 		strh	r2, [r3, #134]	@ movhi
 201              	.L3:
  54:build/openmote-cc2538_armgcc/openstack/03b-IPv6/icmpv6rpl.c ****     }
  55:build/openmote-cc2538_armgcc/openstack/03b-IPv6/icmpv6rpl.c **** 
  56:build/openmote-cc2538_armgcc/openstack/03b-IPv6/icmpv6rpl.c ****     //=== admin
  57:build/openmote-cc2538_armgcc/openstack/03b-IPv6/icmpv6rpl.c **** 
  58:build/openmote-cc2538_armgcc/openstack/03b-IPv6/icmpv6rpl.c ****     icmpv6rpl_vars.busySendingDIO            = FALSE;
 202              		.loc 1 58 0
 203 006e 984B     		ldr	r3, .L5
 204 0070 0022     		movs	r2, #0
 205 0072 1A70     		strb	r2, [r3]
  59:build/openmote-cc2538_armgcc/openstack/03b-IPv6/icmpv6rpl.c ****     icmpv6rpl_vars.busySendingDAO            = FALSE;
 206              		.loc 1 59 0
 207 0074 964B     		ldr	r3, .L5
 208 0076 0022     		movs	r2, #0
 209 0078 5A70     		strb	r2, [r3, #1]
  60:build/openmote-cc2538_armgcc/openstack/03b-IPv6/icmpv6rpl.c ****     icmpv6rpl_vars.fDodagidWritten           = 0;
 210              		.loc 1 60 0
 211 007a 954B     		ldr	r3, .L5
 212 007c 0022     		movs	r2, #0
 213 007e 9A70     		strb	r2, [r3, #2]
  61:build/openmote-cc2538_armgcc/openstack/03b-IPv6/icmpv6rpl.c **** 
  62:build/openmote-cc2538_armgcc/openstack/03b-IPv6/icmpv6rpl.c ****     //=== DIO
  63:build/openmote-cc2538_armgcc/openstack/03b-IPv6/icmpv6rpl.c **** 
  64:build/openmote-cc2538_armgcc/openstack/03b-IPv6/icmpv6rpl.c ****     icmpv6rpl_vars.dio.rplinstanceId         = 0x00;        ///< TODO: put correct value
 214              		.loc 1 64 0
 215 0080 934B     		ldr	r3, .L5
 216 0082 0022     		movs	r2, #0
 217 0084 DA70     		strb	r2, [r3, #3]
  65:build/openmote-cc2538_armgcc/openstack/03b-IPv6/icmpv6rpl.c ****     icmpv6rpl_vars.dio.verNumb               = 0x00;        ///< TODO: put correct value
 218              		.loc 1 65 0
 219 0086 924B     		ldr	r3, .L5
 220 0088 0022     		movs	r2, #0
 221 008a 1A71     		strb	r2, [r3, #4]
  66:build/openmote-cc2538_armgcc/openstack/03b-IPv6/icmpv6rpl.c ****     // rank: to be populated upon TX
  67:build/openmote-cc2538_armgcc/openstack/03b-IPv6/icmpv6rpl.c ****     icmpv6rpl_vars.dio.rplOptions            = MOP_DIO_A | \
 222              		.loc 1 67 0
 223 008c 904B     		ldr	r3, .L5
 224 008e 8822     		movs	r2, #136
 225 0090 DA71     		strb	r2, [r3, #7]
  68:build/openmote-cc2538_armgcc/openstack/03b-IPv6/icmpv6rpl.c ****                                                MOP_DIO_B | \
  69:build/openmote-cc2538_armgcc/openstack/03b-IPv6/icmpv6rpl.c ****                                                MOP_DIO_C | \
  70:build/openmote-cc2538_armgcc/openstack/03b-IPv6/icmpv6rpl.c ****                                                PRF_DIO_A | \
  71:build/openmote-cc2538_armgcc/openstack/03b-IPv6/icmpv6rpl.c ****                                                PRF_DIO_B | \
  72:build/openmote-cc2538_armgcc/openstack/03b-IPv6/icmpv6rpl.c ****                                                PRF_DIO_C | \
  73:build/openmote-cc2538_armgcc/openstack/03b-IPv6/icmpv6rpl.c ****                                                G_DIO ;
  74:build/openmote-cc2538_armgcc/openstack/03b-IPv6/icmpv6rpl.c ****     icmpv6rpl_vars.dio.DTSN                  = 0x33;        ///< TODO: put correct value
 226              		.loc 1 74 0
 227 0092 8F4B     		ldr	r3, .L5
 228 0094 3322     		movs	r2, #51
 229 0096 1A72     		strb	r2, [r3, #8]
  75:build/openmote-cc2538_armgcc/openstack/03b-IPv6/icmpv6rpl.c ****     icmpv6rpl_vars.dio.flags                 = 0x00;
 230              		.loc 1 75 0
 231 0098 8D4B     		ldr	r3, .L5
 232 009a 0022     		movs	r2, #0
 233 009c 5A72     		strb	r2, [r3, #9]
  76:build/openmote-cc2538_armgcc/openstack/03b-IPv6/icmpv6rpl.c ****     icmpv6rpl_vars.dio.reserved              = 0x00;
 234              		.loc 1 76 0
 235 009e 8C4B     		ldr	r3, .L5
 236 00a0 0022     		movs	r2, #0
 237 00a2 9A72     		strb	r2, [r3, #10]
  77:build/openmote-cc2538_armgcc/openstack/03b-IPv6/icmpv6rpl.c ****     memcpy(
 238              		.loc 1 77 0
 239 00a4 8A4B     		ldr	r3, .L5
 240 00a6 03F10B04 		add	r4, r3, #11
 241 00aa 3D46     		mov	r5, r7
 242 00ac 0FCD     		ldmia	r5!, {r0, r1, r2, r3}
 243 00ae 2060     		str	r0, [r4]	@ unaligned
 244 00b0 6160     		str	r1, [r4, #4]	@ unaligned
 245 00b2 A260     		str	r2, [r4, #8]	@ unaligned
 246 00b4 E360     		str	r3, [r4, #12]	@ unaligned
  78:build/openmote-cc2538_armgcc/openstack/03b-IPv6/icmpv6rpl.c ****         &(icmpv6rpl_vars.dio.DODAGID[0]),
  79:build/openmote-cc2538_armgcc/openstack/03b-IPv6/icmpv6rpl.c ****         dodagid,
  80:build/openmote-cc2538_armgcc/openstack/03b-IPv6/icmpv6rpl.c ****         sizeof(icmpv6rpl_vars.dio.DODAGID)
  81:build/openmote-cc2538_armgcc/openstack/03b-IPv6/icmpv6rpl.c ****     ); // can be replaced later
  82:build/openmote-cc2538_armgcc/openstack/03b-IPv6/icmpv6rpl.c **** 
  83:build/openmote-cc2538_armgcc/openstack/03b-IPv6/icmpv6rpl.c ****     icmpv6rpl_vars.dioDestination.type = ADDR_128B;
 247              		.loc 1 83 0
 248 00b6 864B     		ldr	r3, .L5
 249 00b8 0322     		movs	r2, #3
 250 00ba 83F84B20 		strb	r2, [r3, #75]
  84:build/openmote-cc2538_armgcc/openstack/03b-IPv6/icmpv6rpl.c ****     memcpy(&icmpv6rpl_vars.dioDestination.addr_128b[0],all_routers_multicast,sizeof(all_routers_mul
 251              		.loc 1 84 0
 252 00be 844B     		ldr	r3, .L5
 253 00c0 844A     		ldr	r2, .L5+4
 254 00c2 03F14C04 		add	r4, r3, #76
 255 00c6 1346     		mov	r3, r2
 256 00c8 0FCB     		ldmia	r3, {r0, r1, r2, r3}
 257 00ca 84E80F00 		stmia	r4, {r0, r1, r2, r3}
  85:build/openmote-cc2538_armgcc/openstack/03b-IPv6/icmpv6rpl.c **** 
  86:build/openmote-cc2538_armgcc/openstack/03b-IPv6/icmpv6rpl.c ****     icmpv6rpl_vars.dioPeriod                 = DIO_PERIOD;
 258              		.loc 1 86 0
 259 00ce 804B     		ldr	r3, .L5
 260 00d0 42F21072 		movw	r2, #10000
 261 00d4 A3F86020 		strh	r2, [r3, #96]	@ movhi
  87:build/openmote-cc2538_armgcc/openstack/03b-IPv6/icmpv6rpl.c ****     icmpv6rpl_vars.timerIdDIO                = opentimers_create();
 262              		.loc 1 87 0
 263 00d8 FFF7FEFF 		bl	opentimers_create
 264 00dc 0346     		mov	r3, r0
 265 00de 1A46     		mov	r2, r3
 266 00e0 7B4B     		ldr	r3, .L5
 267 00e2 83F85E20 		strb	r2, [r3, #94]
  88:build/openmote-cc2538_armgcc/openstack/03b-IPv6/icmpv6rpl.c **** 
  89:build/openmote-cc2538_armgcc/openstack/03b-IPv6/icmpv6rpl.c ****     //initialize PIO -> move this to dagroot code
  90:build/openmote-cc2538_armgcc/openstack/03b-IPv6/icmpv6rpl.c ****     icmpv6rpl_vars.pio.type                  = RPL_OPTION_PIO;
 268              		.loc 1 90 0
 269 00e6 7A4B     		ldr	r3, .L5
 270 00e8 0822     		movs	r2, #8
 271 00ea DA76     		strb	r2, [r3, #27]
  91:build/openmote-cc2538_armgcc/openstack/03b-IPv6/icmpv6rpl.c ****     icmpv6rpl_vars.pio.optLen                = 30;
 272              		.loc 1 91 0
 273 00ec 784B     		ldr	r3, .L5
 274 00ee 1E22     		movs	r2, #30
 275 00f0 1A77     		strb	r2, [r3, #28]
  92:build/openmote-cc2538_armgcc/openstack/03b-IPv6/icmpv6rpl.c ****     icmpv6rpl_vars.pio.prefLen               = 64;
 276              		.loc 1 92 0
 277 00f2 774B     		ldr	r3, .L5
 278 00f4 4022     		movs	r2, #64
 279 00f6 5A77     		strb	r2, [r3, #29]
  93:build/openmote-cc2538_armgcc/openstack/03b-IPv6/icmpv6rpl.c ****     icmpv6rpl_vars.pio.flags                 = 96;
 280              		.loc 1 93 0
 281 00f8 754B     		ldr	r3, .L5
 282 00fa 6022     		movs	r2, #96
 283 00fc 9A77     		strb	r2, [r3, #30]
  94:build/openmote-cc2538_armgcc/openstack/03b-IPv6/icmpv6rpl.c ****     icmpv6rpl_vars.pio.plifetime             = 0xFFFFFFFF;
 284              		.loc 1 94 0
 285 00fe 744B     		ldr	r3, .L5
 286 0100 4FF0FF32 		mov	r2, #-1
 287 0104 83F82320 		strb	r2, [r3, #35]
 288 0108 4FF0FF32 		mov	r2, #-1
 289 010c 83F82420 		strb	r2, [r3, #36]
 290 0110 4FF0FF32 		mov	r2, #-1
 291 0114 83F82520 		strb	r2, [r3, #37]
 292 0118 4FF0FF32 		mov	r2, #-1
 293 011c 83F82620 		strb	r2, [r3, #38]
  95:build/openmote-cc2538_armgcc/openstack/03b-IPv6/icmpv6rpl.c ****     icmpv6rpl_vars.pio.vlifetime             = 0xFFFFFFFF;
 294              		.loc 1 95 0
 295 0120 6B4B     		ldr	r3, .L5
 296 0122 4FF0FF32 		mov	r2, #-1
 297 0126 DA77     		strb	r2, [r3, #31]
 298 0128 4FF0FF32 		mov	r2, #-1
 299 012c 83F82020 		strb	r2, [r3, #32]
 300 0130 4FF0FF32 		mov	r2, #-1
 301 0134 83F82120 		strb	r2, [r3, #33]
 302 0138 4FF0FF32 		mov	r2, #-1
 303 013c 83F82220 		strb	r2, [r3, #34]
  96:build/openmote-cc2538_armgcc/openstack/03b-IPv6/icmpv6rpl.c ****     // if not dagroot then do not initialize, will receive PIO and update fields
  97:build/openmote-cc2538_armgcc/openstack/03b-IPv6/icmpv6rpl.c ****     // later
  98:build/openmote-cc2538_armgcc/openstack/03b-IPv6/icmpv6rpl.c ****     if (idmanager_getIsDAGroot()){
 304              		.loc 1 98 0
 305 0140 FFF7FEFF 		bl	idmanager_getIsDAGroot
 306 0144 0346     		mov	r3, r0
 307 0146 002B     		cmp	r3, #0
 308 0148 13D0     		beq	.L4
  99:build/openmote-cc2538_armgcc/openstack/03b-IPv6/icmpv6rpl.c ****         memcpy(
 100:build/openmote-cc2538_armgcc/openstack/03b-IPv6/icmpv6rpl.c ****             &(icmpv6rpl_vars.pio.prefix[0]),
 101:build/openmote-cc2538_armgcc/openstack/03b-IPv6/icmpv6rpl.c ****             idmanager_getMyID(ADDR_PREFIX)->prefix,
 309              		.loc 1 101 0
 310 014a 0520     		movs	r0, #5
 311 014c FFF7FEFF 		bl	idmanager_getMyID
 312 0150 0346     		mov	r3, r0
 313 0152 0133     		adds	r3, r3, #1
  99:build/openmote-cc2538_armgcc/openstack/03b-IPv6/icmpv6rpl.c ****         memcpy(
 314              		.loc 1 99 0
 315 0154 6048     		ldr	r0, .L5+8
 316 0156 1946     		mov	r1, r3
 317 0158 0822     		movs	r2, #8
 318 015a FFF7FEFF 		bl	memcpy
 102:build/openmote-cc2538_armgcc/openstack/03b-IPv6/icmpv6rpl.c ****             sizeof(idmanager_getMyID(ADDR_PREFIX)->prefix)
 103:build/openmote-cc2538_armgcc/openstack/03b-IPv6/icmpv6rpl.c ****         );
 104:build/openmote-cc2538_armgcc/openstack/03b-IPv6/icmpv6rpl.c ****         memcpy(
 105:build/openmote-cc2538_armgcc/openstack/03b-IPv6/icmpv6rpl.c ****             &(icmpv6rpl_vars.pio.prefix[8]),
 106:build/openmote-cc2538_armgcc/openstack/03b-IPv6/icmpv6rpl.c ****             idmanager_getMyID(ADDR_64B)->addr_64b,
 319              		.loc 1 106 0
 320 015e 0220     		movs	r0, #2
 321 0160 FFF7FEFF 		bl	idmanager_getMyID
 322 0164 0346     		mov	r3, r0
 323 0166 0133     		adds	r3, r3, #1
 104:build/openmote-cc2538_armgcc/openstack/03b-IPv6/icmpv6rpl.c ****             &(icmpv6rpl_vars.pio.prefix[8]),
 324              		.loc 1 104 0
 325 0168 5C48     		ldr	r0, .L5+12
 326 016a 1946     		mov	r1, r3
 327 016c 0822     		movs	r2, #8
 328 016e FFF7FEFF 		bl	memcpy
 329              	.L4:
 107:build/openmote-cc2538_armgcc/openstack/03b-IPv6/icmpv6rpl.c ****             sizeof(idmanager_getMyID(ADDR_64B)->addr_64b)
 108:build/openmote-cc2538_armgcc/openstack/03b-IPv6/icmpv6rpl.c ****        );
 109:build/openmote-cc2538_armgcc/openstack/03b-IPv6/icmpv6rpl.c ****     }
 110:build/openmote-cc2538_armgcc/openstack/03b-IPv6/icmpv6rpl.c ****     //configuration option
 111:build/openmote-cc2538_armgcc/openstack/03b-IPv6/icmpv6rpl.c ****     icmpv6rpl_vars.conf.type = RPL_OPTION_CONFIG;
 330              		.loc 1 111 0
 331 0172 574B     		ldr	r3, .L5
 332 0174 0422     		movs	r2, #4
 333 0176 83F83B20 		strb	r2, [r3, #59]
 112:build/openmote-cc2538_armgcc/openstack/03b-IPv6/icmpv6rpl.c ****     icmpv6rpl_vars.conf.optLen = 14;
 334              		.loc 1 112 0
 335 017a 554B     		ldr	r3, .L5
 336 017c 0E22     		movs	r2, #14
 337 017e 83F83C20 		strb	r2, [r3, #60]
 113:build/openmote-cc2538_armgcc/openstack/03b-IPv6/icmpv6rpl.c ****     icmpv6rpl_vars.conf.flagsAPCS = DEFAULT_PATH_CONTROL_SIZE; //DEFAULT_PATH_CONTROL_SIZE = 0
 338              		.loc 1 113 0
 339 0182 534B     		ldr	r3, .L5
 340 0184 0022     		movs	r2, #0
 341 0186 83F83D20 		strb	r2, [r3, #61]
 114:build/openmote-cc2538_armgcc/openstack/03b-IPv6/icmpv6rpl.c ****     icmpv6rpl_vars.conf.DIOIntDoubl = 8; //8 -> trickle period - max times it will double ~20min
 342              		.loc 1 114 0
 343 018a 514B     		ldr	r3, .L5
 344 018c 0822     		movs	r2, #8
 345 018e 83F83E20 		strb	r2, [r3, #62]
 115:build/openmote-cc2538_armgcc/openstack/03b-IPv6/icmpv6rpl.c ****     icmpv6rpl_vars.conf.DIOIntMin = 12 ; // 12 ->  min trickle period -> 16s
 346              		.loc 1 115 0
 347 0192 4F4B     		ldr	r3, .L5
 348 0194 0C22     		movs	r2, #12
 349 0196 83F83F20 		strb	r2, [r3, #63]
 116:build/openmote-cc2538_armgcc/openstack/03b-IPv6/icmpv6rpl.c ****     icmpv6rpl_vars.conf.DIORedun = 0 ; // 0
 350              		.loc 1 116 0
 351 019a 4D4B     		ldr	r3, .L5
 352 019c 0022     		movs	r2, #0
 353 019e 83F84020 		strb	r2, [r3, #64]
 117:build/openmote-cc2538_armgcc/openstack/03b-IPv6/icmpv6rpl.c ****     icmpv6rpl_vars.conf.maxRankIncrease = 2048; //  2048
 354              		.loc 1 117 0
 355 01a2 4B4B     		ldr	r3, .L5
 356 01a4 0022     		movs	r2, #0
 357 01a6 83F84120 		strb	r2, [r3, #65]
 358 01aa 0022     		movs	r2, #0
 359 01ac 42F00802 		orr	r2, r2, #8
 360 01b0 83F84220 		strb	r2, [r3, #66]
 118:build/openmote-cc2538_armgcc/openstack/03b-IPv6/icmpv6rpl.c ****     icmpv6rpl_vars.conf.minHopRankIncrease = 256 ; //256
 361              		.loc 1 118 0
 362 01b4 464B     		ldr	r3, .L5
 363 01b6 0022     		movs	r2, #0
 364 01b8 83F84320 		strb	r2, [r3, #67]
 365 01bc 0022     		movs	r2, #0
 366 01be 42F00102 		orr	r2, r2, #1
 367 01c2 83F84420 		strb	r2, [r3, #68]
 119:build/openmote-cc2538_armgcc/openstack/03b-IPv6/icmpv6rpl.c ****     icmpv6rpl_vars.conf.OCP = 0; // 0 OF0
 368              		.loc 1 119 0
 369 01c6 424B     		ldr	r3, .L5
 370 01c8 0022     		movs	r2, #0
 371 01ca 83F84520 		strb	r2, [r3, #69]
 372 01ce 0022     		movs	r2, #0
 373 01d0 83F84620 		strb	r2, [r3, #70]
 120:build/openmote-cc2538_armgcc/openstack/03b-IPv6/icmpv6rpl.c ****     icmpv6rpl_vars.conf.reserved = 0;
 374              		.loc 1 120 0
 375 01d4 3E4B     		ldr	r3, .L5
 376 01d6 0022     		movs	r2, #0
 377 01d8 83F84720 		strb	r2, [r3, #71]
 121:build/openmote-cc2538_armgcc/openstack/03b-IPv6/icmpv6rpl.c ****     icmpv6rpl_vars.conf.defLifetime = 0xff; //infinite - limit for DAO period  -> 0xff
 378              		.loc 1 121 0
 379 01dc 3C4B     		ldr	r3, .L5
 380 01de FF22     		movs	r2, #255
 381 01e0 83F84820 		strb	r2, [r3, #72]
 122:build/openmote-cc2538_armgcc/openstack/03b-IPv6/icmpv6rpl.c ****     icmpv6rpl_vars.conf.lifetimeUnit = 0xffff; // 0xffff
 382              		.loc 1 122 0
 383 01e4 3A4B     		ldr	r3, .L5
 384 01e6 4FF0FF32 		mov	r2, #-1
 385 01ea 83F84920 		strb	r2, [r3, #73]
 386 01ee 4FF0FF32 		mov	r2, #-1
 387 01f2 83F84A20 		strb	r2, [r3, #74]
 123:build/openmote-cc2538_armgcc/openstack/03b-IPv6/icmpv6rpl.c **** 
 124:build/openmote-cc2538_armgcc/openstack/03b-IPv6/icmpv6rpl.c ****     opentimers_scheduleIn(
 388              		.loc 1 124 0
 389 01f6 364B     		ldr	r3, .L5
 390 01f8 93F85E20 		ldrb	r2, [r3, #94]	@ zero_extendqisi2
 391 01fc 384B     		ldr	r3, .L5+16
 392 01fe 0093     		str	r3, [sp]
 393 0200 1046     		mov	r0, r2
 394 0202 40F2F231 		movw	r1, #1010
 395 0206 0022     		movs	r2, #0
 396 0208 0023     		movs	r3, #0
 397 020a FFF7FEFF 		bl	opentimers_scheduleIn
 125:build/openmote-cc2538_armgcc/openstack/03b-IPv6/icmpv6rpl.c ****         icmpv6rpl_vars.timerIdDIO,
 126:build/openmote-cc2538_armgcc/openstack/03b-IPv6/icmpv6rpl.c ****         SLOTFRAME_LENGTH*SLOTDURATION,
 127:build/openmote-cc2538_armgcc/openstack/03b-IPv6/icmpv6rpl.c ****         TIME_MS,
 128:build/openmote-cc2538_armgcc/openstack/03b-IPv6/icmpv6rpl.c ****         TIMER_PERIODIC,
 129:build/openmote-cc2538_armgcc/openstack/03b-IPv6/icmpv6rpl.c ****         icmpv6rpl_timer_DIO_cb
 130:build/openmote-cc2538_armgcc/openstack/03b-IPv6/icmpv6rpl.c ****     );
 131:build/openmote-cc2538_armgcc/openstack/03b-IPv6/icmpv6rpl.c **** 
 132:build/openmote-cc2538_armgcc/openstack/03b-IPv6/icmpv6rpl.c ****     //=== DAO
 133:build/openmote-cc2538_armgcc/openstack/03b-IPv6/icmpv6rpl.c **** 
 134:build/openmote-cc2538_armgcc/openstack/03b-IPv6/icmpv6rpl.c ****     icmpv6rpl_vars.dao.rplinstanceId         = 0x00;        ///< TODO: put correct value
 398              		.loc 1 134 0
 399 020e 304B     		ldr	r3, .L5
 400 0210 0022     		movs	r2, #0
 401 0212 83F86220 		strb	r2, [r3, #98]
 135:build/openmote-cc2538_armgcc/openstack/03b-IPv6/icmpv6rpl.c ****     icmpv6rpl_vars.dao.K_D_flags             = FLAG_DAO_A   | \
 402              		.loc 1 135 0
 403 0216 2E4B     		ldr	r3, .L5
 404 0218 4022     		movs	r2, #64
 405 021a 83F86320 		strb	r2, [r3, #99]
 136:build/openmote-cc2538_armgcc/openstack/03b-IPv6/icmpv6rpl.c ****                                                FLAG_DAO_B   | \
 137:build/openmote-cc2538_armgcc/openstack/03b-IPv6/icmpv6rpl.c ****                                                FLAG_DAO_C   | \
 138:build/openmote-cc2538_armgcc/openstack/03b-IPv6/icmpv6rpl.c ****                                                FLAG_DAO_D   | \
 139:build/openmote-cc2538_armgcc/openstack/03b-IPv6/icmpv6rpl.c ****                                                FLAG_DAO_E   | \
 140:build/openmote-cc2538_armgcc/openstack/03b-IPv6/icmpv6rpl.c ****                                                PRF_DIO_C    | \
 141:build/openmote-cc2538_armgcc/openstack/03b-IPv6/icmpv6rpl.c ****                                                FLAG_DAO_F   | \
 142:build/openmote-cc2538_armgcc/openstack/03b-IPv6/icmpv6rpl.c ****                                                D_DAO        |
 143:build/openmote-cc2538_armgcc/openstack/03b-IPv6/icmpv6rpl.c ****                                                K_DAO;
 144:build/openmote-cc2538_armgcc/openstack/03b-IPv6/icmpv6rpl.c ****     icmpv6rpl_vars.dao.reserved              = 0x00;
 406              		.loc 1 144 0
 407 021e 2C4B     		ldr	r3, .L5
 408 0220 0022     		movs	r2, #0
 409 0222 83F86420 		strb	r2, [r3, #100]
 145:build/openmote-cc2538_armgcc/openstack/03b-IPv6/icmpv6rpl.c ****     icmpv6rpl_vars.dao.DAOSequence           = 0x00;
 410              		.loc 1 145 0
 411 0226 2A4B     		ldr	r3, .L5
 412 0228 0022     		movs	r2, #0
 413 022a 83F86520 		strb	r2, [r3, #101]
 146:build/openmote-cc2538_armgcc/openstack/03b-IPv6/icmpv6rpl.c ****     memcpy(
 414              		.loc 1 146 0
 415 022e 284B     		ldr	r3, .L5
 416 0230 03F16604 		add	r4, r3, #102
 417 0234 3D46     		mov	r5, r7
 418 0236 0FCD     		ldmia	r5!, {r0, r1, r2, r3}
 419 0238 2060     		str	r0, [r4]	@ unaligned
 420 023a 6160     		str	r1, [r4, #4]	@ unaligned
 421 023c A260     		str	r2, [r4, #8]	@ unaligned
 422 023e E360     		str	r3, [r4, #12]	@ unaligned
 147:build/openmote-cc2538_armgcc/openstack/03b-IPv6/icmpv6rpl.c ****         &(icmpv6rpl_vars.dao.DODAGID[0]),
 148:build/openmote-cc2538_armgcc/openstack/03b-IPv6/icmpv6rpl.c ****         dodagid,
 149:build/openmote-cc2538_armgcc/openstack/03b-IPv6/icmpv6rpl.c ****         sizeof(icmpv6rpl_vars.dao.DODAGID)
 150:build/openmote-cc2538_armgcc/openstack/03b-IPv6/icmpv6rpl.c ****     );  // can be replaced later
 151:build/openmote-cc2538_armgcc/openstack/03b-IPv6/icmpv6rpl.c **** 
 152:build/openmote-cc2538_armgcc/openstack/03b-IPv6/icmpv6rpl.c ****     icmpv6rpl_vars.dao_transit.type          = OPTION_TRANSIT_INFORMATION_TYPE;
 423              		.loc 1 152 0
 424 0240 234B     		ldr	r3, .L5
 425 0242 0622     		movs	r2, #6
 426 0244 83F87620 		strb	r2, [r3, #118]
 153:build/openmote-cc2538_armgcc/openstack/03b-IPv6/icmpv6rpl.c ****     // optionLength: to be populated upon TX
 154:build/openmote-cc2538_armgcc/openstack/03b-IPv6/icmpv6rpl.c ****     icmpv6rpl_vars.dao_transit.E_flags       = E_DAO_Transit_Info;
 427              		.loc 1 154 0
 428 0248 214B     		ldr	r3, .L5
 429 024a 0022     		movs	r2, #0
 430 024c 83F87820 		strb	r2, [r3, #120]
 155:build/openmote-cc2538_armgcc/openstack/03b-IPv6/icmpv6rpl.c ****     icmpv6rpl_vars.dao_transit.PathControl   = PC1_A_DAO_Transit_Info | \
 431              		.loc 1 155 0
 432 0250 1F4B     		ldr	r3, .L5
 433 0252 4022     		movs	r2, #64
 434 0254 83F87920 		strb	r2, [r3, #121]
 156:build/openmote-cc2538_armgcc/openstack/03b-IPv6/icmpv6rpl.c ****                                                PC1_B_DAO_Transit_Info | \
 157:build/openmote-cc2538_armgcc/openstack/03b-IPv6/icmpv6rpl.c ****                                                PC2_A_DAO_Transit_Info | \
 158:build/openmote-cc2538_armgcc/openstack/03b-IPv6/icmpv6rpl.c ****                                                PC2_B_DAO_Transit_Info | \
 159:build/openmote-cc2538_armgcc/openstack/03b-IPv6/icmpv6rpl.c ****                                                PC3_A_DAO_Transit_Info | \
 160:build/openmote-cc2538_armgcc/openstack/03b-IPv6/icmpv6rpl.c ****                                                PC3_B_DAO_Transit_Info | \
 161:build/openmote-cc2538_armgcc/openstack/03b-IPv6/icmpv6rpl.c ****                                                PC4_A_DAO_Transit_Info | \
 162:build/openmote-cc2538_armgcc/openstack/03b-IPv6/icmpv6rpl.c ****                                                PC4_B_DAO_Transit_Info;
 163:build/openmote-cc2538_armgcc/openstack/03b-IPv6/icmpv6rpl.c ****     icmpv6rpl_vars.dao_transit.PathSequence  = 0x00; // to be incremented at each TX
 435              		.loc 1 163 0
 436 0258 1D4B     		ldr	r3, .L5
 437 025a 0022     		movs	r2, #0
 438 025c 83F87A20 		strb	r2, [r3, #122]
 164:build/openmote-cc2538_armgcc/openstack/03b-IPv6/icmpv6rpl.c ****     icmpv6rpl_vars.dao_transit.PathLifetime  = 0xAA;
 439              		.loc 1 164 0
 440 0260 1B4B     		ldr	r3, .L5
 441 0262 AA22     		movs	r2, #170
 442 0264 83F87B20 		strb	r2, [r3, #123]
 165:build/openmote-cc2538_armgcc/openstack/03b-IPv6/icmpv6rpl.c ****     //target information
 166:build/openmote-cc2538_armgcc/openstack/03b-IPv6/icmpv6rpl.c ****     icmpv6rpl_vars.dao_target.type  = OPTION_TARGET_INFORMATION_TYPE;
 443              		.loc 1 166 0
 444 0268 194B     		ldr	r3, .L5
 445 026a 0522     		movs	r2, #5
 446 026c 83F87C20 		strb	r2, [r3, #124]
 167:build/openmote-cc2538_armgcc/openstack/03b-IPv6/icmpv6rpl.c ****     icmpv6rpl_vars.dao_target.optionLength   = 0;
 447              		.loc 1 167 0
 448 0270 174B     		ldr	r3, .L5
 449 0272 0022     		movs	r2, #0
 450 0274 83F87D20 		strb	r2, [r3, #125]
 168:build/openmote-cc2538_armgcc/openstack/03b-IPv6/icmpv6rpl.c ****     icmpv6rpl_vars.dao_target.flags  = 0;
 451              		.loc 1 168 0
 452 0278 154B     		ldr	r3, .L5
 453 027a 0022     		movs	r2, #0
 454 027c 83F87E20 		strb	r2, [r3, #126]
 169:build/openmote-cc2538_armgcc/openstack/03b-IPv6/icmpv6rpl.c ****     icmpv6rpl_vars.dao_target.prefixLength   = 0;
 455              		.loc 1 169 0
 456 0280 134B     		ldr	r3, .L5
 457 0282 0022     		movs	r2, #0
 458 0284 83F87F20 		strb	r2, [r3, #127]
 170:build/openmote-cc2538_armgcc/openstack/03b-IPv6/icmpv6rpl.c **** 
 171:build/openmote-cc2538_armgcc/openstack/03b-IPv6/icmpv6rpl.c ****     icmpv6rpl_vars.daoPeriod                 = DAO_PERIOD;
 459              		.loc 1 171 0
 460 0288 114B     		ldr	r3, .L5
 461 028a 4EF66022 		movw	r2, #60000
 462 028e A3F88420 		strh	r2, [r3, #132]	@ movhi
 172:build/openmote-cc2538_armgcc/openstack/03b-IPv6/icmpv6rpl.c ****     icmpv6rpl_vars.timerIdDAO                = opentimers_create();
 463              		.loc 1 172 0
 464 0292 FFF7FEFF 		bl	opentimers_create
 465 0296 0346     		mov	r3, r0
 466 0298 1A46     		mov	r2, r3
 467 029a 0D4B     		ldr	r3, .L5
 468 029c 83F88020 		strb	r2, [r3, #128]
 173:build/openmote-cc2538_armgcc/openstack/03b-IPv6/icmpv6rpl.c ****     opentimers_scheduleIn(
 469              		.loc 1 173 0
 470 02a0 0B4B     		ldr	r3, .L5
 471 02a2 93F88040 		ldrb	r4, [r3, #128]	@ zero_extendqisi2
 174:build/openmote-cc2538_armgcc/openstack/03b-IPv6/icmpv6rpl.c ****         icmpv6rpl_vars.timerIdDAO,
 175:build/openmote-cc2538_armgcc/openstack/03b-IPv6/icmpv6rpl.c ****         openrandom_getRandomizePeriod(icmpv6rpl_vars.daoPeriod, NUM_CHANNELS*SLOTFRAME_LENGTH*SLOTD
 472              		.loc 1 175 0
 473 02a6 0A4B     		ldr	r3, .L5
 474 02a8 B3F88430 		ldrh	r3, [r3, #132]
 475 02ac 1846     		mov	r0, r3
 476 02ae 43F62071 		movw	r1, #16160
 477 02b2 FFF7FEFF 		bl	openrandom_getRandomizePeriod
 478 02b6 0346     		mov	r3, r0
 173:build/openmote-cc2538_armgcc/openstack/03b-IPv6/icmpv6rpl.c ****     opentimers_scheduleIn(
 479              		.loc 1 173 0
 480 02b8 1A46     		mov	r2, r3
 481 02ba 0A4B     		ldr	r3, .L5+20
 482 02bc 0093     		str	r3, [sp]
 483 02be 2046     		mov	r0, r4
 484 02c0 1146     		mov	r1, r2
 485 02c2 0022     		movs	r2, #0
 486 02c4 0123     		movs	r3, #1
 487 02c6 FFF7FEFF 		bl	opentimers_scheduleIn
 176:build/openmote-cc2538_armgcc/openstack/03b-IPv6/icmpv6rpl.c ****         TIME_MS,
 177:build/openmote-cc2538_armgcc/openstack/03b-IPv6/icmpv6rpl.c ****         TIMER_ONESHOT,
 178:build/openmote-cc2538_armgcc/openstack/03b-IPv6/icmpv6rpl.c ****         icmpv6rpl_timer_DAO_cb
 179:build/openmote-cc2538_armgcc/openstack/03b-IPv6/icmpv6rpl.c ****     );
 180:build/openmote-cc2538_armgcc/openstack/03b-IPv6/icmpv6rpl.c **** }
 488              		.loc 1 180 0
 489 02ca 1037     		adds	r7, r7, #16
 490              		.cfi_def_cfa_offset 16
 491 02cc BD46     		mov	sp, r7
 492              		.cfi_def_cfa_register 13
 493              		@ sp needed
 494 02ce B0BD     		pop	{r4, r5, r7, pc}
 495              	.L6:
 496              		.align	2
 497              	.L5:
 498 02d0 00000000 		.word	icmpv6rpl_vars
 499 02d4 30000000 		.word	all_routers_multicast
 500 02d8 2B000000 		.word	icmpv6rpl_vars+43
 501 02dc 33000000 		.word	icmpv6rpl_vars+51
 502 02e0 00000000 		.word	icmpv6rpl_timer_DIO_cb
 503 02e4 00000000 		.word	icmpv6rpl_timer_DAO_cb
 504              		.cfi_endproc
 505              	.LFE0:
 507              		.align	2
 508              		.global	icmpv6rpl_writeDODAGid
 509              		.thumb
 510              		.thumb_func
 512              	icmpv6rpl_writeDODAGid:
 513              	.LFB1:
 181:build/openmote-cc2538_armgcc/openstack/03b-IPv6/icmpv6rpl.c **** 
 182:build/openmote-cc2538_armgcc/openstack/03b-IPv6/icmpv6rpl.c **** void  icmpv6rpl_writeDODAGid(uint8_t* dodagid) {
 514              		.loc 1 182 0
 515              		.cfi_startproc
 516              		@ args = 0, pretend = 0, frame = 8
 517              		@ frame_needed = 1, uses_anonymous_args = 0
 518 02e8 80B5     		push	{r7, lr}
 519              		.cfi_def_cfa_offset 8
 520              		.cfi_offset 7, -8
 521              		.cfi_offset 14, -4
 522 02ea 82B0     		sub	sp, sp, #8
 523              		.cfi_def_cfa_offset 16
 524 02ec 00AF     		add	r7, sp, #0
 525              		.cfi_def_cfa_register 7
 526 02ee 7860     		str	r0, [r7, #4]
 183:build/openmote-cc2538_armgcc/openstack/03b-IPv6/icmpv6rpl.c **** 
 184:build/openmote-cc2538_armgcc/openstack/03b-IPv6/icmpv6rpl.c ****    // write DODAGID to DIO/DAO
 185:build/openmote-cc2538_armgcc/openstack/03b-IPv6/icmpv6rpl.c ****    memcpy(
 527              		.loc 1 185 0
 528 02f0 0748     		ldr	r0, .L8
 529 02f2 7968     		ldr	r1, [r7, #4]
 530 02f4 1022     		movs	r2, #16
 531 02f6 FFF7FEFF 		bl	memcpy
 186:build/openmote-cc2538_armgcc/openstack/03b-IPv6/icmpv6rpl.c ****       &(icmpv6rpl_vars.dio.DODAGID[0]),
 187:build/openmote-cc2538_armgcc/openstack/03b-IPv6/icmpv6rpl.c ****       dodagid,
 188:build/openmote-cc2538_armgcc/openstack/03b-IPv6/icmpv6rpl.c ****       sizeof(icmpv6rpl_vars.dio.DODAGID)
 189:build/openmote-cc2538_armgcc/openstack/03b-IPv6/icmpv6rpl.c ****    );
 190:build/openmote-cc2538_armgcc/openstack/03b-IPv6/icmpv6rpl.c ****    memcpy(
 532              		.loc 1 190 0
 533 02fa 0648     		ldr	r0, .L8+4
 534 02fc 7968     		ldr	r1, [r7, #4]
 535 02fe 1022     		movs	r2, #16
 536 0300 FFF7FEFF 		bl	memcpy
 191:build/openmote-cc2538_armgcc/openstack/03b-IPv6/icmpv6rpl.c ****       &(icmpv6rpl_vars.dao.DODAGID[0]),
 192:build/openmote-cc2538_armgcc/openstack/03b-IPv6/icmpv6rpl.c ****       dodagid,
 193:build/openmote-cc2538_armgcc/openstack/03b-IPv6/icmpv6rpl.c ****       sizeof(icmpv6rpl_vars.dao.DODAGID)
 194:build/openmote-cc2538_armgcc/openstack/03b-IPv6/icmpv6rpl.c ****    );
 195:build/openmote-cc2538_armgcc/openstack/03b-IPv6/icmpv6rpl.c **** 
 196:build/openmote-cc2538_armgcc/openstack/03b-IPv6/icmpv6rpl.c ****    // remember I got a DODAGID
 197:build/openmote-cc2538_armgcc/openstack/03b-IPv6/icmpv6rpl.c ****    icmpv6rpl_vars.fDodagidWritten = 1;
 537              		.loc 1 197 0
 538 0304 044B     		ldr	r3, .L8+8
 539 0306 0122     		movs	r2, #1
 540 0308 9A70     		strb	r2, [r3, #2]
 198:build/openmote-cc2538_armgcc/openstack/03b-IPv6/icmpv6rpl.c **** }
 541              		.loc 1 198 0
 542 030a 0837     		adds	r7, r7, #8
 543              		.cfi_def_cfa_offset 8
 544 030c BD46     		mov	sp, r7
 545              		.cfi_def_cfa_register 13
 546              		@ sp needed
 547 030e 80BD     		pop	{r7, pc}
 548              	.L9:
 549              		.align	2
 550              	.L8:
 551 0310 0B000000 		.word	icmpv6rpl_vars+11
 552 0314 66000000 		.word	icmpv6rpl_vars+102
 553 0318 00000000 		.word	icmpv6rpl_vars
 554              		.cfi_endproc
 555              	.LFE1:
 557              		.align	2
 558              		.global	icmpv6rpl_getRPLIntanceID
 559              		.thumb
 560              		.thumb_func
 562              	icmpv6rpl_getRPLIntanceID:
 563              	.LFB2:
 199:build/openmote-cc2538_armgcc/openstack/03b-IPv6/icmpv6rpl.c **** 
 200:build/openmote-cc2538_armgcc/openstack/03b-IPv6/icmpv6rpl.c **** uint8_t icmpv6rpl_getRPLIntanceID(void) {
 564              		.loc 1 200 0
 565              		.cfi_startproc
 566              		@ args = 0, pretend = 0, frame = 0
 567              		@ frame_needed = 1, uses_anonymous_args = 0
 568              		@ link register save eliminated.
 569 031c 80B4     		push	{r7}
 570              		.cfi_def_cfa_offset 4
 571              		.cfi_offset 7, -4
 572 031e 00AF     		add	r7, sp, #0
 573              		.cfi_def_cfa_register 7
 201:build/openmote-cc2538_armgcc/openstack/03b-IPv6/icmpv6rpl.c ****    return icmpv6rpl_vars.dao.rplinstanceId;
 574              		.loc 1 201 0
 575 0320 034B     		ldr	r3, .L12
 576 0322 93F86230 		ldrb	r3, [r3, #98]	@ zero_extendqisi2
 202:build/openmote-cc2538_armgcc/openstack/03b-IPv6/icmpv6rpl.c **** }
 577              		.loc 1 202 0
 578 0326 1846     		mov	r0, r3
 579 0328 BD46     		mov	sp, r7
 580              		.cfi_def_cfa_register 13
 581              		@ sp needed
 582 032a 5DF8047B 		ldr	r7, [sp], #4
 583              		.cfi_restore 7
 584              		.cfi_def_cfa_offset 0
 585 032e 7047     		bx	lr
 586              	.L13:
 587              		.align	2
 588              	.L12:
 589 0330 00000000 		.word	icmpv6rpl_vars
 590              		.cfi_endproc
 591              	.LFE2:
 593              		.align	2
 594              		.global	icmpv6rpl_getRPLDODAGid
 595              		.thumb
 596              		.thumb_func
 598              	icmpv6rpl_getRPLDODAGid:
 599              	.LFB3:
 203:build/openmote-cc2538_armgcc/openstack/03b-IPv6/icmpv6rpl.c **** 
 204:build/openmote-cc2538_armgcc/openstack/03b-IPv6/icmpv6rpl.c **** owerror_t icmpv6rpl_getRPLDODAGid(uint8_t* address_128b){
 600              		.loc 1 204 0
 601              		.cfi_startproc
 602              		@ args = 0, pretend = 0, frame = 8
 603              		@ frame_needed = 1, uses_anonymous_args = 0
 604              		@ link register save eliminated.
 605 0334 90B4     		push	{r4, r7}
 606              		.cfi_def_cfa_offset 8
 607              		.cfi_offset 4, -8
 608              		.cfi_offset 7, -4
 609 0336 82B0     		sub	sp, sp, #8
 610              		.cfi_def_cfa_offset 16
 611 0338 00AF     		add	r7, sp, #0
 612              		.cfi_def_cfa_register 7
 613 033a 7860     		str	r0, [r7, #4]
 205:build/openmote-cc2538_armgcc/openstack/03b-IPv6/icmpv6rpl.c ****    if (icmpv6rpl_vars.fDodagidWritten) {
 614              		.loc 1 205 0
 615 033c 0B4B     		ldr	r3, .L17
 616 033e 9B78     		ldrb	r3, [r3, #2]	@ zero_extendqisi2
 617 0340 002B     		cmp	r3, #0
 618 0342 0CD0     		beq	.L15
 206:build/openmote-cc2538_armgcc/openstack/03b-IPv6/icmpv6rpl.c ****        memcpy(address_128b,icmpv6rpl_vars.dao.DODAGID,16);
 619              		.loc 1 206 0
 620 0344 7A68     		ldr	r2, [r7, #4]
 621 0346 094B     		ldr	r3, .L17
 622 0348 6633     		adds	r3, r3, #102
 623 034a 1C68     		ldr	r4, [r3]	@ unaligned
 624 034c 5868     		ldr	r0, [r3, #4]	@ unaligned
 625 034e 9968     		ldr	r1, [r3, #8]	@ unaligned
 626 0350 DB68     		ldr	r3, [r3, #12]	@ unaligned
 627 0352 1460     		str	r4, [r2]	@ unaligned
 628 0354 5060     		str	r0, [r2, #4]	@ unaligned
 629 0356 9160     		str	r1, [r2, #8]	@ unaligned
 630 0358 D360     		str	r3, [r2, #12]	@ unaligned
 207:build/openmote-cc2538_armgcc/openstack/03b-IPv6/icmpv6rpl.c ****        return E_SUCCESS;
 631              		.loc 1 207 0
 632 035a 0023     		movs	r3, #0
 633 035c 00E0     		b	.L16
 634              	.L15:
 208:build/openmote-cc2538_armgcc/openstack/03b-IPv6/icmpv6rpl.c ****    }
 209:build/openmote-cc2538_armgcc/openstack/03b-IPv6/icmpv6rpl.c ****    return E_FAIL;
 635              		.loc 1 209 0
 636 035e 0123     		movs	r3, #1
 637              	.L16:
 210:build/openmote-cc2538_armgcc/openstack/03b-IPv6/icmpv6rpl.c **** }
 638              		.loc 1 210 0
 639 0360 1846     		mov	r0, r3
 640 0362 0837     		adds	r7, r7, #8
 641              		.cfi_def_cfa_offset 8
 642 0364 BD46     		mov	sp, r7
 643              		.cfi_def_cfa_register 13
 644              		@ sp needed
 645 0366 90BC     		pop	{r4, r7}
 646              		.cfi_restore 7
 647              		.cfi_restore 4
 648              		.cfi_def_cfa_offset 0
 649 0368 7047     		bx	lr
 650              	.L18:
 651 036a 00BF     		.align	2
 652              	.L17:
 653 036c 00000000 		.word	icmpv6rpl_vars
 654              		.cfi_endproc
 655              	.LFE3:
 657              		.align	2
 658              		.global	icmpv6rpl_sendDone
 659              		.thumb
 660              		.thumb_func
 662              	icmpv6rpl_sendDone:
 663              	.LFB4:
 211:build/openmote-cc2538_armgcc/openstack/03b-IPv6/icmpv6rpl.c **** 
 212:build/openmote-cc2538_armgcc/openstack/03b-IPv6/icmpv6rpl.c **** /**
 213:build/openmote-cc2538_armgcc/openstack/03b-IPv6/icmpv6rpl.c **** \brief Called when DIO/DAO was sent.
 214:build/openmote-cc2538_armgcc/openstack/03b-IPv6/icmpv6rpl.c **** 
 215:build/openmote-cc2538_armgcc/openstack/03b-IPv6/icmpv6rpl.c **** \param[in] msg   Pointer to the message just sent.
 216:build/openmote-cc2538_armgcc/openstack/03b-IPv6/icmpv6rpl.c **** \param[in] error Outcome of the sending.
 217:build/openmote-cc2538_armgcc/openstack/03b-IPv6/icmpv6rpl.c **** */
 218:build/openmote-cc2538_armgcc/openstack/03b-IPv6/icmpv6rpl.c **** void icmpv6rpl_sendDone(OpenQueueEntry_t* msg, owerror_t error) {
 664              		.loc 1 218 0
 665              		.cfi_startproc
 666              		@ args = 0, pretend = 0, frame = 8
 667              		@ frame_needed = 1, uses_anonymous_args = 0
 668 0370 80B5     		push	{r7, lr}
 669              		.cfi_def_cfa_offset 8
 670              		.cfi_offset 7, -8
 671              		.cfi_offset 14, -4
 672 0372 82B0     		sub	sp, sp, #8
 673              		.cfi_def_cfa_offset 16
 674 0374 00AF     		add	r7, sp, #0
 675              		.cfi_def_cfa_register 7
 676 0376 7860     		str	r0, [r7, #4]
 677 0378 0B46     		mov	r3, r1
 678 037a FB70     		strb	r3, [r7, #3]
 219:build/openmote-cc2538_armgcc/openstack/03b-IPv6/icmpv6rpl.c **** 
 220:build/openmote-cc2538_armgcc/openstack/03b-IPv6/icmpv6rpl.c ****    // take ownership over that packet
 221:build/openmote-cc2538_armgcc/openstack/03b-IPv6/icmpv6rpl.c ****    msg->owner = COMPONENT_ICMPv6RPL;
 679              		.loc 1 221 0
 680 037c 7B68     		ldr	r3, [r7, #4]
 681 037e 1622     		movs	r2, #22
 682 0380 5A70     		strb	r2, [r3, #1]
 222:build/openmote-cc2538_armgcc/openstack/03b-IPv6/icmpv6rpl.c **** 
 223:build/openmote-cc2538_armgcc/openstack/03b-IPv6/icmpv6rpl.c ****    // make sure I created it
 224:build/openmote-cc2538_armgcc/openstack/03b-IPv6/icmpv6rpl.c ****    if (msg->creator!=COMPONENT_ICMPv6RPL) {
 683              		.loc 1 224 0
 684 0382 7B68     		ldr	r3, [r7, #4]
 685 0384 1B78     		ldrb	r3, [r3]	@ zero_extendqisi2
 686 0386 162B     		cmp	r3, #22
 687 0388 05D0     		beq	.L20
 225:build/openmote-cc2538_armgcc/openstack/03b-IPv6/icmpv6rpl.c ****       openserial_printError(COMPONENT_ICMPv6RPL,ERR_UNEXPECTED_SENDDONE,
 688              		.loc 1 225 0
 689 038a 1620     		movs	r0, #22
 690 038c 2B21     		movs	r1, #43
 691 038e 0022     		movs	r2, #0
 692 0390 0023     		movs	r3, #0
 693 0392 FFF7FEFF 		bl	openserial_printError
 694              	.L20:
 226:build/openmote-cc2538_armgcc/openstack/03b-IPv6/icmpv6rpl.c ****                             (errorparameter_t)0,
 227:build/openmote-cc2538_armgcc/openstack/03b-IPv6/icmpv6rpl.c ****                             (errorparameter_t)0);
 228:build/openmote-cc2538_armgcc/openstack/03b-IPv6/icmpv6rpl.c ****    }
 229:build/openmote-cc2538_armgcc/openstack/03b-IPv6/icmpv6rpl.c **** 
 230:build/openmote-cc2538_armgcc/openstack/03b-IPv6/icmpv6rpl.c ****    // I'm not busy sending DIO/DAO anymore
 231:build/openmote-cc2538_armgcc/openstack/03b-IPv6/icmpv6rpl.c ****    if (packetfunctions_isBroadcastMulticast(&(msg->l2_nextORpreviousHop))){
 695              		.loc 1 231 0
 696 0396 7B68     		ldr	r3, [r7, #4]
 697 0398 3C33     		adds	r3, r3, #60
 698 039a 1846     		mov	r0, r3
 699 039c FFF7FEFF 		bl	packetfunctions_isBroadcastMulticast
 700 03a0 0346     		mov	r3, r0
 701 03a2 002B     		cmp	r3, #0
 702 03a4 03D0     		beq	.L21
 232:build/openmote-cc2538_armgcc/openstack/03b-IPv6/icmpv6rpl.c ****         icmpv6rpl_vars.busySendingDIO = FALSE;
 703              		.loc 1 232 0
 704 03a6 064B     		ldr	r3, .L23
 705 03a8 0022     		movs	r2, #0
 706 03aa 1A70     		strb	r2, [r3]
 707 03ac 02E0     		b	.L22
 708              	.L21:
 233:build/openmote-cc2538_armgcc/openstack/03b-IPv6/icmpv6rpl.c ****    } else {
 234:build/openmote-cc2538_armgcc/openstack/03b-IPv6/icmpv6rpl.c ****         icmpv6rpl_vars.busySendingDAO = FALSE;
 709              		.loc 1 234 0
 710 03ae 044B     		ldr	r3, .L23
 711 03b0 0022     		movs	r2, #0
 712 03b2 5A70     		strb	r2, [r3, #1]
 713              	.L22:
 235:build/openmote-cc2538_armgcc/openstack/03b-IPv6/icmpv6rpl.c ****    }
 236:build/openmote-cc2538_armgcc/openstack/03b-IPv6/icmpv6rpl.c **** 
 237:build/openmote-cc2538_armgcc/openstack/03b-IPv6/icmpv6rpl.c ****    // free packet
 238:build/openmote-cc2538_armgcc/openstack/03b-IPv6/icmpv6rpl.c ****    openqueue_freePacketBuffer(msg);
 714              		.loc 1 238 0
 715 03b4 7868     		ldr	r0, [r7, #4]
 716 03b6 FFF7FEFF 		bl	openqueue_freePacketBuffer
 239:build/openmote-cc2538_armgcc/openstack/03b-IPv6/icmpv6rpl.c **** }
 717              		.loc 1 239 0
 718 03ba 0837     		adds	r7, r7, #8
 719              		.cfi_def_cfa_offset 8
 720 03bc BD46     		mov	sp, r7
 721              		.cfi_def_cfa_register 13
 722              		@ sp needed
 723 03be 80BD     		pop	{r7, pc}
 724              	.L24:
 725              		.align	2
 726              	.L23:
 727 03c0 00000000 		.word	icmpv6rpl_vars
 728              		.cfi_endproc
 729              	.LFE4:
 731              		.align	2
 732              		.global	icmpv6rpl_receive
 733              		.thumb
 734              		.thumb_func
 736              	icmpv6rpl_receive:
 737              	.LFB5:
 240:build/openmote-cc2538_armgcc/openstack/03b-IPv6/icmpv6rpl.c **** 
 241:build/openmote-cc2538_armgcc/openstack/03b-IPv6/icmpv6rpl.c **** /**
 242:build/openmote-cc2538_armgcc/openstack/03b-IPv6/icmpv6rpl.c **** \brief Called when RPL message received.
 243:build/openmote-cc2538_armgcc/openstack/03b-IPv6/icmpv6rpl.c **** 
 244:build/openmote-cc2538_armgcc/openstack/03b-IPv6/icmpv6rpl.c **** \param[in] msg   Pointer to the received message.
 245:build/openmote-cc2538_armgcc/openstack/03b-IPv6/icmpv6rpl.c **** */
 246:build/openmote-cc2538_armgcc/openstack/03b-IPv6/icmpv6rpl.c **** void icmpv6rpl_receive(OpenQueueEntry_t* msg) {
 738              		.loc 1 246 0
 739              		.cfi_startproc
 740              		@ args = 0, pretend = 0, frame = 16
 741              		@ frame_needed = 1, uses_anonymous_args = 0
 742 03c4 80B5     		push	{r7, lr}
 743              		.cfi_def_cfa_offset 8
 744              		.cfi_offset 7, -8
 745              		.cfi_offset 14, -4
 746 03c6 84B0     		sub	sp, sp, #16
 747              		.cfi_def_cfa_offset 24
 748 03c8 00AF     		add	r7, sp, #0
 749              		.cfi_def_cfa_register 7
 750 03ca 7860     		str	r0, [r7, #4]
 247:build/openmote-cc2538_armgcc/openstack/03b-IPv6/icmpv6rpl.c ****    uint8_t      icmpv6code;
 248:build/openmote-cc2538_armgcc/openstack/03b-IPv6/icmpv6rpl.c **** 
 249:build/openmote-cc2538_armgcc/openstack/03b-IPv6/icmpv6rpl.c ****    // take ownership
 250:build/openmote-cc2538_armgcc/openstack/03b-IPv6/icmpv6rpl.c ****    msg->owner      = COMPONENT_ICMPv6RPL;
 751              		.loc 1 250 0
 752 03cc 7B68     		ldr	r3, [r7, #4]
 753 03ce 1622     		movs	r2, #22
 754 03d0 5A70     		strb	r2, [r3, #1]
 251:build/openmote-cc2538_armgcc/openstack/03b-IPv6/icmpv6rpl.c **** 
 252:build/openmote-cc2538_armgcc/openstack/03b-IPv6/icmpv6rpl.c ****    // retrieve ICMPv6 code
 253:build/openmote-cc2538_armgcc/openstack/03b-IPv6/icmpv6rpl.c ****    icmpv6code      = (((ICMPv6_ht*)(msg->payload))->code);
 755              		.loc 1 253 0
 756 03d2 7B68     		ldr	r3, [r7, #4]
 757 03d4 5B68     		ldr	r3, [r3, #4]
 758 03d6 5B78     		ldrb	r3, [r3, #1]
 759 03d8 FB73     		strb	r3, [r7, #15]
 254:build/openmote-cc2538_armgcc/openstack/03b-IPv6/icmpv6rpl.c **** 
 255:build/openmote-cc2538_armgcc/openstack/03b-IPv6/icmpv6rpl.c ****    // toss ICMPv6 header
 256:build/openmote-cc2538_armgcc/openstack/03b-IPv6/icmpv6rpl.c ****    packetfunctions_tossHeader(msg,sizeof(ICMPv6_ht));
 760              		.loc 1 256 0
 761 03da 7868     		ldr	r0, [r7, #4]
 762 03dc 0421     		movs	r1, #4
 763 03de FFF7FEFF 		bl	packetfunctions_tossHeader
 257:build/openmote-cc2538_armgcc/openstack/03b-IPv6/icmpv6rpl.c **** 
 258:build/openmote-cc2538_armgcc/openstack/03b-IPv6/icmpv6rpl.c ****    // handle message
 259:build/openmote-cc2538_armgcc/openstack/03b-IPv6/icmpv6rpl.c ****    switch (icmpv6code) {
 764              		.loc 1 259 0
 765 03e2 FB7B     		ldrb	r3, [r7, #15]	@ zero_extendqisi2
 766 03e4 012B     		cmp	r3, #1
 767 03e6 06D0     		beq	.L27
 768 03e8 022B     		cmp	r3, #2
 769 03ea 0ED0     		beq	.L28
 770 03ec 002B     		cmp	r3, #0
 771 03ee 13D1     		bne	.L32
 260:build/openmote-cc2538_armgcc/openstack/03b-IPv6/icmpv6rpl.c ****       case IANA_ICMPv6_RPL_DIS:
 261:build/openmote-cc2538_armgcc/openstack/03b-IPv6/icmpv6rpl.c ****          icmpv6rpl_timer_DIO_task();
 772              		.loc 1 261 0
 773 03f0 FFF7FEFF 		bl	icmpv6rpl_timer_DIO_task
 262:build/openmote-cc2538_armgcc/openstack/03b-IPv6/icmpv6rpl.c ****          break;
 774              		.loc 1 262 0
 775 03f4 19E0     		b	.L30
 776              	.L27:
 263:build/openmote-cc2538_armgcc/openstack/03b-IPv6/icmpv6rpl.c ****       case IANA_ICMPv6_RPL_DIO:
 264:build/openmote-cc2538_armgcc/openstack/03b-IPv6/icmpv6rpl.c ****          if (idmanager_getIsDAGroot()==TRUE) {
 777              		.loc 1 264 0
 778 03f6 FFF7FEFF 		bl	idmanager_getIsDAGroot
 779 03fa 0346     		mov	r3, r0
 780 03fc 002B     		cmp	r3, #0
 781 03fe 00D0     		beq	.L31
 265:build/openmote-cc2538_armgcc/openstack/03b-IPv6/icmpv6rpl.c ****             // stop here if I'm in the DAG root
 266:build/openmote-cc2538_armgcc/openstack/03b-IPv6/icmpv6rpl.c ****             break; // break, don't return
 782              		.loc 1 266 0
 783 0400 13E0     		b	.L30
 784              	.L31:
 267:build/openmote-cc2538_armgcc/openstack/03b-IPv6/icmpv6rpl.c ****          }
 268:build/openmote-cc2538_armgcc/openstack/03b-IPv6/icmpv6rpl.c ****          // update routing info for that neighbor
 269:build/openmote-cc2538_armgcc/openstack/03b-IPv6/icmpv6rpl.c ****          icmpv6rpl_indicateRxDIO(msg);
 785              		.loc 1 269 0
 786 0402 7868     		ldr	r0, [r7, #4]
 787 0404 FFF7FEFF 		bl	icmpv6rpl_indicateRxDIO
 270:build/openmote-cc2538_armgcc/openstack/03b-IPv6/icmpv6rpl.c **** 
 271:build/openmote-cc2538_armgcc/openstack/03b-IPv6/icmpv6rpl.c ****          break;
 788              		.loc 1 271 0
 789 0408 0FE0     		b	.L30
 790              	.L28:
 272:build/openmote-cc2538_armgcc/openstack/03b-IPv6/icmpv6rpl.c **** 
 273:build/openmote-cc2538_armgcc/openstack/03b-IPv6/icmpv6rpl.c ****       case IANA_ICMPv6_RPL_DAO:
 274:build/openmote-cc2538_armgcc/openstack/03b-IPv6/icmpv6rpl.c ****          // this should never happen
 275:build/openmote-cc2538_armgcc/openstack/03b-IPv6/icmpv6rpl.c ****          openserial_printError(COMPONENT_ICMPv6RPL,ERR_UNEXPECTED_DAO,
 791              		.loc 1 275 0
 792 040a 1620     		movs	r0, #22
 793 040c 0A21     		movs	r1, #10
 794 040e 0022     		movs	r2, #0
 795 0410 0023     		movs	r3, #0
 796 0412 FFF7FEFF 		bl	openserial_printError
 276:build/openmote-cc2538_armgcc/openstack/03b-IPv6/icmpv6rpl.c ****                                (errorparameter_t)0,
 277:build/openmote-cc2538_armgcc/openstack/03b-IPv6/icmpv6rpl.c ****                                (errorparameter_t)0);
 278:build/openmote-cc2538_armgcc/openstack/03b-IPv6/icmpv6rpl.c ****          break;
 797              		.loc 1 278 0
 798 0416 08E0     		b	.L30
 799              	.L32:
 279:build/openmote-cc2538_armgcc/openstack/03b-IPv6/icmpv6rpl.c ****       default:
 280:build/openmote-cc2538_armgcc/openstack/03b-IPv6/icmpv6rpl.c ****          // this should never happen
 281:build/openmote-cc2538_armgcc/openstack/03b-IPv6/icmpv6rpl.c ****          openserial_printError(COMPONENT_ICMPv6RPL,ERR_MSG_UNKNOWN_TYPE,
 800              		.loc 1 281 0
 801 0418 FB7B     		ldrb	r3, [r7, #15]	@ zero_extendqisi2
 802 041a 9BB2     		uxth	r3, r3
 803 041c 1620     		movs	r0, #22
 804 041e 3021     		movs	r1, #48
 805 0420 1A46     		mov	r2, r3
 806 0422 0023     		movs	r3, #0
 807 0424 FFF7FEFF 		bl	openserial_printError
 282:build/openmote-cc2538_armgcc/openstack/03b-IPv6/icmpv6rpl.c ****                                (errorparameter_t)icmpv6code,
 283:build/openmote-cc2538_armgcc/openstack/03b-IPv6/icmpv6rpl.c ****                                (errorparameter_t)0);
 284:build/openmote-cc2538_armgcc/openstack/03b-IPv6/icmpv6rpl.c ****          break;
 808              		.loc 1 284 0
 809 0428 00BF     		nop
 810              	.L30:
 285:build/openmote-cc2538_armgcc/openstack/03b-IPv6/icmpv6rpl.c **** 
 286:build/openmote-cc2538_armgcc/openstack/03b-IPv6/icmpv6rpl.c ****    }
 287:build/openmote-cc2538_armgcc/openstack/03b-IPv6/icmpv6rpl.c **** 
 288:build/openmote-cc2538_armgcc/openstack/03b-IPv6/icmpv6rpl.c ****    // free message
 289:build/openmote-cc2538_armgcc/openstack/03b-IPv6/icmpv6rpl.c ****    openqueue_freePacketBuffer(msg);
 811              		.loc 1 289 0
 812 042a 7868     		ldr	r0, [r7, #4]
 813 042c FFF7FEFF 		bl	openqueue_freePacketBuffer
 290:build/openmote-cc2538_armgcc/openstack/03b-IPv6/icmpv6rpl.c **** }
 814              		.loc 1 290 0
 815 0430 1037     		adds	r7, r7, #16
 816              		.cfi_def_cfa_offset 8
 817 0432 BD46     		mov	sp, r7
 818              		.cfi_def_cfa_register 13
 819              		@ sp needed
 820 0434 80BD     		pop	{r7, pc}
 821              		.cfi_endproc
 822              	.LFE5:
 824 0436 00BF     		.align	2
 825              		.global	icmpv6rpl_getPreferredParentIndex
 826              		.thumb
 827              		.thumb_func
 829              	icmpv6rpl_getPreferredParentIndex:
 830              	.LFB6:
 291:build/openmote-cc2538_armgcc/openstack/03b-IPv6/icmpv6rpl.c **** 
 292:build/openmote-cc2538_armgcc/openstack/03b-IPv6/icmpv6rpl.c **** /**
 293:build/openmote-cc2538_armgcc/openstack/03b-IPv6/icmpv6rpl.c **** \brief Retrieve this mote's parent index in neighbor table.
 294:build/openmote-cc2538_armgcc/openstack/03b-IPv6/icmpv6rpl.c **** 
 295:build/openmote-cc2538_armgcc/openstack/03b-IPv6/icmpv6rpl.c **** \returns TRUE and index of parent if have one, FALSE if no parent
 296:build/openmote-cc2538_armgcc/openstack/03b-IPv6/icmpv6rpl.c **** */
 297:build/openmote-cc2538_armgcc/openstack/03b-IPv6/icmpv6rpl.c **** bool icmpv6rpl_getPreferredParentIndex(uint8_t* indexptr) {
 831              		.loc 1 297 0
 832              		.cfi_startproc
 833              		@ args = 0, pretend = 0, frame = 8
 834              		@ frame_needed = 1, uses_anonymous_args = 0
 835              		@ link register save eliminated.
 836 0438 80B4     		push	{r7}
 837              		.cfi_def_cfa_offset 4
 838              		.cfi_offset 7, -4
 839 043a 83B0     		sub	sp, sp, #12
 840              		.cfi_def_cfa_offset 16
 841 043c 00AF     		add	r7, sp, #0
 842              		.cfi_def_cfa_register 7
 843 043e 7860     		str	r0, [r7, #4]
 298:build/openmote-cc2538_armgcc/openstack/03b-IPv6/icmpv6rpl.c ****    *indexptr = icmpv6rpl_vars.ParentIndex;
 844              		.loc 1 298 0
 845 0440 064B     		ldr	r3, .L35
 846 0442 93F88B20 		ldrb	r2, [r3, #139]	@ zero_extendqisi2
 847 0446 7B68     		ldr	r3, [r7, #4]
 848 0448 1A70     		strb	r2, [r3]
 299:build/openmote-cc2538_armgcc/openstack/03b-IPv6/icmpv6rpl.c ****    return icmpv6rpl_vars.haveParent;
 849              		.loc 1 299 0
 850 044a 044B     		ldr	r3, .L35
 851 044c 93F88A30 		ldrb	r3, [r3, #138]	@ zero_extendqisi2
 300:build/openmote-cc2538_armgcc/openstack/03b-IPv6/icmpv6rpl.c **** }
 852              		.loc 1 300 0
 853 0450 1846     		mov	r0, r3
 854 0452 0C37     		adds	r7, r7, #12
 855              		.cfi_def_cfa_offset 4
 856 0454 BD46     		mov	sp, r7
 857              		.cfi_def_cfa_register 13
 858              		@ sp needed
 859 0456 5DF8047B 		ldr	r7, [sp], #4
 860              		.cfi_restore 7
 861              		.cfi_def_cfa_offset 0
 862 045a 7047     		bx	lr
 863              	.L36:
 864              		.align	2
 865              	.L35:
 866 045c 00000000 		.word	icmpv6rpl_vars
 867              		.cfi_endproc
 868              	.LFE6:
 870              		.align	2
 871              		.global	icmpv6rpl_getPreferredParentEui64
 872              		.thumb
 873              		.thumb_func
 875              	icmpv6rpl_getPreferredParentEui64:
 876              	.LFB7:
 301:build/openmote-cc2538_armgcc/openstack/03b-IPv6/icmpv6rpl.c **** 
 302:build/openmote-cc2538_armgcc/openstack/03b-IPv6/icmpv6rpl.c **** /**
 303:build/openmote-cc2538_armgcc/openstack/03b-IPv6/icmpv6rpl.c **** \brief Retrieve my preferred parent's EUI64 address.
 304:build/openmote-cc2538_armgcc/openstack/03b-IPv6/icmpv6rpl.c **** \param[out] addressToWrite Where to copy the preferred parent's address to.
 305:build/openmote-cc2538_armgcc/openstack/03b-IPv6/icmpv6rpl.c **** */
 306:build/openmote-cc2538_armgcc/openstack/03b-IPv6/icmpv6rpl.c **** bool icmpv6rpl_getPreferredParentEui64(open_addr_t* addressToWrite) {
 877              		.loc 1 306 0
 878              		.cfi_startproc
 879              		@ args = 0, pretend = 0, frame = 8
 880              		@ frame_needed = 1, uses_anonymous_args = 0
 881 0460 80B5     		push	{r7, lr}
 882              		.cfi_def_cfa_offset 8
 883              		.cfi_offset 7, -8
 884              		.cfi_offset 14, -4
 885 0462 82B0     		sub	sp, sp, #8
 886              		.cfi_def_cfa_offset 16
 887 0464 00AF     		add	r7, sp, #0
 888              		.cfi_def_cfa_register 7
 889 0466 7860     		str	r0, [r7, #4]
 307:build/openmote-cc2538_armgcc/openstack/03b-IPv6/icmpv6rpl.c ****     if (
 308:build/openmote-cc2538_armgcc/openstack/03b-IPv6/icmpv6rpl.c ****         icmpv6rpl_vars.haveParent &&
 890              		.loc 1 308 0
 891 0468 154B     		ldr	r3, .L40
 892 046a 93F88A30 		ldrb	r3, [r3, #138]	@ zero_extendqisi2
 307:build/openmote-cc2538_armgcc/openstack/03b-IPv6/icmpv6rpl.c ****     if (
 893              		.loc 1 307 0
 894 046e 002B     		cmp	r3, #0
 895 0470 21D0     		beq	.L38
 309:build/openmote-cc2538_armgcc/openstack/03b-IPv6/icmpv6rpl.c ****         neighbors_getNeighborNoResource(icmpv6rpl_vars.ParentIndex)    == FALSE &&
 896              		.loc 1 309 0
 897 0472 134B     		ldr	r3, .L40
 898 0474 93F88B30 		ldrb	r3, [r3, #139]	@ zero_extendqisi2
 899 0478 1846     		mov	r0, r3
 900 047a FFF7FEFF 		bl	neighbors_getNeighborNoResource
 901 047e 0346     		mov	r3, r0
 902 0480 83F00103 		eor	r3, r3, #1
 903 0484 DBB2     		uxtb	r3, r3
 308:build/openmote-cc2538_armgcc/openstack/03b-IPv6/icmpv6rpl.c ****         neighbors_getNeighborNoResource(icmpv6rpl_vars.ParentIndex)    == FALSE &&
 904              		.loc 1 308 0
 905 0486 002B     		cmp	r3, #0
 906 0488 15D0     		beq	.L38
 310:build/openmote-cc2538_armgcc/openstack/03b-IPv6/icmpv6rpl.c ****         neighbors_getNeighborIsInBlacklist(icmpv6rpl_vars.ParentIndex) == FALSE
 907              		.loc 1 310 0
 908 048a 0D4B     		ldr	r3, .L40
 909 048c 93F88B30 		ldrb	r3, [r3, #139]	@ zero_extendqisi2
 910 0490 1846     		mov	r0, r3
 911 0492 FFF7FEFF 		bl	neighbors_getNeighborIsInBlacklist
 912 0496 0346     		mov	r3, r0
 913 0498 83F00103 		eor	r3, r3, #1
 914 049c DBB2     		uxtb	r3, r3
 309:build/openmote-cc2538_armgcc/openstack/03b-IPv6/icmpv6rpl.c ****         neighbors_getNeighborNoResource(icmpv6rpl_vars.ParentIndex)    == FALSE &&
 915              		.loc 1 309 0
 916 049e 002B     		cmp	r3, #0
 917 04a0 09D0     		beq	.L38
 311:build/openmote-cc2538_armgcc/openstack/03b-IPv6/icmpv6rpl.c ****     ){
 312:build/openmote-cc2538_armgcc/openstack/03b-IPv6/icmpv6rpl.c ****         return neighbors_getNeighborEui64(addressToWrite,ADDR_64B,icmpv6rpl_vars.ParentIndex);
 918              		.loc 1 312 0
 919 04a2 074B     		ldr	r3, .L40
 920 04a4 93F88B30 		ldrb	r3, [r3, #139]	@ zero_extendqisi2
 921 04a8 7868     		ldr	r0, [r7, #4]
 922 04aa 0221     		movs	r1, #2
 923 04ac 1A46     		mov	r2, r3
 924 04ae FFF7FEFF 		bl	neighbors_getNeighborEui64
 925 04b2 0346     		mov	r3, r0
 926 04b4 00E0     		b	.L39
 927              	.L38:
 313:build/openmote-cc2538_armgcc/openstack/03b-IPv6/icmpv6rpl.c ****     } else {
 314:build/openmote-cc2538_armgcc/openstack/03b-IPv6/icmpv6rpl.c ****         return FALSE;
 928              		.loc 1 314 0
 929 04b6 0023     		movs	r3, #0
 930              	.L39:
 315:build/openmote-cc2538_armgcc/openstack/03b-IPv6/icmpv6rpl.c ****     }
 316:build/openmote-cc2538_armgcc/openstack/03b-IPv6/icmpv6rpl.c **** }
 931              		.loc 1 316 0
 932 04b8 1846     		mov	r0, r3
 933 04ba 0837     		adds	r7, r7, #8
 934              		.cfi_def_cfa_offset 8
 935 04bc BD46     		mov	sp, r7
 936              		.cfi_def_cfa_register 13
 937              		@ sp needed
 938 04be 80BD     		pop	{r7, pc}
 939              	.L41:
 940              		.align	2
 941              	.L40:
 942 04c0 00000000 		.word	icmpv6rpl_vars
 943              		.cfi_endproc
 944              	.LFE7:
 946              		.align	2
 947              		.global	icmpv6rpl_isPreferredParent
 948              		.thumb
 949              		.thumb_func
 951              	icmpv6rpl_isPreferredParent:
 952              	.LFB8:
 317:build/openmote-cc2538_armgcc/openstack/03b-IPv6/icmpv6rpl.c **** 
 318:build/openmote-cc2538_armgcc/openstack/03b-IPv6/icmpv6rpl.c **** /**
 319:build/openmote-cc2538_armgcc/openstack/03b-IPv6/icmpv6rpl.c **** \brief Indicate whether some neighbor is the routing parent.
 320:build/openmote-cc2538_armgcc/openstack/03b-IPv6/icmpv6rpl.c **** 
 321:build/openmote-cc2538_armgcc/openstack/03b-IPv6/icmpv6rpl.c **** \param[in] address The EUI64 address of the neighbor.
 322:build/openmote-cc2538_armgcc/openstack/03b-IPv6/icmpv6rpl.c **** 
 323:build/openmote-cc2538_armgcc/openstack/03b-IPv6/icmpv6rpl.c **** \returns TRUE if that neighbor is preferred parent, FALSE otherwise.
 324:build/openmote-cc2538_armgcc/openstack/03b-IPv6/icmpv6rpl.c **** */
 325:build/openmote-cc2538_armgcc/openstack/03b-IPv6/icmpv6rpl.c **** bool icmpv6rpl_isPreferredParent(open_addr_t* address) {
 953              		.loc 1 325 0
 954              		.cfi_startproc
 955              		@ args = 0, pretend = 0, frame = 32
 956              		@ frame_needed = 1, uses_anonymous_args = 0
 957 04c4 80B5     		push	{r7, lr}
 958              		.cfi_def_cfa_offset 8
 959              		.cfi_offset 7, -8
 960              		.cfi_offset 14, -4
 961 04c6 88B0     		sub	sp, sp, #32
 962              		.cfi_def_cfa_offset 40
 963 04c8 00AF     		add	r7, sp, #0
 964              		.cfi_def_cfa_register 7
 965 04ca 7860     		str	r0, [r7, #4]
 326:build/openmote-cc2538_armgcc/openstack/03b-IPv6/icmpv6rpl.c ****    open_addr_t  temp;
 327:build/openmote-cc2538_armgcc/openstack/03b-IPv6/icmpv6rpl.c ****    // do we currently have a parent?
 328:build/openmote-cc2538_armgcc/openstack/03b-IPv6/icmpv6rpl.c ****    if (icmpv6rpl_vars.haveParent==FALSE) {
 966              		.loc 1 328 0
 967 04cc 164B     		ldr	r3, .L49
 968 04ce 93F88A30 		ldrb	r3, [r3, #138]	@ zero_extendqisi2
 969 04d2 83F00103 		eor	r3, r3, #1
 970 04d6 DBB2     		uxtb	r3, r3
 971 04d8 002B     		cmp	r3, #0
 972 04da 01D0     		beq	.L43
 329:build/openmote-cc2538_armgcc/openstack/03b-IPv6/icmpv6rpl.c ****       return FALSE;
 973              		.loc 1 329 0
 974 04dc 0023     		movs	r3, #0
 975 04de 1FE0     		b	.L47
 976              	.L43:
 330:build/openmote-cc2538_armgcc/openstack/03b-IPv6/icmpv6rpl.c ****    }
 331:build/openmote-cc2538_armgcc/openstack/03b-IPv6/icmpv6rpl.c **** 
 332:build/openmote-cc2538_armgcc/openstack/03b-IPv6/icmpv6rpl.c ****    //compare parent address to the one presented.
 333:build/openmote-cc2538_armgcc/openstack/03b-IPv6/icmpv6rpl.c ****    switch (address->type) {
 977              		.loc 1 333 0
 978 04e0 7B68     		ldr	r3, [r7, #4]
 979 04e2 1B78     		ldrb	r3, [r3]	@ zero_extendqisi2
 980 04e4 022B     		cmp	r3, #2
 981 04e6 11D1     		bne	.L48
 334:build/openmote-cc2538_armgcc/openstack/03b-IPv6/icmpv6rpl.c ****       case ADDR_64B:
 335:build/openmote-cc2538_armgcc/openstack/03b-IPv6/icmpv6rpl.c ****          neighbors_getNeighborEui64(&temp,ADDR_64B,icmpv6rpl_vars.ParentIndex);
 982              		.loc 1 335 0
 983 04e8 0F4B     		ldr	r3, .L49
 984 04ea 93F88B30 		ldrb	r3, [r3, #139]	@ zero_extendqisi2
 985 04ee 07F10C02 		add	r2, r7, #12
 986 04f2 1046     		mov	r0, r2
 987 04f4 0221     		movs	r1, #2
 988 04f6 1A46     		mov	r2, r3
 989 04f8 FFF7FEFF 		bl	neighbors_getNeighborEui64
 336:build/openmote-cc2538_armgcc/openstack/03b-IPv6/icmpv6rpl.c ****          return packetfunctions_sameAddress(address,&temp);
 990              		.loc 1 336 0
 991 04fc 07F10C03 		add	r3, r7, #12
 992 0500 7868     		ldr	r0, [r7, #4]
 993 0502 1946     		mov	r1, r3
 994 0504 FFF7FEFF 		bl	packetfunctions_sameAddress
 995 0508 0346     		mov	r3, r0
 996 050a 09E0     		b	.L47
 997              	.L48:
 337:build/openmote-cc2538_armgcc/openstack/03b-IPv6/icmpv6rpl.c ****       default:
 338:build/openmote-cc2538_armgcc/openstack/03b-IPv6/icmpv6rpl.c ****          openserial_printCritical(COMPONENT_NEIGHBORS,ERR_WRONG_ADDR_TYPE,
 339:build/openmote-cc2538_armgcc/openstack/03b-IPv6/icmpv6rpl.c ****                                (errorparameter_t)address->type,
 998              		.loc 1 339 0
 999 050c 7B68     		ldr	r3, [r7, #4]
 1000 050e 1B78     		ldrb	r3, [r3]	@ zero_extendqisi2
 338:build/openmote-cc2538_armgcc/openstack/03b-IPv6/icmpv6rpl.c ****                                (errorparameter_t)address->type,
 1001              		.loc 1 338 0
 1002 0510 9BB2     		uxth	r3, r3
 1003 0512 0D20     		movs	r0, #13
 1004 0514 3121     		movs	r1, #49
 1005 0516 1A46     		mov	r2, r3
 1006 0518 0323     		movs	r3, #3
 1007 051a FFF7FEFF 		bl	openserial_printCritical
 340:build/openmote-cc2538_armgcc/openstack/03b-IPv6/icmpv6rpl.c ****                                (errorparameter_t)3);
 341:build/openmote-cc2538_armgcc/openstack/03b-IPv6/icmpv6rpl.c ****          return FALSE;
 1008              		.loc 1 341 0
 1009 051e 0023     		movs	r3, #0
 1010              	.L47:
 342:build/openmote-cc2538_armgcc/openstack/03b-IPv6/icmpv6rpl.c ****    }
 343:build/openmote-cc2538_armgcc/openstack/03b-IPv6/icmpv6rpl.c **** }
 1011              		.loc 1 343 0 discriminator 1
 1012 0520 1846     		mov	r0, r3
 1013 0522 2037     		adds	r7, r7, #32
 1014              		.cfi_def_cfa_offset 8
 1015 0524 BD46     		mov	sp, r7
 1016              		.cfi_def_cfa_register 13
 1017              		@ sp needed
 1018 0526 80BD     		pop	{r7, pc}
 1019              	.L50:
 1020              		.align	2
 1021              	.L49:
 1022 0528 00000000 		.word	icmpv6rpl_vars
 1023              		.cfi_endproc
 1024              	.LFE8:
 1026              		.align	2
 1027              		.global	icmpv6rpl_getMyDAGrank
 1028              		.thumb
 1029              		.thumb_func
 1031              	icmpv6rpl_getMyDAGrank:
 1032              	.LFB9:
 344:build/openmote-cc2538_armgcc/openstack/03b-IPv6/icmpv6rpl.c **** 
 345:build/openmote-cc2538_armgcc/openstack/03b-IPv6/icmpv6rpl.c **** /**
 346:build/openmote-cc2538_armgcc/openstack/03b-IPv6/icmpv6rpl.c **** \brief Retrieve this mote's current DAG rank.
 347:build/openmote-cc2538_armgcc/openstack/03b-IPv6/icmpv6rpl.c **** 
 348:build/openmote-cc2538_armgcc/openstack/03b-IPv6/icmpv6rpl.c **** \returns This mote's current DAG rank.
 349:build/openmote-cc2538_armgcc/openstack/03b-IPv6/icmpv6rpl.c **** */
 350:build/openmote-cc2538_armgcc/openstack/03b-IPv6/icmpv6rpl.c **** dagrank_t icmpv6rpl_getMyDAGrank(void) {
 1033              		.loc 1 350 0
 1034              		.cfi_startproc
 1035              		@ args = 0, pretend = 0, frame = 0
 1036              		@ frame_needed = 1, uses_anonymous_args = 0
 1037              		@ link register save eliminated.
 1038 052c 80B4     		push	{r7}
 1039              		.cfi_def_cfa_offset 4
 1040              		.cfi_offset 7, -4
 1041 052e 00AF     		add	r7, sp, #0
 1042              		.cfi_def_cfa_register 7
 351:build/openmote-cc2538_armgcc/openstack/03b-IPv6/icmpv6rpl.c ****    return icmpv6rpl_vars.myDAGrank;
 1043              		.loc 1 351 0
 1044 0530 034B     		ldr	r3, .L53
 1045 0532 B3F88630 		ldrh	r3, [r3, #134]
 352:build/openmote-cc2538_armgcc/openstack/03b-IPv6/icmpv6rpl.c **** }
 1046              		.loc 1 352 0
 1047 0536 1846     		mov	r0, r3
 1048 0538 BD46     		mov	sp, r7
 1049              		.cfi_def_cfa_register 13
 1050              		@ sp needed
 1051 053a 5DF8047B 		ldr	r7, [sp], #4
 1052              		.cfi_restore 7
 1053              		.cfi_def_cfa_offset 0
 1054 053e 7047     		bx	lr
 1055              	.L54:
 1056              		.align	2
 1057              	.L53:
 1058 0540 00000000 		.word	icmpv6rpl_vars
 1059              		.cfi_endproc
 1060              	.LFE9:
 1062              		.align	2
 1063              		.global	icmpv6rpl_setMyDAGrank
 1064              		.thumb
 1065              		.thumb_func
 1067              	icmpv6rpl_setMyDAGrank:
 1068              	.LFB10:
 353:build/openmote-cc2538_armgcc/openstack/03b-IPv6/icmpv6rpl.c **** 
 354:build/openmote-cc2538_armgcc/openstack/03b-IPv6/icmpv6rpl.c **** /**
 355:build/openmote-cc2538_armgcc/openstack/03b-IPv6/icmpv6rpl.c **** \brief Direct intervention to set the value of DAG rank in the data structure
 356:build/openmote-cc2538_armgcc/openstack/03b-IPv6/icmpv6rpl.c **** 
 357:build/openmote-cc2538_armgcc/openstack/03b-IPv6/icmpv6rpl.c **** Meant for direct control from command on serial port or from test application,
 358:build/openmote-cc2538_armgcc/openstack/03b-IPv6/icmpv6rpl.c **** bypassing the routing protocol!
 359:build/openmote-cc2538_armgcc/openstack/03b-IPv6/icmpv6rpl.c **** */
 360:build/openmote-cc2538_armgcc/openstack/03b-IPv6/icmpv6rpl.c **** void icmpv6rpl_setMyDAGrank(dagrank_t rank){
 1069              		.loc 1 360 0
 1070              		.cfi_startproc
 1071              		@ args = 0, pretend = 0, frame = 8
 1072              		@ frame_needed = 1, uses_anonymous_args = 0
 1073              		@ link register save eliminated.
 1074 0544 80B4     		push	{r7}
 1075              		.cfi_def_cfa_offset 4
 1076              		.cfi_offset 7, -4
 1077 0546 83B0     		sub	sp, sp, #12
 1078              		.cfi_def_cfa_offset 16
 1079 0548 00AF     		add	r7, sp, #0
 1080              		.cfi_def_cfa_register 7
 1081 054a 0346     		mov	r3, r0
 1082 054c FB80     		strh	r3, [r7, #6]	@ movhi
 361:build/openmote-cc2538_armgcc/openstack/03b-IPv6/icmpv6rpl.c ****     icmpv6rpl_vars.myDAGrank = rank;
 1083              		.loc 1 361 0
 1084 054e 044A     		ldr	r2, .L56
 1085 0550 FB88     		ldrh	r3, [r7, #6]	@ movhi
 1086 0552 A2F88630 		strh	r3, [r2, #134]	@ movhi
 362:build/openmote-cc2538_armgcc/openstack/03b-IPv6/icmpv6rpl.c **** }
 1087              		.loc 1 362 0
 1088 0556 0C37     		adds	r7, r7, #12
 1089              		.cfi_def_cfa_offset 4
 1090 0558 BD46     		mov	sp, r7
 1091              		.cfi_def_cfa_register 13
 1092              		@ sp needed
 1093 055a 5DF8047B 		ldr	r7, [sp], #4
 1094              		.cfi_restore 7
 1095              		.cfi_def_cfa_offset 0
 1096 055e 7047     		bx	lr
 1097              	.L57:
 1098              		.align	2
 1099              	.L56:
 1100 0560 00000000 		.word	icmpv6rpl_vars
 1101              		.cfi_endproc
 1102              	.LFE10:
 1104              		.align	2
 1105              		.global	icmpv6rpl_updateMyDAGrankAndParentSelection
 1106              		.thumb
 1107              		.thumb_func
 1109              	icmpv6rpl_updateMyDAGrankAndParentSelection:
 1110              	.LFB11:
 363:build/openmote-cc2538_armgcc/openstack/03b-IPv6/icmpv6rpl.c **** 
 364:build/openmote-cc2538_armgcc/openstack/03b-IPv6/icmpv6rpl.c **** /**
 365:build/openmote-cc2538_armgcc/openstack/03b-IPv6/icmpv6rpl.c **** \brief Routing algorithm
 366:build/openmote-cc2538_armgcc/openstack/03b-IPv6/icmpv6rpl.c **** */
 367:build/openmote-cc2538_armgcc/openstack/03b-IPv6/icmpv6rpl.c **** void icmpv6rpl_updateMyDAGrankAndParentSelection(void) {
 1111              		.loc 1 367 0
 1112              		.cfi_startproc
 1113              		@ args = 0, pretend = 0, frame = 40
 1114              		@ frame_needed = 1, uses_anonymous_args = 0
 1115 0564 80B5     		push	{r7, lr}
 1116              		.cfi_def_cfa_offset 8
 1117              		.cfi_offset 7, -8
 1118              		.cfi_offset 14, -4
 1119 0566 8AB0     		sub	sp, sp, #40
 1120              		.cfi_def_cfa_offset 48
 1121 0568 00AF     		add	r7, sp, #0
 1122              		.cfi_def_cfa_register 7
 368:build/openmote-cc2538_armgcc/openstack/03b-IPv6/icmpv6rpl.c ****     uint8_t   i;
 369:build/openmote-cc2538_armgcc/openstack/03b-IPv6/icmpv6rpl.c ****     uint16_t  previousDAGrank;
 370:build/openmote-cc2538_armgcc/openstack/03b-IPv6/icmpv6rpl.c ****     uint16_t  prevRankIncrease;
 371:build/openmote-cc2538_armgcc/openstack/03b-IPv6/icmpv6rpl.c ****     uint8_t   prevParentIndex;
 372:build/openmote-cc2538_armgcc/openstack/03b-IPv6/icmpv6rpl.c ****     bool      prevHadParent;
 373:build/openmote-cc2538_armgcc/openstack/03b-IPv6/icmpv6rpl.c ****     bool      foundBetterParent;
 374:build/openmote-cc2538_armgcc/openstack/03b-IPv6/icmpv6rpl.c ****     // temporaries
 375:build/openmote-cc2538_armgcc/openstack/03b-IPv6/icmpv6rpl.c ****     uint16_t  rankIncrease;
 376:build/openmote-cc2538_armgcc/openstack/03b-IPv6/icmpv6rpl.c ****     dagrank_t neighborRank;
 377:build/openmote-cc2538_armgcc/openstack/03b-IPv6/icmpv6rpl.c ****     uint32_t  tentativeDAGrank;
 378:build/openmote-cc2538_armgcc/openstack/03b-IPv6/icmpv6rpl.c **** 
 379:build/openmote-cc2538_armgcc/openstack/03b-IPv6/icmpv6rpl.c ****     open_addr_t addressToWrite;
 380:build/openmote-cc2538_armgcc/openstack/03b-IPv6/icmpv6rpl.c **** 
 381:build/openmote-cc2538_armgcc/openstack/03b-IPv6/icmpv6rpl.c ****     // if I'm a DAGroot, my DAGrank is always MINHOPRANKINCREASE
 382:build/openmote-cc2538_armgcc/openstack/03b-IPv6/icmpv6rpl.c ****     if ((idmanager_getIsDAGroot())==TRUE) {
 1123              		.loc 1 382 0
 1124 056a FFF7FEFF 		bl	idmanager_getIsDAGroot
 1125 056e 0346     		mov	r3, r0
 1126 0570 002B     		cmp	r3, #0
 1127 0572 0BD0     		beq	.L59
 383:build/openmote-cc2538_armgcc/openstack/03b-IPv6/icmpv6rpl.c ****         // the dagrank is not set through setting command, set rank to MINHOPRANKINCREASE here
 384:build/openmote-cc2538_armgcc/openstack/03b-IPv6/icmpv6rpl.c ****         if (icmpv6rpl_vars.myDAGrank!=MINHOPRANKINCREASE) { // test for change so as not to report 
 1128              		.loc 1 384 0
 1129 0574 8F4B     		ldr	r3, .L81
 1130 0576 B3F88630 		ldrh	r3, [r3, #134]
 1131 057a B3F5807F 		cmp	r3, #256
 1132 057e 05D0     		beq	.L59
 385:build/openmote-cc2538_armgcc/openstack/03b-IPv6/icmpv6rpl.c ****             icmpv6rpl_vars.myDAGrank=MINHOPRANKINCREASE;
 1133              		.loc 1 385 0
 1134 0580 8C4B     		ldr	r3, .L81
 1135 0582 4FF48072 		mov	r2, #256
 1136 0586 A3F88620 		strh	r2, [r3, #134]	@ movhi
 386:build/openmote-cc2538_armgcc/openstack/03b-IPv6/icmpv6rpl.c ****             return;
 1137              		.loc 1 386 0
 1138 058a 10E1     		b	.L58
 1139              	.L59:
 387:build/openmote-cc2538_armgcc/openstack/03b-IPv6/icmpv6rpl.c ****         }
 388:build/openmote-cc2538_armgcc/openstack/03b-IPv6/icmpv6rpl.c ****     }
 389:build/openmote-cc2538_armgcc/openstack/03b-IPv6/icmpv6rpl.c ****     // prep for loop, remember state before neighbor table scanning
 390:build/openmote-cc2538_armgcc/openstack/03b-IPv6/icmpv6rpl.c ****     prevParentIndex      = icmpv6rpl_vars.ParentIndex;
 1140              		.loc 1 390 0
 1141 058c 894B     		ldr	r3, .L81
 1142 058e 93F88B30 		ldrb	r3, [r3, #139]
 1143 0592 FB77     		strb	r3, [r7, #31]
 391:build/openmote-cc2538_armgcc/openstack/03b-IPv6/icmpv6rpl.c ****     prevHadParent        = icmpv6rpl_vars.haveParent;
 1144              		.loc 1 391 0
 1145 0594 874B     		ldr	r3, .L81
 1146 0596 93F88A30 		ldrb	r3, [r3, #138]
 1147 059a BB77     		strb	r3, [r7, #30]
 392:build/openmote-cc2538_armgcc/openstack/03b-IPv6/icmpv6rpl.c ****     prevRankIncrease     = icmpv6rpl_vars.rankIncrease;
 1148              		.loc 1 392 0
 1149 059c 854B     		ldr	r3, .L81
 1150 059e B3F88830 		ldrh	r3, [r3, #136]	@ movhi
 1151 05a2 BB83     		strh	r3, [r7, #28]	@ movhi
 393:build/openmote-cc2538_armgcc/openstack/03b-IPv6/icmpv6rpl.c ****     // update my rank to current parent first
 394:build/openmote-cc2538_armgcc/openstack/03b-IPv6/icmpv6rpl.c ****     if (icmpv6rpl_vars.haveParent==TRUE){
 1152              		.loc 1 394 0
 1153 05a4 834B     		ldr	r3, .L81
 1154 05a6 93F88A30 		ldrb	r3, [r3, #138]	@ zero_extendqisi2
 1155 05aa 002B     		cmp	r3, #0
 1156 05ac 47D0     		beq	.L61
 395:build/openmote-cc2538_armgcc/openstack/03b-IPv6/icmpv6rpl.c **** 
 396:build/openmote-cc2538_armgcc/openstack/03b-IPv6/icmpv6rpl.c ****         if (
 397:build/openmote-cc2538_armgcc/openstack/03b-IPv6/icmpv6rpl.c ****             neighbors_getNeighborNoResource(icmpv6rpl_vars.ParentIndex)    == TRUE ||
 1157              		.loc 1 397 0
 1158 05ae 814B     		ldr	r3, .L81
 1159 05b0 93F88B30 		ldrb	r3, [r3, #139]	@ zero_extendqisi2
 1160 05b4 1846     		mov	r0, r3
 1161 05b6 FFF7FEFF 		bl	neighbors_getNeighborNoResource
 1162 05ba 0346     		mov	r3, r0
 396:build/openmote-cc2538_armgcc/openstack/03b-IPv6/icmpv6rpl.c ****             neighbors_getNeighborNoResource(icmpv6rpl_vars.ParentIndex)    == TRUE ||
 1163              		.loc 1 396 0
 1164 05bc 002B     		cmp	r3, #0
 1165 05be 08D1     		bne	.L62
 398:build/openmote-cc2538_armgcc/openstack/03b-IPv6/icmpv6rpl.c ****             neighbors_getNeighborIsInBlacklist(icmpv6rpl_vars.ParentIndex) == TRUE
 1166              		.loc 1 398 0
 1167 05c0 7C4B     		ldr	r3, .L81
 1168 05c2 93F88B30 		ldrb	r3, [r3, #139]	@ zero_extendqisi2
 1169 05c6 1846     		mov	r0, r3
 1170 05c8 FFF7FEFF 		bl	neighbors_getNeighborIsInBlacklist
 1171 05cc 0346     		mov	r3, r0
 397:build/openmote-cc2538_armgcc/openstack/03b-IPv6/icmpv6rpl.c ****             neighbors_getNeighborIsInBlacklist(icmpv6rpl_vars.ParentIndex) == TRUE
 1172              		.loc 1 397 0
 1173 05ce 002B     		cmp	r3, #0
 1174 05d0 05D0     		beq	.L63
 1175              	.L62:
 399:build/openmote-cc2538_armgcc/openstack/03b-IPv6/icmpv6rpl.c ****         ){
 400:build/openmote-cc2538_armgcc/openstack/03b-IPv6/icmpv6rpl.c ****             icmpv6rpl_vars.myDAGrank = 65535;
 1176              		.loc 1 400 0
 1177 05d2 784B     		ldr	r3, .L81
 1178 05d4 4FF6FF72 		movw	r2, #65535
 1179 05d8 A3F88620 		strh	r2, [r3, #134]	@ movhi
 1180 05dc 2FE0     		b	.L61
 1181              	.L63:
 401:build/openmote-cc2538_armgcc/openstack/03b-IPv6/icmpv6rpl.c ****         } else {
 402:build/openmote-cc2538_armgcc/openstack/03b-IPv6/icmpv6rpl.c ****             if (neighbors_reachedMinimalTransmission(icmpv6rpl_vars.ParentIndex)==FALSE){
 1182              		.loc 1 402 0
 1183 05de 754B     		ldr	r3, .L81
 1184 05e0 93F88B30 		ldrb	r3, [r3, #139]	@ zero_extendqisi2
 1185 05e4 1846     		mov	r0, r3
 1186 05e6 FFF7FEFF 		bl	neighbors_reachedMinimalTransmission
 1187 05ea 0346     		mov	r3, r0
 1188 05ec 83F00103 		eor	r3, r3, #1
 1189 05f0 DBB2     		uxtb	r3, r3
 1190 05f2 002B     		cmp	r3, #0
 1191 05f4 00D0     		beq	.L64
 403:build/openmote-cc2538_armgcc/openstack/03b-IPv6/icmpv6rpl.c ****                 // I havn't enough transmission to my parent, don't update.
 404:build/openmote-cc2538_armgcc/openstack/03b-IPv6/icmpv6rpl.c ****                 return;
 1192              		.loc 1 404 0
 1193 05f6 DAE0     		b	.L58
 1194              	.L64:
 405:build/openmote-cc2538_armgcc/openstack/03b-IPv6/icmpv6rpl.c ****             }
 406:build/openmote-cc2538_armgcc/openstack/03b-IPv6/icmpv6rpl.c ****             rankIncrease     = neighbors_getLinkMetric(icmpv6rpl_vars.ParentIndex);
 1195              		.loc 1 406 0
 1196 05f8 6E4B     		ldr	r3, .L81
 1197 05fa 93F88B30 		ldrb	r3, [r3, #139]	@ zero_extendqisi2
 1198 05fe 1846     		mov	r0, r3
 1199 0600 FFF7FEFF 		bl	neighbors_getLinkMetric
 1200 0604 0346     		mov	r3, r0
 1201 0606 7B83     		strh	r3, [r7, #26]	@ movhi
 407:build/openmote-cc2538_armgcc/openstack/03b-IPv6/icmpv6rpl.c ****             neighborRank     = neighbors_getNeighborRank(icmpv6rpl_vars.ParentIndex);
 1202              		.loc 1 407 0
 1203 0608 6A4B     		ldr	r3, .L81
 1204 060a 93F88B30 		ldrb	r3, [r3, #139]	@ zero_extendqisi2
 1205 060e 1846     		mov	r0, r3
 1206 0610 FFF7FEFF 		bl	neighbors_getNeighborRank
 1207 0614 0346     		mov	r3, r0
 1208 0616 3B83     		strh	r3, [r7, #24]	@ movhi
 408:build/openmote-cc2538_armgcc/openstack/03b-IPv6/icmpv6rpl.c ****             tentativeDAGrank = (uint32_t)neighborRank+rankIncrease;
 1209              		.loc 1 408 0
 1210 0618 3A8B     		ldrh	r2, [r7, #24]
 1211 061a 7B8B     		ldrh	r3, [r7, #26]
 1212 061c 1344     		add	r3, r3, r2
 1213 061e 3B62     		str	r3, [r7, #32]
 409:build/openmote-cc2538_armgcc/openstack/03b-IPv6/icmpv6rpl.c ****             if (tentativeDAGrank>65535) {
 1214              		.loc 1 409 0
 1215 0620 3B6A     		ldr	r3, [r7, #32]
 1216 0622 B3F5803F 		cmp	r3, #65536
 1217 0626 05D3     		bcc	.L65
 410:build/openmote-cc2538_armgcc/openstack/03b-IPv6/icmpv6rpl.c ****                 icmpv6rpl_vars.myDAGrank = 65535;
 1218              		.loc 1 410 0
 1219 0628 624B     		ldr	r3, .L81
 1220 062a 4FF6FF72 		movw	r2, #65535
 1221 062e A3F88620 		strh	r2, [r3, #134]	@ movhi
 1222 0632 04E0     		b	.L61
 1223              	.L65:
 411:build/openmote-cc2538_armgcc/openstack/03b-IPv6/icmpv6rpl.c ****             } else {
 412:build/openmote-cc2538_armgcc/openstack/03b-IPv6/icmpv6rpl.c ****                 icmpv6rpl_vars.myDAGrank = (uint16_t)tentativeDAGrank;
 1224              		.loc 1 412 0
 1225 0634 3B6A     		ldr	r3, [r7, #32]
 1226 0636 9AB2     		uxth	r2, r3
 1227 0638 5E4B     		ldr	r3, .L81
 1228 063a A3F88620 		strh	r2, [r3, #134]	@ movhi
 1229              	.L61:
 413:build/openmote-cc2538_armgcc/openstack/03b-IPv6/icmpv6rpl.c ****             }
 414:build/openmote-cc2538_armgcc/openstack/03b-IPv6/icmpv6rpl.c ****         }
 415:build/openmote-cc2538_armgcc/openstack/03b-IPv6/icmpv6rpl.c ****     }
 416:build/openmote-cc2538_armgcc/openstack/03b-IPv6/icmpv6rpl.c ****     previousDAGrank      = icmpv6rpl_vars.myDAGrank;
 1230              		.loc 1 416 0
 1231 063e 5D4B     		ldr	r3, .L81
 1232 0640 B3F88630 		ldrh	r3, [r3, #134]	@ movhi
 1233 0644 FB82     		strh	r3, [r7, #22]	@ movhi
 417:build/openmote-cc2538_armgcc/openstack/03b-IPv6/icmpv6rpl.c ****     foundBetterParent    = FALSE;
 1234              		.loc 1 417 0
 1235 0646 0023     		movs	r3, #0
 1236 0648 87F82630 		strb	r3, [r7, #38]
 418:build/openmote-cc2538_armgcc/openstack/03b-IPv6/icmpv6rpl.c ****     icmpv6rpl_vars.haveParent = FALSE;
 1237              		.loc 1 418 0
 1238 064c 594B     		ldr	r3, .L81
 1239 064e 0022     		movs	r2, #0
 1240 0650 83F88A20 		strb	r2, [r3, #138]
 419:build/openmote-cc2538_armgcc/openstack/03b-IPv6/icmpv6rpl.c **** 
 420:build/openmote-cc2538_armgcc/openstack/03b-IPv6/icmpv6rpl.c ****     // loop through neighbor table, update myDAGrank
 421:build/openmote-cc2538_armgcc/openstack/03b-IPv6/icmpv6rpl.c ****     for (i=0;i<MAXNUMNEIGHBORS;i++) {
 1241              		.loc 1 421 0
 1242 0654 0023     		movs	r3, #0
 1243 0656 87F82730 		strb	r3, [r7, #39]
 1244 065a 5FE0     		b	.L66
 1245              	.L74:
 422:build/openmote-cc2538_armgcc/openstack/03b-IPv6/icmpv6rpl.c ****         if (neighbors_isStableNeighborByIndex(i)) { // in use and link is stable
 1246              		.loc 1 422 0
 1247 065c 97F82730 		ldrb	r3, [r7, #39]	@ zero_extendqisi2
 1248 0660 1846     		mov	r0, r3
 1249 0662 FFF7FEFF 		bl	neighbors_isStableNeighborByIndex
 1250 0666 0346     		mov	r3, r0
 1251 0668 002B     		cmp	r3, #0
 1252 066a 52D0     		beq	.L67
 423:build/openmote-cc2538_armgcc/openstack/03b-IPv6/icmpv6rpl.c ****             // neighbor marked as NORES can't be parent
 424:build/openmote-cc2538_armgcc/openstack/03b-IPv6/icmpv6rpl.c ****             if (
 425:build/openmote-cc2538_armgcc/openstack/03b-IPv6/icmpv6rpl.c ****                 neighbors_getNeighborNoResource(i)   == TRUE ||
 1253              		.loc 1 425 0
 1254 066c 97F82730 		ldrb	r3, [r7, #39]	@ zero_extendqisi2
 1255 0670 1846     		mov	r0, r3
 1256 0672 FFF7FEFF 		bl	neighbors_getNeighborNoResource
 1257 0676 0346     		mov	r3, r0
 424:build/openmote-cc2538_armgcc/openstack/03b-IPv6/icmpv6rpl.c ****                 neighbors_getNeighborNoResource(i)   == TRUE ||
 1258              		.loc 1 424 0
 1259 0678 002B     		cmp	r3, #0
 1260 067a 07D1     		bne	.L68
 426:build/openmote-cc2538_armgcc/openstack/03b-IPv6/icmpv6rpl.c ****                 neighbors_getNeighborIsInBlacklist(i)== TRUE
 1261              		.loc 1 426 0
 1262 067c 97F82730 		ldrb	r3, [r7, #39]	@ zero_extendqisi2
 1263 0680 1846     		mov	r0, r3
 1264 0682 FFF7FEFF 		bl	neighbors_getNeighborIsInBlacklist
 1265 0686 0346     		mov	r3, r0
 425:build/openmote-cc2538_armgcc/openstack/03b-IPv6/icmpv6rpl.c ****                 neighbors_getNeighborIsInBlacklist(i)== TRUE
 1266              		.loc 1 425 0
 1267 0688 002B     		cmp	r3, #0
 1268 068a 00D0     		beq	.L69
 1269              	.L68:
 427:build/openmote-cc2538_armgcc/openstack/03b-IPv6/icmpv6rpl.c ****             ) {
 428:build/openmote-cc2538_armgcc/openstack/03b-IPv6/icmpv6rpl.c ****                 continue;
 1270              		.loc 1 428 0
 1271 068c 41E0     		b	.L67
 1272              	.L69:
 429:build/openmote-cc2538_armgcc/openstack/03b-IPv6/icmpv6rpl.c ****             }
 430:build/openmote-cc2538_armgcc/openstack/03b-IPv6/icmpv6rpl.c ****             // get link cost to this neighbor
 431:build/openmote-cc2538_armgcc/openstack/03b-IPv6/icmpv6rpl.c ****             rankIncrease=neighbors_getLinkMetric(i);
 1273              		.loc 1 431 0
 1274 068e 97F82730 		ldrb	r3, [r7, #39]	@ zero_extendqisi2
 1275 0692 1846     		mov	r0, r3
 1276 0694 FFF7FEFF 		bl	neighbors_getLinkMetric
 1277 0698 0346     		mov	r3, r0
 1278 069a 7B83     		strh	r3, [r7, #26]	@ movhi
 432:build/openmote-cc2538_armgcc/openstack/03b-IPv6/icmpv6rpl.c ****             // get this neighbor's advertized rank
 433:build/openmote-cc2538_armgcc/openstack/03b-IPv6/icmpv6rpl.c ****             neighborRank=neighbors_getNeighborRank(i);
 1279              		.loc 1 433 0
 1280 069c 97F82730 		ldrb	r3, [r7, #39]	@ zero_extendqisi2
 1281 06a0 1846     		mov	r0, r3
 1282 06a2 FFF7FEFF 		bl	neighbors_getNeighborRank
 1283 06a6 0346     		mov	r3, r0
 1284 06a8 3B83     		strh	r3, [r7, #24]	@ movhi
 434:build/openmote-cc2538_armgcc/openstack/03b-IPv6/icmpv6rpl.c ****             // if this neighbor has unknown/infinite rank, pass on it
 435:build/openmote-cc2538_armgcc/openstack/03b-IPv6/icmpv6rpl.c ****             if (neighborRank==DEFAULTDAGRANK) continue;
 1285              		.loc 1 435 0
 1286 06aa 3B8B     		ldrh	r3, [r7, #24]
 1287 06ac 4FF6FF72 		movw	r2, #65535
 1288 06b0 9342     		cmp	r3, r2
 1289 06b2 00D1     		bne	.L70
 1290              		.loc 1 435 0 is_stmt 0 discriminator 1
 1291 06b4 2DE0     		b	.L67
 1292              	.L70:
 436:build/openmote-cc2538_armgcc/openstack/03b-IPv6/icmpv6rpl.c ****             // compute tentative cost of full path to root through this neighbor
 437:build/openmote-cc2538_armgcc/openstack/03b-IPv6/icmpv6rpl.c ****             tentativeDAGrank = (uint32_t)neighborRank+rankIncrease;
 1293              		.loc 1 437 0 is_stmt 1
 1294 06b6 3A8B     		ldrh	r2, [r7, #24]
 1295 06b8 7B8B     		ldrh	r3, [r7, #26]
 1296 06ba 1344     		add	r3, r3, r2
 1297 06bc 3B62     		str	r3, [r7, #32]
 438:build/openmote-cc2538_armgcc/openstack/03b-IPv6/icmpv6rpl.c ****             if (tentativeDAGrank > 65535) {tentativeDAGrank = 65535;}
 1298              		.loc 1 438 0
 1299 06be 3B6A     		ldr	r3, [r7, #32]
 1300 06c0 B3F5803F 		cmp	r3, #65536
 1301 06c4 02D3     		bcc	.L71
 1302              		.loc 1 438 0 is_stmt 0 discriminator 1
 1303 06c6 4FF6FF73 		movw	r3, #65535
 1304 06ca 3B62     		str	r3, [r7, #32]
 1305              	.L71:
 439:build/openmote-cc2538_armgcc/openstack/03b-IPv6/icmpv6rpl.c ****             // if not low enough to justify switch, pass (i.e. hysterisis)
 440:build/openmote-cc2538_armgcc/openstack/03b-IPv6/icmpv6rpl.c ****             if (
 441:build/openmote-cc2538_armgcc/openstack/03b-IPv6/icmpv6rpl.c ****                 (previousDAGrank<tentativeDAGrank) ||
 1306              		.loc 1 441 0 is_stmt 1
 1307 06cc FA8A     		ldrh	r2, [r7, #22]
 440:build/openmote-cc2538_armgcc/openstack/03b-IPv6/icmpv6rpl.c ****                 (previousDAGrank<tentativeDAGrank) ||
 1308              		.loc 1 440 0
 1309 06ce 3B6A     		ldr	r3, [r7, #32]
 1310 06d0 9A42     		cmp	r2, r3
 1311 06d2 05D3     		bcc	.L72
 442:build/openmote-cc2538_armgcc/openstack/03b-IPv6/icmpv6rpl.c ****                 (previousDAGrank-tentativeDAGrank < 2*MINHOPRANKINCREASE)
 1312              		.loc 1 442 0
 1313 06d4 FA8A     		ldrh	r2, [r7, #22]
 1314 06d6 3B6A     		ldr	r3, [r7, #32]
 1315 06d8 D31A     		subs	r3, r2, r3
 441:build/openmote-cc2538_armgcc/openstack/03b-IPv6/icmpv6rpl.c ****                 (previousDAGrank-tentativeDAGrank < 2*MINHOPRANKINCREASE)
 1316              		.loc 1 441 0
 1317 06da B3F5007F 		cmp	r3, #512
 1318 06de 00D2     		bcs	.L73
 1319              	.L72:
 443:build/openmote-cc2538_armgcc/openstack/03b-IPv6/icmpv6rpl.c ****             ) {
 444:build/openmote-cc2538_armgcc/openstack/03b-IPv6/icmpv6rpl.c ****                   continue;
 1320              		.loc 1 444 0
 1321 06e0 17E0     		b	.L67
 1322              	.L73:
 445:build/openmote-cc2538_armgcc/openstack/03b-IPv6/icmpv6rpl.c ****             }
 446:build/openmote-cc2538_armgcc/openstack/03b-IPv6/icmpv6rpl.c ****             // remember that we have at least one valid candidate parent
 447:build/openmote-cc2538_armgcc/openstack/03b-IPv6/icmpv6rpl.c ****             foundBetterParent=TRUE;
 1323              		.loc 1 447 0
 1324 06e2 0123     		movs	r3, #1
 1325 06e4 87F82630 		strb	r3, [r7, #38]
 448:build/openmote-cc2538_armgcc/openstack/03b-IPv6/icmpv6rpl.c ****             // select best candidate so far
 449:build/openmote-cc2538_armgcc/openstack/03b-IPv6/icmpv6rpl.c ****             if (icmpv6rpl_vars.myDAGrank>tentativeDAGrank) {
 1326              		.loc 1 449 0
 1327 06e8 324B     		ldr	r3, .L81
 1328 06ea B3F88630 		ldrh	r3, [r3, #134]
 1329 06ee 1A46     		mov	r2, r3
 1330 06f0 3B6A     		ldr	r3, [r7, #32]
 1331 06f2 9A42     		cmp	r2, r3
 1332 06f4 0DD9     		bls	.L67
 450:build/openmote-cc2538_armgcc/openstack/03b-IPv6/icmpv6rpl.c ****                 icmpv6rpl_vars.myDAGrank    = (uint16_t)tentativeDAGrank;
 1333              		.loc 1 450 0
 1334 06f6 3B6A     		ldr	r3, [r7, #32]
 1335 06f8 9AB2     		uxth	r2, r3
 1336 06fa 2E4B     		ldr	r3, .L81
 1337 06fc A3F88620 		strh	r2, [r3, #134]	@ movhi
 451:build/openmote-cc2538_armgcc/openstack/03b-IPv6/icmpv6rpl.c ****                 icmpv6rpl_vars.ParentIndex  = i;
 1338              		.loc 1 451 0
 1339 0700 2C4A     		ldr	r2, .L81
 1340 0702 97F82730 		ldrb	r3, [r7, #39]
 1341 0706 82F88B30 		strb	r3, [r2, #139]
 452:build/openmote-cc2538_armgcc/openstack/03b-IPv6/icmpv6rpl.c ****                 icmpv6rpl_vars.rankIncrease = rankIncrease;
 1342              		.loc 1 452 0
 1343 070a 2A4A     		ldr	r2, .L81
 1344 070c 7B8B     		ldrh	r3, [r7, #26]	@ movhi
 1345 070e A2F88830 		strh	r3, [r2, #136]	@ movhi
 1346              	.L67:
 421:build/openmote-cc2538_armgcc/openstack/03b-IPv6/icmpv6rpl.c ****         if (neighbors_isStableNeighborByIndex(i)) { // in use and link is stable
 1347              		.loc 1 421 0 discriminator 2
 1348 0712 97F82730 		ldrb	r3, [r7, #39]	@ zero_extendqisi2
 1349 0716 0133     		adds	r3, r3, #1
 1350 0718 87F82730 		strb	r3, [r7, #39]
 1351              	.L66:
 421:build/openmote-cc2538_armgcc/openstack/03b-IPv6/icmpv6rpl.c ****         if (neighbors_isStableNeighborByIndex(i)) { // in use and link is stable
 1352              		.loc 1 421 0 is_stmt 0 discriminator 1
 1353 071c 97F82730 		ldrb	r3, [r7, #39]	@ zero_extendqisi2
 1354 0720 1D2B     		cmp	r3, #29
 1355 0722 9BD9     		bls	.L74
 453:build/openmote-cc2538_armgcc/openstack/03b-IPv6/icmpv6rpl.c ****             }
 454:build/openmote-cc2538_armgcc/openstack/03b-IPv6/icmpv6rpl.c ****         }
 455:build/openmote-cc2538_armgcc/openstack/03b-IPv6/icmpv6rpl.c ****     }
 456:build/openmote-cc2538_armgcc/openstack/03b-IPv6/icmpv6rpl.c **** 
 457:build/openmote-cc2538_armgcc/openstack/03b-IPv6/icmpv6rpl.c ****     if (foundBetterParent) {
 1356              		.loc 1 457 0 is_stmt 1
 1357 0724 97F82630 		ldrb	r3, [r7, #38]	@ zero_extendqisi2
 1358 0728 002B     		cmp	r3, #0
 1359 072a 30D0     		beq	.L75
 458:build/openmote-cc2538_armgcc/openstack/03b-IPv6/icmpv6rpl.c ****         icmpv6rpl_vars.haveParent=TRUE;
 1360              		.loc 1 458 0
 1361 072c 214B     		ldr	r3, .L81
 1362 072e 0122     		movs	r2, #1
 1363 0730 83F88A20 		strb	r2, [r3, #138]
 459:build/openmote-cc2538_armgcc/openstack/03b-IPv6/icmpv6rpl.c ****         if (!prevHadParent) {
 1364              		.loc 1 459 0
 1365 0734 BB7F     		ldrb	r3, [r7, #30]
 1366 0736 83F00103 		eor	r3, r3, #1
 1367 073a DBB2     		uxtb	r3, r3
 1368 073c 002B     		cmp	r3, #0
 1369 073e 0CD0     		beq	.L76
 460:build/openmote-cc2538_armgcc/openstack/03b-IPv6/icmpv6rpl.c ****             // in case preParent is killed before calling this function, clear the preferredParent 
 461:build/openmote-cc2538_armgcc/openstack/03b-IPv6/icmpv6rpl.c ****             neighbors_setPreferredParent(prevParentIndex, FALSE);
 1370              		.loc 1 461 0
 1371 0740 FB7F     		ldrb	r3, [r7, #31]	@ zero_extendqisi2
 1372 0742 1846     		mov	r0, r3
 1373 0744 0021     		movs	r1, #0
 1374 0746 FFF7FEFF 		bl	neighbors_setPreferredParent
 462:build/openmote-cc2538_armgcc/openstack/03b-IPv6/icmpv6rpl.c ****             // set neighbors as preferred parent
 463:build/openmote-cc2538_armgcc/openstack/03b-IPv6/icmpv6rpl.c ****             neighbors_setPreferredParent(icmpv6rpl_vars.ParentIndex, TRUE);
 1375              		.loc 1 463 0
 1376 074a 1A4B     		ldr	r3, .L81
 1377 074c 93F88B30 		ldrb	r3, [r3, #139]	@ zero_extendqisi2
 1378 0750 1846     		mov	r0, r3
 1379 0752 0121     		movs	r1, #1
 1380 0754 FFF7FEFF 		bl	neighbors_setPreferredParent
 1381 0758 29E0     		b	.L58
 1382              	.L76:
 464:build/openmote-cc2538_armgcc/openstack/03b-IPv6/icmpv6rpl.c ****         } else {
 465:build/openmote-cc2538_armgcc/openstack/03b-IPv6/icmpv6rpl.c ****             if (icmpv6rpl_vars.ParentIndex==prevParentIndex) {
 1383              		.loc 1 465 0
 1384 075a 164B     		ldr	r3, .L81
 1385 075c 93F88B30 		ldrb	r3, [r3, #139]	@ zero_extendqisi2
 1386 0760 FA7F     		ldrb	r2, [r7, #31]	@ zero_extendqisi2
 1387 0762 9A42     		cmp	r2, r3
 1388 0764 23D0     		beq	.L58
 466:build/openmote-cc2538_armgcc/openstack/03b-IPv6/icmpv6rpl.c ****                 // report on the rank change if any, not on the deletion/creation of parent
 467:build/openmote-cc2538_armgcc/openstack/03b-IPv6/icmpv6rpl.c ****                 if (icmpv6rpl_vars.myDAGrank!=previousDAGrank) {
 468:build/openmote-cc2538_armgcc/openstack/03b-IPv6/icmpv6rpl.c ****                 } else {
 469:build/openmote-cc2538_armgcc/openstack/03b-IPv6/icmpv6rpl.c ****                     // same parent, same rank, nothing to report about
 470:build/openmote-cc2538_armgcc/openstack/03b-IPv6/icmpv6rpl.c ****                 }
 471:build/openmote-cc2538_armgcc/openstack/03b-IPv6/icmpv6rpl.c ****             } else {
 472:build/openmote-cc2538_armgcc/openstack/03b-IPv6/icmpv6rpl.c ****                 // clear neighbors preferredParent flag
 473:build/openmote-cc2538_armgcc/openstack/03b-IPv6/icmpv6rpl.c ****                 neighbors_setPreferredParent(prevParentIndex, FALSE);
 1389              		.loc 1 473 0
 1390 0766 FB7F     		ldrb	r3, [r7, #31]	@ zero_extendqisi2
 1391 0768 1846     		mov	r0, r3
 1392 076a 0021     		movs	r1, #0
 1393 076c FFF7FEFF 		bl	neighbors_setPreferredParent
 474:build/openmote-cc2538_armgcc/openstack/03b-IPv6/icmpv6rpl.c ****                 // set neighbors as preferred parent
 475:build/openmote-cc2538_armgcc/openstack/03b-IPv6/icmpv6rpl.c ****                 neighbors_setPreferredParent(icmpv6rpl_vars.ParentIndex, TRUE);
 1394              		.loc 1 475 0
 1395 0770 104B     		ldr	r3, .L81
 1396 0772 93F88B30 		ldrb	r3, [r3, #139]	@ zero_extendqisi2
 1397 0776 1846     		mov	r0, r3
 1398 0778 0121     		movs	r1, #1
 1399 077a FFF7FEFF 		bl	neighbors_setPreferredParent
 476:build/openmote-cc2538_armgcc/openstack/03b-IPv6/icmpv6rpl.c ****                 // get prepare parent address
 477:build/openmote-cc2538_armgcc/openstack/03b-IPv6/icmpv6rpl.c ****                 neighbors_getNeighborEui64(&addressToWrite,ADDR_64B,prevParentIndex);
 1400              		.loc 1 477 0
 1401 077e 3A1D     		adds	r2, r7, #4
 1402 0780 FB7F     		ldrb	r3, [r7, #31]	@ zero_extendqisi2
 1403 0782 1046     		mov	r0, r2
 1404 0784 0221     		movs	r1, #2
 1405 0786 1A46     		mov	r2, r3
 1406 0788 FFF7FEFF 		bl	neighbors_getNeighborEui64
 1407 078c 0FE0     		b	.L58
 1408              	.L75:
 478:build/openmote-cc2538_armgcc/openstack/03b-IPv6/icmpv6rpl.c ****             }
 479:build/openmote-cc2538_armgcc/openstack/03b-IPv6/icmpv6rpl.c ****         }
 480:build/openmote-cc2538_armgcc/openstack/03b-IPv6/icmpv6rpl.c ****     } else {
 481:build/openmote-cc2538_armgcc/openstack/03b-IPv6/icmpv6rpl.c ****         // restore routing table as we found it on entry
 482:build/openmote-cc2538_armgcc/openstack/03b-IPv6/icmpv6rpl.c ****         icmpv6rpl_vars.myDAGrank   = previousDAGrank;
 1409              		.loc 1 482 0
 1410 078e 094A     		ldr	r2, .L81
 1411 0790 FB8A     		ldrh	r3, [r7, #22]	@ movhi
 1412 0792 A2F88630 		strh	r3, [r2, #134]	@ movhi
 483:build/openmote-cc2538_armgcc/openstack/03b-IPv6/icmpv6rpl.c ****         icmpv6rpl_vars.ParentIndex = prevParentIndex;
 1413              		.loc 1 483 0
 1414 0796 074A     		ldr	r2, .L81
 1415 0798 FB7F     		ldrb	r3, [r7, #31]
 1416 079a 82F88B30 		strb	r3, [r2, #139]
 484:build/openmote-cc2538_armgcc/openstack/03b-IPv6/icmpv6rpl.c ****         icmpv6rpl_vars.haveParent  = prevHadParent;
 1417              		.loc 1 484 0
 1418 079e 054A     		ldr	r2, .L81
 1419 07a0 BB7F     		ldrb	r3, [r7, #30]
 1420 07a2 82F88A30 		strb	r3, [r2, #138]
 485:build/openmote-cc2538_armgcc/openstack/03b-IPv6/icmpv6rpl.c ****         icmpv6rpl_vars.rankIncrease= prevRankIncrease;
 1421              		.loc 1 485 0
 1422 07a6 034A     		ldr	r2, .L81
 1423 07a8 BB8B     		ldrh	r3, [r7, #28]	@ movhi
 1424 07aa A2F88830 		strh	r3, [r2, #136]	@ movhi
 1425              	.L58:
 486:build/openmote-cc2538_armgcc/openstack/03b-IPv6/icmpv6rpl.c ****         // no change to report on
 487:build/openmote-cc2538_armgcc/openstack/03b-IPv6/icmpv6rpl.c ****     }
 488:build/openmote-cc2538_armgcc/openstack/03b-IPv6/icmpv6rpl.c **** }
 1426              		.loc 1 488 0
 1427 07ae 2837     		adds	r7, r7, #40
 1428              		.cfi_def_cfa_offset 8
 1429 07b0 BD46     		mov	sp, r7
 1430              		.cfi_def_cfa_register 13
 1431              		@ sp needed
 1432 07b2 80BD     		pop	{r7, pc}
 1433              	.L82:
 1434              		.align	2
 1435              	.L81:
 1436 07b4 00000000 		.word	icmpv6rpl_vars
 1437              		.cfi_endproc
 1438              	.LFE11:
 1440              		.align	2
 1441              		.global	icmpv6rpl_indicateRxDIO
 1442              		.thumb
 1443              		.thumb_func
 1445              	icmpv6rpl_indicateRxDIO:
 1446              	.LFB12:
 489:build/openmote-cc2538_armgcc/openstack/03b-IPv6/icmpv6rpl.c **** 
 490:build/openmote-cc2538_armgcc/openstack/03b-IPv6/icmpv6rpl.c **** /**
 491:build/openmote-cc2538_armgcc/openstack/03b-IPv6/icmpv6rpl.c **** \brief Indicate I just received a RPL DIO from a neighbor.
 492:build/openmote-cc2538_armgcc/openstack/03b-IPv6/icmpv6rpl.c **** 
 493:build/openmote-cc2538_armgcc/openstack/03b-IPv6/icmpv6rpl.c **** This function should be called for each received a DIO is received so neighbor
 494:build/openmote-cc2538_armgcc/openstack/03b-IPv6/icmpv6rpl.c **** routing information in the neighbor table can be updated.
 495:build/openmote-cc2538_armgcc/openstack/03b-IPv6/icmpv6rpl.c **** 
 496:build/openmote-cc2538_armgcc/openstack/03b-IPv6/icmpv6rpl.c **** The fields which are updated are:
 497:build/openmote-cc2538_armgcc/openstack/03b-IPv6/icmpv6rpl.c **** - DAGrank
 498:build/openmote-cc2538_armgcc/openstack/03b-IPv6/icmpv6rpl.c **** 
 499:build/openmote-cc2538_armgcc/openstack/03b-IPv6/icmpv6rpl.c **** \param[in] msg The received message with msg->payload pointing to the DIO
 500:build/openmote-cc2538_armgcc/openstack/03b-IPv6/icmpv6rpl.c ****    header.
 501:build/openmote-cc2538_armgcc/openstack/03b-IPv6/icmpv6rpl.c **** */
 502:build/openmote-cc2538_armgcc/openstack/03b-IPv6/icmpv6rpl.c **** void icmpv6rpl_indicateRxDIO(OpenQueueEntry_t* msg) {
 1447              		.loc 1 502 0
 1448              		.cfi_startproc
 1449              		@ args = 0, pretend = 0, frame = 64
 1450              		@ frame_needed = 1, uses_anonymous_args = 0
 1451 07b8 B0B5     		push	{r4, r5, r7, lr}
 1452              		.cfi_def_cfa_offset 16
 1453              		.cfi_offset 4, -16
 1454              		.cfi_offset 5, -12
 1455              		.cfi_offset 7, -8
 1456              		.cfi_offset 14, -4
 1457 07ba 90B0     		sub	sp, sp, #64
 1458              		.cfi_def_cfa_offset 80
 1459 07bc 00AF     		add	r7, sp, #0
 1460              		.cfi_def_cfa_register 7
 1461 07be 7860     		str	r0, [r7, #4]
 503:build/openmote-cc2538_armgcc/openstack/03b-IPv6/icmpv6rpl.c ****    uint8_t          i;
 504:build/openmote-cc2538_armgcc/openstack/03b-IPv6/icmpv6rpl.c ****    uint8_t          temp_8b;
 505:build/openmote-cc2538_armgcc/openstack/03b-IPv6/icmpv6rpl.c ****    dagrank_t        neighborRank;
 506:build/openmote-cc2538_armgcc/openstack/03b-IPv6/icmpv6rpl.c ****    open_addr_t      NeighborAddress;
 507:build/openmote-cc2538_armgcc/openstack/03b-IPv6/icmpv6rpl.c ****    open_addr_t      myPrefix;
 508:build/openmote-cc2538_armgcc/openstack/03b-IPv6/icmpv6rpl.c ****    uint8_t*         current;
 509:build/openmote-cc2538_armgcc/openstack/03b-IPv6/icmpv6rpl.c ****    uint8_t          optionsLen;
 510:build/openmote-cc2538_armgcc/openstack/03b-IPv6/icmpv6rpl.c ****    // take ownership over the packet
 511:build/openmote-cc2538_armgcc/openstack/03b-IPv6/icmpv6rpl.c ****    msg->owner = COMPONENT_NEIGHBORS;
 1462              		.loc 1 511 0
 1463 07c0 7B68     		ldr	r3, [r7, #4]
 1464 07c2 0D22     		movs	r2, #13
 1465 07c4 5A70     		strb	r2, [r3, #1]
 512:build/openmote-cc2538_armgcc/openstack/03b-IPv6/icmpv6rpl.c **** 
 513:build/openmote-cc2538_armgcc/openstack/03b-IPv6/icmpv6rpl.c ****    // update some fields of our DIO
 514:build/openmote-cc2538_armgcc/openstack/03b-IPv6/icmpv6rpl.c ****    memcpy(
 515:build/openmote-cc2538_armgcc/openstack/03b-IPv6/icmpv6rpl.c ****       &(icmpv6rpl_vars.dio),
 516:build/openmote-cc2538_armgcc/openstack/03b-IPv6/icmpv6rpl.c ****       (icmpv6rpl_dio_ht*)(msg->payload),
 1466              		.loc 1 516 0
 1467 07c6 7B68     		ldr	r3, [r7, #4]
 1468 07c8 5A68     		ldr	r2, [r3, #4]
 514:build/openmote-cc2538_armgcc/openstack/03b-IPv6/icmpv6rpl.c ****       &(icmpv6rpl_vars.dio),
 1469              		.loc 1 514 0
 1470 07ca BD4B     		ldr	r3, .L96
 1471 07cc 0333     		adds	r3, r3, #3
 1472 07ce 1068     		ldr	r0, [r2]	@ unaligned
 1473 07d0 5168     		ldr	r1, [r2, #4]	@ unaligned
 1474 07d2 9568     		ldr	r5, [r2, #8]	@ unaligned
 1475 07d4 D468     		ldr	r4, [r2, #12]	@ unaligned
 1476 07d6 1860     		str	r0, [r3]	@ unaligned
 1477 07d8 5960     		str	r1, [r3, #4]	@ unaligned
 1478 07da 9D60     		str	r5, [r3, #8]	@ unaligned
 1479 07dc DC60     		str	r4, [r3, #12]	@ unaligned
 1480 07de 1069     		ldr	r0, [r2, #16]	@ unaligned
 1481 07e0 5169     		ldr	r1, [r2, #20]	@ unaligned
 1482 07e2 1861     		str	r0, [r3, #16]	@ unaligned
 1483 07e4 5961     		str	r1, [r3, #20]	@ unaligned
 517:build/openmote-cc2538_armgcc/openstack/03b-IPv6/icmpv6rpl.c ****       sizeof(icmpv6rpl_dio_ht)
 518:build/openmote-cc2538_armgcc/openstack/03b-IPv6/icmpv6rpl.c ****    );
 519:build/openmote-cc2538_armgcc/openstack/03b-IPv6/icmpv6rpl.c **** 
 520:build/openmote-cc2538_armgcc/openstack/03b-IPv6/icmpv6rpl.c ****    // write DODAGID in DIO and DAO
 521:build/openmote-cc2538_armgcc/openstack/03b-IPv6/icmpv6rpl.c ****    icmpv6rpl_writeDODAGid(&(((icmpv6rpl_dio_ht*)(msg->payload))->DODAGID[0]));
 1484              		.loc 1 521 0
 1485 07e6 7B68     		ldr	r3, [r7, #4]
 1486 07e8 5B68     		ldr	r3, [r3, #4]
 1487 07ea 0833     		adds	r3, r3, #8
 1488 07ec 1846     		mov	r0, r3
 1489 07ee FFF7FEFF 		bl	icmpv6rpl_writeDODAGid
 522:build/openmote-cc2538_armgcc/openstack/03b-IPv6/icmpv6rpl.c **** 
 523:build/openmote-cc2538_armgcc/openstack/03b-IPv6/icmpv6rpl.c ****    // save pointer to incoming DIO header in global structure for simplfying debug.
 524:build/openmote-cc2538_armgcc/openstack/03b-IPv6/icmpv6rpl.c ****    icmpv6rpl_vars.incomingDio = (icmpv6rpl_dio_ht*)(msg->payload);
 1490              		.loc 1 524 0
 1491 07f2 7B68     		ldr	r3, [r7, #4]
 1492 07f4 5B68     		ldr	r3, [r3, #4]
 1493 07f6 B24A     		ldr	r2, .L96
 1494 07f8 C2F88C30 		str	r3, [r2, #140]
 525:build/openmote-cc2538_armgcc/openstack/03b-IPv6/icmpv6rpl.c ****    current = msg->payload + sizeof(icmpv6rpl_dio_ht);
 1495              		.loc 1 525 0
 1496 07fc 7B68     		ldr	r3, [r7, #4]
 1497 07fe 5B68     		ldr	r3, [r3, #4]
 1498 0800 1833     		adds	r3, r3, #24
 1499 0802 BB63     		str	r3, [r7, #56]
 526:build/openmote-cc2538_armgcc/openstack/03b-IPv6/icmpv6rpl.c ****    optionsLen = msg->length - sizeof(icmpv6rpl_dio_ht);
 1500              		.loc 1 526 0
 1501 0804 7B68     		ldr	r3, [r7, #4]
 1502 0806 1B7A     		ldrb	r3, [r3, #8]	@ zero_extendqisi2
 1503 0808 183B     		subs	r3, r3, #24
 1504 080a 87F83730 		strb	r3, [r7, #55]
 527:build/openmote-cc2538_armgcc/openstack/03b-IPv6/icmpv6rpl.c **** 
 528:build/openmote-cc2538_armgcc/openstack/03b-IPv6/icmpv6rpl.c ****    while (optionsLen>0){
 1505              		.loc 1 528 0
 1506 080e CFE0     		b	.L84
 1507              	.L88:
 529:build/openmote-cc2538_armgcc/openstack/03b-IPv6/icmpv6rpl.c ****      switch (current[0]){
 1508              		.loc 1 529 0
 1509 0810 BB6B     		ldr	r3, [r7, #56]
 1510 0812 1B78     		ldrb	r3, [r3]	@ zero_extendqisi2
 1511 0814 042B     		cmp	r3, #4
 1512 0816 02D0     		beq	.L86
 1513 0818 082B     		cmp	r3, #8
 1514 081a 7BD0     		beq	.L87
 1515 081c B6E0     		b	.L95
 1516              	.L86:
 530:build/openmote-cc2538_armgcc/openstack/03b-IPv6/icmpv6rpl.c ****      case RPL_OPTION_CONFIG:
 531:build/openmote-cc2538_armgcc/openstack/03b-IPv6/icmpv6rpl.c ****        // configuration option
 532:build/openmote-cc2538_armgcc/openstack/03b-IPv6/icmpv6rpl.c ****        icmpv6rpl_vars.incomingConf = (icmpv6rpl_config_ht*)(current);
 1517              		.loc 1 532 0
 1518 081e A84A     		ldr	r2, .L96
 1519 0820 BB6B     		ldr	r3, [r7, #56]
 1520 0822 C2F89430 		str	r3, [r2, #148]
 533:build/openmote-cc2538_armgcc/openstack/03b-IPv6/icmpv6rpl.c **** 
 534:build/openmote-cc2538_armgcc/openstack/03b-IPv6/icmpv6rpl.c ****        icmpv6rpl_vars.incomingConf->maxRankIncrease    = (icmpv6rpl_vars.incomingConf->maxRankIncre
 1521              		.loc 1 534 0
 1522 0826 A64B     		ldr	r3, .L96
 1523 0828 D3F89430 		ldr	r3, [r3, #148]
 1524 082c A44A     		ldr	r2, .L96
 1525 082e D2F89420 		ldr	r2, [r2, #148]
 1526 0832 D288     		ldrh	r2, [r2, #6]	@ unaligned
 1527 0834 92B2     		uxth	r2, r2
 1528 0836 1202     		lsls	r2, r2, #8
 1529 0838 91B2     		uxth	r1, r2
 1530 083a A14A     		ldr	r2, .L96
 1531 083c D2F89420 		ldr	r2, [r2, #148]
 1532 0840 D288     		ldrh	r2, [r2, #6]	@ unaligned
 1533 0842 92B2     		uxth	r2, r2
 1534 0844 120A     		lsrs	r2, r2, #8
 1535 0846 92B2     		uxth	r2, r2
 1536 0848 92B2     		uxth	r2, r2
 1537 084a 0A43     		orrs	r2, r2, r1
 1538 084c 92B2     		uxth	r2, r2
 1539 084e 92B2     		uxth	r2, r2
 1540 0850 DA80     		strh	r2, [r3, #6]	@ unaligned
 535:build/openmote-cc2538_armgcc/openstack/03b-IPv6/icmpv6rpl.c ****        icmpv6rpl_vars.incomingConf->minHopRankIncrease = (icmpv6rpl_vars.incomingConf->minHopRankIn
 1541              		.loc 1 535 0
 1542 0852 9B4B     		ldr	r3, .L96
 1543 0854 D3F89430 		ldr	r3, [r3, #148]
 1544 0858 994A     		ldr	r2, .L96
 1545 085a D2F89420 		ldr	r2, [r2, #148]
 1546 085e 1289     		ldrh	r2, [r2, #8]	@ unaligned
 1547 0860 92B2     		uxth	r2, r2
 1548 0862 1202     		lsls	r2, r2, #8
 1549 0864 91B2     		uxth	r1, r2
 1550 0866 964A     		ldr	r2, .L96
 1551 0868 D2F89420 		ldr	r2, [r2, #148]
 1552 086c 1289     		ldrh	r2, [r2, #8]	@ unaligned
 1553 086e 92B2     		uxth	r2, r2
 1554 0870 120A     		lsrs	r2, r2, #8
 1555 0872 92B2     		uxth	r2, r2
 1556 0874 92B2     		uxth	r2, r2
 1557 0876 0A43     		orrs	r2, r2, r1
 1558 0878 92B2     		uxth	r2, r2
 1559 087a 92B2     		uxth	r2, r2
 1560 087c 1A81     		strh	r2, [r3, #8]	@ unaligned
 536:build/openmote-cc2538_armgcc/openstack/03b-IPv6/icmpv6rpl.c ****        icmpv6rpl_vars.incomingConf->OCP                = (icmpv6rpl_vars.incomingConf->OCP << 8)   
 1561              		.loc 1 536 0
 1562 087e 904B     		ldr	r3, .L96
 1563 0880 D3F89430 		ldr	r3, [r3, #148]
 1564 0884 8E4A     		ldr	r2, .L96
 1565 0886 D2F89420 		ldr	r2, [r2, #148]
 1566 088a 5289     		ldrh	r2, [r2, #10]	@ unaligned
 1567 088c 92B2     		uxth	r2, r2
 1568 088e 1202     		lsls	r2, r2, #8
 1569 0890 91B2     		uxth	r1, r2
 1570 0892 8B4A     		ldr	r2, .L96
 1571 0894 D2F89420 		ldr	r2, [r2, #148]
 1572 0898 5289     		ldrh	r2, [r2, #10]	@ unaligned
 1573 089a 92B2     		uxth	r2, r2
 1574 089c 120A     		lsrs	r2, r2, #8
 1575 089e 92B2     		uxth	r2, r2
 1576 08a0 92B2     		uxth	r2, r2
 1577 08a2 0A43     		orrs	r2, r2, r1
 1578 08a4 92B2     		uxth	r2, r2
 1579 08a6 92B2     		uxth	r2, r2
 1580 08a8 5A81     		strh	r2, [r3, #10]	@ unaligned
 537:build/openmote-cc2538_armgcc/openstack/03b-IPv6/icmpv6rpl.c ****        icmpv6rpl_vars.incomingConf->lifetimeUnit       = (icmpv6rpl_vars.incomingConf->lifetimeUnit
 1581              		.loc 1 537 0
 1582 08aa 854B     		ldr	r3, .L96
 1583 08ac D3F89430 		ldr	r3, [r3, #148]
 1584 08b0 834A     		ldr	r2, .L96
 1585 08b2 D2F89420 		ldr	r2, [r2, #148]
 1586 08b6 D289     		ldrh	r2, [r2, #14]	@ unaligned
 1587 08b8 92B2     		uxth	r2, r2
 1588 08ba 1202     		lsls	r2, r2, #8
 1589 08bc 91B2     		uxth	r1, r2
 1590 08be 804A     		ldr	r2, .L96
 1591 08c0 D2F89420 		ldr	r2, [r2, #148]
 1592 08c4 D289     		ldrh	r2, [r2, #14]	@ unaligned
 1593 08c6 92B2     		uxth	r2, r2
 1594 08c8 120A     		lsrs	r2, r2, #8
 1595 08ca 92B2     		uxth	r2, r2
 1596 08cc 92B2     		uxth	r2, r2
 1597 08ce 0A43     		orrs	r2, r2, r1
 1598 08d0 92B2     		uxth	r2, r2
 1599 08d2 92B2     		uxth	r2, r2
 1600 08d4 DA81     		strh	r2, [r3, #14]	@ unaligned
 538:build/openmote-cc2538_armgcc/openstack/03b-IPv6/icmpv6rpl.c **** 
 539:build/openmote-cc2538_armgcc/openstack/03b-IPv6/icmpv6rpl.c ****        memcpy(&icmpv6rpl_vars.conf,icmpv6rpl_vars.incomingConf, sizeof(icmpv6rpl_config_ht));
 1601              		.loc 1 539 0
 1602 08d6 7A4B     		ldr	r3, .L96
 1603 08d8 D3F89420 		ldr	r2, [r3, #148]
 1604 08dc 784B     		ldr	r3, .L96
 1605 08de 3B33     		adds	r3, r3, #59
 1606 08e0 1468     		ldr	r4, [r2]	@ unaligned
 1607 08e2 5068     		ldr	r0, [r2, #4]	@ unaligned
 1608 08e4 9168     		ldr	r1, [r2, #8]	@ unaligned
 1609 08e6 D268     		ldr	r2, [r2, #12]	@ unaligned
 1610 08e8 1C60     		str	r4, [r3]	@ unaligned
 1611 08ea 5860     		str	r0, [r3, #4]	@ unaligned
 1612 08ec 9960     		str	r1, [r3, #8]	@ unaligned
 1613 08ee DA60     		str	r2, [r3, #12]	@ unaligned
 540:build/openmote-cc2538_armgcc/openstack/03b-IPv6/icmpv6rpl.c **** 
 541:build/openmote-cc2538_armgcc/openstack/03b-IPv6/icmpv6rpl.c ****        // do whatever needs to be done with the configuration option of RPL
 542:build/openmote-cc2538_armgcc/openstack/03b-IPv6/icmpv6rpl.c ****        optionsLen = optionsLen - current[1] - 2;
 1614              		.loc 1 542 0
 1615 08f0 BB6B     		ldr	r3, [r7, #56]
 1616 08f2 0133     		adds	r3, r3, #1
 1617 08f4 1B78     		ldrb	r3, [r3]	@ zero_extendqisi2
 1618 08f6 97F83720 		ldrb	r2, [r7, #55]
 1619 08fa D31A     		subs	r3, r2, r3
 1620 08fc DBB2     		uxtb	r3, r3
 1621 08fe 023B     		subs	r3, r3, #2
 1622 0900 87F83730 		strb	r3, [r7, #55]
 543:build/openmote-cc2538_armgcc/openstack/03b-IPv6/icmpv6rpl.c ****        current = current + current[1] + 2;
 1623              		.loc 1 543 0
 1624 0904 BB6B     		ldr	r3, [r7, #56]
 1625 0906 0133     		adds	r3, r3, #1
 1626 0908 1B78     		ldrb	r3, [r3]	@ zero_extendqisi2
 1627 090a 0233     		adds	r3, r3, #2
 1628 090c BA6B     		ldr	r2, [r7, #56]
 1629 090e 1344     		add	r3, r3, r2
 1630 0910 BB63     		str	r3, [r7, #56]
 544:build/openmote-cc2538_armgcc/openstack/03b-IPv6/icmpv6rpl.c ****        break;
 1631              		.loc 1 544 0
 1632 0912 4DE0     		b	.L84
 1633              	.L87:
 545:build/openmote-cc2538_armgcc/openstack/03b-IPv6/icmpv6rpl.c ****      case RPL_OPTION_PIO:
 546:build/openmote-cc2538_armgcc/openstack/03b-IPv6/icmpv6rpl.c ****        // pio
 547:build/openmote-cc2538_armgcc/openstack/03b-IPv6/icmpv6rpl.c ****         icmpv6rpl_vars.incomingPio = (icmpv6rpl_pio_t*)(current);
 1634              		.loc 1 547 0
 1635 0914 6A4A     		ldr	r2, .L96
 1636 0916 BB6B     		ldr	r3, [r7, #56]
 1637 0918 C2F89030 		str	r3, [r2, #144]
 548:build/openmote-cc2538_armgcc/openstack/03b-IPv6/icmpv6rpl.c ****         // update PIO with the received one.
 549:build/openmote-cc2538_armgcc/openstack/03b-IPv6/icmpv6rpl.c ****         memcpy(&icmpv6rpl_vars.pio,icmpv6rpl_vars.incomingPio, sizeof(icmpv6rpl_pio_t));
 1638              		.loc 1 549 0
 1639 091c 684B     		ldr	r3, .L96
 1640 091e D3F89020 		ldr	r2, [r3, #144]
 1641 0922 674B     		ldr	r3, .L96
 1642 0924 1B33     		adds	r3, r3, #27
 1643 0926 1568     		ldr	r5, [r2]	@ unaligned
 1644 0928 5468     		ldr	r4, [r2, #4]	@ unaligned
 1645 092a 9068     		ldr	r0, [r2, #8]	@ unaligned
 1646 092c D168     		ldr	r1, [r2, #12]	@ unaligned
 1647 092e 1D60     		str	r5, [r3]	@ unaligned
 1648 0930 5C60     		str	r4, [r3, #4]	@ unaligned
 1649 0932 9860     		str	r0, [r3, #8]	@ unaligned
 1650 0934 D960     		str	r1, [r3, #12]	@ unaligned
 1651 0936 1569     		ldr	r5, [r2, #16]	@ unaligned
 1652 0938 5469     		ldr	r4, [r2, #20]	@ unaligned
 1653 093a 9069     		ldr	r0, [r2, #24]	@ unaligned
 1654 093c D169     		ldr	r1, [r2, #28]	@ unaligned
 1655 093e 1D61     		str	r5, [r3, #16]	@ unaligned
 1656 0940 5C61     		str	r4, [r3, #20]	@ unaligned
 1657 0942 9861     		str	r0, [r3, #24]	@ unaligned
 1658 0944 D961     		str	r1, [r3, #28]	@ unaligned
 550:build/openmote-cc2538_armgcc/openstack/03b-IPv6/icmpv6rpl.c ****         // update my prefix from PIO
 551:build/openmote-cc2538_armgcc/openstack/03b-IPv6/icmpv6rpl.c ****         // looks like we adopt the prefix from any PIO without a question about this node being our
 552:build/openmote-cc2538_armgcc/openstack/03b-IPv6/icmpv6rpl.c ****         myPrefix.type = ADDR_PREFIX;
 1659              		.loc 1 552 0
 1660 0946 0523     		movs	r3, #5
 1661 0948 3B73     		strb	r3, [r7, #12]
 553:build/openmote-cc2538_armgcc/openstack/03b-IPv6/icmpv6rpl.c ****         memcpy(
 554:build/openmote-cc2538_armgcc/openstack/03b-IPv6/icmpv6rpl.c ****           myPrefix.prefix,
 555:build/openmote-cc2538_armgcc/openstack/03b-IPv6/icmpv6rpl.c ****           icmpv6rpl_vars.incomingPio->prefix,
 1662              		.loc 1 555 0
 1663 094a 5D4B     		ldr	r3, .L96
 1664 094c D3F89020 		ldr	r2, [r3, #144]
 553:build/openmote-cc2538_armgcc/openstack/03b-IPv6/icmpv6rpl.c ****         memcpy(
 1665              		.loc 1 553 0
 1666 0950 07F10D03 		add	r3, r7, #13
 1667 0954 1032     		adds	r2, r2, #16
 1668 0956 1168     		ldr	r1, [r2]	@ unaligned
 1669 0958 5268     		ldr	r2, [r2, #4]	@ unaligned
 1670 095a 1960     		str	r1, [r3]	@ unaligned
 1671 095c 5A60     		str	r2, [r3, #4]	@ unaligned
 556:build/openmote-cc2538_armgcc/openstack/03b-IPv6/icmpv6rpl.c ****           sizeof(myPrefix.prefix)
 557:build/openmote-cc2538_armgcc/openstack/03b-IPv6/icmpv6rpl.c ****         );
 558:build/openmote-cc2538_armgcc/openstack/03b-IPv6/icmpv6rpl.c ****         idmanager_setMyID(&myPrefix);
 1672              		.loc 1 558 0
 1673 095e 07F10C03 		add	r3, r7, #12
 1674 0962 1846     		mov	r0, r3
 1675 0964 FFF7FEFF 		bl	idmanager_setMyID
 559:build/openmote-cc2538_armgcc/openstack/03b-IPv6/icmpv6rpl.c ****         optionsLen = optionsLen - current[1] - 2;
 1676              		.loc 1 559 0
 1677 0968 BB6B     		ldr	r3, [r7, #56]
 1678 096a 0133     		adds	r3, r3, #1
 1679 096c 1B78     		ldrb	r3, [r3]	@ zero_extendqisi2
 1680 096e 97F83720 		ldrb	r2, [r7, #55]
 1681 0972 D31A     		subs	r3, r2, r3
 1682 0974 DBB2     		uxtb	r3, r3
 1683 0976 023B     		subs	r3, r3, #2
 1684 0978 87F83730 		strb	r3, [r7, #55]
 560:build/openmote-cc2538_armgcc/openstack/03b-IPv6/icmpv6rpl.c ****         current = current + current[1] + 2;
 1685              		.loc 1 560 0
 1686 097c BB6B     		ldr	r3, [r7, #56]
 1687 097e 0133     		adds	r3, r3, #1
 1688 0980 1B78     		ldrb	r3, [r3]	@ zero_extendqisi2
 1689 0982 0233     		adds	r3, r3, #2
 1690 0984 BA6B     		ldr	r2, [r7, #56]
 1691 0986 1344     		add	r3, r3, r2
 1692 0988 BB63     		str	r3, [r7, #56]
 561:build/openmote-cc2538_armgcc/openstack/03b-IPv6/icmpv6rpl.c ****        break;
 1693              		.loc 1 561 0
 1694 098a 11E0     		b	.L84
 1695              	.L95:
 562:build/openmote-cc2538_armgcc/openstack/03b-IPv6/icmpv6rpl.c ****      default:
 563:build/openmote-cc2538_armgcc/openstack/03b-IPv6/icmpv6rpl.c ****        //option not supported, just jump the len;
 564:build/openmote-cc2538_armgcc/openstack/03b-IPv6/icmpv6rpl.c ****        optionsLen = optionsLen - current[1] - 2;
 1696              		.loc 1 564 0
 1697 098c BB6B     		ldr	r3, [r7, #56]
 1698 098e 0133     		adds	r3, r3, #1
 1699 0990 1B78     		ldrb	r3, [r3]	@ zero_extendqisi2
 1700 0992 97F83720 		ldrb	r2, [r7, #55]
 1701 0996 D31A     		subs	r3, r2, r3
 1702 0998 DBB2     		uxtb	r3, r3
 1703 099a 023B     		subs	r3, r3, #2
 1704 099c 87F83730 		strb	r3, [r7, #55]
 565:build/openmote-cc2538_armgcc/openstack/03b-IPv6/icmpv6rpl.c ****        current = current + current[1] + 2;
 1705              		.loc 1 565 0
 1706 09a0 BB6B     		ldr	r3, [r7, #56]
 1707 09a2 0133     		adds	r3, r3, #1
 1708 09a4 1B78     		ldrb	r3, [r3]	@ zero_extendqisi2
 1709 09a6 0233     		adds	r3, r3, #2
 1710 09a8 BA6B     		ldr	r2, [r7, #56]
 1711 09aa 1344     		add	r3, r3, r2
 1712 09ac BB63     		str	r3, [r7, #56]
 566:build/openmote-cc2538_armgcc/openstack/03b-IPv6/icmpv6rpl.c ****        break;
 1713              		.loc 1 566 0
 1714 09ae 00BF     		nop
 1715              	.L84:
 528:build/openmote-cc2538_armgcc/openstack/03b-IPv6/icmpv6rpl.c ****      switch (current[0]){
 1716              		.loc 1 528 0
 1717 09b0 97F83730 		ldrb	r3, [r7, #55]	@ zero_extendqisi2
 1718 09b4 002B     		cmp	r3, #0
 1719 09b6 7FF42BAF 		bne	.L88
 567:build/openmote-cc2538_armgcc/openstack/03b-IPv6/icmpv6rpl.c ****      }
 568:build/openmote-cc2538_armgcc/openstack/03b-IPv6/icmpv6rpl.c ****    }
 569:build/openmote-cc2538_armgcc/openstack/03b-IPv6/icmpv6rpl.c **** 
 570:build/openmote-cc2538_armgcc/openstack/03b-IPv6/icmpv6rpl.c ****    // quick fix: rank is two bytes in network order: need to swap bytes
 571:build/openmote-cc2538_armgcc/openstack/03b-IPv6/icmpv6rpl.c ****    temp_8b            = *(msg->payload+2);
 1720              		.loc 1 571 0
 1721 09ba 7B68     		ldr	r3, [r7, #4]
 1722 09bc 5B68     		ldr	r3, [r3, #4]
 1723 09be 9B78     		ldrb	r3, [r3, #2]
 1724 09c0 87F83630 		strb	r3, [r7, #54]
 572:build/openmote-cc2538_armgcc/openstack/03b-IPv6/icmpv6rpl.c ****    icmpv6rpl_vars.incomingDio->rank = (temp_8b << 8) + *(msg->payload+3);
 1725              		.loc 1 572 0
 1726 09c4 3E4B     		ldr	r3, .L96
 1727 09c6 D3F88C30 		ldr	r3, [r3, #140]
 1728 09ca 97F83620 		ldrb	r2, [r7, #54]	@ zero_extendqisi2
 1729 09ce 92B2     		uxth	r2, r2
 1730 09d0 1202     		lsls	r2, r2, #8
 1731 09d2 91B2     		uxth	r1, r2
 1732 09d4 7A68     		ldr	r2, [r7, #4]
 1733 09d6 5268     		ldr	r2, [r2, #4]
 1734 09d8 0332     		adds	r2, r2, #3
 1735 09da 1278     		ldrb	r2, [r2]	@ zero_extendqisi2
 1736 09dc 92B2     		uxth	r2, r2
 1737 09de 0A44     		add	r2, r2, r1
 1738 09e0 92B2     		uxth	r2, r2
 1739 09e2 5A80     		strh	r2, [r3, #2]	@ unaligned
 573:build/openmote-cc2538_armgcc/openstack/03b-IPv6/icmpv6rpl.c **** 
 574:build/openmote-cc2538_armgcc/openstack/03b-IPv6/icmpv6rpl.c ****    //update rank in DIO as well (which will be overwritten with my rank when send).
 575:build/openmote-cc2538_armgcc/openstack/03b-IPv6/icmpv6rpl.c ****    icmpv6rpl_vars.dio.rank = icmpv6rpl_vars.incomingDio->rank;
 1740              		.loc 1 575 0
 1741 09e4 364B     		ldr	r3, .L96
 1742 09e6 D3F88C30 		ldr	r3, [r3, #140]
 1743 09ea 5B88     		ldrh	r3, [r3, #2]	@ unaligned
 1744 09ec 9AB2     		uxth	r2, r3
 1745 09ee 344B     		ldr	r3, .L96
 1746 09f0 A3F80520 		strh	r2, [r3, #5]	@ unaligned
 576:build/openmote-cc2538_armgcc/openstack/03b-IPv6/icmpv6rpl.c **** 
 577:build/openmote-cc2538_armgcc/openstack/03b-IPv6/icmpv6rpl.c ****    // update rank of that neighbor in table
 578:build/openmote-cc2538_armgcc/openstack/03b-IPv6/icmpv6rpl.c ****    for (i=0;i<MAXNUMNEIGHBORS;i++) {
 1747              		.loc 1 578 0
 1748 09f4 0023     		movs	r3, #0
 1749 09f6 87F83F30 		strb	r3, [r7, #63]
 1750 09fa 59E0     		b	.L89
 1751              	.L94:
 579:build/openmote-cc2538_armgcc/openstack/03b-IPv6/icmpv6rpl.c ****       if (neighbors_getNeighborEui64(&NeighborAddress, ADDR_64B, i)) { // this neighbor entry is in
 1752              		.loc 1 579 0
 1753 09fc 07F12002 		add	r2, r7, #32
 1754 0a00 97F83F30 		ldrb	r3, [r7, #63]	@ zero_extendqisi2
 1755 0a04 1046     		mov	r0, r2
 1756 0a06 0221     		movs	r1, #2
 1757 0a08 1A46     		mov	r2, r3
 1758 0a0a FFF7FEFF 		bl	neighbors_getNeighborEui64
 1759 0a0e 0346     		mov	r3, r0
 1760 0a10 002B     		cmp	r3, #0
 1761 0a12 48D0     		beq	.L90
 580:build/openmote-cc2538_armgcc/openstack/03b-IPv6/icmpv6rpl.c ****          if (packetfunctions_sameAddress(&(msg->l2_nextORpreviousHop),&NeighborAddress)) { // match
 1762              		.loc 1 580 0
 1763 0a14 7B68     		ldr	r3, [r7, #4]
 1764 0a16 03F13C02 		add	r2, r3, #60
 1765 0a1a 07F12003 		add	r3, r7, #32
 1766 0a1e 1046     		mov	r0, r2
 1767 0a20 1946     		mov	r1, r3
 1768 0a22 FFF7FEFF 		bl	packetfunctions_sameAddress
 1769 0a26 0346     		mov	r3, r0
 1770 0a28 002B     		cmp	r3, #0
 1771 0a2a 3CD0     		beq	.L90
 581:build/openmote-cc2538_armgcc/openstack/03b-IPv6/icmpv6rpl.c ****             neighborRank=neighbors_getNeighborRank(i);
 1772              		.loc 1 581 0
 1773 0a2c 97F83F30 		ldrb	r3, [r7, #63]	@ zero_extendqisi2
 1774 0a30 1846     		mov	r0, r3
 1775 0a32 FFF7FEFF 		bl	neighbors_getNeighborRank
 1776 0a36 0346     		mov	r3, r0
 1777 0a38 BB86     		strh	r3, [r7, #52]	@ movhi
 582:build/openmote-cc2538_armgcc/openstack/03b-IPv6/icmpv6rpl.c ****             if (
 583:build/openmote-cc2538_armgcc/openstack/03b-IPv6/icmpv6rpl.c ****               (icmpv6rpl_vars.incomingDio->rank > neighborRank) &&
 1778              		.loc 1 583 0
 1779 0a3a 214B     		ldr	r3, .L96
 1780 0a3c D3F88C30 		ldr	r3, [r3, #140]
 1781 0a40 5B88     		ldrh	r3, [r3, #2]	@ unaligned
 1782 0a42 9BB2     		uxth	r3, r3
 582:build/openmote-cc2538_armgcc/openstack/03b-IPv6/icmpv6rpl.c ****             if (
 1783              		.loc 1 582 0
 1784 0a44 BA8E     		ldrh	r2, [r7, #52]
 1785 0a46 9A42     		cmp	r2, r3
 1786 0a48 1FD2     		bcs	.L91
 584:build/openmote-cc2538_armgcc/openstack/03b-IPv6/icmpv6rpl.c ****               (icmpv6rpl_vars.incomingDio->rank - neighborRank) > ((3*DEFAULTLINKCOST-2)*MINHOPRANK
 1787              		.loc 1 584 0
 1788 0a4a 1D4B     		ldr	r3, .L96
 1789 0a4c D3F88C30 		ldr	r3, [r3, #140]
 1790 0a50 5B88     		ldrh	r3, [r3, #2]	@ unaligned
 1791 0a52 9BB2     		uxth	r3, r3
 1792 0a54 1A46     		mov	r2, r3
 1793 0a56 BB8E     		ldrh	r3, [r7, #52]
 1794 0a58 D31A     		subs	r3, r2, r3
 583:build/openmote-cc2538_armgcc/openstack/03b-IPv6/icmpv6rpl.c ****               (icmpv6rpl_vars.incomingDio->rank - neighborRank) > ((3*DEFAULTLINKCOST-2)*MINHOPRANK
 1795              		.loc 1 583 0
 1796 0a5a B3F5206F 		cmp	r3, #2560
 1797 0a5e 14DD     		ble	.L91
 585:build/openmote-cc2538_armgcc/openstack/03b-IPv6/icmpv6rpl.c ****             ) {
 586:build/openmote-cc2538_armgcc/openstack/03b-IPv6/icmpv6rpl.c ****                // the new DAGrank looks suspiciously high, only increment a bit
 587:build/openmote-cc2538_armgcc/openstack/03b-IPv6/icmpv6rpl.c ****                neighbors_setNeighborRank(i,neighborRank + ((3*DEFAULTLINKCOST-2)*2*MINHOPRANKINCREA
 1798              		.loc 1 587 0
 1799 0a60 BB8E     		ldrh	r3, [r7, #52]	@ movhi
 1800 0a62 03F5A053 		add	r3, r3, #5120
 1801 0a66 9BB2     		uxth	r3, r3
 1802 0a68 97F83F20 		ldrb	r2, [r7, #63]	@ zero_extendqisi2
 1803 0a6c 1046     		mov	r0, r2
 1804 0a6e 1946     		mov	r1, r3
 1805 0a70 FFF7FEFF 		bl	neighbors_setNeighborRank
 588:build/openmote-cc2538_armgcc/openstack/03b-IPv6/icmpv6rpl.c ****                openserial_printError(COMPONENT_NEIGHBORS,ERR_LARGE_DAGRANK,
 589:build/openmote-cc2538_armgcc/openstack/03b-IPv6/icmpv6rpl.c ****                                (errorparameter_t)icmpv6rpl_vars.incomingDio->rank,
 1806              		.loc 1 589 0
 1807 0a74 124B     		ldr	r3, .L96
 1808 0a76 D3F88C30 		ldr	r3, [r3, #140]
 588:build/openmote-cc2538_armgcc/openstack/03b-IPv6/icmpv6rpl.c ****                openserial_printError(COMPONENT_NEIGHBORS,ERR_LARGE_DAGRANK,
 1809              		.loc 1 588 0
 1810 0a7a 5B88     		ldrh	r3, [r3, #2]	@ unaligned
 1811 0a7c 9AB2     		uxth	r2, r3
 1812 0a7e BB8E     		ldrh	r3, [r7, #52]
 1813 0a80 0D20     		movs	r0, #13
 1814 0a82 1021     		movs	r1, #16
 1815 0a84 FFF7FEFF 		bl	openserial_printError
 1816 0a88 0AE0     		b	.L92
 1817              	.L91:
 590:build/openmote-cc2538_armgcc/openstack/03b-IPv6/icmpv6rpl.c ****                                (errorparameter_t)neighborRank);
 591:build/openmote-cc2538_armgcc/openstack/03b-IPv6/icmpv6rpl.c ****             } else {
 592:build/openmote-cc2538_armgcc/openstack/03b-IPv6/icmpv6rpl.c ****                neighbors_setNeighborRank(i,icmpv6rpl_vars.incomingDio->rank);
 1818              		.loc 1 592 0
 1819 0a8a 0D4B     		ldr	r3, .L96
 1820 0a8c D3F88C30 		ldr	r3, [r3, #140]
 1821 0a90 5B88     		ldrh	r3, [r3, #2]	@ unaligned
 1822 0a92 9BB2     		uxth	r3, r3
 1823 0a94 97F83F20 		ldrb	r2, [r7, #63]	@ zero_extendqisi2
 1824 0a98 1046     		mov	r0, r2
 1825 0a9a 1946     		mov	r1, r3
 1826 0a9c FFF7FEFF 		bl	neighbors_setNeighborRank
 1827              	.L92:
 593:build/openmote-cc2538_armgcc/openstack/03b-IPv6/icmpv6rpl.c ****             }
 594:build/openmote-cc2538_armgcc/openstack/03b-IPv6/icmpv6rpl.c ****             // since changes were made to neighbors DAG rank, run the routing algorithm again
 595:build/openmote-cc2538_armgcc/openstack/03b-IPv6/icmpv6rpl.c ****             icmpv6rpl_updateMyDAGrankAndParentSelection();
 1828              		.loc 1 595 0
 1829 0aa0 FFF7FEFF 		bl	icmpv6rpl_updateMyDAGrankAndParentSelection
 596:build/openmote-cc2538_armgcc/openstack/03b-IPv6/icmpv6rpl.c ****             break; // there should be only one matching entry, no need to loop further
 1830              		.loc 1 596 0
 1831 0aa4 08E0     		b	.L83
 1832              	.L90:
 578:build/openmote-cc2538_armgcc/openstack/03b-IPv6/icmpv6rpl.c ****       if (neighbors_getNeighborEui64(&NeighborAddress, ADDR_64B, i)) { // this neighbor entry is in
 1833              		.loc 1 578 0 discriminator 2
 1834 0aa6 97F83F30 		ldrb	r3, [r7, #63]	@ zero_extendqisi2
 1835 0aaa 0133     		adds	r3, r3, #1
 1836 0aac 87F83F30 		strb	r3, [r7, #63]
 1837              	.L89:
 578:build/openmote-cc2538_armgcc/openstack/03b-IPv6/icmpv6rpl.c ****       if (neighbors_getNeighborEui64(&NeighborAddress, ADDR_64B, i)) { // this neighbor entry is in
 1838              		.loc 1 578 0 is_stmt 0 discriminator 1
 1839 0ab0 97F83F30 		ldrb	r3, [r7, #63]	@ zero_extendqisi2
 1840 0ab4 1D2B     		cmp	r3, #29
 1841 0ab6 A1D9     		bls	.L94
 1842              	.L83:
 597:build/openmote-cc2538_armgcc/openstack/03b-IPv6/icmpv6rpl.c ****          }
 598:build/openmote-cc2538_armgcc/openstack/03b-IPv6/icmpv6rpl.c ****       }
 599:build/openmote-cc2538_armgcc/openstack/03b-IPv6/icmpv6rpl.c ****    }
 600:build/openmote-cc2538_armgcc/openstack/03b-IPv6/icmpv6rpl.c **** }
 1843              		.loc 1 600 0 is_stmt 1
 1844 0ab8 4037     		adds	r7, r7, #64
 1845              		.cfi_def_cfa_offset 16
 1846 0aba BD46     		mov	sp, r7
 1847              		.cfi_def_cfa_register 13
 1848              		@ sp needed
 1849 0abc B0BD     		pop	{r4, r5, r7, pc}
 1850              	.L97:
 1851 0abe 00BF     		.align	2
 1852              	.L96:
 1853 0ac0 00000000 		.word	icmpv6rpl_vars
 1854              		.cfi_endproc
 1855              	.LFE12:
 1857              		.align	2
 1858              		.global	icmpv6rpl_killPreferredParent
 1859              		.thumb
 1860              		.thumb_func
 1862              	icmpv6rpl_killPreferredParent:
 1863              	.LFB13:
 601:build/openmote-cc2538_armgcc/openstack/03b-IPv6/icmpv6rpl.c **** 
 602:build/openmote-cc2538_armgcc/openstack/03b-IPv6/icmpv6rpl.c **** void icmpv6rpl_killPreferredParent(void) {
 1864              		.loc 1 602 0
 1865              		.cfi_startproc
 1866              		@ args = 0, pretend = 0, frame = 0
 1867              		@ frame_needed = 1, uses_anonymous_args = 0
 1868 0ac4 80B5     		push	{r7, lr}
 1869              		.cfi_def_cfa_offset 8
 1870              		.cfi_offset 7, -8
 1871              		.cfi_offset 14, -4
 1872 0ac6 00AF     		add	r7, sp, #0
 1873              		.cfi_def_cfa_register 7
 603:build/openmote-cc2538_armgcc/openstack/03b-IPv6/icmpv6rpl.c ****     icmpv6rpl_vars.haveParent=FALSE;
 1874              		.loc 1 603 0
 1875 0ac8 0A4B     		ldr	r3, .L101
 1876 0aca 0022     		movs	r2, #0
 1877 0acc 83F88A20 		strb	r2, [r3, #138]
 604:build/openmote-cc2538_armgcc/openstack/03b-IPv6/icmpv6rpl.c ****     if (idmanager_getIsDAGroot()==TRUE) {
 1878              		.loc 1 604 0
 1879 0ad0 FFF7FEFF 		bl	idmanager_getIsDAGroot
 1880 0ad4 0346     		mov	r3, r0
 1881 0ad6 002B     		cmp	r3, #0
 1882 0ad8 05D0     		beq	.L99
 605:build/openmote-cc2538_armgcc/openstack/03b-IPv6/icmpv6rpl.c ****        icmpv6rpl_vars.myDAGrank=MINHOPRANKINCREASE;
 1883              		.loc 1 605 0
 1884 0ada 064B     		ldr	r3, .L101
 1885 0adc 4FF48072 		mov	r2, #256
 1886 0ae0 A3F88620 		strh	r2, [r3, #134]	@ movhi
 1887 0ae4 04E0     		b	.L98
 1888              	.L99:
 606:build/openmote-cc2538_armgcc/openstack/03b-IPv6/icmpv6rpl.c ****     } else {
 607:build/openmote-cc2538_armgcc/openstack/03b-IPv6/icmpv6rpl.c ****        icmpv6rpl_vars.myDAGrank=DEFAULTDAGRANK;
 1889              		.loc 1 607 0
 1890 0ae6 034B     		ldr	r3, .L101
 1891 0ae8 4FF6FF72 		movw	r2, #65535
 1892 0aec A3F88620 		strh	r2, [r3, #134]	@ movhi
 1893              	.L98:
 608:build/openmote-cc2538_armgcc/openstack/03b-IPv6/icmpv6rpl.c ****     }
 609:build/openmote-cc2538_armgcc/openstack/03b-IPv6/icmpv6rpl.c **** }
 1894              		.loc 1 609 0
 1895 0af0 80BD     		pop	{r7, pc}
 1896              	.L102:
 1897 0af2 00BF     		.align	2
 1898              	.L101:
 1899 0af4 00000000 		.word	icmpv6rpl_vars
 1900              		.cfi_endproc
 1901              	.LFE13:
 1903              		.align	2
 1904              		.global	icmpv6rpl_timer_DIO_cb
 1905              		.thumb
 1906              		.thumb_func
 1908              	icmpv6rpl_timer_DIO_cb:
 1909              	.LFB14:
 610:build/openmote-cc2538_armgcc/openstack/03b-IPv6/icmpv6rpl.c **** 
 611:build/openmote-cc2538_armgcc/openstack/03b-IPv6/icmpv6rpl.c **** //=========================== private =========================================
 612:build/openmote-cc2538_armgcc/openstack/03b-IPv6/icmpv6rpl.c **** 
 613:build/openmote-cc2538_armgcc/openstack/03b-IPv6/icmpv6rpl.c **** //===== DIO-related
 614:build/openmote-cc2538_armgcc/openstack/03b-IPv6/icmpv6rpl.c **** 
 615:build/openmote-cc2538_armgcc/openstack/03b-IPv6/icmpv6rpl.c **** /**
 616:build/openmote-cc2538_armgcc/openstack/03b-IPv6/icmpv6rpl.c **** \brief DIO timer callback function.
 617:build/openmote-cc2538_armgcc/openstack/03b-IPv6/icmpv6rpl.c **** 
 618:build/openmote-cc2538_armgcc/openstack/03b-IPv6/icmpv6rpl.c **** \note This function is executed in interrupt context, and should only push a
 619:build/openmote-cc2538_armgcc/openstack/03b-IPv6/icmpv6rpl.c ****    task.
 620:build/openmote-cc2538_armgcc/openstack/03b-IPv6/icmpv6rpl.c **** */
 621:build/openmote-cc2538_armgcc/openstack/03b-IPv6/icmpv6rpl.c **** void icmpv6rpl_timer_DIO_cb(opentimers_id_t id) {
 1910              		.loc 1 621 0
 1911              		.cfi_startproc
 1912              		@ args = 0, pretend = 0, frame = 8
 1913              		@ frame_needed = 1, uses_anonymous_args = 0
 1914 0af8 80B5     		push	{r7, lr}
 1915              		.cfi_def_cfa_offset 8
 1916              		.cfi_offset 7, -8
 1917              		.cfi_offset 14, -4
 1918 0afa 82B0     		sub	sp, sp, #8
 1919              		.cfi_def_cfa_offset 16
 1920 0afc 00AF     		add	r7, sp, #0
 1921              		.cfi_def_cfa_register 7
 1922 0afe 0346     		mov	r3, r0
 1923 0b00 FB71     		strb	r3, [r7, #7]
 622:build/openmote-cc2538_armgcc/openstack/03b-IPv6/icmpv6rpl.c ****     scheduler_push_task(icmpv6rpl_timer_DIO_task,TASKPRIO_RPL);
 1924              		.loc 1 622 0
 1925 0b02 0348     		ldr	r0, .L104
 1926 0b04 0421     		movs	r1, #4
 1927 0b06 FFF7FEFF 		bl	scheduler_push_task
 623:build/openmote-cc2538_armgcc/openstack/03b-IPv6/icmpv6rpl.c **** }
 1928              		.loc 1 623 0
 1929 0b0a 0837     		adds	r7, r7, #8
 1930              		.cfi_def_cfa_offset 8
 1931 0b0c BD46     		mov	sp, r7
 1932              		.cfi_def_cfa_register 13
 1933              		@ sp needed
 1934 0b0e 80BD     		pop	{r7, pc}
 1935              	.L105:
 1936              		.align	2
 1937              	.L104:
 1938 0b10 00000000 		.word	icmpv6rpl_timer_DIO_task
 1939              		.cfi_endproc
 1940              	.LFE14:
 1942              		.align	2
 1943              		.global	icmpv6rpl_timer_DIO_task
 1944              		.thumb
 1945              		.thumb_func
 1947              	icmpv6rpl_timer_DIO_task:
 1948              	.LFB15:
 624:build/openmote-cc2538_armgcc/openstack/03b-IPv6/icmpv6rpl.c **** 
 625:build/openmote-cc2538_armgcc/openstack/03b-IPv6/icmpv6rpl.c **** /**
 626:build/openmote-cc2538_armgcc/openstack/03b-IPv6/icmpv6rpl.c **** \brief Handler for DIO timer event.
 627:build/openmote-cc2538_armgcc/openstack/03b-IPv6/icmpv6rpl.c **** 
 628:build/openmote-cc2538_armgcc/openstack/03b-IPv6/icmpv6rpl.c **** \note This function is executed in task context, called by the scheduler.
 629:build/openmote-cc2538_armgcc/openstack/03b-IPv6/icmpv6rpl.c **** */
 630:build/openmote-cc2538_armgcc/openstack/03b-IPv6/icmpv6rpl.c **** void icmpv6rpl_timer_DIO_task(void) {
 1949              		.loc 1 630 0
 1950              		.cfi_startproc
 1951              		@ args = 0, pretend = 0, frame = 0
 1952              		@ frame_needed = 1, uses_anonymous_args = 0
 1953 0b14 98B5     		push	{r3, r4, r7, lr}
 1954              		.cfi_def_cfa_offset 16
 1955              		.cfi_offset 3, -16
 1956              		.cfi_offset 4, -12
 1957              		.cfi_offset 7, -8
 1958              		.cfi_offset 14, -4
 1959 0b16 00AF     		add	r7, sp, #0
 1960              		.cfi_def_cfa_register 7
 631:build/openmote-cc2538_armgcc/openstack/03b-IPv6/icmpv6rpl.c ****     // send DIOs on a portion of the minimal cells not exceeding 1/(3(N+1))
 632:build/openmote-cc2538_armgcc/openstack/03b-IPv6/icmpv6rpl.c ****     // https://tools.ietf.org/html/draft-chang-6tisch-msf-01#section-2
 633:build/openmote-cc2538_armgcc/openstack/03b-IPv6/icmpv6rpl.c ****     if(openrandom_get16b()<0xffff/(3*(neighbors_getNumNeighbors()+1))){
 1961              		.loc 1 633 0
 1962 0b18 FFF7FEFF 		bl	openrandom_get16b
 1963 0b1c 0346     		mov	r3, r0
 1964 0b1e 1C46     		mov	r4, r3
 1965 0b20 FFF7FEFF 		bl	neighbors_getNumNeighbors
 1966 0b24 0346     		mov	r3, r0
 1967 0b26 5A1C     		adds	r2, r3, #1
 1968 0b28 1346     		mov	r3, r2
 1969 0b2a 5B00     		lsls	r3, r3, #1
 1970 0b2c 1344     		add	r3, r3, r2
 1971 0b2e 4FF6FF72 		movw	r2, #65535
 1972 0b32 92FBF3F3 		sdiv	r3, r2, r3
 1973 0b36 9C42     		cmp	r4, r3
 1974 0b38 01DA     		bge	.L106
 634:build/openmote-cc2538_armgcc/openstack/03b-IPv6/icmpv6rpl.c ****         sendDIO();
 1975              		.loc 1 634 0
 1976 0b3a FFF7FEFF 		bl	sendDIO
 1977              	.L106:
 635:build/openmote-cc2538_armgcc/openstack/03b-IPv6/icmpv6rpl.c ****     }
 636:build/openmote-cc2538_armgcc/openstack/03b-IPv6/icmpv6rpl.c **** }
 1978              		.loc 1 636 0
 1979 0b3e 98BD     		pop	{r3, r4, r7, pc}
 1980              		.cfi_endproc
 1981              	.LFE15:
 1983              		.align	2
 1984              		.global	sendDIO
 1985              		.thumb
 1986              		.thumb_func
 1988              	sendDIO:
 1989              	.LFB16:
 637:build/openmote-cc2538_armgcc/openstack/03b-IPv6/icmpv6rpl.c **** 
 638:build/openmote-cc2538_armgcc/openstack/03b-IPv6/icmpv6rpl.c **** /**
 639:build/openmote-cc2538_armgcc/openstack/03b-IPv6/icmpv6rpl.c **** \brief Prepare and a send a RPL DIO.
 640:build/openmote-cc2538_armgcc/openstack/03b-IPv6/icmpv6rpl.c **** */
 641:build/openmote-cc2538_armgcc/openstack/03b-IPv6/icmpv6rpl.c **** void sendDIO(void) {
 1990              		.loc 1 641 0
 1991              		.cfi_startproc
 1992              		@ args = 0, pretend = 0, frame = 8
 1993              		@ frame_needed = 1, uses_anonymous_args = 0
 1994 0b40 B0B5     		push	{r4, r5, r7, lr}
 1995              		.cfi_def_cfa_offset 16
 1996              		.cfi_offset 4, -16
 1997              		.cfi_offset 5, -12
 1998              		.cfi_offset 7, -8
 1999              		.cfi_offset 14, -4
 2000 0b42 82B0     		sub	sp, sp, #8
 2001              		.cfi_def_cfa_offset 24
 2002 0b44 00AF     		add	r7, sp, #0
 2003              		.cfi_def_cfa_register 7
 642:build/openmote-cc2538_armgcc/openstack/03b-IPv6/icmpv6rpl.c ****     OpenQueueEntry_t*    msg;
 643:build/openmote-cc2538_armgcc/openstack/03b-IPv6/icmpv6rpl.c **** 
 644:build/openmote-cc2538_armgcc/openstack/03b-IPv6/icmpv6rpl.c ****     // stop if I'm not sync'ed
 645:build/openmote-cc2538_armgcc/openstack/03b-IPv6/icmpv6rpl.c ****     if (ieee154e_isSynch()==FALSE) {
 2004              		.loc 1 645 0
 2005 0b46 FFF7FEFF 		bl	ieee154e_isSynch
 2006 0b4a 0346     		mov	r3, r0
 2007 0b4c 83F00103 		eor	r3, r3, #1
 2008 0b50 DBB2     		uxtb	r3, r3
 2009 0b52 002B     		cmp	r3, #0
 2010 0b54 09D0     		beq	.L109
 646:build/openmote-cc2538_armgcc/openstack/03b-IPv6/icmpv6rpl.c **** 
 647:build/openmote-cc2538_armgcc/openstack/03b-IPv6/icmpv6rpl.c ****         // remove packets genereted by this module (DIO and DAO) from openqueue
 648:build/openmote-cc2538_armgcc/openstack/03b-IPv6/icmpv6rpl.c ****         openqueue_removeAllCreatedBy(COMPONENT_ICMPv6RPL);
 2011              		.loc 1 648 0
 2012 0b56 1620     		movs	r0, #22
 2013 0b58 FFF7FEFF 		bl	openqueue_removeAllCreatedBy
 649:build/openmote-cc2538_armgcc/openstack/03b-IPv6/icmpv6rpl.c **** 
 650:build/openmote-cc2538_armgcc/openstack/03b-IPv6/icmpv6rpl.c ****         // I'm not busy sending a DIO/DAO
 651:build/openmote-cc2538_armgcc/openstack/03b-IPv6/icmpv6rpl.c ****         icmpv6rpl_vars.busySendingDIO  = FALSE;
 2014              		.loc 1 651 0
 2015 0b5c 894B     		ldr	r3, .L115
 2016 0b5e 0022     		movs	r2, #0
 2017 0b60 1A70     		strb	r2, [r3]
 652:build/openmote-cc2538_armgcc/openstack/03b-IPv6/icmpv6rpl.c ****         icmpv6rpl_vars.busySendingDAO  = FALSE;
 2018              		.loc 1 652 0
 2019 0b62 884B     		ldr	r3, .L115
 2020 0b64 0022     		movs	r2, #0
 2021 0b66 5A70     		strb	r2, [r3, #1]
 653:build/openmote-cc2538_armgcc/openstack/03b-IPv6/icmpv6rpl.c **** 
 654:build/openmote-cc2538_armgcc/openstack/03b-IPv6/icmpv6rpl.c ****         // stop here
 655:build/openmote-cc2538_armgcc/openstack/03b-IPv6/icmpv6rpl.c ****         return;
 2022              		.loc 1 655 0
 2023 0b68 08E1     		b	.L108
 2024              	.L109:
 656:build/openmote-cc2538_armgcc/openstack/03b-IPv6/icmpv6rpl.c ****     }
 657:build/openmote-cc2538_armgcc/openstack/03b-IPv6/icmpv6rpl.c **** 
 658:build/openmote-cc2538_armgcc/openstack/03b-IPv6/icmpv6rpl.c ****     // do not send DIO if I have the default DAG rank
 659:build/openmote-cc2538_armgcc/openstack/03b-IPv6/icmpv6rpl.c ****     if (icmpv6rpl_getMyDAGrank()==DEFAULTDAGRANK) {
 2025              		.loc 1 659 0
 2026 0b6a FFF7FEFF 		bl	icmpv6rpl_getMyDAGrank
 2027 0b6e 0346     		mov	r3, r0
 2028 0b70 1A46     		mov	r2, r3
 2029 0b72 4FF6FF73 		movw	r3, #65535
 2030 0b76 9A42     		cmp	r2, r3
 2031 0b78 00D1     		bne	.L111
 660:build/openmote-cc2538_armgcc/openstack/03b-IPv6/icmpv6rpl.c ****       return;
 2032              		.loc 1 660 0
 2033 0b7a FFE0     		b	.L108
 2034              	.L111:
 661:build/openmote-cc2538_armgcc/openstack/03b-IPv6/icmpv6rpl.c ****     }
 662:build/openmote-cc2538_armgcc/openstack/03b-IPv6/icmpv6rpl.c **** 
 663:build/openmote-cc2538_armgcc/openstack/03b-IPv6/icmpv6rpl.c ****     // do not send DIO if I'm already busy sending
 664:build/openmote-cc2538_armgcc/openstack/03b-IPv6/icmpv6rpl.c ****     if (icmpv6rpl_vars.busySendingDIO==TRUE) {
 2035              		.loc 1 664 0
 2036 0b7c 814B     		ldr	r3, .L115
 2037 0b7e 1B78     		ldrb	r3, [r3]	@ zero_extendqisi2
 2038 0b80 002B     		cmp	r3, #0
 2039 0b82 00D0     		beq	.L112
 665:build/openmote-cc2538_armgcc/openstack/03b-IPv6/icmpv6rpl.c ****         return;
 2040              		.loc 1 665 0 discriminator 2
 2041 0b84 FAE0     		b	.L108
 2042              	.L112:
 666:build/openmote-cc2538_armgcc/openstack/03b-IPv6/icmpv6rpl.c ****     }
 667:build/openmote-cc2538_armgcc/openstack/03b-IPv6/icmpv6rpl.c **** 
 668:build/openmote-cc2538_armgcc/openstack/03b-IPv6/icmpv6rpl.c ****     // if you get here, all good to send a DIO
 669:build/openmote-cc2538_armgcc/openstack/03b-IPv6/icmpv6rpl.c **** 
 670:build/openmote-cc2538_armgcc/openstack/03b-IPv6/icmpv6rpl.c ****     // reserve a free packet buffer for DIO
 671:build/openmote-cc2538_armgcc/openstack/03b-IPv6/icmpv6rpl.c ****     msg = openqueue_getFreePacketBuffer(COMPONENT_ICMPv6RPL);
 2043              		.loc 1 671 0
 2044 0b86 1620     		movs	r0, #22
 2045 0b88 FFF7FEFF 		bl	openqueue_getFreePacketBuffer
 2046 0b8c 7860     		str	r0, [r7, #4]
 672:build/openmote-cc2538_armgcc/openstack/03b-IPv6/icmpv6rpl.c ****     if (msg==NULL) {
 2047              		.loc 1 672 0
 2048 0b8e 7B68     		ldr	r3, [r7, #4]
 2049 0b90 002B     		cmp	r3, #0
 2050 0b92 06D1     		bne	.L113
 673:build/openmote-cc2538_armgcc/openstack/03b-IPv6/icmpv6rpl.c ****         openserial_printError(COMPONENT_ICMPv6RPL,ERR_NO_FREE_PACKET_BUFFER,
 2051              		.loc 1 673 0
 2052 0b94 1620     		movs	r0, #22
 2053 0b96 2C21     		movs	r1, #44
 2054 0b98 0022     		movs	r2, #0
 2055 0b9a 0023     		movs	r3, #0
 2056 0b9c FFF7FEFF 		bl	openserial_printError
 674:build/openmote-cc2538_armgcc/openstack/03b-IPv6/icmpv6rpl.c ****                             (errorparameter_t)0,
 675:build/openmote-cc2538_armgcc/openstack/03b-IPv6/icmpv6rpl.c ****                             (errorparameter_t)0);
 676:build/openmote-cc2538_armgcc/openstack/03b-IPv6/icmpv6rpl.c **** 
 677:build/openmote-cc2538_armgcc/openstack/03b-IPv6/icmpv6rpl.c ****         return;
 2057              		.loc 1 677 0
 2058 0ba0 ECE0     		b	.L108
 2059              	.L113:
 678:build/openmote-cc2538_armgcc/openstack/03b-IPv6/icmpv6rpl.c ****     }
 679:build/openmote-cc2538_armgcc/openstack/03b-IPv6/icmpv6rpl.c **** 
 680:build/openmote-cc2538_armgcc/openstack/03b-IPv6/icmpv6rpl.c ****     // take ownership
 681:build/openmote-cc2538_armgcc/openstack/03b-IPv6/icmpv6rpl.c ****     msg->creator                             = COMPONENT_ICMPv6RPL;
 2060              		.loc 1 681 0
 2061 0ba2 7B68     		ldr	r3, [r7, #4]
 2062 0ba4 1622     		movs	r2, #22
 2063 0ba6 1A70     		strb	r2, [r3]
 682:build/openmote-cc2538_armgcc/openstack/03b-IPv6/icmpv6rpl.c ****     msg->owner                               = COMPONENT_ICMPv6RPL;
 2064              		.loc 1 682 0
 2065 0ba8 7B68     		ldr	r3, [r7, #4]
 2066 0baa 1622     		movs	r2, #22
 2067 0bac 5A70     		strb	r2, [r3, #1]
 683:build/openmote-cc2538_armgcc/openstack/03b-IPv6/icmpv6rpl.c **** 
 684:build/openmote-cc2538_armgcc/openstack/03b-IPv6/icmpv6rpl.c ****     // set transport information
 685:build/openmote-cc2538_armgcc/openstack/03b-IPv6/icmpv6rpl.c ****     msg->l4_protocol                         = IANA_ICMPv6;
 2068              		.loc 1 685 0
 2069 0bae 7B68     		ldr	r3, [r7, #4]
 2070 0bb0 3A22     		movs	r2, #58
 2071 0bb2 9A73     		strb	r2, [r3, #14]
 686:build/openmote-cc2538_armgcc/openstack/03b-IPv6/icmpv6rpl.c ****     msg->l4_protocol_compressed              = FALSE;
 2072              		.loc 1 686 0
 2073 0bb4 7B68     		ldr	r3, [r7, #4]
 2074 0bb6 0022     		movs	r2, #0
 2075 0bb8 DA73     		strb	r2, [r3, #15]
 687:build/openmote-cc2538_armgcc/openstack/03b-IPv6/icmpv6rpl.c ****     msg->l4_sourcePortORicmpv6Type           = IANA_ICMPv6_RPL;
 2076              		.loc 1 687 0
 2077 0bba 7B68     		ldr	r3, [r7, #4]
 2078 0bbc 9B22     		movs	r2, #155
 2079 0bbe 1A82     		strh	r2, [r3, #16]	@ movhi
 688:build/openmote-cc2538_armgcc/openstack/03b-IPv6/icmpv6rpl.c **** 
 689:build/openmote-cc2538_armgcc/openstack/03b-IPv6/icmpv6rpl.c ****     // set DIO destination
 690:build/openmote-cc2538_armgcc/openstack/03b-IPv6/icmpv6rpl.c ****     memcpy(&(msg->l3_destinationAdd),&icmpv6rpl_vars.dioDestination,sizeof(open_addr_t));
 2080              		.loc 1 690 0
 2081 0bc0 7B68     		ldr	r3, [r7, #4]
 2082 0bc2 03F11902 		add	r2, r3, #25
 2083 0bc6 6F4B     		ldr	r3, .L115
 2084 0bc8 4B33     		adds	r3, r3, #75
 2085 0bca 1D68     		ldr	r5, [r3]	@ unaligned
 2086 0bcc 5C68     		ldr	r4, [r3, #4]	@ unaligned
 2087 0bce 9868     		ldr	r0, [r3, #8]	@ unaligned
 2088 0bd0 D968     		ldr	r1, [r3, #12]	@ unaligned
 2089 0bd2 1560     		str	r5, [r2]	@ unaligned
 2090 0bd4 5460     		str	r4, [r2, #4]	@ unaligned
 2091 0bd6 9060     		str	r0, [r2, #8]	@ unaligned
 2092 0bd8 D160     		str	r1, [r2, #12]	@ unaligned
 2093 0bda 1B7C     		ldrb	r3, [r3, #16]
 2094 0bdc 1374     		strb	r3, [r2, #16]
 691:build/openmote-cc2538_armgcc/openstack/03b-IPv6/icmpv6rpl.c **** 
 692:build/openmote-cc2538_armgcc/openstack/03b-IPv6/icmpv6rpl.c ****     //===== Configuration option
 693:build/openmote-cc2538_armgcc/openstack/03b-IPv6/icmpv6rpl.c ****     packetfunctions_reserveHeaderSize(msg,sizeof(icmpv6rpl_config_ht));
 2095              		.loc 1 693 0
 2096 0bde 7868     		ldr	r0, [r7, #4]
 2097 0be0 1021     		movs	r1, #16
 2098 0be2 FFF7FEFF 		bl	packetfunctions_reserveHeaderSize
 694:build/openmote-cc2538_armgcc/openstack/03b-IPv6/icmpv6rpl.c **** 
 695:build/openmote-cc2538_armgcc/openstack/03b-IPv6/icmpv6rpl.c ****    //copy the PIO in the packet
 696:build/openmote-cc2538_armgcc/openstack/03b-IPv6/icmpv6rpl.c ****     memcpy(
 697:build/openmote-cc2538_armgcc/openstack/03b-IPv6/icmpv6rpl.c ****        ((icmpv6rpl_config_ht*)(msg->payload)),
 2099              		.loc 1 697 0
 2100 0be6 7B68     		ldr	r3, [r7, #4]
 2101 0be8 5A68     		ldr	r2, [r3, #4]
 696:build/openmote-cc2538_armgcc/openstack/03b-IPv6/icmpv6rpl.c ****        ((icmpv6rpl_config_ht*)(msg->payload)),
 2102              		.loc 1 696 0
 2103 0bea 664B     		ldr	r3, .L115
 2104 0bec 3B33     		adds	r3, r3, #59
 2105 0bee 1C68     		ldr	r4, [r3]	@ unaligned
 2106 0bf0 5868     		ldr	r0, [r3, #4]	@ unaligned
 2107 0bf2 9968     		ldr	r1, [r3, #8]	@ unaligned
 2108 0bf4 DB68     		ldr	r3, [r3, #12]	@ unaligned
 2109 0bf6 1460     		str	r4, [r2]	@ unaligned
 2110 0bf8 5060     		str	r0, [r2, #4]	@ unaligned
 2111 0bfa 9160     		str	r1, [r2, #8]	@ unaligned
 2112 0bfc D360     		str	r3, [r2, #12]	@ unaligned
 698:build/openmote-cc2538_armgcc/openstack/03b-IPv6/icmpv6rpl.c ****        &(icmpv6rpl_vars.conf),
 699:build/openmote-cc2538_armgcc/openstack/03b-IPv6/icmpv6rpl.c ****        sizeof(icmpv6rpl_config_ht)
 700:build/openmote-cc2538_armgcc/openstack/03b-IPv6/icmpv6rpl.c ****     );
 701:build/openmote-cc2538_armgcc/openstack/03b-IPv6/icmpv6rpl.c **** 
 702:build/openmote-cc2538_armgcc/openstack/03b-IPv6/icmpv6rpl.c ****     ((icmpv6rpl_config_ht*)(msg->payload))->maxRankIncrease    = (icmpv6rpl_vars.conf.maxRankIncrea
 2113              		.loc 1 702 0
 2114 0bfe 7B68     		ldr	r3, [r7, #4]
 2115 0c00 5B68     		ldr	r3, [r3, #4]
 2116 0c02 604A     		ldr	r2, .L115
 2117 0c04 B2F84120 		ldrh	r2, [r2, #65]	@ unaligned
 2118 0c08 92B2     		uxth	r2, r2
 2119 0c0a 1202     		lsls	r2, r2, #8
 2120 0c0c 91B2     		uxth	r1, r2
 2121 0c0e 5D4A     		ldr	r2, .L115
 2122 0c10 B2F84120 		ldrh	r2, [r2, #65]	@ unaligned
 2123 0c14 92B2     		uxth	r2, r2
 2124 0c16 120A     		lsrs	r2, r2, #8
 2125 0c18 92B2     		uxth	r2, r2
 2126 0c1a 92B2     		uxth	r2, r2
 2127 0c1c 0A43     		orrs	r2, r2, r1
 2128 0c1e 92B2     		uxth	r2, r2
 2129 0c20 92B2     		uxth	r2, r2
 2130 0c22 DA80     		strh	r2, [r3, #6]	@ unaligned
 703:build/openmote-cc2538_armgcc/openstack/03b-IPv6/icmpv6rpl.c ****     ((icmpv6rpl_config_ht*)(msg->payload))->minHopRankIncrease = (icmpv6rpl_vars.conf.minHopRankInc
 2131              		.loc 1 703 0
 2132 0c24 7B68     		ldr	r3, [r7, #4]
 2133 0c26 5B68     		ldr	r3, [r3, #4]
 2134 0c28 564A     		ldr	r2, .L115
 2135 0c2a B2F84320 		ldrh	r2, [r2, #67]	@ unaligned
 2136 0c2e 92B2     		uxth	r2, r2
 2137 0c30 1202     		lsls	r2, r2, #8
 2138 0c32 91B2     		uxth	r1, r2
 2139 0c34 534A     		ldr	r2, .L115
 2140 0c36 B2F84320 		ldrh	r2, [r2, #67]	@ unaligned
 2141 0c3a 92B2     		uxth	r2, r2
 2142 0c3c 120A     		lsrs	r2, r2, #8
 2143 0c3e 92B2     		uxth	r2, r2
 2144 0c40 92B2     		uxth	r2, r2
 2145 0c42 0A43     		orrs	r2, r2, r1
 2146 0c44 92B2     		uxth	r2, r2
 2147 0c46 92B2     		uxth	r2, r2
 2148 0c48 1A81     		strh	r2, [r3, #8]	@ unaligned
 704:build/openmote-cc2538_armgcc/openstack/03b-IPv6/icmpv6rpl.c ****     ((icmpv6rpl_config_ht*)(msg->payload))->OCP                = (icmpv6rpl_vars.conf.OCP << 8)    
 2149              		.loc 1 704 0
 2150 0c4a 7B68     		ldr	r3, [r7, #4]
 2151 0c4c 5B68     		ldr	r3, [r3, #4]
 2152 0c4e 4D4A     		ldr	r2, .L115
 2153 0c50 B2F84520 		ldrh	r2, [r2, #69]	@ unaligned
 2154 0c54 92B2     		uxth	r2, r2
 2155 0c56 1202     		lsls	r2, r2, #8
 2156 0c58 91B2     		uxth	r1, r2
 2157 0c5a 4A4A     		ldr	r2, .L115
 2158 0c5c B2F84520 		ldrh	r2, [r2, #69]	@ unaligned
 2159 0c60 92B2     		uxth	r2, r2
 2160 0c62 120A     		lsrs	r2, r2, #8
 2161 0c64 92B2     		uxth	r2, r2
 2162 0c66 92B2     		uxth	r2, r2
 2163 0c68 0A43     		orrs	r2, r2, r1
 2164 0c6a 92B2     		uxth	r2, r2
 2165 0c6c 92B2     		uxth	r2, r2
 2166 0c6e 5A81     		strh	r2, [r3, #10]	@ unaligned
 705:build/openmote-cc2538_armgcc/openstack/03b-IPv6/icmpv6rpl.c ****     ((icmpv6rpl_config_ht*)(msg->payload))->lifetimeUnit       = (icmpv6rpl_vars.conf.lifetimeUnit 
 2167              		.loc 1 705 0
 2168 0c70 7B68     		ldr	r3, [r7, #4]
 2169 0c72 5B68     		ldr	r3, [r3, #4]
 2170 0c74 434A     		ldr	r2, .L115
 2171 0c76 B2F84920 		ldrh	r2, [r2, #73]	@ unaligned
 2172 0c7a 92B2     		uxth	r2, r2
 2173 0c7c 1202     		lsls	r2, r2, #8
 2174 0c7e 91B2     		uxth	r1, r2
 2175 0c80 404A     		ldr	r2, .L115
 2176 0c82 B2F84920 		ldrh	r2, [r2, #73]	@ unaligned
 2177 0c86 92B2     		uxth	r2, r2
 2178 0c88 120A     		lsrs	r2, r2, #8
 2179 0c8a 92B2     		uxth	r2, r2
 2180 0c8c 92B2     		uxth	r2, r2
 2181 0c8e 0A43     		orrs	r2, r2, r1
 2182 0c90 92B2     		uxth	r2, r2
 2183 0c92 92B2     		uxth	r2, r2
 2184 0c94 DA81     		strh	r2, [r3, #14]	@ unaligned
 706:build/openmote-cc2538_armgcc/openstack/03b-IPv6/icmpv6rpl.c **** 
 707:build/openmote-cc2538_armgcc/openstack/03b-IPv6/icmpv6rpl.c ****     //===== PIO payload
 708:build/openmote-cc2538_armgcc/openstack/03b-IPv6/icmpv6rpl.c **** 
 709:build/openmote-cc2538_armgcc/openstack/03b-IPv6/icmpv6rpl.c ****     packetfunctions_reserveHeaderSize(msg,sizeof(icmpv6rpl_pio_t));
 2185              		.loc 1 709 0
 2186 0c96 7868     		ldr	r0, [r7, #4]
 2187 0c98 2021     		movs	r1, #32
 2188 0c9a FFF7FEFF 		bl	packetfunctions_reserveHeaderSize
 710:build/openmote-cc2538_armgcc/openstack/03b-IPv6/icmpv6rpl.c **** 
 711:build/openmote-cc2538_armgcc/openstack/03b-IPv6/icmpv6rpl.c ****     // copy my prefix into the PIO
 712:build/openmote-cc2538_armgcc/openstack/03b-IPv6/icmpv6rpl.c **** 
 713:build/openmote-cc2538_armgcc/openstack/03b-IPv6/icmpv6rpl.c ****     memcpy(
 714:build/openmote-cc2538_armgcc/openstack/03b-IPv6/icmpv6rpl.c ****         &(icmpv6rpl_vars.pio.prefix[0]),
 715:build/openmote-cc2538_armgcc/openstack/03b-IPv6/icmpv6rpl.c ****         idmanager_getMyID(ADDR_PREFIX)->prefix,
 2189              		.loc 1 715 0
 2190 0c9e 0520     		movs	r0, #5
 2191 0ca0 FFF7FEFF 		bl	idmanager_getMyID
 2192 0ca4 0346     		mov	r3, r0
 2193 0ca6 0133     		adds	r3, r3, #1
 713:build/openmote-cc2538_armgcc/openstack/03b-IPv6/icmpv6rpl.c ****         &(icmpv6rpl_vars.pio.prefix[0]),
 2194              		.loc 1 713 0
 2195 0ca8 3748     		ldr	r0, .L115+4
 2196 0caa 1946     		mov	r1, r3
 2197 0cac 0822     		movs	r2, #8
 2198 0cae FFF7FEFF 		bl	memcpy
 716:build/openmote-cc2538_armgcc/openstack/03b-IPv6/icmpv6rpl.c ****         sizeof(idmanager_getMyID(ADDR_PREFIX)->prefix)
 717:build/openmote-cc2538_armgcc/openstack/03b-IPv6/icmpv6rpl.c ****     );
 718:build/openmote-cc2538_armgcc/openstack/03b-IPv6/icmpv6rpl.c ****     // host address is not needed. Only prefix.
 719:build/openmote-cc2538_armgcc/openstack/03b-IPv6/icmpv6rpl.c ****     /* memcpy(
 720:build/openmote-cc2538_armgcc/openstack/03b-IPv6/icmpv6rpl.c ****         &(icmpv6rpl_vars.pio.prefix[8]),
 721:build/openmote-cc2538_armgcc/openstack/03b-IPv6/icmpv6rpl.c ****         idmanager_getMyID(ADDR_64B)->addr_64b,
 722:build/openmote-cc2538_armgcc/openstack/03b-IPv6/icmpv6rpl.c ****         sizeof(idmanager_getMyID(ADDR_64B)->addr_64b)
 723:build/openmote-cc2538_armgcc/openstack/03b-IPv6/icmpv6rpl.c ****     );*/
 724:build/openmote-cc2538_armgcc/openstack/03b-IPv6/icmpv6rpl.c **** 
 725:build/openmote-cc2538_armgcc/openstack/03b-IPv6/icmpv6rpl.c ****     //copy the PIO in the packet
 726:build/openmote-cc2538_armgcc/openstack/03b-IPv6/icmpv6rpl.c ****     memcpy(
 727:build/openmote-cc2538_armgcc/openstack/03b-IPv6/icmpv6rpl.c ****         ((icmpv6rpl_pio_t*)(msg->payload)),
 2199              		.loc 1 727 0
 2200 0cb2 7B68     		ldr	r3, [r7, #4]
 2201 0cb4 5A68     		ldr	r2, [r3, #4]
 726:build/openmote-cc2538_armgcc/openstack/03b-IPv6/icmpv6rpl.c ****         ((icmpv6rpl_pio_t*)(msg->payload)),
 2202              		.loc 1 726 0
 2203 0cb6 334B     		ldr	r3, .L115
 2204 0cb8 1B33     		adds	r3, r3, #27
 2205 0cba 1D68     		ldr	r5, [r3]	@ unaligned
 2206 0cbc 5C68     		ldr	r4, [r3, #4]	@ unaligned
 2207 0cbe 9868     		ldr	r0, [r3, #8]	@ unaligned
 2208 0cc0 D968     		ldr	r1, [r3, #12]	@ unaligned
 2209 0cc2 1560     		str	r5, [r2]	@ unaligned
 2210 0cc4 5460     		str	r4, [r2, #4]	@ unaligned
 2211 0cc6 9060     		str	r0, [r2, #8]	@ unaligned
 2212 0cc8 D160     		str	r1, [r2, #12]	@ unaligned
 2213 0cca 1D69     		ldr	r5, [r3, #16]	@ unaligned
 2214 0ccc 5C69     		ldr	r4, [r3, #20]	@ unaligned
 2215 0cce 9869     		ldr	r0, [r3, #24]	@ unaligned
 2216 0cd0 D969     		ldr	r1, [r3, #28]	@ unaligned
 2217 0cd2 1561     		str	r5, [r2, #16]	@ unaligned
 2218 0cd4 5461     		str	r4, [r2, #20]	@ unaligned
 2219 0cd6 9061     		str	r0, [r2, #24]	@ unaligned
 2220 0cd8 D161     		str	r1, [r2, #28]	@ unaligned
 728:build/openmote-cc2538_armgcc/openstack/03b-IPv6/icmpv6rpl.c ****         &(icmpv6rpl_vars.pio),
 729:build/openmote-cc2538_armgcc/openstack/03b-IPv6/icmpv6rpl.c ****         sizeof(icmpv6rpl_pio_t)
 730:build/openmote-cc2538_armgcc/openstack/03b-IPv6/icmpv6rpl.c ****     );
 731:build/openmote-cc2538_armgcc/openstack/03b-IPv6/icmpv6rpl.c **** 
 732:build/openmote-cc2538_armgcc/openstack/03b-IPv6/icmpv6rpl.c **** 
 733:build/openmote-cc2538_armgcc/openstack/03b-IPv6/icmpv6rpl.c ****     //===== DIO payload
 734:build/openmote-cc2538_armgcc/openstack/03b-IPv6/icmpv6rpl.c ****     // note: DIO is already mostly populated
 735:build/openmote-cc2538_armgcc/openstack/03b-IPv6/icmpv6rpl.c ****     icmpv6rpl_vars.dio.rank                  = icmpv6rpl_getMyDAGrank();
 2221              		.loc 1 735 0
 2222 0cda FFF7FEFF 		bl	icmpv6rpl_getMyDAGrank
 2223 0cde 0346     		mov	r3, r0
 2224 0ce0 1A46     		mov	r2, r3
 2225 0ce2 284B     		ldr	r3, .L115
 2226 0ce4 A3F80520 		strh	r2, [r3, #5]	@ unaligned
 736:build/openmote-cc2538_armgcc/openstack/03b-IPv6/icmpv6rpl.c ****     packetfunctions_reserveHeaderSize(msg,sizeof(icmpv6rpl_dio_ht));
 2227              		.loc 1 736 0
 2228 0ce8 7868     		ldr	r0, [r7, #4]
 2229 0cea 1821     		movs	r1, #24
 2230 0cec FFF7FEFF 		bl	packetfunctions_reserveHeaderSize
 737:build/openmote-cc2538_armgcc/openstack/03b-IPv6/icmpv6rpl.c ****     memcpy(
 738:build/openmote-cc2538_armgcc/openstack/03b-IPv6/icmpv6rpl.c ****         ((icmpv6rpl_dio_ht*)(msg->payload)),
 2231              		.loc 1 738 0
 2232 0cf0 7B68     		ldr	r3, [r7, #4]
 2233 0cf2 5A68     		ldr	r2, [r3, #4]
 737:build/openmote-cc2538_armgcc/openstack/03b-IPv6/icmpv6rpl.c ****     memcpy(
 2234              		.loc 1 737 0
 2235 0cf4 234B     		ldr	r3, .L115
 2236 0cf6 0333     		adds	r3, r3, #3
 2237 0cf8 1868     		ldr	r0, [r3]	@ unaligned
 2238 0cfa 5968     		ldr	r1, [r3, #4]	@ unaligned
 2239 0cfc 9D68     		ldr	r5, [r3, #8]	@ unaligned
 2240 0cfe DC68     		ldr	r4, [r3, #12]	@ unaligned
 2241 0d00 1060     		str	r0, [r2]	@ unaligned
 2242 0d02 5160     		str	r1, [r2, #4]	@ unaligned
 2243 0d04 9560     		str	r5, [r2, #8]	@ unaligned
 2244 0d06 D460     		str	r4, [r2, #12]	@ unaligned
 2245 0d08 1869     		ldr	r0, [r3, #16]	@ unaligned
 2246 0d0a 5969     		ldr	r1, [r3, #20]	@ unaligned
 2247 0d0c 1061     		str	r0, [r2, #16]	@ unaligned
 2248 0d0e 5161     		str	r1, [r2, #20]	@ unaligned
 739:build/openmote-cc2538_armgcc/openstack/03b-IPv6/icmpv6rpl.c ****         &(icmpv6rpl_vars.dio),
 740:build/openmote-cc2538_armgcc/openstack/03b-IPv6/icmpv6rpl.c ****         sizeof(icmpv6rpl_dio_ht)
 741:build/openmote-cc2538_armgcc/openstack/03b-IPv6/icmpv6rpl.c ****     );
 742:build/openmote-cc2538_armgcc/openstack/03b-IPv6/icmpv6rpl.c **** 
 743:build/openmote-cc2538_armgcc/openstack/03b-IPv6/icmpv6rpl.c ****     // reverse the rank bytes order in Big Endian
 744:build/openmote-cc2538_armgcc/openstack/03b-IPv6/icmpv6rpl.c ****     *(msg->payload+2) = (icmpv6rpl_vars.dio.rank >> 8) & 0xFF;
 2249              		.loc 1 744 0
 2250 0d10 7B68     		ldr	r3, [r7, #4]
 2251 0d12 5B68     		ldr	r3, [r3, #4]
 2252 0d14 0233     		adds	r3, r3, #2
 2253 0d16 1B4A     		ldr	r2, .L115
 2254 0d18 B2F80520 		ldrh	r2, [r2, #5]	@ unaligned
 2255 0d1c 92B2     		uxth	r2, r2
 2256 0d1e 120A     		lsrs	r2, r2, #8
 2257 0d20 92B2     		uxth	r2, r2
 2258 0d22 D2B2     		uxtb	r2, r2
 2259 0d24 1A70     		strb	r2, [r3]
 745:build/openmote-cc2538_armgcc/openstack/03b-IPv6/icmpv6rpl.c ****     *(msg->payload+3) = icmpv6rpl_vars.dio.rank        & 0xFF;
 2260              		.loc 1 745 0
 2261 0d26 7B68     		ldr	r3, [r7, #4]
 2262 0d28 5B68     		ldr	r3, [r3, #4]
 2263 0d2a 0333     		adds	r3, r3, #3
 2264 0d2c 154A     		ldr	r2, .L115
 2265 0d2e B2F80520 		ldrh	r2, [r2, #5]	@ unaligned
 2266 0d32 92B2     		uxth	r2, r2
 2267 0d34 D2B2     		uxtb	r2, r2
 2268 0d36 1A70     		strb	r2, [r3]
 746:build/openmote-cc2538_armgcc/openstack/03b-IPv6/icmpv6rpl.c **** 
 747:build/openmote-cc2538_armgcc/openstack/03b-IPv6/icmpv6rpl.c ****     //===== ICMPv6 header
 748:build/openmote-cc2538_armgcc/openstack/03b-IPv6/icmpv6rpl.c ****     packetfunctions_reserveHeaderSize(msg,sizeof(ICMPv6_ht));
 2269              		.loc 1 748 0
 2270 0d38 7868     		ldr	r0, [r7, #4]
 2271 0d3a 0421     		movs	r1, #4
 2272 0d3c FFF7FEFF 		bl	packetfunctions_reserveHeaderSize
 749:build/openmote-cc2538_armgcc/openstack/03b-IPv6/icmpv6rpl.c ****     ((ICMPv6_ht*)(msg->payload))->type       = msg->l4_sourcePortORicmpv6Type;
 2273              		.loc 1 749 0
 2274 0d40 7B68     		ldr	r3, [r7, #4]
 2275 0d42 5B68     		ldr	r3, [r3, #4]
 2276 0d44 7A68     		ldr	r2, [r7, #4]
 2277 0d46 128A     		ldrh	r2, [r2, #16]
 2278 0d48 D2B2     		uxtb	r2, r2
 2279 0d4a 1A70     		strb	r2, [r3]
 750:build/openmote-cc2538_armgcc/openstack/03b-IPv6/icmpv6rpl.c ****     ((ICMPv6_ht*)(msg->payload))->code       = IANA_ICMPv6_RPL_DIO;
 2280              		.loc 1 750 0
 2281 0d4c 7B68     		ldr	r3, [r7, #4]
 2282 0d4e 5B68     		ldr	r3, [r3, #4]
 2283 0d50 0122     		movs	r2, #1
 2284 0d52 5A70     		strb	r2, [r3, #1]
 751:build/openmote-cc2538_armgcc/openstack/03b-IPv6/icmpv6rpl.c ****     packetfunctions_calculateChecksum(msg,(uint8_t*)&(((ICMPv6_ht*)(msg->payload))->checksum));//ca
 2285              		.loc 1 751 0
 2286 0d54 7B68     		ldr	r3, [r7, #4]
 2287 0d56 5B68     		ldr	r3, [r3, #4]
 2288 0d58 0233     		adds	r3, r3, #2
 2289 0d5a 7868     		ldr	r0, [r7, #4]
 2290 0d5c 1946     		mov	r1, r3
 2291 0d5e FFF7FEFF 		bl	packetfunctions_calculateChecksum
 752:build/openmote-cc2538_armgcc/openstack/03b-IPv6/icmpv6rpl.c **** 
 753:build/openmote-cc2538_armgcc/openstack/03b-IPv6/icmpv6rpl.c ****     //send
 754:build/openmote-cc2538_armgcc/openstack/03b-IPv6/icmpv6rpl.c ****     if (icmpv6_send(msg)==E_SUCCESS) {
 2292              		.loc 1 754 0
 2293 0d62 7868     		ldr	r0, [r7, #4]
 2294 0d64 FFF7FEFF 		bl	icmpv6_send
 2295 0d68 0346     		mov	r3, r0
 2296 0d6a 002B     		cmp	r3, #0
 2297 0d6c 03D1     		bne	.L114
 755:build/openmote-cc2538_armgcc/openstack/03b-IPv6/icmpv6rpl.c ****         icmpv6rpl_vars.busySendingDIO = TRUE;
 2298              		.loc 1 755 0
 2299 0d6e 054B     		ldr	r3, .L115
 2300 0d70 0122     		movs	r2, #1
 2301 0d72 1A70     		strb	r2, [r3]
 2302 0d74 02E0     		b	.L108
 2303              	.L114:
 756:build/openmote-cc2538_armgcc/openstack/03b-IPv6/icmpv6rpl.c ****     } else {
 757:build/openmote-cc2538_armgcc/openstack/03b-IPv6/icmpv6rpl.c ****         openqueue_freePacketBuffer(msg);
 2304              		.loc 1 757 0
 2305 0d76 7868     		ldr	r0, [r7, #4]
 2306 0d78 FFF7FEFF 		bl	openqueue_freePacketBuffer
 2307              	.L108:
 758:build/openmote-cc2538_armgcc/openstack/03b-IPv6/icmpv6rpl.c ****     }
 759:build/openmote-cc2538_armgcc/openstack/03b-IPv6/icmpv6rpl.c **** }
 2308              		.loc 1 759 0
 2309 0d7c 0837     		adds	r7, r7, #8
 2310              		.cfi_def_cfa_offset 16
 2311 0d7e BD46     		mov	sp, r7
 2312              		.cfi_def_cfa_register 13
 2313              		@ sp needed
 2314 0d80 B0BD     		pop	{r4, r5, r7, pc}
 2315              	.L116:
 2316 0d82 00BF     		.align	2
 2317              	.L115:
 2318 0d84 00000000 		.word	icmpv6rpl_vars
 2319 0d88 2B000000 		.word	icmpv6rpl_vars+43
 2320              		.cfi_endproc
 2321              	.LFE16:
 2323              		.align	2
 2324              		.global	icmpv6rpl_timer_DAO_cb
 2325              		.thumb
 2326              		.thumb_func
 2328              	icmpv6rpl_timer_DAO_cb:
 2329              	.LFB17:
 760:build/openmote-cc2538_armgcc/openstack/03b-IPv6/icmpv6rpl.c **** 
 761:build/openmote-cc2538_armgcc/openstack/03b-IPv6/icmpv6rpl.c **** //===== DAO-related
 762:build/openmote-cc2538_armgcc/openstack/03b-IPv6/icmpv6rpl.c **** 
 763:build/openmote-cc2538_armgcc/openstack/03b-IPv6/icmpv6rpl.c **** /**
 764:build/openmote-cc2538_armgcc/openstack/03b-IPv6/icmpv6rpl.c **** \brief DAO timer callback function.
 765:build/openmote-cc2538_armgcc/openstack/03b-IPv6/icmpv6rpl.c **** 
 766:build/openmote-cc2538_armgcc/openstack/03b-IPv6/icmpv6rpl.c **** \note This function is executed in interrupt context, and should only push a
 767:build/openmote-cc2538_armgcc/openstack/03b-IPv6/icmpv6rpl.c ****    task.
 768:build/openmote-cc2538_armgcc/openstack/03b-IPv6/icmpv6rpl.c **** */
 769:build/openmote-cc2538_armgcc/openstack/03b-IPv6/icmpv6rpl.c **** void icmpv6rpl_timer_DAO_cb(opentimers_id_t id) {
 2330              		.loc 1 769 0
 2331              		.cfi_startproc
 2332              		@ args = 0, pretend = 0, frame = 8
 2333              		@ frame_needed = 1, uses_anonymous_args = 0
 2334 0d8c 90B5     		push	{r4, r7, lr}
 2335              		.cfi_def_cfa_offset 12
 2336              		.cfi_offset 4, -12
 2337              		.cfi_offset 7, -8
 2338              		.cfi_offset 14, -4
 2339 0d8e 85B0     		sub	sp, sp, #20
 2340              		.cfi_def_cfa_offset 32
 2341 0d90 02AF     		add	r7, sp, #8
 2342              		.cfi_def_cfa 7, 24
 2343 0d92 0346     		mov	r3, r0
 2344 0d94 FB71     		strb	r3, [r7, #7]
 770:build/openmote-cc2538_armgcc/openstack/03b-IPv6/icmpv6rpl.c **** 
 771:build/openmote-cc2538_armgcc/openstack/03b-IPv6/icmpv6rpl.c ****     scheduler_push_task(icmpv6rpl_timer_DAO_task,TASKPRIO_RPL);
 2345              		.loc 1 771 0
 2346 0d96 0E48     		ldr	r0, .L118
 2347 0d98 0421     		movs	r1, #4
 2348 0d9a FFF7FEFF 		bl	scheduler_push_task
 772:build/openmote-cc2538_armgcc/openstack/03b-IPv6/icmpv6rpl.c ****     // update the period
 773:build/openmote-cc2538_armgcc/openstack/03b-IPv6/icmpv6rpl.c ****     opentimers_scheduleIn(
 2349              		.loc 1 773 0
 2350 0d9e 0D4B     		ldr	r3, .L118+4
 2351 0da0 93F88040 		ldrb	r4, [r3, #128]	@ zero_extendqisi2
 774:build/openmote-cc2538_armgcc/openstack/03b-IPv6/icmpv6rpl.c ****         icmpv6rpl_vars.timerIdDAO,
 775:build/openmote-cc2538_armgcc/openstack/03b-IPv6/icmpv6rpl.c ****         openrandom_getRandomizePeriod(icmpv6rpl_vars.daoPeriod, NUM_CHANNELS*SLOTFRAME_LENGTH*SLOTD
 2352              		.loc 1 775 0
 2353 0da4 0B4B     		ldr	r3, .L118+4
 2354 0da6 B3F88430 		ldrh	r3, [r3, #132]
 2355 0daa 1846     		mov	r0, r3
 2356 0dac 43F62071 		movw	r1, #16160
 2357 0db0 FFF7FEFF 		bl	openrandom_getRandomizePeriod
 2358 0db4 0346     		mov	r3, r0
 773:build/openmote-cc2538_armgcc/openstack/03b-IPv6/icmpv6rpl.c ****         icmpv6rpl_vars.timerIdDAO,
 2359              		.loc 1 773 0
 2360 0db6 1A46     		mov	r2, r3
 2361 0db8 074B     		ldr	r3, .L118+8
 2362 0dba 0093     		str	r3, [sp]
 2363 0dbc 2046     		mov	r0, r4
 2364 0dbe 1146     		mov	r1, r2
 2365 0dc0 0022     		movs	r2, #0
 2366 0dc2 0123     		movs	r3, #1
 2367 0dc4 FFF7FEFF 		bl	opentimers_scheduleIn
 776:build/openmote-cc2538_armgcc/openstack/03b-IPv6/icmpv6rpl.c ****         TIME_MS,
 777:build/openmote-cc2538_armgcc/openstack/03b-IPv6/icmpv6rpl.c ****         TIMER_ONESHOT,
 778:build/openmote-cc2538_armgcc/openstack/03b-IPv6/icmpv6rpl.c ****         icmpv6rpl_timer_DAO_cb
 779:build/openmote-cc2538_armgcc/openstack/03b-IPv6/icmpv6rpl.c ****     );
 780:build/openmote-cc2538_armgcc/openstack/03b-IPv6/icmpv6rpl.c **** }
 2368              		.loc 1 780 0
 2369 0dc8 0C37     		adds	r7, r7, #12
 2370              		.cfi_def_cfa_offset 12
 2371 0dca BD46     		mov	sp, r7
 2372              		.cfi_def_cfa_register 13
 2373              		@ sp needed
 2374 0dcc 90BD     		pop	{r4, r7, pc}
 2375              	.L119:
 2376 0dce 00BF     		.align	2
 2377              	.L118:
 2378 0dd0 00000000 		.word	icmpv6rpl_timer_DAO_task
 2379 0dd4 00000000 		.word	icmpv6rpl_vars
 2380 0dd8 00000000 		.word	icmpv6rpl_timer_DAO_cb
 2381              		.cfi_endproc
 2382              	.LFE17:
 2384              		.align	2
 2385              		.global	icmpv6rpl_timer_DAO_task
 2386              		.thumb
 2387              		.thumb_func
 2389              	icmpv6rpl_timer_DAO_task:
 2390              	.LFB18:
 781:build/openmote-cc2538_armgcc/openstack/03b-IPv6/icmpv6rpl.c **** 
 782:build/openmote-cc2538_armgcc/openstack/03b-IPv6/icmpv6rpl.c **** /**
 783:build/openmote-cc2538_armgcc/openstack/03b-IPv6/icmpv6rpl.c **** \brief Handler for DAO timer event.
 784:build/openmote-cc2538_armgcc/openstack/03b-IPv6/icmpv6rpl.c **** 
 785:build/openmote-cc2538_armgcc/openstack/03b-IPv6/icmpv6rpl.c **** \note This function is executed in task context, called by the scheduler.
 786:build/openmote-cc2538_armgcc/openstack/03b-IPv6/icmpv6rpl.c **** */
 787:build/openmote-cc2538_armgcc/openstack/03b-IPv6/icmpv6rpl.c **** void icmpv6rpl_timer_DAO_task(void) {
 2391              		.loc 1 787 0
 2392              		.cfi_startproc
 2393              		@ args = 0, pretend = 0, frame = 0
 2394              		@ frame_needed = 1, uses_anonymous_args = 0
 2395 0ddc 80B5     		push	{r7, lr}
 2396              		.cfi_def_cfa_offset 8
 2397              		.cfi_offset 7, -8
 2398              		.cfi_offset 14, -4
 2399 0dde 00AF     		add	r7, sp, #0
 2400              		.cfi_def_cfa_register 7
 788:build/openmote-cc2538_armgcc/openstack/03b-IPv6/icmpv6rpl.c **** 
 789:build/openmote-cc2538_armgcc/openstack/03b-IPv6/icmpv6rpl.c ****     sendDAO();
 2401              		.loc 1 789 0
 2402 0de0 FFF7FEFF 		bl	sendDAO
 790:build/openmote-cc2538_armgcc/openstack/03b-IPv6/icmpv6rpl.c **** }
 2403              		.loc 1 790 0
 2404 0de4 80BD     		pop	{r7, pc}
 2405              		.cfi_endproc
 2406              	.LFE18:
 2408 0de6 00BF     		.align	2
 2409              		.global	sendDAO
 2410              		.thumb
 2411              		.thumb_func
 2413              	sendDAO:
 2414              	.LFB19:
 791:build/openmote-cc2538_armgcc/openstack/03b-IPv6/icmpv6rpl.c **** 
 792:build/openmote-cc2538_armgcc/openstack/03b-IPv6/icmpv6rpl.c **** /**
 793:build/openmote-cc2538_armgcc/openstack/03b-IPv6/icmpv6rpl.c **** \brief Prepare and a send a RPL DAO.
 794:build/openmote-cc2538_armgcc/openstack/03b-IPv6/icmpv6rpl.c **** */
 795:build/openmote-cc2538_armgcc/openstack/03b-IPv6/icmpv6rpl.c **** void sendDAO(void) {
 2415              		.loc 1 795 0
 2416              		.cfi_startproc
 2417              		@ args = 0, pretend = 0, frame = 40
 2418              		@ frame_needed = 1, uses_anonymous_args = 0
 2419 0de8 B0B5     		push	{r4, r5, r7, lr}
 2420              		.cfi_def_cfa_offset 16
 2421              		.cfi_offset 4, -16
 2422              		.cfi_offset 5, -12
 2423              		.cfi_offset 7, -8
 2424              		.cfi_offset 14, -4
 2425 0dea 8AB0     		sub	sp, sp, #40
 2426              		.cfi_def_cfa_offset 56
 2427 0dec 00AF     		add	r7, sp, #0
 2428              		.cfi_def_cfa_register 7
 796:build/openmote-cc2538_armgcc/openstack/03b-IPv6/icmpv6rpl.c ****    OpenQueueEntry_t*    msg;                // pointer to DAO messages
 797:build/openmote-cc2538_armgcc/openstack/03b-IPv6/icmpv6rpl.c ****    uint8_t              nbrIdx;             // running neighbor index
 798:build/openmote-cc2538_armgcc/openstack/03b-IPv6/icmpv6rpl.c ****    uint8_t              numTransitParents,numTargetParents;  // the number of parents indicated in 
 799:build/openmote-cc2538_armgcc/openstack/03b-IPv6/icmpv6rpl.c ****    open_addr_t         address;
 800:build/openmote-cc2538_armgcc/openstack/03b-IPv6/icmpv6rpl.c ****    open_addr_t*        prefix;
 801:build/openmote-cc2538_armgcc/openstack/03b-IPv6/icmpv6rpl.c **** 
 802:build/openmote-cc2538_armgcc/openstack/03b-IPv6/icmpv6rpl.c ****    if (ieee154e_isSynch()==FALSE) {
 2429              		.loc 1 802 0
 2430 0dee FFF7FEFF 		bl	ieee154e_isSynch
 2431 0df2 0346     		mov	r3, r0
 2432 0df4 83F00103 		eor	r3, r3, #1
 2433 0df8 DBB2     		uxtb	r3, r3
 2434 0dfa 002B     		cmp	r3, #0
 2435 0dfc 09D0     		beq	.L122
 803:build/openmote-cc2538_armgcc/openstack/03b-IPv6/icmpv6rpl.c ****       // I'm not sync'ed
 804:build/openmote-cc2538_armgcc/openstack/03b-IPv6/icmpv6rpl.c **** 
 805:build/openmote-cc2538_armgcc/openstack/03b-IPv6/icmpv6rpl.c ****       // delete packets genereted by this module (DIO and DAO) from openqueue
 806:build/openmote-cc2538_armgcc/openstack/03b-IPv6/icmpv6rpl.c ****       openqueue_removeAllCreatedBy(COMPONENT_ICMPv6RPL);
 2436              		.loc 1 806 0
 2437 0dfe 1620     		movs	r0, #22
 2438 0e00 FFF7FEFF 		bl	openqueue_removeAllCreatedBy
 807:build/openmote-cc2538_armgcc/openstack/03b-IPv6/icmpv6rpl.c **** 
 808:build/openmote-cc2538_armgcc/openstack/03b-IPv6/icmpv6rpl.c ****       // I'm not busy sending a DIO/DAO
 809:build/openmote-cc2538_armgcc/openstack/03b-IPv6/icmpv6rpl.c ****       icmpv6rpl_vars.busySendingDAO = FALSE;
 2439              		.loc 1 809 0
 2440 0e04 8C4B     		ldr	r3, .L137
 2441 0e06 0022     		movs	r2, #0
 2442 0e08 5A70     		strb	r2, [r3, #1]
 810:build/openmote-cc2538_armgcc/openstack/03b-IPv6/icmpv6rpl.c ****       icmpv6rpl_vars.busySendingDIO = FALSE;
 2443              		.loc 1 810 0
 2444 0e0a 8B4B     		ldr	r3, .L137
 2445 0e0c 0022     		movs	r2, #0
 2446 0e0e 1A70     		strb	r2, [r3]
 811:build/openmote-cc2538_armgcc/openstack/03b-IPv6/icmpv6rpl.c **** 
 812:build/openmote-cc2538_armgcc/openstack/03b-IPv6/icmpv6rpl.c ****       // stop here
 813:build/openmote-cc2538_armgcc/openstack/03b-IPv6/icmpv6rpl.c ****       return;
 2447              		.loc 1 813 0
 2448 0e10 0FE1     		b	.L121
 2449              	.L122:
 814:build/openmote-cc2538_armgcc/openstack/03b-IPv6/icmpv6rpl.c ****    }
 815:build/openmote-cc2538_armgcc/openstack/03b-IPv6/icmpv6rpl.c **** 
 816:build/openmote-cc2538_armgcc/openstack/03b-IPv6/icmpv6rpl.c ****    // dont' send a DAO if you're the DAG root
 817:build/openmote-cc2538_armgcc/openstack/03b-IPv6/icmpv6rpl.c ****    if (idmanager_getIsDAGroot()==TRUE) {
 2450              		.loc 1 817 0
 2451 0e12 FFF7FEFF 		bl	idmanager_getIsDAGroot
 2452 0e16 0346     		mov	r3, r0
 2453 0e18 002B     		cmp	r3, #0
 2454 0e1a 00D0     		beq	.L124
 818:build/openmote-cc2538_armgcc/openstack/03b-IPv6/icmpv6rpl.c ****       return;
 2455              		.loc 1 818 0
 2456 0e1c 09E1     		b	.L121
 2457              	.L124:
 819:build/openmote-cc2538_armgcc/openstack/03b-IPv6/icmpv6rpl.c ****    }
 820:build/openmote-cc2538_armgcc/openstack/03b-IPv6/icmpv6rpl.c **** 
 821:build/openmote-cc2538_armgcc/openstack/03b-IPv6/icmpv6rpl.c ****    // dont' send a DAO if you did not acquire a DAGrank
 822:build/openmote-cc2538_armgcc/openstack/03b-IPv6/icmpv6rpl.c ****    if (icmpv6rpl_getMyDAGrank()==DEFAULTDAGRANK) {
 2458              		.loc 1 822 0
 2459 0e1e FFF7FEFF 		bl	icmpv6rpl_getMyDAGrank
 2460 0e22 0346     		mov	r3, r0
 2461 0e24 1A46     		mov	r2, r3
 2462 0e26 4FF6FF73 		movw	r3, #65535
 2463 0e2a 9A42     		cmp	r2, r3
 2464 0e2c 00D1     		bne	.L125
 823:build/openmote-cc2538_armgcc/openstack/03b-IPv6/icmpv6rpl.c ****        return;
 2465              		.loc 1 823 0
 2466 0e2e 00E1     		b	.L121
 2467              	.L125:
 824:build/openmote-cc2538_armgcc/openstack/03b-IPv6/icmpv6rpl.c ****    }
 825:build/openmote-cc2538_armgcc/openstack/03b-IPv6/icmpv6rpl.c **** 
 826:build/openmote-cc2538_armgcc/openstack/03b-IPv6/icmpv6rpl.c ****    // dont' send a DAO if you're still busy sending the previous one
 827:build/openmote-cc2538_armgcc/openstack/03b-IPv6/icmpv6rpl.c ****    if (icmpv6rpl_vars.busySendingDAO==TRUE) {
 2468              		.loc 1 827 0
 2469 0e30 814B     		ldr	r3, .L137
 2470 0e32 5B78     		ldrb	r3, [r3, #1]	@ zero_extendqisi2
 2471 0e34 002B     		cmp	r3, #0
 2472 0e36 00D0     		beq	.L126
 828:build/openmote-cc2538_armgcc/openstack/03b-IPv6/icmpv6rpl.c ****       return;
 2473              		.loc 1 828 0
 2474 0e38 FBE0     		b	.L121
 2475              	.L126:
 829:build/openmote-cc2538_armgcc/openstack/03b-IPv6/icmpv6rpl.c ****    }
 830:build/openmote-cc2538_armgcc/openstack/03b-IPv6/icmpv6rpl.c **** 
 831:build/openmote-cc2538_armgcc/openstack/03b-IPv6/icmpv6rpl.c ****    // if you get here, you start construct DAO
 832:build/openmote-cc2538_armgcc/openstack/03b-IPv6/icmpv6rpl.c **** 
 833:build/openmote-cc2538_armgcc/openstack/03b-IPv6/icmpv6rpl.c ****    // reserve a free packet buffer for DAO
 834:build/openmote-cc2538_armgcc/openstack/03b-IPv6/icmpv6rpl.c ****    msg = openqueue_getFreePacketBuffer(COMPONENT_ICMPv6RPL);
 2476              		.loc 1 834 0
 2477 0e3a 1620     		movs	r0, #22
 2478 0e3c FFF7FEFF 		bl	openqueue_getFreePacketBuffer
 2479 0e40 3862     		str	r0, [r7, #32]
 835:build/openmote-cc2538_armgcc/openstack/03b-IPv6/icmpv6rpl.c ****    if (msg==NULL) {
 2480              		.loc 1 835 0
 2481 0e42 3B6A     		ldr	r3, [r7, #32]
 2482 0e44 002B     		cmp	r3, #0
 2483 0e46 06D1     		bne	.L127
 836:build/openmote-cc2538_armgcc/openstack/03b-IPv6/icmpv6rpl.c ****       openserial_printError(COMPONENT_ICMPv6RPL,ERR_NO_FREE_PACKET_BUFFER,
 2484              		.loc 1 836 0
 2485 0e48 1620     		movs	r0, #22
 2486 0e4a 2C21     		movs	r1, #44
 2487 0e4c 0022     		movs	r2, #0
 2488 0e4e 0023     		movs	r3, #0
 2489 0e50 FFF7FEFF 		bl	openserial_printError
 837:build/openmote-cc2538_armgcc/openstack/03b-IPv6/icmpv6rpl.c ****                             (errorparameter_t)0,
 838:build/openmote-cc2538_armgcc/openstack/03b-IPv6/icmpv6rpl.c ****                             (errorparameter_t)0);
 839:build/openmote-cc2538_armgcc/openstack/03b-IPv6/icmpv6rpl.c ****       return;
 2490              		.loc 1 839 0
 2491 0e54 EDE0     		b	.L121
 2492              	.L127:
 840:build/openmote-cc2538_armgcc/openstack/03b-IPv6/icmpv6rpl.c ****    }
 841:build/openmote-cc2538_armgcc/openstack/03b-IPv6/icmpv6rpl.c **** 
 842:build/openmote-cc2538_armgcc/openstack/03b-IPv6/icmpv6rpl.c ****    // take ownership
 843:build/openmote-cc2538_armgcc/openstack/03b-IPv6/icmpv6rpl.c ****    msg->creator                             = COMPONENT_ICMPv6RPL;
 2493              		.loc 1 843 0
 2494 0e56 3B6A     		ldr	r3, [r7, #32]
 2495 0e58 1622     		movs	r2, #22
 2496 0e5a 1A70     		strb	r2, [r3]
 844:build/openmote-cc2538_armgcc/openstack/03b-IPv6/icmpv6rpl.c ****    msg->owner                               = COMPONENT_ICMPv6RPL;
 2497              		.loc 1 844 0
 2498 0e5c 3B6A     		ldr	r3, [r7, #32]
 2499 0e5e 1622     		movs	r2, #22
 2500 0e60 5A70     		strb	r2, [r3, #1]
 845:build/openmote-cc2538_armgcc/openstack/03b-IPv6/icmpv6rpl.c **** 
 846:build/openmote-cc2538_armgcc/openstack/03b-IPv6/icmpv6rpl.c ****    // set transport information
 847:build/openmote-cc2538_armgcc/openstack/03b-IPv6/icmpv6rpl.c ****    msg->l4_protocol                         = IANA_ICMPv6;
 2501              		.loc 1 847 0
 2502 0e62 3B6A     		ldr	r3, [r7, #32]
 2503 0e64 3A22     		movs	r2, #58
 2504 0e66 9A73     		strb	r2, [r3, #14]
 848:build/openmote-cc2538_armgcc/openstack/03b-IPv6/icmpv6rpl.c ****    msg->l4_sourcePortORicmpv6Type           = IANA_ICMPv6_RPL;
 2505              		.loc 1 848 0
 2506 0e68 3B6A     		ldr	r3, [r7, #32]
 2507 0e6a 9B22     		movs	r2, #155
 2508 0e6c 1A82     		strh	r2, [r3, #16]	@ movhi
 849:build/openmote-cc2538_armgcc/openstack/03b-IPv6/icmpv6rpl.c **** 
 850:build/openmote-cc2538_armgcc/openstack/03b-IPv6/icmpv6rpl.c ****    // set DAO destination
 851:build/openmote-cc2538_armgcc/openstack/03b-IPv6/icmpv6rpl.c ****    msg->l3_destinationAdd.type=ADDR_128B;
 2509              		.loc 1 851 0
 2510 0e6e 3B6A     		ldr	r3, [r7, #32]
 2511 0e70 0322     		movs	r2, #3
 2512 0e72 5A76     		strb	r2, [r3, #25]
 852:build/openmote-cc2538_armgcc/openstack/03b-IPv6/icmpv6rpl.c ****    memcpy(msg->l3_destinationAdd.addr_128b,icmpv6rpl_vars.dio.DODAGID,sizeof(icmpv6rpl_vars.dio.DOD
 2513              		.loc 1 852 0
 2514 0e74 3B6A     		ldr	r3, [r7, #32]
 2515 0e76 03F11A02 		add	r2, r3, #26
 2516 0e7a 6F4B     		ldr	r3, .L137
 2517 0e7c 0B33     		adds	r3, r3, #11
 2518 0e7e 1C68     		ldr	r4, [r3]	@ unaligned
 2519 0e80 5868     		ldr	r0, [r3, #4]	@ unaligned
 2520 0e82 9968     		ldr	r1, [r3, #8]	@ unaligned
 2521 0e84 DB68     		ldr	r3, [r3, #12]	@ unaligned
 2522 0e86 1460     		str	r4, [r2]	@ unaligned
 2523 0e88 5060     		str	r0, [r2, #4]	@ unaligned
 2524 0e8a 9160     		str	r1, [r2, #8]	@ unaligned
 2525 0e8c D360     		str	r3, [r2, #12]	@ unaligned
 853:build/openmote-cc2538_armgcc/openstack/03b-IPv6/icmpv6rpl.c **** 
 854:build/openmote-cc2538_armgcc/openstack/03b-IPv6/icmpv6rpl.c ****    //===== fill in packet
 855:build/openmote-cc2538_armgcc/openstack/03b-IPv6/icmpv6rpl.c **** 
 856:build/openmote-cc2538_armgcc/openstack/03b-IPv6/icmpv6rpl.c ****    //NOTE: limit to preferrred parent only the number of DAO transit addresses to send
 857:build/openmote-cc2538_armgcc/openstack/03b-IPv6/icmpv6rpl.c **** 
 858:build/openmote-cc2538_armgcc/openstack/03b-IPv6/icmpv6rpl.c ****    //=== transit option -- from RFC 6550, page 55 - 1 transit information header per parent is requ
 859:build/openmote-cc2538_armgcc/openstack/03b-IPv6/icmpv6rpl.c ****    //getting only preferred parent as transit
 860:build/openmote-cc2538_armgcc/openstack/03b-IPv6/icmpv6rpl.c ****    numTransitParents=0;
 2526              		.loc 1 860 0
 2527 0e8e 0023     		movs	r3, #0
 2528 0e90 FB77     		strb	r3, [r7, #31]
 861:build/openmote-cc2538_armgcc/openstack/03b-IPv6/icmpv6rpl.c ****    icmpv6rpl_getPreferredParentEui64(&address);
 2529              		.loc 1 861 0
 2530 0e92 3B1D     		adds	r3, r7, #4
 2531 0e94 1846     		mov	r0, r3
 2532 0e96 FFF7FEFF 		bl	icmpv6rpl_getPreferredParentEui64
 862:build/openmote-cc2538_armgcc/openstack/03b-IPv6/icmpv6rpl.c ****    packetfunctions_writeAddress(msg,&address,OW_BIG_ENDIAN);
 2533              		.loc 1 862 0
 2534 0e9a 3B1D     		adds	r3, r7, #4
 2535 0e9c 386A     		ldr	r0, [r7, #32]
 2536 0e9e 1946     		mov	r1, r3
 2537 0ea0 0022     		movs	r2, #0
 2538 0ea2 FFF7FEFF 		bl	packetfunctions_writeAddress
 863:build/openmote-cc2538_armgcc/openstack/03b-IPv6/icmpv6rpl.c ****    prefix=idmanager_getMyID(ADDR_PREFIX);
 2539              		.loc 1 863 0
 2540 0ea6 0520     		movs	r0, #5
 2541 0ea8 FFF7FEFF 		bl	idmanager_getMyID
 2542 0eac B861     		str	r0, [r7, #24]
 864:build/openmote-cc2538_armgcc/openstack/03b-IPv6/icmpv6rpl.c ****    packetfunctions_writeAddress(msg,prefix,OW_BIG_ENDIAN);
 2543              		.loc 1 864 0
 2544 0eae 386A     		ldr	r0, [r7, #32]
 2545 0eb0 B969     		ldr	r1, [r7, #24]
 2546 0eb2 0022     		movs	r2, #0
 2547 0eb4 FFF7FEFF 		bl	packetfunctions_writeAddress
 865:build/openmote-cc2538_armgcc/openstack/03b-IPv6/icmpv6rpl.c ****    // update transit info fields
 866:build/openmote-cc2538_armgcc/openstack/03b-IPv6/icmpv6rpl.c ****    // from rfc6550 p.55 -- Variable, depending on whether or not the DODAG ParentAddress subfield i
 867:build/openmote-cc2538_armgcc/openstack/03b-IPv6/icmpv6rpl.c ****    // poipoi xv: it is not very clear if this includes all fields in the header. or as target info 
 868:build/openmote-cc2538_armgcc/openstack/03b-IPv6/icmpv6rpl.c ****    // using the same pattern as in target information.
 869:build/openmote-cc2538_armgcc/openstack/03b-IPv6/icmpv6rpl.c ****    icmpv6rpl_vars.dao_transit.optionLength  = LENGTH_ADDR128b + sizeof(icmpv6rpl_dao_transit_ht)-2;
 2548              		.loc 1 869 0
 2549 0eb8 5F4B     		ldr	r3, .L137
 2550 0eba 1422     		movs	r2, #20
 2551 0ebc 83F87720 		strb	r2, [r3, #119]
 870:build/openmote-cc2538_armgcc/openstack/03b-IPv6/icmpv6rpl.c ****    icmpv6rpl_vars.dao_transit.PathControl=0; //todo. this is to set the preference of this parent.
 2552              		.loc 1 870 0
 2553 0ec0 5D4B     		ldr	r3, .L137
 2554 0ec2 0022     		movs	r2, #0
 2555 0ec4 83F87920 		strb	r2, [r3, #121]
 871:build/openmote-cc2538_armgcc/openstack/03b-IPv6/icmpv6rpl.c ****    icmpv6rpl_vars.dao_transit.type=OPTION_TRANSIT_INFORMATION_TYPE;
 2556              		.loc 1 871 0
 2557 0ec8 5B4B     		ldr	r3, .L137
 2558 0eca 0622     		movs	r2, #6
 2559 0ecc 83F87620 		strb	r2, [r3, #118]
 872:build/openmote-cc2538_armgcc/openstack/03b-IPv6/icmpv6rpl.c **** 
 873:build/openmote-cc2538_armgcc/openstack/03b-IPv6/icmpv6rpl.c ****    // write transit info in packet
 874:build/openmote-cc2538_armgcc/openstack/03b-IPv6/icmpv6rpl.c ****    packetfunctions_reserveHeaderSize(msg,sizeof(icmpv6rpl_dao_transit_ht));
 2560              		.loc 1 874 0
 2561 0ed0 386A     		ldr	r0, [r7, #32]
 2562 0ed2 0621     		movs	r1, #6
 2563 0ed4 FFF7FEFF 		bl	packetfunctions_reserveHeaderSize
 875:build/openmote-cc2538_armgcc/openstack/03b-IPv6/icmpv6rpl.c ****    memcpy(
 876:build/openmote-cc2538_armgcc/openstack/03b-IPv6/icmpv6rpl.c ****           ((icmpv6rpl_dao_transit_ht*)(msg->payload)),
 2564              		.loc 1 876 0
 2565 0ed8 3B6A     		ldr	r3, [r7, #32]
 2566 0eda 5A68     		ldr	r2, [r3, #4]
 875:build/openmote-cc2538_armgcc/openstack/03b-IPv6/icmpv6rpl.c ****    memcpy(
 2567              		.loc 1 875 0
 2568 0edc 564B     		ldr	r3, .L137
 2569 0ede 7633     		adds	r3, r3, #118
 2570 0ee0 1968     		ldr	r1, [r3]	@ unaligned
 2571 0ee2 1160     		str	r1, [r2]	@ unaligned
 2572 0ee4 9B88     		ldrh	r3, [r3, #4]	@ unaligned
 2573 0ee6 9380     		strh	r3, [r2, #4]	@ unaligned
 877:build/openmote-cc2538_armgcc/openstack/03b-IPv6/icmpv6rpl.c ****           &(icmpv6rpl_vars.dao_transit),
 878:build/openmote-cc2538_armgcc/openstack/03b-IPv6/icmpv6rpl.c ****           sizeof(icmpv6rpl_dao_transit_ht)
 879:build/openmote-cc2538_armgcc/openstack/03b-IPv6/icmpv6rpl.c ****    );
 880:build/openmote-cc2538_armgcc/openstack/03b-IPv6/icmpv6rpl.c ****    numTransitParents++;
 2574              		.loc 1 880 0
 2575 0ee8 FB7F     		ldrb	r3, [r7, #31]	@ zero_extendqisi2
 2576 0eea 0133     		adds	r3, r3, #1
 2577 0eec FB77     		strb	r3, [r7, #31]
 881:build/openmote-cc2538_armgcc/openstack/03b-IPv6/icmpv6rpl.c **** 
 882:build/openmote-cc2538_armgcc/openstack/03b-IPv6/icmpv6rpl.c ****    //target information is required. RFC 6550 page 55.
 883:build/openmote-cc2538_armgcc/openstack/03b-IPv6/icmpv6rpl.c ****    /*
 884:build/openmote-cc2538_armgcc/openstack/03b-IPv6/icmpv6rpl.c ****    One or more Transit Information options MUST be preceded by one or
 885:build/openmote-cc2538_armgcc/openstack/03b-IPv6/icmpv6rpl.c ****    more RPL Target options.
 886:build/openmote-cc2538_armgcc/openstack/03b-IPv6/icmpv6rpl.c ****    */
 887:build/openmote-cc2538_armgcc/openstack/03b-IPv6/icmpv6rpl.c ****     numTargetParents                        = 0;
 2578              		.loc 1 887 0
 2579 0eee 0023     		movs	r3, #0
 2580 0ef0 87F82630 		strb	r3, [r7, #38]
 888:build/openmote-cc2538_armgcc/openstack/03b-IPv6/icmpv6rpl.c ****     for (nbrIdx=0;nbrIdx<MAXNUMNEIGHBORS;nbrIdx++) {
 2581              		.loc 1 888 0
 2582 0ef4 0023     		movs	r3, #0
 2583 0ef6 87F82730 		strb	r3, [r7, #39]
 2584 0efa 47E0     		b	.L128
 2585              	.L132:
 889:build/openmote-cc2538_armgcc/openstack/03b-IPv6/icmpv6rpl.c ****       if ((neighbors_isNeighborWithHigherDAGrank(nbrIdx))==TRUE) {
 2586              		.loc 1 889 0
 2587 0efc 97F82730 		ldrb	r3, [r7, #39]	@ zero_extendqisi2
 2588 0f00 1846     		mov	r0, r3
 2589 0f02 FFF7FEFF 		bl	neighbors_isNeighborWithHigherDAGrank
 2590 0f06 0346     		mov	r3, r0
 2591 0f08 002B     		cmp	r3, #0
 2592 0f0a 35D0     		beq	.L129
 890:build/openmote-cc2538_armgcc/openstack/03b-IPv6/icmpv6rpl.c ****          // this neighbor is of higher DAGrank as I am. so it is my child
 891:build/openmote-cc2538_armgcc/openstack/03b-IPv6/icmpv6rpl.c **** 
 892:build/openmote-cc2538_armgcc/openstack/03b-IPv6/icmpv6rpl.c ****          // write it's address in DAO RFC6550 page 80 check point 1.
 893:build/openmote-cc2538_armgcc/openstack/03b-IPv6/icmpv6rpl.c ****          neighbors_getNeighborEui64(&address,ADDR_64B,nbrIdx);
 2593              		.loc 1 893 0
 2594 0f0c 3A1D     		adds	r2, r7, #4
 2595 0f0e 97F82730 		ldrb	r3, [r7, #39]	@ zero_extendqisi2
 2596 0f12 1046     		mov	r0, r2
 2597 0f14 0221     		movs	r1, #2
 2598 0f16 1A46     		mov	r2, r3
 2599 0f18 FFF7FEFF 		bl	neighbors_getNeighborEui64
 894:build/openmote-cc2538_armgcc/openstack/03b-IPv6/icmpv6rpl.c ****          packetfunctions_writeAddress(msg,&address,OW_BIG_ENDIAN);
 2600              		.loc 1 894 0
 2601 0f1c 3B1D     		adds	r3, r7, #4
 2602 0f1e 386A     		ldr	r0, [r7, #32]
 2603 0f20 1946     		mov	r1, r3
 2604 0f22 0022     		movs	r2, #0
 2605 0f24 FFF7FEFF 		bl	packetfunctions_writeAddress
 895:build/openmote-cc2538_armgcc/openstack/03b-IPv6/icmpv6rpl.c ****          prefix=idmanager_getMyID(ADDR_PREFIX);
 2606              		.loc 1 895 0
 2607 0f28 0520     		movs	r0, #5
 2608 0f2a FFF7FEFF 		bl	idmanager_getMyID
 2609 0f2e B861     		str	r0, [r7, #24]
 896:build/openmote-cc2538_armgcc/openstack/03b-IPv6/icmpv6rpl.c ****          packetfunctions_writeAddress(msg,prefix,OW_BIG_ENDIAN);
 2610              		.loc 1 896 0
 2611 0f30 386A     		ldr	r0, [r7, #32]
 2612 0f32 B969     		ldr	r1, [r7, #24]
 2613 0f34 0022     		movs	r2, #0
 2614 0f36 FFF7FEFF 		bl	packetfunctions_writeAddress
 897:build/openmote-cc2538_armgcc/openstack/03b-IPv6/icmpv6rpl.c **** 
 898:build/openmote-cc2538_armgcc/openstack/03b-IPv6/icmpv6rpl.c ****          // update target info fields
 899:build/openmote-cc2538_armgcc/openstack/03b-IPv6/icmpv6rpl.c ****          // from rfc6550 p.55 -- Variable, length of the option in octets excluding the Type and Le
 900:build/openmote-cc2538_armgcc/openstack/03b-IPv6/icmpv6rpl.c ****          // poipoi xv: assuming that type and length fields refer to the 2 first bytes of the heade
 901:build/openmote-cc2538_armgcc/openstack/03b-IPv6/icmpv6rpl.c ****          icmpv6rpl_vars.dao_target.optionLength  = LENGTH_ADDR128b +sizeof(icmpv6rpl_dao_target_ht)
 2615              		.loc 1 901 0
 2616 0f3a 3F4B     		ldr	r3, .L137
 2617 0f3c 1222     		movs	r2, #18
 2618 0f3e 83F87D20 		strb	r2, [r3, #125]
 902:build/openmote-cc2538_armgcc/openstack/03b-IPv6/icmpv6rpl.c ****          icmpv6rpl_vars.dao_target.type  = OPTION_TARGET_INFORMATION_TYPE;
 2619              		.loc 1 902 0
 2620 0f42 3D4B     		ldr	r3, .L137
 2621 0f44 0522     		movs	r2, #5
 2622 0f46 83F87C20 		strb	r2, [r3, #124]
 903:build/openmote-cc2538_armgcc/openstack/03b-IPv6/icmpv6rpl.c ****          icmpv6rpl_vars.dao_target.flags  = 0;       //must be 0
 2623              		.loc 1 903 0
 2624 0f4a 3B4B     		ldr	r3, .L137
 2625 0f4c 0022     		movs	r2, #0
 2626 0f4e 83F87E20 		strb	r2, [r3, #126]
 904:build/openmote-cc2538_armgcc/openstack/03b-IPv6/icmpv6rpl.c ****          icmpv6rpl_vars.dao_target.prefixLength = 128; //128 leading bits  -- full address.
 2627              		.loc 1 904 0
 2628 0f52 394B     		ldr	r3, .L137
 2629 0f54 8022     		movs	r2, #128
 2630 0f56 83F87F20 		strb	r2, [r3, #127]
 905:build/openmote-cc2538_armgcc/openstack/03b-IPv6/icmpv6rpl.c **** 
 906:build/openmote-cc2538_armgcc/openstack/03b-IPv6/icmpv6rpl.c ****          // write transit info in packet
 907:build/openmote-cc2538_armgcc/openstack/03b-IPv6/icmpv6rpl.c ****          packetfunctions_reserveHeaderSize(msg,sizeof(icmpv6rpl_dao_target_ht));
 2631              		.loc 1 907 0
 2632 0f5a 386A     		ldr	r0, [r7, #32]
 2633 0f5c 0421     		movs	r1, #4
 2634 0f5e FFF7FEFF 		bl	packetfunctions_reserveHeaderSize
 908:build/openmote-cc2538_armgcc/openstack/03b-IPv6/icmpv6rpl.c ****          memcpy(
 909:build/openmote-cc2538_armgcc/openstack/03b-IPv6/icmpv6rpl.c ****                ((icmpv6rpl_dao_target_ht*)(msg->payload)),
 2635              		.loc 1 909 0
 2636 0f62 3B6A     		ldr	r3, [r7, #32]
 2637 0f64 5A68     		ldr	r2, [r3, #4]
 908:build/openmote-cc2538_armgcc/openstack/03b-IPv6/icmpv6rpl.c ****          memcpy(
 2638              		.loc 1 908 0
 2639 0f66 344B     		ldr	r3, .L137
 2640 0f68 7C33     		adds	r3, r3, #124
 2641 0f6a 1868     		ldr	r0, [r3]	@ unaligned
 2642 0f6c 1060     		str	r0, [r2]	@ unaligned
 910:build/openmote-cc2538_armgcc/openstack/03b-IPv6/icmpv6rpl.c ****                &(icmpv6rpl_vars.dao_target),
 911:build/openmote-cc2538_armgcc/openstack/03b-IPv6/icmpv6rpl.c ****                sizeof(icmpv6rpl_dao_target_ht)
 912:build/openmote-cc2538_armgcc/openstack/03b-IPv6/icmpv6rpl.c ****          );
 913:build/openmote-cc2538_armgcc/openstack/03b-IPv6/icmpv6rpl.c **** 
 914:build/openmote-cc2538_armgcc/openstack/03b-IPv6/icmpv6rpl.c ****          // remember I found it
 915:build/openmote-cc2538_armgcc/openstack/03b-IPv6/icmpv6rpl.c ****          numTargetParents++;
 2643              		.loc 1 915 0
 2644 0f6e 97F82630 		ldrb	r3, [r7, #38]	@ zero_extendqisi2
 2645 0f72 0133     		adds	r3, r3, #1
 2646 0f74 87F82630 		strb	r3, [r7, #38]
 2647              	.L129:
 916:build/openmote-cc2538_armgcc/openstack/03b-IPv6/icmpv6rpl.c ****       }
 917:build/openmote-cc2538_armgcc/openstack/03b-IPv6/icmpv6rpl.c ****       //limit to MAX_TARGET_PARENTS the number of DAO target addresses to send
 918:build/openmote-cc2538_armgcc/openstack/03b-IPv6/icmpv6rpl.c ****       //section 8.2.1 pag 67 RFC6550 -- using a subset
 919:build/openmote-cc2538_armgcc/openstack/03b-IPv6/icmpv6rpl.c ****       // poipoi TODO base selection on ETX rather than first X.
 920:build/openmote-cc2538_armgcc/openstack/03b-IPv6/icmpv6rpl.c ****       if (numTargetParents>=MAX_TARGET_PARENTS) break;
 2648              		.loc 1 920 0
 2649 0f78 97F82630 		ldrb	r3, [r7, #38]	@ zero_extendqisi2
 2650 0f7c 002B     		cmp	r3, #0
 2651 0f7e 00D0     		beq	.L130
 2652 0f80 08E0     		b	.L131
 2653              	.L130:
 888:build/openmote-cc2538_armgcc/openstack/03b-IPv6/icmpv6rpl.c ****       if ((neighbors_isNeighborWithHigherDAGrank(nbrIdx))==TRUE) {
 2654              		.loc 1 888 0 discriminator 2
 2655 0f82 97F82730 		ldrb	r3, [r7, #39]	@ zero_extendqisi2
 2656 0f86 0133     		adds	r3, r3, #1
 2657 0f88 87F82730 		strb	r3, [r7, #39]
 2658              	.L128:
 888:build/openmote-cc2538_armgcc/openstack/03b-IPv6/icmpv6rpl.c ****       if ((neighbors_isNeighborWithHigherDAGrank(nbrIdx))==TRUE) {
 2659              		.loc 1 888 0 is_stmt 0 discriminator 1
 2660 0f8c 97F82730 		ldrb	r3, [r7, #39]	@ zero_extendqisi2
 2661 0f90 1D2B     		cmp	r3, #29
 2662 0f92 B3D9     		bls	.L132
 2663              	.L131:
 921:build/openmote-cc2538_armgcc/openstack/03b-IPv6/icmpv6rpl.c ****    }
 922:build/openmote-cc2538_armgcc/openstack/03b-IPv6/icmpv6rpl.c **** 
 923:build/openmote-cc2538_armgcc/openstack/03b-IPv6/icmpv6rpl.c **** 
 924:build/openmote-cc2538_armgcc/openstack/03b-IPv6/icmpv6rpl.c ****    // stop here if no parents found
 925:build/openmote-cc2538_armgcc/openstack/03b-IPv6/icmpv6rpl.c ****    if (numTransitParents==0) {
 2664              		.loc 1 925 0 is_stmt 1
 2665 0f94 FB7F     		ldrb	r3, [r7, #31]	@ zero_extendqisi2
 2666 0f96 002B     		cmp	r3, #0
 2667 0f98 03D1     		bne	.L133
 926:build/openmote-cc2538_armgcc/openstack/03b-IPv6/icmpv6rpl.c ****       openqueue_freePacketBuffer(msg);
 2668              		.loc 1 926 0
 2669 0f9a 386A     		ldr	r0, [r7, #32]
 2670 0f9c FFF7FEFF 		bl	openqueue_freePacketBuffer
 927:build/openmote-cc2538_armgcc/openstack/03b-IPv6/icmpv6rpl.c ****       return;
 2671              		.loc 1 927 0
 2672 0fa0 47E0     		b	.L121
 2673              	.L133:
 928:build/openmote-cc2538_armgcc/openstack/03b-IPv6/icmpv6rpl.c ****    }
 929:build/openmote-cc2538_armgcc/openstack/03b-IPv6/icmpv6rpl.c **** 
 930:build/openmote-cc2538_armgcc/openstack/03b-IPv6/icmpv6rpl.c ****    icmpv6rpl_vars.dao_transit.PathSequence++; //increment path sequence.
 2674              		.loc 1 930 0
 2675 0fa2 254B     		ldr	r3, .L137
 2676 0fa4 93F87A30 		ldrb	r3, [r3, #122]	@ zero_extendqisi2
 2677 0fa8 0133     		adds	r3, r3, #1
 2678 0faa DAB2     		uxtb	r2, r3
 2679 0fac 224B     		ldr	r3, .L137
 2680 0fae 83F87A20 		strb	r2, [r3, #122]
 931:build/openmote-cc2538_armgcc/openstack/03b-IPv6/icmpv6rpl.c ****    // if you get here, you will send a DAO
 932:build/openmote-cc2538_armgcc/openstack/03b-IPv6/icmpv6rpl.c **** 
 933:build/openmote-cc2538_armgcc/openstack/03b-IPv6/icmpv6rpl.c **** 
 934:build/openmote-cc2538_armgcc/openstack/03b-IPv6/icmpv6rpl.c ****    //=== DAO header
 935:build/openmote-cc2538_armgcc/openstack/03b-IPv6/icmpv6rpl.c ****    packetfunctions_reserveHeaderSize(msg,sizeof(icmpv6rpl_dao_ht));
 2681              		.loc 1 935 0
 2682 0fb2 386A     		ldr	r0, [r7, #32]
 2683 0fb4 1421     		movs	r1, #20
 2684 0fb6 FFF7FEFF 		bl	packetfunctions_reserveHeaderSize
 936:build/openmote-cc2538_armgcc/openstack/03b-IPv6/icmpv6rpl.c ****    icmpv6rpl_vars.dao.DAOSequence++;
 2685              		.loc 1 936 0
 2686 0fba 1F4B     		ldr	r3, .L137
 2687 0fbc 93F86530 		ldrb	r3, [r3, #101]	@ zero_extendqisi2
 2688 0fc0 0133     		adds	r3, r3, #1
 2689 0fc2 DAB2     		uxtb	r2, r3
 2690 0fc4 1C4B     		ldr	r3, .L137
 2691 0fc6 83F86520 		strb	r2, [r3, #101]
 937:build/openmote-cc2538_armgcc/openstack/03b-IPv6/icmpv6rpl.c ****    memcpy(
 938:build/openmote-cc2538_armgcc/openstack/03b-IPv6/icmpv6rpl.c ****       ((icmpv6rpl_dao_ht*)(msg->payload)),
 2692              		.loc 1 938 0
 2693 0fca 3B6A     		ldr	r3, [r7, #32]
 2694 0fcc 5A68     		ldr	r2, [r3, #4]
 937:build/openmote-cc2538_armgcc/openstack/03b-IPv6/icmpv6rpl.c ****    memcpy(
 2695              		.loc 1 937 0
 2696 0fce 1A4B     		ldr	r3, .L137
 2697 0fd0 6233     		adds	r3, r3, #98
 2698 0fd2 1968     		ldr	r1, [r3]	@ unaligned
 2699 0fd4 5D68     		ldr	r5, [r3, #4]	@ unaligned
 2700 0fd6 9C68     		ldr	r4, [r3, #8]	@ unaligned
 2701 0fd8 D868     		ldr	r0, [r3, #12]	@ unaligned
 2702 0fda 1160     		str	r1, [r2]	@ unaligned
 2703 0fdc 5560     		str	r5, [r2, #4]	@ unaligned
 2704 0fde 9460     		str	r4, [r2, #8]	@ unaligned
 2705 0fe0 D060     		str	r0, [r2, #12]	@ unaligned
 2706 0fe2 1969     		ldr	r1, [r3, #16]	@ unaligned
 2707 0fe4 1161     		str	r1, [r2, #16]	@ unaligned
 939:build/openmote-cc2538_armgcc/openstack/03b-IPv6/icmpv6rpl.c ****       &(icmpv6rpl_vars.dao),
 940:build/openmote-cc2538_armgcc/openstack/03b-IPv6/icmpv6rpl.c ****       sizeof(icmpv6rpl_dao_ht)
 941:build/openmote-cc2538_armgcc/openstack/03b-IPv6/icmpv6rpl.c ****    );
 942:build/openmote-cc2538_armgcc/openstack/03b-IPv6/icmpv6rpl.c **** 
 943:build/openmote-cc2538_armgcc/openstack/03b-IPv6/icmpv6rpl.c ****    //=== ICMPv6 header
 944:build/openmote-cc2538_armgcc/openstack/03b-IPv6/icmpv6rpl.c ****    packetfunctions_reserveHeaderSize(msg,sizeof(ICMPv6_ht));
 2708              		.loc 1 944 0
 2709 0fe6 386A     		ldr	r0, [r7, #32]
 2710 0fe8 0421     		movs	r1, #4
 2711 0fea FFF7FEFF 		bl	packetfunctions_reserveHeaderSize
 945:build/openmote-cc2538_armgcc/openstack/03b-IPv6/icmpv6rpl.c ****    ((ICMPv6_ht*)(msg->payload))->type       = msg->l4_sourcePortORicmpv6Type;
 2712              		.loc 1 945 0
 2713 0fee 3B6A     		ldr	r3, [r7, #32]
 2714 0ff0 5B68     		ldr	r3, [r3, #4]
 2715 0ff2 3A6A     		ldr	r2, [r7, #32]
 2716 0ff4 128A     		ldrh	r2, [r2, #16]
 2717 0ff6 D2B2     		uxtb	r2, r2
 2718 0ff8 1A70     		strb	r2, [r3]
 946:build/openmote-cc2538_armgcc/openstack/03b-IPv6/icmpv6rpl.c ****    ((ICMPv6_ht*)(msg->payload))->code       = IANA_ICMPv6_RPL_DAO;
 2719              		.loc 1 946 0
 2720 0ffa 3B6A     		ldr	r3, [r7, #32]
 2721 0ffc 5B68     		ldr	r3, [r3, #4]
 2722 0ffe 0222     		movs	r2, #2
 2723 1000 5A70     		strb	r2, [r3, #1]
 947:build/openmote-cc2538_armgcc/openstack/03b-IPv6/icmpv6rpl.c ****    packetfunctions_calculateChecksum(msg,(uint8_t*)&(((ICMPv6_ht*)(msg->payload))->checksum)); //ca
 2724              		.loc 1 947 0
 2725 1002 3B6A     		ldr	r3, [r7, #32]
 2726 1004 5B68     		ldr	r3, [r3, #4]
 2727 1006 0233     		adds	r3, r3, #2
 2728 1008 386A     		ldr	r0, [r7, #32]
 2729 100a 1946     		mov	r1, r3
 2730 100c FFF7FEFF 		bl	packetfunctions_calculateChecksum
 948:build/openmote-cc2538_armgcc/openstack/03b-IPv6/icmpv6rpl.c **** 
 949:build/openmote-cc2538_armgcc/openstack/03b-IPv6/icmpv6rpl.c ****    //===== send
 950:build/openmote-cc2538_armgcc/openstack/03b-IPv6/icmpv6rpl.c ****    if (icmpv6_send(msg)==E_SUCCESS) {
 2731              		.loc 1 950 0
 2732 1010 386A     		ldr	r0, [r7, #32]
 2733 1012 FFF7FEFF 		bl	icmpv6_send
 2734 1016 0346     		mov	r3, r0
 2735 1018 002B     		cmp	r3, #0
 2736 101a 07D1     		bne	.L134
 951:build/openmote-cc2538_armgcc/openstack/03b-IPv6/icmpv6rpl.c ****       icmpv6rpl_vars.busySendingDAO = TRUE;
 2737              		.loc 1 951 0
 2738 101c 064B     		ldr	r3, .L137
 2739 101e 0122     		movs	r2, #1
 2740 1020 5A70     		strb	r2, [r3, #1]
 952:build/openmote-cc2538_armgcc/openstack/03b-IPv6/icmpv6rpl.c ****       icmpv6rpl_vars.daoSent = TRUE;
 2741              		.loc 1 952 0
 2742 1022 054B     		ldr	r3, .L137
 2743 1024 0122     		movs	r2, #1
 2744 1026 83F89820 		strb	r2, [r3, #152]
 2745 102a 02E0     		b	.L121
 2746              	.L134:
 953:build/openmote-cc2538_armgcc/openstack/03b-IPv6/icmpv6rpl.c ****    } else {
 954:build/openmote-cc2538_armgcc/openstack/03b-IPv6/icmpv6rpl.c ****       openqueue_freePacketBuffer(msg);
 2747              		.loc 1 954 0
 2748 102c 386A     		ldr	r0, [r7, #32]
 2749 102e FFF7FEFF 		bl	openqueue_freePacketBuffer
 2750              	.L121:
 955:build/openmote-cc2538_armgcc/openstack/03b-IPv6/icmpv6rpl.c ****    }
 956:build/openmote-cc2538_armgcc/openstack/03b-IPv6/icmpv6rpl.c **** }
 2751              		.loc 1 956 0
 2752 1032 2837     		adds	r7, r7, #40
 2753              		.cfi_def_cfa_offset 16
 2754 1034 BD46     		mov	sp, r7
 2755              		.cfi_def_cfa_register 13
 2756              		@ sp needed
 2757 1036 B0BD     		pop	{r4, r5, r7, pc}
 2758              	.L138:
 2759              		.align	2
 2760              	.L137:
 2761 1038 00000000 		.word	icmpv6rpl_vars
 2762              		.cfi_endproc
 2763              	.LFE19:
 2765              		.align	2
 2766              		.global	icmpv6rpl_setDIOPeriod
 2767              		.thumb
 2768              		.thumb_func
 2770              	icmpv6rpl_setDIOPeriod:
 2771              	.LFB20:
 957:build/openmote-cc2538_armgcc/openstack/03b-IPv6/icmpv6rpl.c **** 
 958:build/openmote-cc2538_armgcc/openstack/03b-IPv6/icmpv6rpl.c **** void icmpv6rpl_setDIOPeriod(uint16_t dioPeriod){
 2772              		.loc 1 958 0
 2773              		.cfi_startproc
 2774              		@ args = 0, pretend = 0, frame = 8
 2775              		@ frame_needed = 1, uses_anonymous_args = 0
 2776              		@ link register save eliminated.
 2777 103c 80B4     		push	{r7}
 2778              		.cfi_def_cfa_offset 4
 2779              		.cfi_offset 7, -4
 2780 103e 83B0     		sub	sp, sp, #12
 2781              		.cfi_def_cfa_offset 16
 2782 1040 00AF     		add	r7, sp, #0
 2783              		.cfi_def_cfa_register 7
 2784 1042 0346     		mov	r3, r0
 2785 1044 FB80     		strh	r3, [r7, #6]	@ movhi
 959:build/openmote-cc2538_armgcc/openstack/03b-IPv6/icmpv6rpl.c ****     // convert to seconds
 960:build/openmote-cc2538_armgcc/openstack/03b-IPv6/icmpv6rpl.c ****     icmpv6rpl_vars.dioPeriod = dioPeriod/1000;
 2786              		.loc 1 960 0
 2787 1046 FB88     		ldrh	r3, [r7, #6]
 2788 1048 064A     		ldr	r2, .L140
 2789 104a A2FB0323 		umull	r2, r3, r2, r3
 2790 104e 9B09     		lsrs	r3, r3, #6
 2791 1050 9AB2     		uxth	r2, r3
 2792 1052 054B     		ldr	r3, .L140+4
 2793 1054 A3F86020 		strh	r2, [r3, #96]	@ movhi
 961:build/openmote-cc2538_armgcc/openstack/03b-IPv6/icmpv6rpl.c **** }
 2794              		.loc 1 961 0
 2795 1058 0C37     		adds	r7, r7, #12
 2796              		.cfi_def_cfa_offset 4
 2797 105a BD46     		mov	sp, r7
 2798              		.cfi_def_cfa_register 13
 2799              		@ sp needed
 2800 105c 5DF8047B 		ldr	r7, [sp], #4
 2801              		.cfi_restore 7
 2802              		.cfi_def_cfa_offset 0
 2803 1060 7047     		bx	lr
 2804              	.L141:
 2805 1062 00BF     		.align	2
 2806              	.L140:
 2807 1064 D34D6210 		.word	274877907
 2808 1068 00000000 		.word	icmpv6rpl_vars
 2809              		.cfi_endproc
 2810              	.LFE20:
 2812              		.align	2
 2813              		.global	icmpv6rpl_setDAOPeriod
 2814              		.thumb
 2815              		.thumb_func
 2817              	icmpv6rpl_setDAOPeriod:
 2818              	.LFB21:
 962:build/openmote-cc2538_armgcc/openstack/03b-IPv6/icmpv6rpl.c **** 
 963:build/openmote-cc2538_armgcc/openstack/03b-IPv6/icmpv6rpl.c **** void icmpv6rpl_setDAOPeriod(uint16_t daoPeriod){
 2819              		.loc 1 963 0
 2820              		.cfi_startproc
 2821              		@ args = 0, pretend = 0, frame = 8
 2822              		@ frame_needed = 1, uses_anonymous_args = 0
 2823              		@ link register save eliminated.
 2824 106c 80B4     		push	{r7}
 2825              		.cfi_def_cfa_offset 4
 2826              		.cfi_offset 7, -4
 2827 106e 83B0     		sub	sp, sp, #12
 2828              		.cfi_def_cfa_offset 16
 2829 1070 00AF     		add	r7, sp, #0
 2830              		.cfi_def_cfa_register 7
 2831 1072 0346     		mov	r3, r0
 2832 1074 FB80     		strh	r3, [r7, #6]	@ movhi
 964:build/openmote-cc2538_armgcc/openstack/03b-IPv6/icmpv6rpl.c ****     // convert to seconds
 965:build/openmote-cc2538_armgcc/openstack/03b-IPv6/icmpv6rpl.c ****     icmpv6rpl_vars.daoPeriod = daoPeriod/1000;
 2833              		.loc 1 965 0
 2834 1076 FB88     		ldrh	r3, [r7, #6]
 2835 1078 064A     		ldr	r2, .L143
 2836 107a A2FB0323 		umull	r2, r3, r2, r3
 2837 107e 9B09     		lsrs	r3, r3, #6
 2838 1080 9AB2     		uxth	r2, r3
 2839 1082 054B     		ldr	r3, .L143+4
 2840 1084 A3F88420 		strh	r2, [r3, #132]	@ movhi
 966:build/openmote-cc2538_armgcc/openstack/03b-IPv6/icmpv6rpl.c **** }
 2841              		.loc 1 966 0
 2842 1088 0C37     		adds	r7, r7, #12
 2843              		.cfi_def_cfa_offset 4
 2844 108a BD46     		mov	sp, r7
 2845              		.cfi_def_cfa_register 13
 2846              		@ sp needed
 2847 108c 5DF8047B 		ldr	r7, [sp], #4
 2848              		.cfi_restore 7
 2849              		.cfi_def_cfa_offset 0
 2850 1090 7047     		bx	lr
 2851              	.L144:
 2852 1092 00BF     		.align	2
 2853              	.L143:
 2854 1094 D34D6210 		.word	274877907
 2855 1098 00000000 		.word	icmpv6rpl_vars
 2856              		.cfi_endproc
 2857              	.LFE21:
 2859              		.align	2
 2860              		.global	icmpv6rpl_daoSent
 2861              		.thumb
 2862              		.thumb_func
 2864              	icmpv6rpl_daoSent:
 2865              	.LFB22:
 967:build/openmote-cc2538_armgcc/openstack/03b-IPv6/icmpv6rpl.c **** 
 968:build/openmote-cc2538_armgcc/openstack/03b-IPv6/icmpv6rpl.c **** bool icmpv6rpl_daoSent(void) {
 2866              		.loc 1 968 0
 2867              		.cfi_startproc
 2868              		@ args = 0, pretend = 0, frame = 0
 2869              		@ frame_needed = 1, uses_anonymous_args = 0
 2870 109c 80B5     		push	{r7, lr}
 2871              		.cfi_def_cfa_offset 8
 2872              		.cfi_offset 7, -8
 2873              		.cfi_offset 14, -4
 2874 109e 00AF     		add	r7, sp, #0
 2875              		.cfi_def_cfa_register 7
 969:build/openmote-cc2538_armgcc/openstack/03b-IPv6/icmpv6rpl.c ****     if (idmanager_getIsDAGroot()==TRUE) {
 2876              		.loc 1 969 0
 2877 10a0 FFF7FEFF 		bl	idmanager_getIsDAGroot
 2878 10a4 0346     		mov	r3, r0
 2879 10a6 002B     		cmp	r3, #0
 2880 10a8 01D0     		beq	.L146
 970:build/openmote-cc2538_armgcc/openstack/03b-IPv6/icmpv6rpl.c ****         return TRUE;
 2881              		.loc 1 970 0
 2882 10aa 0123     		movs	r3, #1
 2883 10ac 02E0     		b	.L147
 2884              	.L146:
 971:build/openmote-cc2538_armgcc/openstack/03b-IPv6/icmpv6rpl.c ****     }
 972:build/openmote-cc2538_armgcc/openstack/03b-IPv6/icmpv6rpl.c ****     return icmpv6rpl_vars.daoSent;
 2885              		.loc 1 972 0
 2886 10ae 024B     		ldr	r3, .L148
 2887 10b0 93F89830 		ldrb	r3, [r3, #152]	@ zero_extendqisi2
 2888              	.L147:
 973:build/openmote-cc2538_armgcc/openstack/03b-IPv6/icmpv6rpl.c **** }
 2889              		.loc 1 973 0
 2890 10b4 1846     		mov	r0, r3
 2891 10b6 80BD     		pop	{r7, pc}
 2892              	.L149:
 2893              		.align	2
 2894              	.L148:
 2895 10b8 00000000 		.word	icmpv6rpl_vars
 2896              		.cfi_endproc
 2897              	.LFE22:
 2899              	.Letext0:
 2900              		.file 2 "/usr/include/newlib/machine/_default_types.h"
 2901              		.file 3 "/usr/include/newlib/sys/_stdint.h"
 2902              		.file 4 "inc/opendefs.h"
 2903              		.file 5 "drivers/common/opentimers.h"
 2904              		.file 6 "build/openmote-cc2538_armgcc/openstack/03b-IPv6/icmpv6rpl.h"
 2905              		.file 7 "build/openmote-cc2538_armgcc/openstack/03b-IPv6/icmpv6.h"
 2906              		.file 8 "kernel/scheduler.h"
 2907              		.file 9 "bsp/boards/openmote-cc2538/board_info.h"
 2908              		.file 10 "openstack/cross-layers/idmanager.h"
 2909              		.file 11 "openstack/02a-MAClow/IEEE802154E.h"