   1              		.syntax unified
   2              		.cpu cortex-m3
   3              		.fpu softvfp
   4              		.eabi_attribute 20, 1
   5              		.eabi_attribute 21, 1
   6              		.eabi_attribute 23, 3
   7              		.eabi_attribute 24, 1
   8              		.eabi_attribute 25, 1
   9              		.eabi_attribute 26, 1
  10              		.eabi_attribute 30, 6
  11              		.eabi_attribute 34, 1
  12              		.eabi_attribute 18, 4
  13              		.thumb
  14              		.file	"iphc.c"
  15              		.text
  16              	.Ltext0:
  17              		.cfi_sections	.debug_frame
  18              		.section	.rodata
  19              		.align	2
  22              	rreg_uriquery:
  23 0000 683D7563 		.ascii	"h=ucb\000"
  23      6200
  24 0006 0000     		.align	2
  27              	infoBoardname:
  28 0008 43433235 		.ascii	"CC2538\000"
  28      333800
  29 000f 00       		.align	2
  32              	infouCName:
  33 0010 43433235 		.ascii	"CC2538\000"
  33      333800
  34 0017 00       		.align	2
  37              	infoRadioName:
  38 0018 43433235 		.ascii	"CC2538 SoC\000"
  38      33382053 
  38      6F4300
  39 0023 00       		.align	2
  42              	infoStackName:
  43 0024 4F70656E 		.ascii	"OpenWSN \000"
  43      57534E20 
  43      00
  44 002d 000000   		.align	2
  47              	linklocalprefix:
  48 0030 FE       		.byte	-2
  49 0031 80       		.byte	-128
  50 0032 00       		.byte	0
  51 0033 00       		.byte	0
  52 0034 00       		.byte	0
  53 0035 00       		.byte	0
  54 0036 00       		.byte	0
  55 0037 00       		.byte	0
  56              		.align	2
  59              	chTemplate_default:
  60 0038 05       		.byte	5
  61 0039 06       		.byte	6
  62 003a 0C       		.byte	12
  63 003b 07       		.byte	7
  64 003c 0F       		.byte	15
  65 003d 04       		.byte	4
  66 003e 0E       		.byte	14
  67 003f 0B       		.byte	11
  68 0040 08       		.byte	8
  69 0041 00       		.byte	0
  70 0042 01       		.byte	1
  71 0043 02       		.byte	2
  72 0044 0D       		.byte	13
  73 0045 03       		.byte	3
  74 0046 09       		.byte	9
  75 0047 0A       		.byte	10
  76              		.align	2
  79              	ebIEsBytestream:
  80 0048 1A       		.byte	26
  81 0049 88       		.byte	-120
  82 004a 06       		.byte	6
  83 004b 1A       		.byte	26
  84 004c 00       		.byte	0
  85 004d 00       		.byte	0
  86 004e 00       		.byte	0
  87 004f 00       		.byte	0
  88 0050 00       		.byte	0
  89 0051 00       		.byte	0
  90 0052 01       		.byte	1
  91 0053 1C       		.byte	28
  92 0054 00       		.byte	0
  93 0055 01       		.byte	1
  94 0056 C8       		.byte	-56
  95 0057 00       		.byte	0
  96 0058 0A       		.byte	10
  97 0059 1B       		.byte	27
  98 005a 01       		.byte	1
  99 005b 00       		.byte	0
 100 005c 65       		.byte	101
 101 005d 00       		.byte	0
 102 005e 01       		.byte	1
 103 005f 00       		.byte	0
 104 0060 00       		.byte	0
 105 0061 00       		.byte	0
 106 0062 00       		.byte	0
 107 0063 0F       		.byte	15
 108              		.align	2
 111              	all_routers_multicast:
 112 0064 FF       		.byte	-1
 113 0065 02       		.byte	2
 114 0066 00       		.byte	0
 115 0067 00       		.byte	0
 116 0068 00       		.byte	0
 117 0069 00       		.byte	0
 118 006a 00       		.byte	0
 119 006b 00       		.byte	0
 120 006c 00       		.byte	0
 121 006d 00       		.byte	0
 122 006e 00       		.byte	0
 123 006f 00       		.byte	0
 124 0070 00       		.byte	0
 125 0071 00       		.byte	0
 126 0072 00       		.byte	0
 127 0073 1A       		.byte	26
 128              		.align	2
 131              	dagroot_mac64b:
 132 0074 02       		.byte	2
 133 0075 00       		.byte	0
 134 0076 00       		.byte	0
 135 0077 00       		.byte	0
 136 0078 00       		.byte	0
 137 0079 00       		.byte	0
 138 007a 00       		.byte	0
 139 007b 00       		.byte	0
 140 007c 01       		.byte	1
 141              		.bss
 142              		.align	2
 143              	monitor_expiration_vars:
 144 0000 00000000 		.space	4
 145              		.text
 146              		.align	2
 147              		.global	iphc_init
 148              		.thumb
 149              		.thumb_func
 151              	iphc_init:
 152              	.LFB0:
 153              		.file 1 "build/openmote-cc2538_armgcc/openstack/03a-IPHC/iphc.c"
   1:build/openmote-cc2538_armgcc/openstack/03a-IPHC/iphc.c **** #include "opendefs.h"
   2:build/openmote-cc2538_armgcc/openstack/03a-IPHC/iphc.c **** #include "iphc.h"
   3:build/openmote-cc2538_armgcc/openstack/03a-IPHC/iphc.c **** #include "packetfunctions.h"
   4:build/openmote-cc2538_armgcc/openstack/03a-IPHC/iphc.c **** #include "idmanager.h"
   5:build/openmote-cc2538_armgcc/openstack/03a-IPHC/iphc.c **** #include "openserial.h"
   6:build/openmote-cc2538_armgcc/openstack/03a-IPHC/iphc.c **** #include "IEEE802154E.h"
   7:build/openmote-cc2538_armgcc/openstack/03a-IPHC/iphc.c **** #include "sixtop.h"
   8:build/openmote-cc2538_armgcc/openstack/03a-IPHC/iphc.c **** #include "forwarding.h"
   9:build/openmote-cc2538_armgcc/openstack/03a-IPHC/iphc.c **** #include "neighbors.h"
  10:build/openmote-cc2538_armgcc/openstack/03a-IPHC/iphc.c **** #include "openbridge.h"
  11:build/openmote-cc2538_armgcc/openstack/03a-IPHC/iphc.c **** #include "icmpv6rpl.h"
  12:build/openmote-cc2538_armgcc/openstack/03a-IPHC/iphc.c **** 
  13:build/openmote-cc2538_armgcc/openstack/03a-IPHC/iphc.c **** //=========================== variables =======================================
  14:build/openmote-cc2538_armgcc/openstack/03a-IPHC/iphc.c **** 
  15:build/openmote-cc2538_armgcc/openstack/03a-IPHC/iphc.c **** static const uint8_t dagroot_mac64b[]   = {0x02,
  16:build/openmote-cc2538_armgcc/openstack/03a-IPHC/iphc.c ****    0x00, 0x00, 0x00, 0x00, 0x00, 0x00, 0x00, 0x01
  17:build/openmote-cc2538_armgcc/openstack/03a-IPHC/iphc.c **** }; 
  18:build/openmote-cc2538_armgcc/openstack/03a-IPHC/iphc.c **** 
  19:build/openmote-cc2538_armgcc/openstack/03a-IPHC/iphc.c **** #ifdef DEADLINE_OPTION_ENABLED
  20:build/openmote-cc2538_armgcc/openstack/03a-IPHC/iphc.c ****     static monitor_expiration_vars_t  monitor_expiration_vars;
  21:build/openmote-cc2538_armgcc/openstack/03a-IPHC/iphc.c **** #endif
  22:build/openmote-cc2538_armgcc/openstack/03a-IPHC/iphc.c **** 
  23:build/openmote-cc2538_armgcc/openstack/03a-IPHC/iphc.c **** //=========================== prototypes ======================================
  24:build/openmote-cc2538_armgcc/openstack/03a-IPHC/iphc.c **** 
  25:build/openmote-cc2538_armgcc/openstack/03a-IPHC/iphc.c **** //===== IPv6 header
  26:build/openmote-cc2538_armgcc/openstack/03a-IPHC/iphc.c **** void iphc_retrieveIPv6Header(
  27:build/openmote-cc2538_armgcc/openstack/03a-IPHC/iphc.c ****    OpenQueueEntry_t* msg, 
  28:build/openmote-cc2538_armgcc/openstack/03a-IPHC/iphc.c ****    ipv6_header_iht* ipv6_outer_header,
  29:build/openmote-cc2538_armgcc/openstack/03a-IPHC/iphc.c ****    ipv6_header_iht* ipv6_inner_header,
  30:build/openmote-cc2538_armgcc/openstack/03a-IPHC/iphc.c ****    uint8_t*         page_length
  31:build/openmote-cc2538_armgcc/openstack/03a-IPHC/iphc.c **** );
  32:build/openmote-cc2538_armgcc/openstack/03a-IPHC/iphc.c **** uint8_t iphc_retrieveIphcHeader(open_addr_t* temp_addr_16b,
  33:build/openmote-cc2538_armgcc/openstack/03a-IPHC/iphc.c ****    open_addr_t*         temp_addr_64b,
  34:build/openmote-cc2538_armgcc/openstack/03a-IPHC/iphc.c ****    uint8_t*             dispatch,
  35:build/openmote-cc2538_armgcc/openstack/03a-IPHC/iphc.c ****    uint8_t*             tf,
  36:build/openmote-cc2538_armgcc/openstack/03a-IPHC/iphc.c ****    uint8_t*             nh,
  37:build/openmote-cc2538_armgcc/openstack/03a-IPHC/iphc.c ****    uint8_t*             hlim,
  38:build/openmote-cc2538_armgcc/openstack/03a-IPHC/iphc.c ****    uint8_t*             sam,
  39:build/openmote-cc2538_armgcc/openstack/03a-IPHC/iphc.c ****    uint8_t*             m,
  40:build/openmote-cc2538_armgcc/openstack/03a-IPHC/iphc.c ****    uint8_t*             dam,
  41:build/openmote-cc2538_armgcc/openstack/03a-IPHC/iphc.c ****    OpenQueueEntry_t*    msg,
  42:build/openmote-cc2538_armgcc/openstack/03a-IPHC/iphc.c ****    ipv6_header_iht*     ipv6_header,
  43:build/openmote-cc2538_armgcc/openstack/03a-IPHC/iphc.c ****    uint8_t              previousLen);
  44:build/openmote-cc2538_armgcc/openstack/03a-IPHC/iphc.c **** 
  45:build/openmote-cc2538_armgcc/openstack/03a-IPHC/iphc.c **** //===== IPv6 hop-by-hop header
  46:build/openmote-cc2538_armgcc/openstack/03a-IPHC/iphc.c **** void iphc_prependIPv6HopByHopHeader(
  47:build/openmote-cc2538_armgcc/openstack/03a-IPHC/iphc.c ****    OpenQueueEntry_t*    msg,
  48:build/openmote-cc2538_armgcc/openstack/03a-IPHC/iphc.c ****    uint8_t              nextheader,
  49:build/openmote-cc2538_armgcc/openstack/03a-IPHC/iphc.c ****    rpl_option_ht*       rpl_option
  50:build/openmote-cc2538_armgcc/openstack/03a-IPHC/iphc.c **** );
  51:build/openmote-cc2538_armgcc/openstack/03a-IPHC/iphc.c **** 
  52:build/openmote-cc2538_armgcc/openstack/03a-IPHC/iphc.c **** #ifdef DEADLINE_OPTION_ENABLED
  53:build/openmote-cc2538_armgcc/openstack/03a-IPHC/iphc.c **** // IPv6 Deadline hop-by-hop header
  54:build/openmote-cc2538_armgcc/openstack/03a-IPHC/iphc.c **** void iphc_prependIPv6DeadlineHeader(
  55:build/openmote-cc2538_armgcc/openstack/03a-IPHC/iphc.c ****    OpenQueueEntry_t* msg
  56:build/openmote-cc2538_armgcc/openstack/03a-IPHC/iphc.c **** );
  57:build/openmote-cc2538_armgcc/openstack/03a-IPHC/iphc.c **** 
  58:build/openmote-cc2538_armgcc/openstack/03a-IPHC/iphc.c **** uint8_t iphc_getAsnLen(
  59:build/openmote-cc2538_armgcc/openstack/03a-IPHC/iphc.c ****    uint8_t* asn
  60:build/openmote-cc2538_armgcc/openstack/03a-IPHC/iphc.c **** );
  61:build/openmote-cc2538_armgcc/openstack/03a-IPHC/iphc.c **** #endif
  62:build/openmote-cc2538_armgcc/openstack/03a-IPHC/iphc.c **** 
  63:build/openmote-cc2538_armgcc/openstack/03a-IPHC/iphc.c **** //=========================== public ==========================================
  64:build/openmote-cc2538_armgcc/openstack/03a-IPHC/iphc.c **** 
  65:build/openmote-cc2538_armgcc/openstack/03a-IPHC/iphc.c **** void      iphc_init(void) {
 154              		.loc 1 65 0
 155              		.cfi_startproc
 156              		@ args = 0, pretend = 0, frame = 0
 157              		@ frame_needed = 1, uses_anonymous_args = 0
 158              		@ link register save eliminated.
 159 0000 80B4     		push	{r7}
 160              		.cfi_def_cfa_offset 4
 161              		.cfi_offset 7, -4
 162 0002 00AF     		add	r7, sp, #0
 163              		.cfi_def_cfa_register 7
  66:build/openmote-cc2538_armgcc/openstack/03a-IPHC/iphc.c **** }
 164              		.loc 1 66 0
 165 0004 BD46     		mov	sp, r7
 166              		.cfi_def_cfa_register 13
 167              		@ sp needed
 168 0006 5DF8047B 		ldr	r7, [sp], #4
 169              		.cfi_restore 7
 170              		.cfi_def_cfa_offset 0
 171 000a 7047     		bx	lr
 172              		.cfi_endproc
 173              	.LFE0:
 175              		.align	2
 176              		.global	iphc_sendFromForwarding
 177              		.thumb
 178              		.thumb_func
 180              	iphc_sendFromForwarding:
 181              	.LFB1:
  67:build/openmote-cc2538_armgcc/openstack/03a-IPHC/iphc.c **** 
  68:build/openmote-cc2538_armgcc/openstack/03a-IPHC/iphc.c **** // send from upper layer: I need to add 6LoWPAN header
  69:build/openmote-cc2538_armgcc/openstack/03a-IPHC/iphc.c **** owerror_t iphc_sendFromForwarding(
  70:build/openmote-cc2538_armgcc/openstack/03a-IPHC/iphc.c ****     OpenQueueEntry_t* msg,
  71:build/openmote-cc2538_armgcc/openstack/03a-IPHC/iphc.c ****     ipv6_header_iht*  ipv6_outer_header,
  72:build/openmote-cc2538_armgcc/openstack/03a-IPHC/iphc.c ****     ipv6_header_iht*  ipv6_inner_header,
  73:build/openmote-cc2538_armgcc/openstack/03a-IPHC/iphc.c ****     rpl_option_ht*    rpl_option,
  74:build/openmote-cc2538_armgcc/openstack/03a-IPHC/iphc.c **** #ifdef DEADLINE_OPTION_ENABLED
  75:build/openmote-cc2538_armgcc/openstack/03a-IPHC/iphc.c ****     deadline_option_ht*	deadline_option,
  76:build/openmote-cc2538_armgcc/openstack/03a-IPHC/iphc.c **** #endif    
  77:build/openmote-cc2538_armgcc/openstack/03a-IPHC/iphc.c ****     uint32_t*         flow_label,
  78:build/openmote-cc2538_armgcc/openstack/03a-IPHC/iphc.c ****     uint8_t*          rh3_copy,
  79:build/openmote-cc2538_armgcc/openstack/03a-IPHC/iphc.c ****     uint8_t           rh3_length,
  80:build/openmote-cc2538_armgcc/openstack/03a-IPHC/iphc.c ****     uint8_t           fw_SendOrfw_Rcv
  81:build/openmote-cc2538_armgcc/openstack/03a-IPHC/iphc.c ****     ) {
 182              		.loc 1 81 0
 183              		.cfi_startproc
 184              		@ args = 20, pretend = 0, frame = 120
 185              		@ frame_needed = 1, uses_anonymous_args = 0
 186 000c 80B5     		push	{r7, lr}
 187              		.cfi_def_cfa_offset 8
 188              		.cfi_offset 7, -8
 189              		.cfi_offset 14, -4
 190 000e 9EB0     		sub	sp, sp, #120
 191              		.cfi_def_cfa_offset 128
 192 0010 00AF     		add	r7, sp, #0
 193              		.cfi_def_cfa_register 7
 194 0012 F860     		str	r0, [r7, #12]
 195 0014 B960     		str	r1, [r7, #8]
 196 0016 7A60     		str	r2, [r7, #4]
 197 0018 3B60     		str	r3, [r7]
  82:build/openmote-cc2538_armgcc/openstack/03a-IPHC/iphc.c ****     open_addr_t  temp_dest_prefix;
  83:build/openmote-cc2538_armgcc/openstack/03a-IPHC/iphc.c ****     open_addr_t  temp_dest_mac64b; 
  84:build/openmote-cc2538_armgcc/openstack/03a-IPHC/iphc.c ****     open_addr_t  temp_src_prefix;
  85:build/openmote-cc2538_armgcc/openstack/03a-IPHC/iphc.c ****     open_addr_t  temp_src_mac64b;
  86:build/openmote-cc2538_armgcc/openstack/03a-IPHC/iphc.c ****     open_addr_t  temp_dagroot_ip128b;
  87:build/openmote-cc2538_armgcc/openstack/03a-IPHC/iphc.c ****     uint8_t      sam;
  88:build/openmote-cc2538_armgcc/openstack/03a-IPHC/iphc.c ****     // take ownership over the packet
  89:build/openmote-cc2538_armgcc/openstack/03a-IPHC/iphc.c ****     msg->owner = COMPONENT_IPHC;
 198              		.loc 1 89 0
 199 001a FB68     		ldr	r3, [r7, #12]
 200 001c 1122     		movs	r2, #17
 201 001e 5A70     		strb	r2, [r3, #1]
  90:build/openmote-cc2538_armgcc/openstack/03a-IPHC/iphc.c ****    
  91:build/openmote-cc2538_armgcc/openstack/03a-IPHC/iphc.c ****     // error checking
  92:build/openmote-cc2538_armgcc/openstack/03a-IPHC/iphc.c ****     if (idmanager_getIsDAGroot()==TRUE &&
 202              		.loc 1 92 0
 203 0020 FFF7FEFF 		bl	idmanager_getIsDAGroot
 204 0024 0346     		mov	r3, r0
 205 0026 002B     		cmp	r3, #0
 206 0028 12D0     		beq	.L3
  93:build/openmote-cc2538_armgcc/openstack/03a-IPHC/iphc.c ****         packetfunctions_isAllRoutersMulticast(&(msg->l3_destinationAdd))==FALSE) {
 207              		.loc 1 93 0 discriminator 1
 208 002a FB68     		ldr	r3, [r7, #12]
 209 002c 1933     		adds	r3, r3, #25
 210 002e 1846     		mov	r0, r3
 211 0030 FFF7FEFF 		bl	packetfunctions_isAllRoutersMulticast
 212 0034 0346     		mov	r3, r0
 213 0036 83F00103 		eor	r3, r3, #1
 214 003a DBB2     		uxtb	r3, r3
  92:build/openmote-cc2538_armgcc/openstack/03a-IPHC/iphc.c ****         packetfunctions_isAllRoutersMulticast(&(msg->l3_destinationAdd))==FALSE) {
 215              		.loc 1 92 0 discriminator 1
 216 003c 002B     		cmp	r3, #0
 217 003e 07D0     		beq	.L3
  94:build/openmote-cc2538_armgcc/openstack/03a-IPHC/iphc.c ****         openserial_printCritical(COMPONENT_IPHC,ERR_BRIDGE_MISMATCH,
 218              		.loc 1 94 0
 219 0040 1120     		movs	r0, #17
 220 0042 3221     		movs	r1, #50
 221 0044 0022     		movs	r2, #0
 222 0046 0023     		movs	r3, #0
 223 0048 FFF7FEFF 		bl	openserial_printCritical
  95:build/openmote-cc2538_armgcc/openstack/03a-IPHC/iphc.c ****                             (errorparameter_t)0,
  96:build/openmote-cc2538_armgcc/openstack/03a-IPHC/iphc.c ****                             (errorparameter_t)0);
  97:build/openmote-cc2538_armgcc/openstack/03a-IPHC/iphc.c ****         return E_FAIL;
 224              		.loc 1 97 0
 225 004c 0123     		movs	r3, #1
 226 004e 51E1     		b	.L22
 227              	.L3:
  98:build/openmote-cc2538_armgcc/openstack/03a-IPHC/iphc.c ****     }
  99:build/openmote-cc2538_armgcc/openstack/03a-IPHC/iphc.c ****    
 100:build/openmote-cc2538_armgcc/openstack/03a-IPHC/iphc.c ****     //discard the packet.. hop limit reached.
 101:build/openmote-cc2538_armgcc/openstack/03a-IPHC/iphc.c ****     if (ipv6_outer_header->src.type != ADDR_NONE){
 228              		.loc 1 101 0
 229 0050 BB68     		ldr	r3, [r7, #8]
 230 0052 93F82230 		ldrb	r3, [r3, #34]	@ zero_extendqisi2
 231 0056 002B     		cmp	r3, #0
 232 0058 15D0     		beq	.L5
 102:build/openmote-cc2538_armgcc/openstack/03a-IPHC/iphc.c ****         // there is IPinIP check hop limit in ip in ip encapsulation
 103:build/openmote-cc2538_armgcc/openstack/03a-IPHC/iphc.c ****         if (ipv6_outer_header->hop_limit==0){
 233              		.loc 1 103 0
 234 005a BB68     		ldr	r3, [r7, #8]
 235 005c 93F82030 		ldrb	r3, [r3, #32]	@ zero_extendqisi2
 236 0060 002B     		cmp	r3, #0
 237 0062 07D1     		bne	.L6
 104:build/openmote-cc2538_armgcc/openstack/03a-IPHC/iphc.c ****             openserial_printError(COMPONENT_IPHC,ERR_HOP_LIMIT_REACHED,
 238              		.loc 1 104 0
 239 0064 1120     		movs	r0, #17
 240 0066 1121     		movs	r1, #17
 241 0068 0022     		movs	r2, #0
 242 006a 0023     		movs	r3, #0
 243 006c FFF7FEFF 		bl	openserial_printError
 105:build/openmote-cc2538_armgcc/openstack/03a-IPHC/iphc.c ****                                 (errorparameter_t)0,
 106:build/openmote-cc2538_armgcc/openstack/03a-IPHC/iphc.c ****                                 (errorparameter_t)0);
 107:build/openmote-cc2538_armgcc/openstack/03a-IPHC/iphc.c ****             return E_FAIL;
 244              		.loc 1 107 0
 245 0070 0123     		movs	r3, #1
 246 0072 3FE1     		b	.L22
 247              	.L6:
 108:build/openmote-cc2538_armgcc/openstack/03a-IPHC/iphc.c ****         } else {
 109:build/openmote-cc2538_armgcc/openstack/03a-IPHC/iphc.c ****             // decrement the packet's hop limit
 110:build/openmote-cc2538_armgcc/openstack/03a-IPHC/iphc.c ****             ipv6_outer_header->hop_limit--;
 248              		.loc 1 110 0
 249 0074 BB68     		ldr	r3, [r7, #8]
 250 0076 93F82030 		ldrb	r3, [r3, #32]	@ zero_extendqisi2
 251 007a 013B     		subs	r3, r3, #1
 252 007c DAB2     		uxtb	r2, r3
 253 007e BB68     		ldr	r3, [r7, #8]
 254 0080 83F82020 		strb	r2, [r3, #32]
 255 0084 14E0     		b	.L7
 256              	.L5:
 111:build/openmote-cc2538_armgcc/openstack/03a-IPHC/iphc.c ****         }
 112:build/openmote-cc2538_armgcc/openstack/03a-IPHC/iphc.c ****     } else {
 113:build/openmote-cc2538_armgcc/openstack/03a-IPHC/iphc.c ****         if (ipv6_inner_header->hop_limit==0) {
 257              		.loc 1 113 0
 258 0086 7B68     		ldr	r3, [r7, #4]
 259 0088 93F82030 		ldrb	r3, [r3, #32]	@ zero_extendqisi2
 260 008c 002B     		cmp	r3, #0
 261 008e 07D1     		bne	.L8
 114:build/openmote-cc2538_armgcc/openstack/03a-IPHC/iphc.c ****             openserial_printError(COMPONENT_IPHC,ERR_HOP_LIMIT_REACHED,
 262              		.loc 1 114 0
 263 0090 1120     		movs	r0, #17
 264 0092 1121     		movs	r1, #17
 265 0094 0022     		movs	r2, #0
 266 0096 0023     		movs	r3, #0
 267 0098 FFF7FEFF 		bl	openserial_printError
 115:build/openmote-cc2538_armgcc/openstack/03a-IPHC/iphc.c ****                                 (errorparameter_t)0,
 116:build/openmote-cc2538_armgcc/openstack/03a-IPHC/iphc.c ****                                 (errorparameter_t)0);
 117:build/openmote-cc2538_armgcc/openstack/03a-IPHC/iphc.c ****             return E_FAIL;
 268              		.loc 1 117 0
 269 009c 0123     		movs	r3, #1
 270 009e 29E1     		b	.L22
 271              	.L8:
 118:build/openmote-cc2538_armgcc/openstack/03a-IPHC/iphc.c ****         } else {
 119:build/openmote-cc2538_armgcc/openstack/03a-IPHC/iphc.c ****             // decrement the packet's hop limit
 120:build/openmote-cc2538_armgcc/openstack/03a-IPHC/iphc.c ****             ipv6_inner_header->hop_limit--;
 272              		.loc 1 120 0
 273 00a0 7B68     		ldr	r3, [r7, #4]
 274 00a2 93F82030 		ldrb	r3, [r3, #32]	@ zero_extendqisi2
 275 00a6 013B     		subs	r3, r3, #1
 276 00a8 DAB2     		uxtb	r2, r3
 277 00aa 7B68     		ldr	r3, [r7, #4]
 278 00ac 83F82020 		strb	r2, [r3, #32]
 279              	.L7:
 121:build/openmote-cc2538_armgcc/openstack/03a-IPHC/iphc.c ****         }
 122:build/openmote-cc2538_armgcc/openstack/03a-IPHC/iphc.c ****     }
 123:build/openmote-cc2538_armgcc/openstack/03a-IPHC/iphc.c ****    
 124:build/openmote-cc2538_armgcc/openstack/03a-IPHC/iphc.c ****     packetfunctions_ip128bToMac64b(&(msg->l3_destinationAdd),&temp_dest_prefix,&temp_dest_mac64b);
 280              		.loc 1 124 0
 281 00b0 FB68     		ldr	r3, [r7, #12]
 282 00b2 03F11901 		add	r1, r3, #25
 283 00b6 07F16402 		add	r2, r7, #100
 284 00ba 07F15003 		add	r3, r7, #80
 285 00be 0846     		mov	r0, r1
 286 00c0 1146     		mov	r1, r2
 287 00c2 1A46     		mov	r2, r3
 288 00c4 FFF7FEFF 		bl	packetfunctions_ip128bToMac64b
 125:build/openmote-cc2538_armgcc/openstack/03a-IPHC/iphc.c ****     //xv poipoi -- get the src prefix as well
 126:build/openmote-cc2538_armgcc/openstack/03a-IPHC/iphc.c ****     packetfunctions_ip128bToMac64b(&(msg->l3_sourceAdd),&temp_src_prefix,&temp_src_mac64b);
 289              		.loc 1 126 0
 290 00c8 FB68     		ldr	r3, [r7, #12]
 291 00ca 03F12A01 		add	r1, r3, #42
 292 00ce 07F13C02 		add	r2, r7, #60
 293 00d2 07F12803 		add	r3, r7, #40
 294 00d6 0846     		mov	r0, r1
 295 00d8 1146     		mov	r1, r2
 296 00da 1A46     		mov	r2, r3
 297 00dc FFF7FEFF 		bl	packetfunctions_ip128bToMac64b
 127:build/openmote-cc2538_armgcc/openstack/03a-IPHC/iphc.c ****     //XV -poipoi we want to check if the source address prefix is the same as destination prefix
 128:build/openmote-cc2538_armgcc/openstack/03a-IPHC/iphc.c ****     if (packetfunctions_sameAddress(&temp_dest_prefix,&temp_src_prefix)) {
 298              		.loc 1 128 0
 299 00e0 07F16402 		add	r2, r7, #100
 300 00e4 07F13C03 		add	r3, r7, #60
 301 00e8 1046     		mov	r0, r2
 302 00ea 1946     		mov	r1, r3
 303 00ec FFF7FEFF 		bl	packetfunctions_sameAddress
 304 00f0 0346     		mov	r3, r0
 305 00f2 002B     		cmp	r3, #0
 306 00f4 03D0     		beq	.L9
 129:build/openmote-cc2538_armgcc/openstack/03a-IPHC/iphc.c ****         sam = IPHC_SAM_64B;    // no ipinip 6loRH if in the same prefix
 307              		.loc 1 129 0
 308 00f6 0123     		movs	r3, #1
 309 00f8 87F87730 		strb	r3, [r7, #119]
 310 00fc 11E0     		b	.L10
 311              	.L9:
 130:build/openmote-cc2538_armgcc/openstack/03a-IPHC/iphc.c ****     } else {
 131:build/openmote-cc2538_armgcc/openstack/03a-IPHC/iphc.c ****         //not the same prefix. so the packet travels to another network
 132:build/openmote-cc2538_armgcc/openstack/03a-IPHC/iphc.c ****         //check if this is a source routing pkt. in case it is then the DAM is elided as it is in t
 133:build/openmote-cc2538_armgcc/openstack/03a-IPHC/iphc.c ****         if (packetfunctions_isBroadcastMulticast(&(msg->l3_destinationAdd))==FALSE){
 312              		.loc 1 133 0
 313 00fe FB68     		ldr	r3, [r7, #12]
 314 0100 1933     		adds	r3, r3, #25
 315 0102 1846     		mov	r0, r3
 316 0104 FFF7FEFF 		bl	packetfunctions_isBroadcastMulticast
 317 0108 0346     		mov	r3, r0
 318 010a 83F00103 		eor	r3, r3, #1
 319 010e DBB2     		uxtb	r3, r3
 320 0110 002B     		cmp	r3, #0
 321 0112 03D0     		beq	.L11
 134:build/openmote-cc2538_armgcc/openstack/03a-IPHC/iphc.c ****             // ip in ip will be presented
 135:build/openmote-cc2538_armgcc/openstack/03a-IPHC/iphc.c ****             sam = IPHC_SAM_128B;
 322              		.loc 1 135 0
 323 0114 0023     		movs	r3, #0
 324 0116 87F87730 		strb	r3, [r7, #119]
 325 011a 02E0     		b	.L10
 326              	.L11:
 136:build/openmote-cc2538_armgcc/openstack/03a-IPHC/iphc.c ****         } else {
 137:build/openmote-cc2538_armgcc/openstack/03a-IPHC/iphc.c ****             // this is DIO, source address elided, multicast bit is set
 138:build/openmote-cc2538_armgcc/openstack/03a-IPHC/iphc.c ****             sam = IPHC_SAM_ELIDED;
 327              		.loc 1 138 0
 328 011c 0323     		movs	r3, #3
 329 011e 87F87730 		strb	r3, [r7, #119]
 330              	.L10:
 139:build/openmote-cc2538_armgcc/openstack/03a-IPHC/iphc.c ****         }
 140:build/openmote-cc2538_armgcc/openstack/03a-IPHC/iphc.c ****     }
 141:build/openmote-cc2538_armgcc/openstack/03a-IPHC/iphc.c **** 
 142:build/openmote-cc2538_armgcc/openstack/03a-IPHC/iphc.c ****     //IPinIP 6LoRH will be added at here if necessary.
 143:build/openmote-cc2538_armgcc/openstack/03a-IPHC/iphc.c ****     if (packetfunctions_sameAddress(&temp_dest_prefix,&temp_src_prefix)){
 331              		.loc 1 143 0
 332 0122 07F16402 		add	r2, r7, #100
 333 0126 07F13C03 		add	r3, r7, #60
 334 012a 1046     		mov	r0, r2
 335 012c 1946     		mov	r1, r3
 336 012e FFF7FEFF 		bl	packetfunctions_sameAddress
 337 0132 0346     		mov	r3, r0
 338 0134 002B     		cmp	r3, #0
 339 0136 7ED1     		bne	.L12
 144:build/openmote-cc2538_armgcc/openstack/03a-IPHC/iphc.c ****         // same network, IPinIP is elided
 145:build/openmote-cc2538_armgcc/openstack/03a-IPHC/iphc.c ****     } else {
 146:build/openmote-cc2538_armgcc/openstack/03a-IPHC/iphc.c ****         if (packetfunctions_isBroadcastMulticast(&(msg->l3_destinationAdd))==FALSE){
 340              		.loc 1 146 0
 341 0138 FB68     		ldr	r3, [r7, #12]
 342 013a 1933     		adds	r3, r3, #25
 343 013c 1846     		mov	r0, r3
 344 013e FFF7FEFF 		bl	packetfunctions_isBroadcastMulticast
 345 0142 0346     		mov	r3, r0
 346 0144 83F00103 		eor	r3, r3, #1
 347 0148 DBB2     		uxtb	r3, r3
 348 014a 002B     		cmp	r3, #0
 349 014c 73D0     		beq	.L12
 147:build/openmote-cc2538_armgcc/openstack/03a-IPHC/iphc.c ****           memset(&(temp_dagroot_ip128b),0,sizeof(open_addr_t));
 350              		.loc 1 147 0
 351 014e 07F11403 		add	r3, r7, #20
 352 0152 1846     		mov	r0, r3
 353 0154 0021     		movs	r1, #0
 354 0156 1122     		movs	r2, #17
 355 0158 FFF7FEFF 		bl	memset
 148:build/openmote-cc2538_armgcc/openstack/03a-IPHC/iphc.c ****           packetfunctions_mac64bToIp128b(idmanager_getMyID(ADDR_PREFIX),(open_addr_t*)dagroot_mac64
 356              		.loc 1 148 0
 357 015c 0520     		movs	r0, #5
 358 015e FFF7FEFF 		bl	idmanager_getMyID
 359 0162 0246     		mov	r2, r0
 360 0164 07F11403 		add	r3, r7, #20
 361 0168 1046     		mov	r0, r2
 362 016a 6449     		ldr	r1, .L23
 363 016c 1A46     		mov	r2, r3
 364 016e FFF7FEFF 		bl	packetfunctions_mac64bToIp128b
 149:build/openmote-cc2538_armgcc/openstack/03a-IPHC/iphc.c ****             if (
 150:build/openmote-cc2538_armgcc/openstack/03a-IPHC/iphc.c ****                 (
 151:build/openmote-cc2538_armgcc/openstack/03a-IPHC/iphc.c ****                   ipv6_outer_header->src.type == ADDR_NONE &&
 365              		.loc 1 151 0
 366 0172 BB68     		ldr	r3, [r7, #8]
 367 0174 93F82230 		ldrb	r3, [r3, #34]	@ zero_extendqisi2
 149:build/openmote-cc2538_armgcc/openstack/03a-IPHC/iphc.c ****             if (
 368              		.loc 1 149 0
 369 0178 002B     		cmp	r3, #0
 370 017a 0BD1     		bne	.L13
 152:build/openmote-cc2538_armgcc/openstack/03a-IPHC/iphc.c ****                   packetfunctions_sameAddress(&(msg->l3_sourceAdd),&(temp_dagroot_ip128b))
 371              		.loc 1 152 0
 372 017c FB68     		ldr	r3, [r7, #12]
 373 017e 03F12A02 		add	r2, r3, #42
 374 0182 07F11403 		add	r3, r7, #20
 375 0186 1046     		mov	r0, r2
 376 0188 1946     		mov	r1, r3
 377 018a FFF7FEFF 		bl	packetfunctions_sameAddress
 378 018e 0346     		mov	r3, r0
 151:build/openmote-cc2538_armgcc/openstack/03a-IPHC/iphc.c ****                   packetfunctions_sameAddress(&(msg->l3_sourceAdd),&(temp_dagroot_ip128b))
 379              		.loc 1 151 0
 380 0190 002B     		cmp	r3, #0
 381 0192 10D1     		bne	.L14
 382              	.L13:
 153:build/openmote-cc2538_armgcc/openstack/03a-IPHC/iphc.c ****                 ) || 
 154:build/openmote-cc2538_armgcc/openstack/03a-IPHC/iphc.c ****                 (
 155:build/openmote-cc2538_armgcc/openstack/03a-IPHC/iphc.c ****                   ipv6_outer_header->src.type != ADDR_NONE &&
 383              		.loc 1 155 0
 384 0194 BB68     		ldr	r3, [r7, #8]
 385 0196 93F82230 		ldrb	r3, [r3, #34]	@ zero_extendqisi2
 153:build/openmote-cc2538_armgcc/openstack/03a-IPHC/iphc.c ****                 ) || 
 386              		.loc 1 153 0
 387 019a 002B     		cmp	r3, #0
 388 019c 26D0     		beq	.L15
 156:build/openmote-cc2538_armgcc/openstack/03a-IPHC/iphc.c ****                   packetfunctions_sameAddress(&(ipv6_outer_header->src),&(temp_dagroot_ip128b))
 389              		.loc 1 156 0
 390 019e BB68     		ldr	r3, [r7, #8]
 391 01a0 03F12202 		add	r2, r3, #34
 392 01a4 07F11403 		add	r3, r7, #20
 393 01a8 1046     		mov	r0, r2
 394 01aa 1946     		mov	r1, r3
 395 01ac FFF7FEFF 		bl	packetfunctions_sameAddress
 396 01b0 0346     		mov	r3, r0
 155:build/openmote-cc2538_armgcc/openstack/03a-IPHC/iphc.c ****                   packetfunctions_sameAddress(&(ipv6_outer_header->src),&(temp_dagroot_ip128b))
 397              		.loc 1 155 0
 398 01b2 002B     		cmp	r3, #0
 399 01b4 1AD0     		beq	.L15
 400              	.L14:
 157:build/openmote-cc2538_armgcc/openstack/03a-IPHC/iphc.c ****                  )
 158:build/openmote-cc2538_armgcc/openstack/03a-IPHC/iphc.c ****             ){
 159:build/openmote-cc2538_armgcc/openstack/03a-IPHC/iphc.c ****                 // hop limit
 160:build/openmote-cc2538_armgcc/openstack/03a-IPHC/iphc.c ****                 packetfunctions_reserveHeaderSize(msg,sizeof(uint8_t));
 401              		.loc 1 160 0
 402 01b6 F868     		ldr	r0, [r7, #12]
 403 01b8 0121     		movs	r1, #1
 404 01ba FFF7FEFF 		bl	packetfunctions_reserveHeaderSize
 161:build/openmote-cc2538_armgcc/openstack/03a-IPHC/iphc.c ****                 *((uint8_t*)(msg->payload)) = ipv6_outer_header->hop_limit;
 405              		.loc 1 161 0
 406 01be FB68     		ldr	r3, [r7, #12]
 407 01c0 5B68     		ldr	r3, [r3, #4]
 408 01c2 BA68     		ldr	r2, [r7, #8]
 409 01c4 92F82020 		ldrb	r2, [r2, #32]	@ zero_extendqisi2
 410 01c8 1A70     		strb	r2, [r3]
 162:build/openmote-cc2538_armgcc/openstack/03a-IPHC/iphc.c ****                 // type
 163:build/openmote-cc2538_armgcc/openstack/03a-IPHC/iphc.c ****                 packetfunctions_reserveHeaderSize(msg,sizeof(uint8_t));
 411              		.loc 1 163 0
 412 01ca F868     		ldr	r0, [r7, #12]
 413 01cc 0121     		movs	r1, #1
 414 01ce FFF7FEFF 		bl	packetfunctions_reserveHeaderSize
 164:build/openmote-cc2538_armgcc/openstack/03a-IPHC/iphc.c ****                 *((uint8_t*)(msg->payload)) = IPECAP_6LOTH_TYPE;
 415              		.loc 1 164 0
 416 01d2 FB68     		ldr	r3, [r7, #12]
 417 01d4 5B68     		ldr	r3, [r3, #4]
 418 01d6 0622     		movs	r2, #6
 419 01d8 1A70     		strb	r2, [r3]
 165:build/openmote-cc2538_armgcc/openstack/03a-IPHC/iphc.c ****                 // length 
 166:build/openmote-cc2538_armgcc/openstack/03a-IPHC/iphc.c ****                 packetfunctions_reserveHeaderSize(msg,sizeof(uint8_t));
 420              		.loc 1 166 0
 421 01da F868     		ldr	r0, [r7, #12]
 422 01dc 0121     		movs	r1, #1
 423 01de FFF7FEFF 		bl	packetfunctions_reserveHeaderSize
 167:build/openmote-cc2538_armgcc/openstack/03a-IPHC/iphc.c ****                 *((uint8_t*)(msg->payload)) = ELECTIVE_6LoRH | 1;
 424              		.loc 1 167 0
 425 01e2 FB68     		ldr	r3, [r7, #12]
 426 01e4 5B68     		ldr	r3, [r3, #4]
 427 01e6 A122     		movs	r2, #161
 428 01e8 1A70     		strb	r2, [r3]
 429 01ea 24E0     		b	.L12
 430              	.L15:
 168:build/openmote-cc2538_armgcc/openstack/03a-IPHC/iphc.c ****             }
 169:build/openmote-cc2538_armgcc/openstack/03a-IPHC/iphc.c ****             else {
 170:build/openmote-cc2538_armgcc/openstack/03a-IPHC/iphc.c ****                 if (sam == IPHC_SAM_128B){
 431              		.loc 1 170 0
 432 01ec 97F87730 		ldrb	r3, [r7, #119]	@ zero_extendqisi2
 433 01f0 002B     		cmp	r3, #0
 434 01f2 20D1     		bne	.L12
 171:build/openmote-cc2538_armgcc/openstack/03a-IPHC/iphc.c ****                     // encapsulate address
 172:build/openmote-cc2538_armgcc/openstack/03a-IPHC/iphc.c ****                     packetfunctions_writeAddress(msg, &(msg->l3_sourceAdd),OW_BIG_ENDIAN);
 435              		.loc 1 172 0
 436 01f4 FB68     		ldr	r3, [r7, #12]
 437 01f6 2A33     		adds	r3, r3, #42
 438 01f8 F868     		ldr	r0, [r7, #12]
 439 01fa 1946     		mov	r1, r3
 440 01fc 0022     		movs	r2, #0
 441 01fe FFF7FEFF 		bl	packetfunctions_writeAddress
 173:build/openmote-cc2538_armgcc/openstack/03a-IPHC/iphc.c ****                     // hoplim
 174:build/openmote-cc2538_armgcc/openstack/03a-IPHC/iphc.c ****                     packetfunctions_reserveHeaderSize(msg,sizeof(uint8_t));
 442              		.loc 1 174 0
 443 0202 F868     		ldr	r0, [r7, #12]
 444 0204 0121     		movs	r1, #1
 445 0206 FFF7FEFF 		bl	packetfunctions_reserveHeaderSize
 175:build/openmote-cc2538_armgcc/openstack/03a-IPHC/iphc.c ****                     *((uint8_t*)(msg->payload)) = ipv6_outer_header->hop_limit;
 446              		.loc 1 175 0
 447 020a FB68     		ldr	r3, [r7, #12]
 448 020c 5B68     		ldr	r3, [r3, #4]
 449 020e BA68     		ldr	r2, [r7, #8]
 450 0210 92F82020 		ldrb	r2, [r2, #32]	@ zero_extendqisi2
 451 0214 1A70     		strb	r2, [r3]
 176:build/openmote-cc2538_armgcc/openstack/03a-IPHC/iphc.c ****                     // type
 177:build/openmote-cc2538_armgcc/openstack/03a-IPHC/iphc.c ****                     packetfunctions_reserveHeaderSize(msg,sizeof(uint8_t));
 452              		.loc 1 177 0
 453 0216 F868     		ldr	r0, [r7, #12]
 454 0218 0121     		movs	r1, #1
 455 021a FFF7FEFF 		bl	packetfunctions_reserveHeaderSize
 178:build/openmote-cc2538_armgcc/openstack/03a-IPHC/iphc.c ****                     *((uint8_t*)(msg->payload)) = IPECAP_6LOTH_TYPE;
 456              		.loc 1 178 0
 457 021e FB68     		ldr	r3, [r7, #12]
 458 0220 5B68     		ldr	r3, [r3, #4]
 459 0222 0622     		movs	r2, #6
 460 0224 1A70     		strb	r2, [r3]
 179:build/openmote-cc2538_armgcc/openstack/03a-IPHC/iphc.c ****                     // length
 180:build/openmote-cc2538_armgcc/openstack/03a-IPHC/iphc.c ****                     packetfunctions_reserveHeaderSize(msg,sizeof(uint8_t));
 461              		.loc 1 180 0
 462 0226 F868     		ldr	r0, [r7, #12]
 463 0228 0121     		movs	r1, #1
 464 022a FFF7FEFF 		bl	packetfunctions_reserveHeaderSize
 181:build/openmote-cc2538_armgcc/openstack/03a-IPHC/iphc.c ****                     *((uint8_t*)(msg->payload)) = ELECTIVE_6LoRH | 17;
 465              		.loc 1 181 0
 466 022e FB68     		ldr	r3, [r7, #12]
 467 0230 5B68     		ldr	r3, [r3, #4]
 468 0232 B122     		movs	r2, #177
 469 0234 1A70     		strb	r2, [r3]
 470              	.L12:
 182:build/openmote-cc2538_armgcc/openstack/03a-IPHC/iphc.c ****                 }
 183:build/openmote-cc2538_armgcc/openstack/03a-IPHC/iphc.c ****             }
 184:build/openmote-cc2538_armgcc/openstack/03a-IPHC/iphc.c ****         } else {
 185:build/openmote-cc2538_armgcc/openstack/03a-IPHC/iphc.c ****             // this is DIO, no IPinIP either
 186:build/openmote-cc2538_armgcc/openstack/03a-IPHC/iphc.c ****         }
 187:build/openmote-cc2538_armgcc/openstack/03a-IPHC/iphc.c ****     }
 188:build/openmote-cc2538_armgcc/openstack/03a-IPHC/iphc.c ****     
 189:build/openmote-cc2538_armgcc/openstack/03a-IPHC/iphc.c **** #ifdef DEADLINE_OPTION_ENABLED
 190:build/openmote-cc2538_armgcc/openstack/03a-IPHC/iphc.c ****     if ( (msg->creator == COMPONENT_UEXPIRATION) && (deadline_option != NULL) ) { 
 471              		.loc 1 190 0
 472 0236 FB68     		ldr	r3, [r7, #12]
 473 0238 1B78     		ldrb	r3, [r3]	@ zero_extendqisi2
 474 023a 252B     		cmp	r3, #37
 475 023c 16D1     		bne	.L17
 476              		.loc 1 190 0 is_stmt 0 discriminator 1
 477 023e D7F88030 		ldr	r3, [r7, #128]
 478 0242 002B     		cmp	r3, #0
 479 0244 12D0     		beq	.L17
 191:build/openmote-cc2538_armgcc/openstack/03a-IPHC/iphc.c ****         if (
 192:build/openmote-cc2538_armgcc/openstack/03a-IPHC/iphc.c ****             deadline_option->optionType==DEADLINE_HOPBYHOP_HEADER_OPTION_TYPE && 
 480              		.loc 1 192 0 is_stmt 1
 481 0246 D7F88030 		ldr	r3, [r7, #128]
 482 024a 1B78     		ldrb	r3, [r3]	@ zero_extendqisi2
 191:build/openmote-cc2538_armgcc/openstack/03a-IPHC/iphc.c ****         if (
 483              		.loc 1 191 0
 484 024c AB2B     		cmp	r3, #171
 485 024e 0DD1     		bne	.L17
 193:build/openmote-cc2538_armgcc/openstack/03a-IPHC/iphc.c ****             packetfunctions_isBroadcastMulticast(&(msg->l3_destinationAdd))==FALSE
 486              		.loc 1 193 0
 487 0250 FB68     		ldr	r3, [r7, #12]
 488 0252 1933     		adds	r3, r3, #25
 489 0254 1846     		mov	r0, r3
 490 0256 FFF7FEFF 		bl	packetfunctions_isBroadcastMulticast
 491 025a 0346     		mov	r3, r0
 492 025c 83F00103 		eor	r3, r3, #1
 493 0260 DBB2     		uxtb	r3, r3
 192:build/openmote-cc2538_armgcc/openstack/03a-IPHC/iphc.c ****             packetfunctions_isBroadcastMulticast(&(msg->l3_destinationAdd))==FALSE
 494              		.loc 1 192 0
 495 0262 002B     		cmp	r3, #0
 496 0264 02D0     		beq	.L17
 194:build/openmote-cc2538_armgcc/openstack/03a-IPHC/iphc.c ****         ){                    
 195:build/openmote-cc2538_armgcc/openstack/03a-IPHC/iphc.c **** 						iphc_prependIPv6DeadlineHeader(msg);
 497              		.loc 1 195 0
 498 0266 F868     		ldr	r0, [r7, #12]
 499 0268 FFF7FEFF 		bl	iphc_prependIPv6DeadlineHeader
 500              	.L17:
 196:build/openmote-cc2538_armgcc/openstack/03a-IPHC/iphc.c ****         }
 197:build/openmote-cc2538_armgcc/openstack/03a-IPHC/iphc.c ****     }
 198:build/openmote-cc2538_armgcc/openstack/03a-IPHC/iphc.c **** #endif     
 199:build/openmote-cc2538_armgcc/openstack/03a-IPHC/iphc.c ****     
 200:build/openmote-cc2538_armgcc/openstack/03a-IPHC/iphc.c ****     //prepend Option hop by hop header except when src routing and dst is not 0xffff
 201:build/openmote-cc2538_armgcc/openstack/03a-IPHC/iphc.c ****     //-- this is a little trick as src routing is using an option header set to 0x00
 202:build/openmote-cc2538_armgcc/openstack/03a-IPHC/iphc.c ****     if (
 203:build/openmote-cc2538_armgcc/openstack/03a-IPHC/iphc.c ****         rpl_option->optionType==RPL_HOPBYHOP_HEADER_OPTION_TYPE && 
 501              		.loc 1 203 0
 502 026c 3B68     		ldr	r3, [r7]
 503 026e 1B78     		ldrb	r3, [r3]	@ zero_extendqisi2
 202:build/openmote-cc2538_armgcc/openstack/03a-IPHC/iphc.c ****         rpl_option->optionType==RPL_HOPBYHOP_HEADER_OPTION_TYPE && 
 504              		.loc 1 202 0
 505 0270 632B     		cmp	r3, #99
 506 0272 11D1     		bne	.L18
 204:build/openmote-cc2538_armgcc/openstack/03a-IPHC/iphc.c ****         packetfunctions_isBroadcastMulticast(&(msg->l3_destinationAdd))==FALSE
 507              		.loc 1 204 0
 508 0274 FB68     		ldr	r3, [r7, #12]
 509 0276 1933     		adds	r3, r3, #25
 510 0278 1846     		mov	r0, r3
 511 027a FFF7FEFF 		bl	packetfunctions_isBroadcastMulticast
 512 027e 0346     		mov	r3, r0
 513 0280 83F00103 		eor	r3, r3, #1
 514 0284 DBB2     		uxtb	r3, r3
 203:build/openmote-cc2538_armgcc/openstack/03a-IPHC/iphc.c ****         packetfunctions_isBroadcastMulticast(&(msg->l3_destinationAdd))==FALSE
 515              		.loc 1 203 0
 516 0286 002B     		cmp	r3, #0
 517 0288 06D0     		beq	.L18
 205:build/openmote-cc2538_armgcc/openstack/03a-IPHC/iphc.c ****     ){
 206:build/openmote-cc2538_armgcc/openstack/03a-IPHC/iphc.c ****         iphc_prependIPv6HopByHopHeader(msg, msg->l4_protocol, rpl_option);
 518              		.loc 1 206 0
 519 028a FB68     		ldr	r3, [r7, #12]
 520 028c 9B7B     		ldrb	r3, [r3, #14]	@ zero_extendqisi2
 521 028e F868     		ldr	r0, [r7, #12]
 522 0290 1946     		mov	r1, r3
 523 0292 3A68     		ldr	r2, [r7]
 524 0294 FFF7FEFF 		bl	iphc_prependIPv6HopByHopHeader
 525              	.L18:
 207:build/openmote-cc2538_armgcc/openstack/03a-IPHC/iphc.c ****     }
 208:build/openmote-cc2538_armgcc/openstack/03a-IPHC/iphc.c ****     
 209:build/openmote-cc2538_armgcc/openstack/03a-IPHC/iphc.c ****     // copy RH3s back if length > 0
 210:build/openmote-cc2538_armgcc/openstack/03a-IPHC/iphc.c ****     if (rh3_length > 0){
 526              		.loc 1 210 0
 527 0298 97F88C30 		ldrb	r3, [r7, #140]	@ zero_extendqisi2
 528 029c 002B     		cmp	r3, #0
 529 029e 0FD0     		beq	.L19
 211:build/openmote-cc2538_armgcc/openstack/03a-IPHC/iphc.c ****         packetfunctions_reserveHeaderSize(msg,rh3_length);
 530              		.loc 1 211 0
 531 02a0 97F88C30 		ldrb	r3, [r7, #140]	@ zero_extendqisi2
 532 02a4 F868     		ldr	r0, [r7, #12]
 533 02a6 1946     		mov	r1, r3
 534 02a8 FFF7FEFF 		bl	packetfunctions_reserveHeaderSize
 212:build/openmote-cc2538_armgcc/openstack/03a-IPHC/iphc.c ****         memcpy(&msg->payload[0],&rh3_copy[0],rh3_length);
 535              		.loc 1 212 0
 536 02ac FB68     		ldr	r3, [r7, #12]
 537 02ae 5A68     		ldr	r2, [r3, #4]
 538 02b0 97F88C30 		ldrb	r3, [r7, #140]	@ zero_extendqisi2
 539 02b4 1046     		mov	r0, r2
 540 02b6 D7F88810 		ldr	r1, [r7, #136]
 541 02ba 1A46     		mov	r2, r3
 542 02bc FFF7FEFF 		bl	memcpy
 543              	.L19:
 213:build/openmote-cc2538_armgcc/openstack/03a-IPHC/iphc.c ****     }
 214:build/openmote-cc2538_armgcc/openstack/03a-IPHC/iphc.c ****     
 215:build/openmote-cc2538_armgcc/openstack/03a-IPHC/iphc.c ****     // if there are 6LoRH in the packet, add page dispatch no.1
 216:build/openmote-cc2538_armgcc/openstack/03a-IPHC/iphc.c ****     if (
 217:build/openmote-cc2538_armgcc/openstack/03a-IPHC/iphc.c ****         (*((uint8_t*)(msg->payload)) & FORMAT_6LORH_MASK) == CRITICAL_6LORH ||
 544              		.loc 1 217 0
 545 02c0 FB68     		ldr	r3, [r7, #12]
 546 02c2 5B68     		ldr	r3, [r3, #4]
 547 02c4 1B78     		ldrb	r3, [r3]	@ zero_extendqisi2
 548 02c6 03F0E003 		and	r3, r3, #224
 216:build/openmote-cc2538_armgcc/openstack/03a-IPHC/iphc.c ****         (*((uint8_t*)(msg->payload)) & FORMAT_6LORH_MASK) == CRITICAL_6LORH ||
 549              		.loc 1 216 0
 550 02ca 802B     		cmp	r3, #128
 551 02cc 06D0     		beq	.L20
 218:build/openmote-cc2538_armgcc/openstack/03a-IPHC/iphc.c ****         (*((uint8_t*)(msg->payload)) & FORMAT_6LORH_MASK) == ELECTIVE_6LoRH
 552              		.loc 1 218 0
 553 02ce FB68     		ldr	r3, [r7, #12]
 554 02d0 5B68     		ldr	r3, [r3, #4]
 555 02d2 1B78     		ldrb	r3, [r3]	@ zero_extendqisi2
 556 02d4 03F0E003 		and	r3, r3, #224
 217:build/openmote-cc2538_armgcc/openstack/03a-IPHC/iphc.c ****         (*((uint8_t*)(msg->payload)) & FORMAT_6LORH_MASK) == ELECTIVE_6LoRH
 557              		.loc 1 217 0
 558 02d8 A02B     		cmp	r3, #160
 559 02da 07D1     		bne	.L21
 560              	.L20:
 219:build/openmote-cc2538_armgcc/openstack/03a-IPHC/iphc.c ****     ){
 220:build/openmote-cc2538_armgcc/openstack/03a-IPHC/iphc.c ****         packetfunctions_reserveHeaderSize(msg,sizeof(uint8_t));
 561              		.loc 1 220 0
 562 02dc F868     		ldr	r0, [r7, #12]
 563 02de 0121     		movs	r1, #1
 564 02e0 FFF7FEFF 		bl	packetfunctions_reserveHeaderSize
 221:build/openmote-cc2538_armgcc/openstack/03a-IPHC/iphc.c ****         *((uint8_t*)(msg->payload)) = PAGE_DISPATCH_NO_1;
 565              		.loc 1 221 0
 566 02e4 FB68     		ldr	r3, [r7, #12]
 567 02e6 5B68     		ldr	r3, [r3, #4]
 568 02e8 F122     		movs	r2, #241
 569 02ea 1A70     		strb	r2, [r3]
 570              	.L21:
 222:build/openmote-cc2538_armgcc/openstack/03a-IPHC/iphc.c ****     }
 223:build/openmote-cc2538_armgcc/openstack/03a-IPHC/iphc.c ****     
 224:build/openmote-cc2538_armgcc/openstack/03a-IPHC/iphc.c ****     return sixtop_send(msg);
 571              		.loc 1 224 0
 572 02ec F868     		ldr	r0, [r7, #12]
 573 02ee FFF7FEFF 		bl	sixtop_send
 574 02f2 0346     		mov	r3, r0
 575              	.L22:
 225:build/openmote-cc2538_armgcc/openstack/03a-IPHC/iphc.c **** }
 576              		.loc 1 225 0 discriminator 1
 577 02f4 1846     		mov	r0, r3
 578 02f6 7837     		adds	r7, r7, #120
 579              		.cfi_def_cfa_offset 8
 580 02f8 BD46     		mov	sp, r7
 581              		.cfi_def_cfa_register 13
 582              		@ sp needed
 583 02fa 80BD     		pop	{r7, pc}
 584              	.L24:
 585              		.align	2
 586              	.L23:
 587 02fc 74000000 		.word	dagroot_mac64b
 588              		.cfi_endproc
 589              	.LFE1:
 591              		.align	2
 592              		.global	iphc_sendFromBridge
 593              		.thumb
 594              		.thumb_func
 596              	iphc_sendFromBridge:
 597              	.LFB2:
 226:build/openmote-cc2538_armgcc/openstack/03a-IPHC/iphc.c **** 
 227:build/openmote-cc2538_armgcc/openstack/03a-IPHC/iphc.c **** //send from bridge: 6LoWPAN header already added by OpenLBR, send as is
 228:build/openmote-cc2538_armgcc/openstack/03a-IPHC/iphc.c **** owerror_t iphc_sendFromBridge(OpenQueueEntry_t *msg) {
 598              		.loc 1 228 0
 599              		.cfi_startproc
 600              		@ args = 0, pretend = 0, frame = 8
 601              		@ frame_needed = 1, uses_anonymous_args = 0
 602 0300 80B5     		push	{r7, lr}
 603              		.cfi_def_cfa_offset 8
 604              		.cfi_offset 7, -8
 605              		.cfi_offset 14, -4
 606 0302 82B0     		sub	sp, sp, #8
 607              		.cfi_def_cfa_offset 16
 608 0304 00AF     		add	r7, sp, #0
 609              		.cfi_def_cfa_register 7
 610 0306 7860     		str	r0, [r7, #4]
 229:build/openmote-cc2538_armgcc/openstack/03a-IPHC/iphc.c ****    msg->owner = COMPONENT_IPHC;
 611              		.loc 1 229 0
 612 0308 7B68     		ldr	r3, [r7, #4]
 613 030a 1122     		movs	r2, #17
 614 030c 5A70     		strb	r2, [r3, #1]
 230:build/openmote-cc2538_armgcc/openstack/03a-IPHC/iphc.c ****    // error checking
 231:build/openmote-cc2538_armgcc/openstack/03a-IPHC/iphc.c ****    if (idmanager_getIsDAGroot()==FALSE) {
 615              		.loc 1 231 0
 616 030e FFF7FEFF 		bl	idmanager_getIsDAGroot
 617 0312 0346     		mov	r3, r0
 618 0314 83F00103 		eor	r3, r3, #1
 619 0318 DBB2     		uxtb	r3, r3
 620 031a 002B     		cmp	r3, #0
 621 031c 07D0     		beq	.L26
 232:build/openmote-cc2538_armgcc/openstack/03a-IPHC/iphc.c ****       openserial_printCritical(COMPONENT_IPHC,ERR_BRIDGE_MISMATCH,
 622              		.loc 1 232 0
 623 031e 1120     		movs	r0, #17
 624 0320 3221     		movs	r1, #50
 625 0322 0122     		movs	r2, #1
 626 0324 0023     		movs	r3, #0
 627 0326 FFF7FEFF 		bl	openserial_printCritical
 233:build/openmote-cc2538_armgcc/openstack/03a-IPHC/iphc.c ****                             (errorparameter_t)1,
 234:build/openmote-cc2538_armgcc/openstack/03a-IPHC/iphc.c ****                             (errorparameter_t)0);
 235:build/openmote-cc2538_armgcc/openstack/03a-IPHC/iphc.c ****       return E_FAIL;
 628              		.loc 1 235 0
 629 032a 0123     		movs	r3, #1
 630 032c 03E0     		b	.L27
 631              	.L26:
 236:build/openmote-cc2538_armgcc/openstack/03a-IPHC/iphc.c ****    }
 237:build/openmote-cc2538_armgcc/openstack/03a-IPHC/iphc.c ****    return sixtop_send(msg);
 632              		.loc 1 237 0
 633 032e 7868     		ldr	r0, [r7, #4]
 634 0330 FFF7FEFF 		bl	sixtop_send
 635 0334 0346     		mov	r3, r0
 636              	.L27:
 238:build/openmote-cc2538_armgcc/openstack/03a-IPHC/iphc.c **** }
 637              		.loc 1 238 0
 638 0336 1846     		mov	r0, r3
 639 0338 0837     		adds	r7, r7, #8
 640              		.cfi_def_cfa_offset 8
 641 033a BD46     		mov	sp, r7
 642              		.cfi_def_cfa_register 13
 643              		@ sp needed
 644 033c 80BD     		pop	{r7, pc}
 645              		.cfi_endproc
 646              	.LFE2:
 648 033e 00BF     		.align	2
 649              		.global	iphc_sendDone
 650              		.thumb
 651              		.thumb_func
 653              	iphc_sendDone:
 654              	.LFB3:
 239:build/openmote-cc2538_armgcc/openstack/03a-IPHC/iphc.c **** 
 240:build/openmote-cc2538_armgcc/openstack/03a-IPHC/iphc.c **** void iphc_sendDone(OpenQueueEntry_t* msg, owerror_t error) {
 655              		.loc 1 240 0
 656              		.cfi_startproc
 657              		@ args = 0, pretend = 0, frame = 8
 658              		@ frame_needed = 1, uses_anonymous_args = 0
 659 0340 80B5     		push	{r7, lr}
 660              		.cfi_def_cfa_offset 8
 661              		.cfi_offset 7, -8
 662              		.cfi_offset 14, -4
 663 0342 82B0     		sub	sp, sp, #8
 664              		.cfi_def_cfa_offset 16
 665 0344 00AF     		add	r7, sp, #0
 666              		.cfi_def_cfa_register 7
 667 0346 7860     		str	r0, [r7, #4]
 668 0348 0B46     		mov	r3, r1
 669 034a FB70     		strb	r3, [r7, #3]
 241:build/openmote-cc2538_armgcc/openstack/03a-IPHC/iphc.c ****    msg->owner = COMPONENT_IPHC;
 670              		.loc 1 241 0
 671 034c 7B68     		ldr	r3, [r7, #4]
 672 034e 1122     		movs	r2, #17
 673 0350 5A70     		strb	r2, [r3, #1]
 242:build/openmote-cc2538_armgcc/openstack/03a-IPHC/iphc.c ****    if (msg->creator==COMPONENT_OPENBRIDGE) {
 674              		.loc 1 242 0
 675 0352 7B68     		ldr	r3, [r7, #4]
 676 0354 1B78     		ldrb	r3, [r3]	@ zero_extendqisi2
 677 0356 102B     		cmp	r3, #16
 678 0358 05D1     		bne	.L29
 243:build/openmote-cc2538_armgcc/openstack/03a-IPHC/iphc.c ****       openbridge_sendDone(msg,error);
 679              		.loc 1 243 0
 680 035a FB78     		ldrb	r3, [r7, #3]	@ zero_extendqisi2
 681 035c 7868     		ldr	r0, [r7, #4]
 682 035e 1946     		mov	r1, r3
 683 0360 FFF7FEFF 		bl	openbridge_sendDone
 684 0364 04E0     		b	.L28
 685              	.L29:
 244:build/openmote-cc2538_armgcc/openstack/03a-IPHC/iphc.c ****    } else {
 245:build/openmote-cc2538_armgcc/openstack/03a-IPHC/iphc.c ****       forwarding_sendDone(msg,error);
 686              		.loc 1 245 0
 687 0366 FB78     		ldrb	r3, [r7, #3]	@ zero_extendqisi2
 688 0368 7868     		ldr	r0, [r7, #4]
 689 036a 1946     		mov	r1, r3
 690 036c FFF7FEFF 		bl	forwarding_sendDone
 691              	.L28:
 246:build/openmote-cc2538_armgcc/openstack/03a-IPHC/iphc.c ****    }
 247:build/openmote-cc2538_armgcc/openstack/03a-IPHC/iphc.c **** }
 692              		.loc 1 247 0
 693 0370 0837     		adds	r7, r7, #8
 694              		.cfi_def_cfa_offset 8
 695 0372 BD46     		mov	sp, r7
 696              		.cfi_def_cfa_register 13
 697              		@ sp needed
 698 0374 80BD     		pop	{r7, pc}
 699              		.cfi_endproc
 700              	.LFE3:
 702 0376 00BF     		.align	2
 703              		.global	iphc_receive
 704              		.thumb
 705              		.thumb_func
 707              	iphc_receive:
 708              	.LFB4:
 248:build/openmote-cc2538_armgcc/openstack/03a-IPHC/iphc.c **** 
 249:build/openmote-cc2538_armgcc/openstack/03a-IPHC/iphc.c **** void iphc_receive(OpenQueueEntry_t* msg) {
 709              		.loc 1 249 0
 710              		.cfi_startproc
 711              		@ args = 0, pretend = 0, frame = 192
 712              		@ frame_needed = 1, uses_anonymous_args = 0
 713 0378 80B5     		push	{r7, lr}
 714              		.cfi_def_cfa_offset 8
 715              		.cfi_offset 7, -8
 716              		.cfi_offset 14, -4
 717 037a B2B0     		sub	sp, sp, #200
 718              		.cfi_def_cfa_offset 208
 719 037c 02AF     		add	r7, sp, #8
 720              		.cfi_def_cfa 7, 200
 721 037e 7860     		str	r0, [r7, #4]
 250:build/openmote-cc2538_armgcc/openstack/03a-IPHC/iphc.c ****     ipv6_header_iht      ipv6_outer_header;
 251:build/openmote-cc2538_armgcc/openstack/03a-IPHC/iphc.c ****     ipv6_header_iht      ipv6_inner_header;
 252:build/openmote-cc2538_armgcc/openstack/03a-IPHC/iphc.c ****     uint8_t              page_length;
 253:build/openmote-cc2538_armgcc/openstack/03a-IPHC/iphc.c ****     rpl_option_ht        rpl_option;
 254:build/openmote-cc2538_armgcc/openstack/03a-IPHC/iphc.c ****     uint8_t              rpi_length;
 255:build/openmote-cc2538_armgcc/openstack/03a-IPHC/iphc.c **** #ifdef DEADLINE_OPTION_ENABLED    
 256:build/openmote-cc2538_armgcc/openstack/03a-IPHC/iphc.c ****     deadline_option_ht*  deadline_ptr = NULL; 
 722              		.loc 1 256 0
 723 0380 0023     		movs	r3, #0
 724 0382 C7F8BC30 		str	r3, [r7, #188]
 257:build/openmote-cc2538_armgcc/openstack/03a-IPHC/iphc.c ****     deadline_option_ht   curr_deadline_option;
 258:build/openmote-cc2538_armgcc/openstack/03a-IPHC/iphc.c **** #endif    
 259:build/openmote-cc2538_armgcc/openstack/03a-IPHC/iphc.c ****    
 260:build/openmote-cc2538_armgcc/openstack/03a-IPHC/iphc.c ****     msg->owner      = COMPONENT_IPHC;
 725              		.loc 1 260 0
 726 0386 7B68     		ldr	r3, [r7, #4]
 727 0388 1122     		movs	r2, #17
 728 038a 5A70     		strb	r2, [r3, #1]
 261:build/openmote-cc2538_armgcc/openstack/03a-IPHC/iphc.c ****    
 262:build/openmote-cc2538_armgcc/openstack/03a-IPHC/iphc.c ****     memset(&ipv6_outer_header,0,sizeof(ipv6_header_iht));
 729              		.loc 1 262 0
 730 038c 07F17003 		add	r3, r7, #112
 731 0390 1846     		mov	r0, r3
 732 0392 0021     		movs	r1, #0
 733 0394 4822     		movs	r2, #72
 734 0396 FFF7FEFF 		bl	memset
 263:build/openmote-cc2538_armgcc/openstack/03a-IPHC/iphc.c ****     memset(&ipv6_inner_header,0,sizeof(ipv6_header_iht));
 735              		.loc 1 263 0
 736 039a 07F12803 		add	r3, r7, #40
 737 039e 1846     		mov	r0, r3
 738 03a0 0021     		movs	r1, #0
 739 03a2 4822     		movs	r2, #72
 740 03a4 FFF7FEFF 		bl	memset
 264:build/openmote-cc2538_armgcc/openstack/03a-IPHC/iphc.c ****     memset(&rpl_option,0,sizeof(rpl_option_ht));
 741              		.loc 1 264 0
 742 03a8 07F12003 		add	r3, r7, #32
 743 03ac 1846     		mov	r0, r3
 744 03ae 0021     		movs	r1, #0
 745 03b0 0522     		movs	r2, #5
 746 03b2 FFF7FEFF 		bl	memset
 265:build/openmote-cc2538_armgcc/openstack/03a-IPHC/iphc.c **** 
 266:build/openmote-cc2538_armgcc/openstack/03a-IPHC/iphc.c **** #ifdef DEADLINE_OPTION_ENABLED    
 267:build/openmote-cc2538_armgcc/openstack/03a-IPHC/iphc.c ****     ipv6_outer_header.deadline_option = NULL;
 747              		.loc 1 267 0
 748 03b6 0023     		movs	r3, #0
 749 03b8 C7F88C30 		str	r3, [r7, #140]
 268:build/openmote-cc2538_armgcc/openstack/03a-IPHC/iphc.c **** #endif    
 269:build/openmote-cc2538_armgcc/openstack/03a-IPHC/iphc.c ****     					    
 270:build/openmote-cc2538_armgcc/openstack/03a-IPHC/iphc.c ****     // then regular header
 271:build/openmote-cc2538_armgcc/openstack/03a-IPHC/iphc.c ****     iphc_retrieveIPv6Header(msg,&ipv6_outer_header,&ipv6_inner_header,&page_length);
 750              		.loc 1 271 0
 751 03bc 07F17001 		add	r1, r7, #112
 752 03c0 07F12802 		add	r2, r7, #40
 753 03c4 07F12703 		add	r3, r7, #39
 754 03c8 7868     		ldr	r0, [r7, #4]
 755 03ca FFF7FEFF 		bl	iphc_retrieveIPv6Header
 272:build/openmote-cc2538_armgcc/openstack/03a-IPHC/iphc.c ****     
 273:build/openmote-cc2538_armgcc/openstack/03a-IPHC/iphc.c ****     // if the address is broadcast address, the ipv6 header is the inner header
 274:build/openmote-cc2538_armgcc/openstack/03a-IPHC/iphc.c ****     if (
 275:build/openmote-cc2538_armgcc/openstack/03a-IPHC/iphc.c ****         idmanager_getIsDAGroot()==FALSE ||
 756              		.loc 1 275 0
 757 03ce FFF7FEFF 		bl	idmanager_getIsDAGroot
 758 03d2 0346     		mov	r3, r0
 759 03d4 83F00103 		eor	r3, r3, #1
 760 03d8 DBB2     		uxtb	r3, r3
 274:build/openmote-cc2538_armgcc/openstack/03a-IPHC/iphc.c ****         idmanager_getIsDAGroot()==FALSE ||
 761              		.loc 1 274 0
 762 03da 002B     		cmp	r3, #0
 763 03dc 08D1     		bne	.L32
 276:build/openmote-cc2538_armgcc/openstack/03a-IPHC/iphc.c ****         packetfunctions_isBroadcastMulticast(&(ipv6_inner_header.dest))
 764              		.loc 1 276 0
 765 03de 07F12803 		add	r3, r7, #40
 766 03e2 3333     		adds	r3, r3, #51
 767 03e4 1846     		mov	r0, r3
 768 03e6 FFF7FEFF 		bl	packetfunctions_isBroadcastMulticast
 769 03ea 0346     		mov	r3, r0
 275:build/openmote-cc2538_armgcc/openstack/03a-IPHC/iphc.c ****         packetfunctions_isBroadcastMulticast(&(ipv6_inner_header.dest))
 770              		.loc 1 275 0
 771 03ec 002B     		cmp	r3, #0
 772 03ee 41D0     		beq	.L33
 773              	.L32:
 277:build/openmote-cc2538_armgcc/openstack/03a-IPHC/iphc.c ****     ) {
 278:build/openmote-cc2538_armgcc/openstack/03a-IPHC/iphc.c ****         packetfunctions_tossHeader(msg,page_length);
 774              		.loc 1 278 0
 775 03f0 97F82730 		ldrb	r3, [r7, #39]	@ zero_extendqisi2
 776 03f4 7868     		ldr	r0, [r7, #4]
 777 03f6 1946     		mov	r1, r3
 778 03f8 FFF7FEFF 		bl	packetfunctions_tossHeader
 279:build/openmote-cc2538_armgcc/openstack/03a-IPHC/iphc.c ****         if (
 280:build/openmote-cc2538_armgcc/openstack/03a-IPHC/iphc.c ****             ipv6_outer_header.next_header==IANA_IPv6HOPOPT &&
 779              		.loc 1 280 0
 780 03fc 97F87930 		ldrb	r3, [r7, #121]	@ zero_extendqisi2
 279:build/openmote-cc2538_armgcc/openstack/03a-IPHC/iphc.c ****         if (
 781              		.loc 1 279 0
 782 0400 002B     		cmp	r3, #0
 783 0402 2AD1     		bne	.L34
 281:build/openmote-cc2538_armgcc/openstack/03a-IPHC/iphc.c ****             ipv6_outer_header.hopByhop_option != NULL
 784              		.loc 1 281 0
 785 0404 D7F88830 		ldr	r3, [r7, #136]
 280:build/openmote-cc2538_armgcc/openstack/03a-IPHC/iphc.c ****             ipv6_outer_header.hopByhop_option != NULL
 786              		.loc 1 280 0
 787 0408 002B     		cmp	r3, #0
 788 040a 26D0     		beq	.L34
 282:build/openmote-cc2538_armgcc/openstack/03a-IPHC/iphc.c ****         ) {
 283:build/openmote-cc2538_armgcc/openstack/03a-IPHC/iphc.c ****             // retrieve hop-by-hop header (includes RPL option)
 284:build/openmote-cc2538_armgcc/openstack/03a-IPHC/iphc.c ****             rpi_length = iphc_retrieveIPv6HopByHopHeader(
 789              		.loc 1 284 0
 790 040c 07F12003 		add	r3, r7, #32
 791 0410 7868     		ldr	r0, [r7, #4]
 792 0412 1946     		mov	r1, r3
 793 0414 FFF7FEFF 		bl	iphc_retrieveIPv6HopByHopHeader
 794 0418 0346     		mov	r3, r0
 795 041a 87F8BB30 		strb	r3, [r7, #187]
 285:build/openmote-cc2538_armgcc/openstack/03a-IPHC/iphc.c ****                               msg,
 286:build/openmote-cc2538_armgcc/openstack/03a-IPHC/iphc.c ****                               &rpl_option
 287:build/openmote-cc2538_armgcc/openstack/03a-IPHC/iphc.c ****                          );
 288:build/openmote-cc2538_armgcc/openstack/03a-IPHC/iphc.c ****                
 289:build/openmote-cc2538_armgcc/openstack/03a-IPHC/iphc.c **** #ifdef DEADLINE_OPTION_ENABLED              
 290:build/openmote-cc2538_armgcc/openstack/03a-IPHC/iphc.c ****             if(ipv6_outer_header.deadline_option){  
 796              		.loc 1 290 0
 797 041e D7F88C30 		ldr	r3, [r7, #140]
 798 0422 002B     		cmp	r3, #0
 799 0424 13D0     		beq	.L35
 291:build/openmote-cc2538_armgcc/openstack/03a-IPHC/iphc.c ****                 
 292:build/openmote-cc2538_armgcc/openstack/03a-IPHC/iphc.c ****                 memset(&curr_deadline_option,0,sizeof(curr_deadline_option));     
 800              		.loc 1 292 0
 801 0426 07F10803 		add	r3, r7, #8
 802 042a 1846     		mov	r0, r3
 803 042c 0021     		movs	r1, #0
 804 042e 1522     		movs	r2, #21
 805 0430 FFF7FEFF 		bl	memset
 293:build/openmote-cc2538_armgcc/openstack/03a-IPHC/iphc.c ****             		iphc_retrieveIPv6DeadlineHeader(
 806              		.loc 1 293 0
 807 0434 D7F88C20 		ldr	r2, [r7, #140]
 808 0438 07F10803 		add	r3, r7, #8
 809 043c 7868     		ldr	r0, [r7, #4]
 810 043e 1146     		mov	r1, r2
 811 0440 1A46     		mov	r2, r3
 812 0442 FFF7FEFF 		bl	iphc_retrieveIPv6DeadlineHeader
 294:build/openmote-cc2538_armgcc/openstack/03a-IPHC/iphc.c ****                                   msg,
 295:build/openmote-cc2538_armgcc/openstack/03a-IPHC/iphc.c ****                                   ipv6_outer_header.deadline_option,
 296:build/openmote-cc2538_armgcc/openstack/03a-IPHC/iphc.c ****                                   &curr_deadline_option
 297:build/openmote-cc2538_armgcc/openstack/03a-IPHC/iphc.c ****                              );                 
 298:build/openmote-cc2538_armgcc/openstack/03a-IPHC/iphc.c ****                  deadline_ptr = &curr_deadline_option;               
 813              		.loc 1 298 0
 814 0446 07F10803 		add	r3, r7, #8
 815 044a C7F8BC30 		str	r3, [r7, #188]
 816              	.L35:
 299:build/openmote-cc2538_armgcc/openstack/03a-IPHC/iphc.c ****             }           
 300:build/openmote-cc2538_armgcc/openstack/03a-IPHC/iphc.c **** #endif
 301:build/openmote-cc2538_armgcc/openstack/03a-IPHC/iphc.c ****          
 302:build/openmote-cc2538_armgcc/openstack/03a-IPHC/iphc.c ****             // toss the headers
 303:build/openmote-cc2538_armgcc/openstack/03a-IPHC/iphc.c ****             packetfunctions_tossHeader(
 817              		.loc 1 303 0
 818 044e 97F8BB30 		ldrb	r3, [r7, #187]	@ zero_extendqisi2
 819 0452 7868     		ldr	r0, [r7, #4]
 820 0454 1946     		mov	r1, r3
 821 0456 FFF7FEFF 		bl	packetfunctions_tossHeader
 822              	.L34:
 304:build/openmote-cc2538_armgcc/openstack/03a-IPHC/iphc.c ****                 msg,
 305:build/openmote-cc2538_armgcc/openstack/03a-IPHC/iphc.c ****                 rpi_length
 306:build/openmote-cc2538_armgcc/openstack/03a-IPHC/iphc.c ****             );
 307:build/openmote-cc2538_armgcc/openstack/03a-IPHC/iphc.c ****         }
 308:build/openmote-cc2538_armgcc/openstack/03a-IPHC/iphc.c ****       
 309:build/openmote-cc2538_armgcc/openstack/03a-IPHC/iphc.c ****         // send up the stack
 310:build/openmote-cc2538_armgcc/openstack/03a-IPHC/iphc.c ****         forwarding_receive(
 823              		.loc 1 310 0
 824 045a 07F17001 		add	r1, r7, #112
 825 045e 07F12802 		add	r2, r7, #40
 826 0462 07F12003 		add	r3, r7, #32
 827 0466 0093     		str	r3, [sp]
 828 0468 7868     		ldr	r0, [r7, #4]
 829 046a D7F8BC30 		ldr	r3, [r7, #188]
 830 046e FFF7FEFF 		bl	forwarding_receive
 831 0472 02E0     		b	.L31
 832              	.L33:
 311:build/openmote-cc2538_armgcc/openstack/03a-IPHC/iphc.c ****             msg,
 312:build/openmote-cc2538_armgcc/openstack/03a-IPHC/iphc.c ****             &ipv6_outer_header,
 313:build/openmote-cc2538_armgcc/openstack/03a-IPHC/iphc.c ****             &ipv6_inner_header,
 314:build/openmote-cc2538_armgcc/openstack/03a-IPHC/iphc.c **** #ifdef DEADLINE_OPTION_ENABLED   
 315:build/openmote-cc2538_armgcc/openstack/03a-IPHC/iphc.c ****             deadline_ptr,
 316:build/openmote-cc2538_armgcc/openstack/03a-IPHC/iphc.c **** #endif            
 317:build/openmote-cc2538_armgcc/openstack/03a-IPHC/iphc.c ****             &rpl_option
 318:build/openmote-cc2538_armgcc/openstack/03a-IPHC/iphc.c ****         );
 319:build/openmote-cc2538_armgcc/openstack/03a-IPHC/iphc.c ****    } else {
 320:build/openmote-cc2538_armgcc/openstack/03a-IPHC/iphc.c ****       openbridge_receive(msg);                   //out to the OpenVisualizer
 833              		.loc 1 320 0
 834 0474 7868     		ldr	r0, [r7, #4]
 835 0476 FFF7FEFF 		bl	openbridge_receive
 836              	.L31:
 321:build/openmote-cc2538_armgcc/openstack/03a-IPHC/iphc.c ****    }
 322:build/openmote-cc2538_armgcc/openstack/03a-IPHC/iphc.c **** }
 837              		.loc 1 322 0
 838 047a C037     		adds	r7, r7, #192
 839              		.cfi_def_cfa_offset 8
 840 047c BD46     		mov	sp, r7
 841              		.cfi_def_cfa_register 13
 842              		@ sp needed
 843 047e 80BD     		pop	{r7, pc}
 844              		.cfi_endproc
 845              	.LFE4:
 847              		.align	2
 848              		.global	iphc_prependIPv6Header
 849              		.thumb
 850              		.thumb_func
 852              	iphc_prependIPv6Header:
 853              	.LFB5:
 323:build/openmote-cc2538_armgcc/openstack/03a-IPHC/iphc.c **** 
 324:build/openmote-cc2538_armgcc/openstack/03a-IPHC/iphc.c **** //=========================== private =========================================
 325:build/openmote-cc2538_armgcc/openstack/03a-IPHC/iphc.c **** 
 326:build/openmote-cc2538_armgcc/openstack/03a-IPHC/iphc.c **** //===== IPv6 header
 327:build/openmote-cc2538_armgcc/openstack/03a-IPHC/iphc.c **** 
 328:build/openmote-cc2538_armgcc/openstack/03a-IPHC/iphc.c **** /**
 329:build/openmote-cc2538_armgcc/openstack/03a-IPHC/iphc.c **** \brief Prepend an IPv6 header to a message.
 330:build/openmote-cc2538_armgcc/openstack/03a-IPHC/iphc.c **** */
 331:build/openmote-cc2538_armgcc/openstack/03a-IPHC/iphc.c **** owerror_t iphc_prependIPv6Header(
 332:build/openmote-cc2538_armgcc/openstack/03a-IPHC/iphc.c ****       OpenQueueEntry_t* msg,
 333:build/openmote-cc2538_armgcc/openstack/03a-IPHC/iphc.c ****       uint8_t           tf,
 334:build/openmote-cc2538_armgcc/openstack/03a-IPHC/iphc.c ****       uint32_t          value_flowLabel,
 335:build/openmote-cc2538_armgcc/openstack/03a-IPHC/iphc.c ****       uint8_t           nh,
 336:build/openmote-cc2538_armgcc/openstack/03a-IPHC/iphc.c ****       uint8_t           value_nextHeader,
 337:build/openmote-cc2538_armgcc/openstack/03a-IPHC/iphc.c ****       uint8_t           hlim,
 338:build/openmote-cc2538_armgcc/openstack/03a-IPHC/iphc.c ****       uint8_t           value_hopLimit,
 339:build/openmote-cc2538_armgcc/openstack/03a-IPHC/iphc.c ****       bool              cid,
 340:build/openmote-cc2538_armgcc/openstack/03a-IPHC/iphc.c ****       bool              sac,
 341:build/openmote-cc2538_armgcc/openstack/03a-IPHC/iphc.c ****       uint8_t           sam,
 342:build/openmote-cc2538_armgcc/openstack/03a-IPHC/iphc.c ****       bool              m,
 343:build/openmote-cc2538_armgcc/openstack/03a-IPHC/iphc.c ****       bool              dac,
 344:build/openmote-cc2538_armgcc/openstack/03a-IPHC/iphc.c ****       uint8_t           dam,
 345:build/openmote-cc2538_armgcc/openstack/03a-IPHC/iphc.c ****       open_addr_t*      value_dest,
 346:build/openmote-cc2538_armgcc/openstack/03a-IPHC/iphc.c ****       open_addr_t*      value_src,
 347:build/openmote-cc2538_armgcc/openstack/03a-IPHC/iphc.c ****       uint8_t           fw_SendOrfw_Rcv
 348:build/openmote-cc2538_armgcc/openstack/03a-IPHC/iphc.c ****    ) {
 854              		.loc 1 348 0
 855              		.cfi_startproc
 856              		@ args = 48, pretend = 0, frame = 24
 857              		@ frame_needed = 1, uses_anonymous_args = 0
 858 0480 80B5     		push	{r7, lr}
 859              		.cfi_def_cfa_offset 8
 860              		.cfi_offset 7, -8
 861              		.cfi_offset 14, -4
 862 0482 86B0     		sub	sp, sp, #24
 863              		.cfi_def_cfa_offset 32
 864 0484 00AF     		add	r7, sp, #0
 865              		.cfi_def_cfa_register 7
 866 0486 F860     		str	r0, [r7, #12]
 867 0488 7A60     		str	r2, [r7, #4]
 868 048a 1A46     		mov	r2, r3
 869 048c 0B46     		mov	r3, r1
 870 048e FB72     		strb	r3, [r7, #11]
 871 0490 1346     		mov	r3, r2
 872 0492 BB72     		strb	r3, [r7, #10]
 349:build/openmote-cc2538_armgcc/openstack/03a-IPHC/iphc.c ****    
 350:build/openmote-cc2538_armgcc/openstack/03a-IPHC/iphc.c ****    uint8_t temp_8b;
 351:build/openmote-cc2538_armgcc/openstack/03a-IPHC/iphc.c ****    
 352:build/openmote-cc2538_armgcc/openstack/03a-IPHC/iphc.c ****    // destination address
 353:build/openmote-cc2538_armgcc/openstack/03a-IPHC/iphc.c ****    switch (dam) {
 873              		.loc 1 353 0
 874 0494 97F84030 		ldrb	r3, [r7, #64]	@ zero_extendqisi2
 875 0498 032B     		cmp	r3, #3
 876 049a 67D8     		bhi	.L38
 877 049c 01A2     		adr	r2, .L40
 878 049e 52F823F0 		ldr	pc, [r2, r3, lsl #2]
 879 04a2 00BF     		.p2align 2
 880              	.L40:
 881 04a4 39050000 		.word	.L39+1
 882 04a8 05050000 		.word	.L41+1
 883 04ac D1040000 		.word	.L42+1
 884 04b0 B5040000 		.word	.L43+1
 885              		.p2align 1
 886              	.L43:
 354:build/openmote-cc2538_armgcc/openstack/03a-IPHC/iphc.c ****       case IPHC_DAM_ELIDED:
 355:build/openmote-cc2538_armgcc/openstack/03a-IPHC/iphc.c ****          if (m == IPHC_M_YES){
 887              		.loc 1 355 0
 888 04b4 97F83830 		ldrb	r3, [r7, #56]	@ zero_extendqisi2
 889 04b8 002B     		cmp	r3, #0
 890 04ba 08D0     		beq	.L44
 356:build/openmote-cc2538_armgcc/openstack/03a-IPHC/iphc.c ****             packetfunctions_reserveHeaderSize(msg,sizeof(uint8_t));
 891              		.loc 1 356 0
 892 04bc F868     		ldr	r0, [r7, #12]
 893 04be 0121     		movs	r1, #1
 894 04c0 FFF7FEFF 		bl	packetfunctions_reserveHeaderSize
 357:build/openmote-cc2538_armgcc/openstack/03a-IPHC/iphc.c ****             *((uint8_t*)(msg->payload)) = value_dest->addr_128b[15];
 895              		.loc 1 357 0
 896 04c4 FB68     		ldr	r3, [r7, #12]
 897 04c6 5B68     		ldr	r3, [r3, #4]
 898 04c8 7A6C     		ldr	r2, [r7, #68]
 899 04ca 127C     		ldrb	r2, [r2, #16]	@ zero_extendqisi2
 900 04cc 1A70     		strb	r2, [r3]
 901              	.L44:
 358:build/openmote-cc2538_armgcc/openstack/03a-IPHC/iphc.c ****          } else {
 359:build/openmote-cc2538_armgcc/openstack/03a-IPHC/iphc.c ****              //nothing
 360:build/openmote-cc2538_armgcc/openstack/03a-IPHC/iphc.c ****          }
 361:build/openmote-cc2538_armgcc/openstack/03a-IPHC/iphc.c ****          break;
 902              		.loc 1 361 0
 903 04ce 57E0     		b	.L45
 904              	.L42:
 362:build/openmote-cc2538_armgcc/openstack/03a-IPHC/iphc.c ****       case IPHC_DAM_16B:
 363:build/openmote-cc2538_armgcc/openstack/03a-IPHC/iphc.c ****          if (m == IPHC_M_YES){
 905              		.loc 1 363 0
 906 04d0 97F83830 		ldrb	r3, [r7, #56]	@ zero_extendqisi2
 907 04d4 002B     		cmp	r3, #0
 908 04d6 14D1     		bne	.L46
 364:build/openmote-cc2538_armgcc/openstack/03a-IPHC/iphc.c ****              // tengfei: to do
 365:build/openmote-cc2538_armgcc/openstack/03a-IPHC/iphc.c ****          } else {
 366:build/openmote-cc2538_armgcc/openstack/03a-IPHC/iphc.c ****              if (value_dest->type!=ADDR_16B) {
 909              		.loc 1 366 0
 910 04d8 7B6C     		ldr	r3, [r7, #68]
 911 04da 1B78     		ldrb	r3, [r3]	@ zero_extendqisi2
 912 04dc 012B     		cmp	r3, #1
 913 04de 0AD0     		beq	.L47
 367:build/openmote-cc2538_armgcc/openstack/03a-IPHC/iphc.c ****                 openserial_printCritical(
 368:build/openmote-cc2538_armgcc/openstack/03a-IPHC/iphc.c ****                    COMPONENT_IPHC,
 369:build/openmote-cc2538_armgcc/openstack/03a-IPHC/iphc.c ****                    ERR_WRONG_ADDR_TYPE,
 370:build/openmote-cc2538_armgcc/openstack/03a-IPHC/iphc.c ****                    (errorparameter_t)value_dest->type,
 914              		.loc 1 370 0
 915 04e0 7B6C     		ldr	r3, [r7, #68]
 916 04e2 1B78     		ldrb	r3, [r3]	@ zero_extendqisi2
 367:build/openmote-cc2538_armgcc/openstack/03a-IPHC/iphc.c ****                 openserial_printCritical(
 917              		.loc 1 367 0
 918 04e4 9BB2     		uxth	r3, r3
 919 04e6 1120     		movs	r0, #17
 920 04e8 3121     		movs	r1, #49
 921 04ea 1A46     		mov	r2, r3
 922 04ec 0023     		movs	r3, #0
 923 04ee FFF7FEFF 		bl	openserial_printCritical
 371:build/openmote-cc2538_armgcc/openstack/03a-IPHC/iphc.c ****                    (errorparameter_t)0
 372:build/openmote-cc2538_armgcc/openstack/03a-IPHC/iphc.c ****                 );
 373:build/openmote-cc2538_armgcc/openstack/03a-IPHC/iphc.c ****                 return E_FAIL;
 924              		.loc 1 373 0
 925 04f2 0123     		movs	r3, #1
 926 04f4 9FE1     		b	.L48
 927              	.L47:
 374:build/openmote-cc2538_armgcc/openstack/03a-IPHC/iphc.c ****              };
 375:build/openmote-cc2538_armgcc/openstack/03a-IPHC/iphc.c ****              packetfunctions_writeAddress(msg,value_dest,OW_BIG_ENDIAN);
 928              		.loc 1 375 0
 929 04f6 F868     		ldr	r0, [r7, #12]
 930 04f8 796C     		ldr	r1, [r7, #68]
 931 04fa 0022     		movs	r2, #0
 932 04fc FFF7FEFF 		bl	packetfunctions_writeAddress
 376:build/openmote-cc2538_armgcc/openstack/03a-IPHC/iphc.c ****          }
 377:build/openmote-cc2538_armgcc/openstack/03a-IPHC/iphc.c ****          break;
 933              		.loc 1 377 0
 934 0500 3EE0     		b	.L45
 935              	.L46:
 936              		.loc 1 377 0 is_stmt 0 discriminator 1
 937 0502 3DE0     		b	.L45
 938              	.L41:
 378:build/openmote-cc2538_armgcc/openstack/03a-IPHC/iphc.c ****       case IPHC_DAM_64B:
 379:build/openmote-cc2538_armgcc/openstack/03a-IPHC/iphc.c ****          if (m == IPHC_M_YES){
 939              		.loc 1 379 0 is_stmt 1
 940 0504 97F83830 		ldrb	r3, [r7, #56]	@ zero_extendqisi2
 941 0508 002B     		cmp	r3, #0
 942 050a 14D1     		bne	.L49
 380:build/openmote-cc2538_armgcc/openstack/03a-IPHC/iphc.c ****              // tengfei: to do
 381:build/openmote-cc2538_armgcc/openstack/03a-IPHC/iphc.c ****          } else {
 382:build/openmote-cc2538_armgcc/openstack/03a-IPHC/iphc.c ****              if (value_dest->type!=ADDR_64B) {
 943              		.loc 1 382 0
 944 050c 7B6C     		ldr	r3, [r7, #68]
 945 050e 1B78     		ldrb	r3, [r3]	@ zero_extendqisi2
 946 0510 022B     		cmp	r3, #2
 947 0512 0AD0     		beq	.L50
 383:build/openmote-cc2538_armgcc/openstack/03a-IPHC/iphc.c ****                 openserial_printCritical(
 384:build/openmote-cc2538_armgcc/openstack/03a-IPHC/iphc.c ****                    COMPONENT_IPHC,
 385:build/openmote-cc2538_armgcc/openstack/03a-IPHC/iphc.c ****                    ERR_WRONG_ADDR_TYPE,
 386:build/openmote-cc2538_armgcc/openstack/03a-IPHC/iphc.c ****                    (errorparameter_t)value_dest->type,
 948              		.loc 1 386 0
 949 0514 7B6C     		ldr	r3, [r7, #68]
 950 0516 1B78     		ldrb	r3, [r3]	@ zero_extendqisi2
 383:build/openmote-cc2538_armgcc/openstack/03a-IPHC/iphc.c ****                 openserial_printCritical(
 951              		.loc 1 383 0
 952 0518 9BB2     		uxth	r3, r3
 953 051a 1120     		movs	r0, #17
 954 051c 3121     		movs	r1, #49
 955 051e 1A46     		mov	r2, r3
 956 0520 0123     		movs	r3, #1
 957 0522 FFF7FEFF 		bl	openserial_printCritical
 387:build/openmote-cc2538_armgcc/openstack/03a-IPHC/iphc.c ****                    (errorparameter_t)1
 388:build/openmote-cc2538_armgcc/openstack/03a-IPHC/iphc.c ****                 );
 389:build/openmote-cc2538_armgcc/openstack/03a-IPHC/iphc.c ****                 return E_FAIL;
 958              		.loc 1 389 0
 959 0526 0123     		movs	r3, #1
 960 0528 85E1     		b	.L48
 961              	.L50:
 390:build/openmote-cc2538_armgcc/openstack/03a-IPHC/iphc.c ****              };
 391:build/openmote-cc2538_armgcc/openstack/03a-IPHC/iphc.c ****              packetfunctions_writeAddress(msg,value_dest,OW_BIG_ENDIAN);
 962              		.loc 1 391 0
 963 052a F868     		ldr	r0, [r7, #12]
 964 052c 796C     		ldr	r1, [r7, #68]
 965 052e 0022     		movs	r2, #0
 966 0530 FFF7FEFF 		bl	packetfunctions_writeAddress
 392:build/openmote-cc2538_armgcc/openstack/03a-IPHC/iphc.c ****          }
 393:build/openmote-cc2538_armgcc/openstack/03a-IPHC/iphc.c ****          break;
 967              		.loc 1 393 0
 968 0534 24E0     		b	.L45
 969              	.L49:
 970              		.loc 1 393 0 is_stmt 0 discriminator 2
 971 0536 23E0     		b	.L45
 972              	.L39:
 394:build/openmote-cc2538_armgcc/openstack/03a-IPHC/iphc.c ****       case IPHC_DAM_128B:
 395:build/openmote-cc2538_armgcc/openstack/03a-IPHC/iphc.c ****          if (m == IPHC_M_YES){
 973              		.loc 1 395 0 is_stmt 1
 974 0538 97F83830 		ldrb	r3, [r7, #56]	@ zero_extendqisi2
 975 053c 002B     		cmp	r3, #0
 976 053e 14D1     		bne	.L51
 396:build/openmote-cc2538_armgcc/openstack/03a-IPHC/iphc.c ****              // tengfei: to do
 397:build/openmote-cc2538_armgcc/openstack/03a-IPHC/iphc.c ****          } else {
 398:build/openmote-cc2538_armgcc/openstack/03a-IPHC/iphc.c ****              if (value_dest->type!=ADDR_128B) {
 977              		.loc 1 398 0
 978 0540 7B6C     		ldr	r3, [r7, #68]
 979 0542 1B78     		ldrb	r3, [r3]	@ zero_extendqisi2
 980 0544 032B     		cmp	r3, #3
 981 0546 0AD0     		beq	.L52
 399:build/openmote-cc2538_armgcc/openstack/03a-IPHC/iphc.c ****                 openserial_printCritical(
 400:build/openmote-cc2538_armgcc/openstack/03a-IPHC/iphc.c ****                    COMPONENT_IPHC,
 401:build/openmote-cc2538_armgcc/openstack/03a-IPHC/iphc.c ****                    ERR_WRONG_ADDR_TYPE,
 402:build/openmote-cc2538_armgcc/openstack/03a-IPHC/iphc.c ****                    (errorparameter_t)value_dest->type,
 982              		.loc 1 402 0
 983 0548 7B6C     		ldr	r3, [r7, #68]
 984 054a 1B78     		ldrb	r3, [r3]	@ zero_extendqisi2
 399:build/openmote-cc2538_armgcc/openstack/03a-IPHC/iphc.c ****                 openserial_printCritical(
 985              		.loc 1 399 0
 986 054c 9BB2     		uxth	r3, r3
 987 054e 1120     		movs	r0, #17
 988 0550 3121     		movs	r1, #49
 989 0552 1A46     		mov	r2, r3
 990 0554 0223     		movs	r3, #2
 991 0556 FFF7FEFF 		bl	openserial_printCritical
 403:build/openmote-cc2538_armgcc/openstack/03a-IPHC/iphc.c ****                    (errorparameter_t)2
 404:build/openmote-cc2538_armgcc/openstack/03a-IPHC/iphc.c ****                 );
 405:build/openmote-cc2538_armgcc/openstack/03a-IPHC/iphc.c ****                 return E_FAIL;
 992              		.loc 1 405 0
 993 055a 0123     		movs	r3, #1
 994 055c 6BE1     		b	.L48
 995              	.L52:
 406:build/openmote-cc2538_armgcc/openstack/03a-IPHC/iphc.c ****              };
 407:build/openmote-cc2538_armgcc/openstack/03a-IPHC/iphc.c ****              packetfunctions_writeAddress(msg,value_dest,OW_BIG_ENDIAN);
 996              		.loc 1 407 0
 997 055e F868     		ldr	r0, [r7, #12]
 998 0560 796C     		ldr	r1, [r7, #68]
 999 0562 0022     		movs	r2, #0
 1000 0564 FFF7FEFF 		bl	packetfunctions_writeAddress
 408:build/openmote-cc2538_armgcc/openstack/03a-IPHC/iphc.c ****          }
 409:build/openmote-cc2538_armgcc/openstack/03a-IPHC/iphc.c ****          break;
 1001              		.loc 1 409 0
 1002 0568 0AE0     		b	.L45
 1003              	.L51:
 1004              		.loc 1 409 0 is_stmt 0 discriminator 3
 1005 056a 09E0     		b	.L45
 1006              	.L38:
 410:build/openmote-cc2538_armgcc/openstack/03a-IPHC/iphc.c ****       default:
 411:build/openmote-cc2538_armgcc/openstack/03a-IPHC/iphc.c ****          openserial_printCritical(
 1007              		.loc 1 411 0 is_stmt 1
 1008 056c 97F84030 		ldrb	r3, [r7, #64]	@ zero_extendqisi2
 1009 0570 9BB2     		uxth	r3, r3
 1010 0572 1120     		movs	r0, #17
 1011 0574 0C21     		movs	r1, #12
 1012 0576 0022     		movs	r2, #0
 1013 0578 FFF7FEFF 		bl	openserial_printCritical
 412:build/openmote-cc2538_armgcc/openstack/03a-IPHC/iphc.c ****             COMPONENT_IPHC,
 413:build/openmote-cc2538_armgcc/openstack/03a-IPHC/iphc.c ****             ERR_6LOWPAN_UNSUPPORTED,
 414:build/openmote-cc2538_armgcc/openstack/03a-IPHC/iphc.c ****             (errorparameter_t)0,
 415:build/openmote-cc2538_armgcc/openstack/03a-IPHC/iphc.c ****             (errorparameter_t)dam
 416:build/openmote-cc2538_armgcc/openstack/03a-IPHC/iphc.c ****          );
 417:build/openmote-cc2538_armgcc/openstack/03a-IPHC/iphc.c ****          return E_FAIL;
 1014              		.loc 1 417 0
 1015 057c 0123     		movs	r3, #1
 1016 057e 5AE1     		b	.L48
 1017              	.L45:
 418:build/openmote-cc2538_armgcc/openstack/03a-IPHC/iphc.c ****    }
 419:build/openmote-cc2538_armgcc/openstack/03a-IPHC/iphc.c ****    
 420:build/openmote-cc2538_armgcc/openstack/03a-IPHC/iphc.c ****    // source address
 421:build/openmote-cc2538_armgcc/openstack/03a-IPHC/iphc.c ****    switch (sam) {
 1018              		.loc 1 421 0
 1019 0580 97F83430 		ldrb	r3, [r7, #52]	@ zero_extendqisi2
 1020 0584 032B     		cmp	r3, #3
 1021 0586 00F28980 		bhi	.L53
 1022 058a 01A2     		adr	r2, .L55
 1023 058c 52F823F0 		ldr	pc, [r2, r3, lsl #2]
 1024              		.p2align 2
 1025              	.L55:
 1026 0590 3D060000 		.word	.L54+1
 1027 0594 EF050000 		.word	.L56+1
 1028 0598 A1050000 		.word	.L57+1
 1029 059c B1060000 		.word	.L83+1
 1030              		.p2align 1
 1031              	.L57:
 422:build/openmote-cc2538_armgcc/openstack/03a-IPHC/iphc.c ****       case IPHC_SAM_ELIDED:
 423:build/openmote-cc2538_armgcc/openstack/03a-IPHC/iphc.c ****          break;
 424:build/openmote-cc2538_armgcc/openstack/03a-IPHC/iphc.c ****       case IPHC_SAM_16B:
 425:build/openmote-cc2538_armgcc/openstack/03a-IPHC/iphc.c ****          if(fw_SendOrfw_Rcv==PCKTSEND) {
 1032              		.loc 1 425 0
 1033 05a0 97F84C30 		ldrb	r3, [r7, #76]	@ zero_extendqisi2
 1034 05a4 022B     		cmp	r3, #2
 1035 05a6 08D1     		bne	.L60
 426:build/openmote-cc2538_armgcc/openstack/03a-IPHC/iphc.c ****             packetfunctions_writeAddress(msg, (idmanager_getMyID(ADDR_16B)),OW_BIG_ENDIAN);
 1036              		.loc 1 426 0
 1037 05a8 0120     		movs	r0, #1
 1038 05aa FFF7FEFF 		bl	idmanager_getMyID
 1039 05ae 0346     		mov	r3, r0
 1040 05b0 F868     		ldr	r0, [r7, #12]
 1041 05b2 1946     		mov	r1, r3
 1042 05b4 0022     		movs	r2, #0
 1043 05b6 FFF7FEFF 		bl	packetfunctions_writeAddress
 1044              	.L60:
 427:build/openmote-cc2538_armgcc/openstack/03a-IPHC/iphc.c ****          }
 428:build/openmote-cc2538_armgcc/openstack/03a-IPHC/iphc.c ****          if(fw_SendOrfw_Rcv==PCKTFORWARD) {
 1045              		.loc 1 428 0
 1046 05ba 97F84C30 		ldrb	r3, [r7, #76]	@ zero_extendqisi2
 1047 05be 012B     		cmp	r3, #1
 1048 05c0 14D1     		bne	.L61
 429:build/openmote-cc2538_armgcc/openstack/03a-IPHC/iphc.c ****             if (value_src->type!=ADDR_16B) {
 1049              		.loc 1 429 0
 1050 05c2 BB6C     		ldr	r3, [r7, #72]
 1051 05c4 1B78     		ldrb	r3, [r3]	@ zero_extendqisi2
 1052 05c6 012B     		cmp	r3, #1
 1053 05c8 0AD0     		beq	.L62
 430:build/openmote-cc2538_armgcc/openstack/03a-IPHC/iphc.c ****                openserial_printCritical(
 431:build/openmote-cc2538_armgcc/openstack/03a-IPHC/iphc.c ****                   COMPONENT_IPHC,
 432:build/openmote-cc2538_armgcc/openstack/03a-IPHC/iphc.c ****                   ERR_WRONG_ADDR_TYPE,
 433:build/openmote-cc2538_armgcc/openstack/03a-IPHC/iphc.c ****                   (errorparameter_t)value_src->type,
 1054              		.loc 1 433 0
 1055 05ca BB6C     		ldr	r3, [r7, #72]
 1056 05cc 1B78     		ldrb	r3, [r3]	@ zero_extendqisi2
 430:build/openmote-cc2538_armgcc/openstack/03a-IPHC/iphc.c ****                openserial_printCritical(
 1057              		.loc 1 430 0
 1058 05ce 9BB2     		uxth	r3, r3
 1059 05d0 1120     		movs	r0, #17
 1060 05d2 3121     		movs	r1, #49
 1061 05d4 1A46     		mov	r2, r3
 1062 05d6 0023     		movs	r3, #0
 1063 05d8 FFF7FEFF 		bl	openserial_printCritical
 434:build/openmote-cc2538_armgcc/openstack/03a-IPHC/iphc.c ****                   (errorparameter_t)0
 435:build/openmote-cc2538_armgcc/openstack/03a-IPHC/iphc.c ****                );
 436:build/openmote-cc2538_armgcc/openstack/03a-IPHC/iphc.c ****                return E_FAIL;
 1064              		.loc 1 436 0
 1065 05dc 0123     		movs	r3, #1
 1066 05de 2AE1     		b	.L48
 1067              	.L62:
 437:build/openmote-cc2538_armgcc/openstack/03a-IPHC/iphc.c ****             } 
 438:build/openmote-cc2538_armgcc/openstack/03a-IPHC/iphc.c ****             packetfunctions_writeAddress(msg,value_src,OW_BIG_ENDIAN);
 1068              		.loc 1 438 0
 1069 05e0 F868     		ldr	r0, [r7, #12]
 1070 05e2 B96C     		ldr	r1, [r7, #72]
 1071 05e4 0022     		movs	r2, #0
 1072 05e6 FFF7FEFF 		bl	packetfunctions_writeAddress
 439:build/openmote-cc2538_armgcc/openstack/03a-IPHC/iphc.c ****          }
 440:build/openmote-cc2538_armgcc/openstack/03a-IPHC/iphc.c ****          break;
 1073              		.loc 1 440 0
 1074 05ea 62E0     		b	.L59
 1075              	.L61:
 1076 05ec 61E0     		b	.L59
 1077              	.L56:
 441:build/openmote-cc2538_armgcc/openstack/03a-IPHC/iphc.c ****       case IPHC_SAM_64B:
 442:build/openmote-cc2538_armgcc/openstack/03a-IPHC/iphc.c ****          if(fw_SendOrfw_Rcv==PCKTSEND) {
 1078              		.loc 1 442 0
 1079 05ee 97F84C30 		ldrb	r3, [r7, #76]	@ zero_extendqisi2
 1080 05f2 022B     		cmp	r3, #2
 1081 05f4 08D1     		bne	.L63
 443:build/openmote-cc2538_armgcc/openstack/03a-IPHC/iphc.c ****             packetfunctions_writeAddress(msg, (idmanager_getMyID(ADDR_64B)),OW_BIG_ENDIAN);
 1082              		.loc 1 443 0
 1083 05f6 0220     		movs	r0, #2
 1084 05f8 FFF7FEFF 		bl	idmanager_getMyID
 1085 05fc 0346     		mov	r3, r0
 1086 05fe F868     		ldr	r0, [r7, #12]
 1087 0600 1946     		mov	r1, r3
 1088 0602 0022     		movs	r2, #0
 1089 0604 FFF7FEFF 		bl	packetfunctions_writeAddress
 1090              	.L63:
 444:build/openmote-cc2538_armgcc/openstack/03a-IPHC/iphc.c ****          }
 445:build/openmote-cc2538_armgcc/openstack/03a-IPHC/iphc.c ****          if(fw_SendOrfw_Rcv==PCKTFORWARD) {
 1091              		.loc 1 445 0
 1092 0608 97F84C30 		ldrb	r3, [r7, #76]	@ zero_extendqisi2
 1093 060c 012B     		cmp	r3, #1
 1094 060e 14D1     		bne	.L64
 446:build/openmote-cc2538_armgcc/openstack/03a-IPHC/iphc.c ****             if (value_src->type!=ADDR_64B) {
 1095              		.loc 1 446 0
 1096 0610 BB6C     		ldr	r3, [r7, #72]
 1097 0612 1B78     		ldrb	r3, [r3]	@ zero_extendqisi2
 1098 0614 022B     		cmp	r3, #2
 1099 0616 0AD0     		beq	.L65
 447:build/openmote-cc2538_armgcc/openstack/03a-IPHC/iphc.c ****                openserial_printCritical(
 448:build/openmote-cc2538_armgcc/openstack/03a-IPHC/iphc.c ****                   COMPONENT_IPHC,
 449:build/openmote-cc2538_armgcc/openstack/03a-IPHC/iphc.c ****                   ERR_WRONG_ADDR_TYPE,
 450:build/openmote-cc2538_armgcc/openstack/03a-IPHC/iphc.c ****                   (errorparameter_t)value_src->type,
 1100              		.loc 1 450 0
 1101 0618 BB6C     		ldr	r3, [r7, #72]
 1102 061a 1B78     		ldrb	r3, [r3]	@ zero_extendqisi2
 447:build/openmote-cc2538_armgcc/openstack/03a-IPHC/iphc.c ****                openserial_printCritical(
 1103              		.loc 1 447 0
 1104 061c 9BB2     		uxth	r3, r3
 1105 061e 1120     		movs	r0, #17
 1106 0620 3121     		movs	r1, #49
 1107 0622 1A46     		mov	r2, r3
 1108 0624 0123     		movs	r3, #1
 1109 0626 FFF7FEFF 		bl	openserial_printCritical
 451:build/openmote-cc2538_armgcc/openstack/03a-IPHC/iphc.c ****                   (errorparameter_t)1
 452:build/openmote-cc2538_armgcc/openstack/03a-IPHC/iphc.c ****                );
 453:build/openmote-cc2538_armgcc/openstack/03a-IPHC/iphc.c ****                return E_FAIL;
 1110              		.loc 1 453 0
 1111 062a 0123     		movs	r3, #1
 1112 062c 03E1     		b	.L48
 1113              	.L65:
 454:build/openmote-cc2538_armgcc/openstack/03a-IPHC/iphc.c ****             }      
 455:build/openmote-cc2538_armgcc/openstack/03a-IPHC/iphc.c ****             packetfunctions_writeAddress(msg, value_src,OW_BIG_ENDIAN);
 1114              		.loc 1 455 0
 1115 062e F868     		ldr	r0, [r7, #12]
 1116 0630 B96C     		ldr	r1, [r7, #72]
 1117 0632 0022     		movs	r2, #0
 1118 0634 FFF7FEFF 		bl	packetfunctions_writeAddress
 456:build/openmote-cc2538_armgcc/openstack/03a-IPHC/iphc.c ****          }
 457:build/openmote-cc2538_armgcc/openstack/03a-IPHC/iphc.c ****          break;
 1119              		.loc 1 457 0
 1120 0638 3BE0     		b	.L59
 1121              	.L64:
 1122 063a 3AE0     		b	.L59
 1123              	.L54:
 458:build/openmote-cc2538_armgcc/openstack/03a-IPHC/iphc.c ****       case IPHC_SAM_128B:
 459:build/openmote-cc2538_armgcc/openstack/03a-IPHC/iphc.c ****          if(fw_SendOrfw_Rcv==PCKTSEND) {
 1124              		.loc 1 459 0
 1125 063c 97F84C30 		ldrb	r3, [r7, #76]	@ zero_extendqisi2
 1126 0640 022B     		cmp	r3, #2
 1127 0642 11D1     		bne	.L66
 460:build/openmote-cc2538_armgcc/openstack/03a-IPHC/iphc.c ****             packetfunctions_writeAddress(msg, (idmanager_getMyID(ADDR_64B)),OW_BIG_ENDIAN);
 1128              		.loc 1 460 0
 1129 0644 0220     		movs	r0, #2
 1130 0646 FFF7FEFF 		bl	idmanager_getMyID
 1131 064a 0346     		mov	r3, r0
 1132 064c F868     		ldr	r0, [r7, #12]
 1133 064e 1946     		mov	r1, r3
 1134 0650 0022     		movs	r2, #0
 1135 0652 FFF7FEFF 		bl	packetfunctions_writeAddress
 461:build/openmote-cc2538_armgcc/openstack/03a-IPHC/iphc.c ****             packetfunctions_writeAddress(msg, (idmanager_getMyID(ADDR_PREFIX)),OW_BIG_ENDIAN);
 1136              		.loc 1 461 0
 1137 0656 0520     		movs	r0, #5
 1138 0658 FFF7FEFF 		bl	idmanager_getMyID
 1139 065c 0346     		mov	r3, r0
 1140 065e F868     		ldr	r0, [r7, #12]
 1141 0660 1946     		mov	r1, r3
 1142 0662 0022     		movs	r2, #0
 1143 0664 FFF7FEFF 		bl	packetfunctions_writeAddress
 1144              	.L66:
 462:build/openmote-cc2538_armgcc/openstack/03a-IPHC/iphc.c ****          }
 463:build/openmote-cc2538_armgcc/openstack/03a-IPHC/iphc.c ****          if(fw_SendOrfw_Rcv==PCKTFORWARD) {
 1145              		.loc 1 463 0
 1146 0668 97F84C30 		ldrb	r3, [r7, #76]	@ zero_extendqisi2
 1147 066c 012B     		cmp	r3, #1
 1148 066e 14D1     		bne	.L67
 464:build/openmote-cc2538_armgcc/openstack/03a-IPHC/iphc.c ****             if (value_src->type!=ADDR_128B) {
 1149              		.loc 1 464 0
 1150 0670 BB6C     		ldr	r3, [r7, #72]
 1151 0672 1B78     		ldrb	r3, [r3]	@ zero_extendqisi2
 1152 0674 032B     		cmp	r3, #3
 1153 0676 0AD0     		beq	.L68
 465:build/openmote-cc2538_armgcc/openstack/03a-IPHC/iphc.c ****                openserial_printCritical(
 466:build/openmote-cc2538_armgcc/openstack/03a-IPHC/iphc.c ****                   COMPONENT_IPHC,
 467:build/openmote-cc2538_armgcc/openstack/03a-IPHC/iphc.c ****                   ERR_WRONG_ADDR_TYPE,
 468:build/openmote-cc2538_armgcc/openstack/03a-IPHC/iphc.c ****                   (errorparameter_t)value_src->type,
 1154              		.loc 1 468 0
 1155 0678 BB6C     		ldr	r3, [r7, #72]
 1156 067a 1B78     		ldrb	r3, [r3]	@ zero_extendqisi2
 465:build/openmote-cc2538_armgcc/openstack/03a-IPHC/iphc.c ****                openserial_printCritical(
 1157              		.loc 1 465 0
 1158 067c 9BB2     		uxth	r3, r3
 1159 067e 1120     		movs	r0, #17
 1160 0680 3121     		movs	r1, #49
 1161 0682 1A46     		mov	r2, r3
 1162 0684 0223     		movs	r3, #2
 1163 0686 FFF7FEFF 		bl	openserial_printCritical
 469:build/openmote-cc2538_armgcc/openstack/03a-IPHC/iphc.c ****                   (errorparameter_t)2
 470:build/openmote-cc2538_armgcc/openstack/03a-IPHC/iphc.c ****                );
 471:build/openmote-cc2538_armgcc/openstack/03a-IPHC/iphc.c ****                return E_FAIL;
 1164              		.loc 1 471 0
 1165 068a 0123     		movs	r3, #1
 1166 068c D3E0     		b	.L48
 1167              	.L68:
 472:build/openmote-cc2538_armgcc/openstack/03a-IPHC/iphc.c ****             }
 473:build/openmote-cc2538_armgcc/openstack/03a-IPHC/iphc.c ****             packetfunctions_writeAddress(msg,value_src,OW_BIG_ENDIAN);
 1168              		.loc 1 473 0
 1169 068e F868     		ldr	r0, [r7, #12]
 1170 0690 B96C     		ldr	r1, [r7, #72]
 1171 0692 0022     		movs	r2, #0
 1172 0694 FFF7FEFF 		bl	packetfunctions_writeAddress
 474:build/openmote-cc2538_armgcc/openstack/03a-IPHC/iphc.c ****          }
 475:build/openmote-cc2538_armgcc/openstack/03a-IPHC/iphc.c ****          break;
 1173              		.loc 1 475 0
 1174 0698 0BE0     		b	.L59
 1175              	.L67:
 1176 069a 0AE0     		b	.L59
 1177              	.L53:
 476:build/openmote-cc2538_armgcc/openstack/03a-IPHC/iphc.c ****       default:
 477:build/openmote-cc2538_armgcc/openstack/03a-IPHC/iphc.c ****          openserial_printCritical(
 1178              		.loc 1 477 0
 1179 069c 97F83430 		ldrb	r3, [r7, #52]	@ zero_extendqisi2
 1180 06a0 9BB2     		uxth	r3, r3
 1181 06a2 1120     		movs	r0, #17
 1182 06a4 0C21     		movs	r1, #12
 1183 06a6 0122     		movs	r2, #1
 1184 06a8 FFF7FEFF 		bl	openserial_printCritical
 478:build/openmote-cc2538_armgcc/openstack/03a-IPHC/iphc.c ****             COMPONENT_IPHC,
 479:build/openmote-cc2538_armgcc/openstack/03a-IPHC/iphc.c ****             ERR_6LOWPAN_UNSUPPORTED,
 480:build/openmote-cc2538_armgcc/openstack/03a-IPHC/iphc.c ****             (errorparameter_t)1,
 481:build/openmote-cc2538_armgcc/openstack/03a-IPHC/iphc.c ****             (errorparameter_t)sam
 482:build/openmote-cc2538_armgcc/openstack/03a-IPHC/iphc.c ****          );
 483:build/openmote-cc2538_armgcc/openstack/03a-IPHC/iphc.c ****          return E_FAIL;
 1185              		.loc 1 483 0
 1186 06ac 0123     		movs	r3, #1
 1187 06ae C2E0     		b	.L48
 1188              	.L83:
 423:build/openmote-cc2538_armgcc/openstack/03a-IPHC/iphc.c ****       case IPHC_SAM_16B:
 1189              		.loc 1 423 0
 1190 06b0 00BF     		nop
 1191              	.L59:
 484:build/openmote-cc2538_armgcc/openstack/03a-IPHC/iphc.c ****    }
 485:build/openmote-cc2538_armgcc/openstack/03a-IPHC/iphc.c ****    
 486:build/openmote-cc2538_armgcc/openstack/03a-IPHC/iphc.c ****    // hop limit
 487:build/openmote-cc2538_armgcc/openstack/03a-IPHC/iphc.c ****    switch (hlim) {
 1192              		.loc 1 487 0
 1193 06b2 97F82430 		ldrb	r3, [r7, #36]	@ zero_extendqisi2
 1194 06b6 002B     		cmp	r3, #0
 1195 06b8 04D0     		beq	.L70
 1196 06ba 002B     		cmp	r3, #0
 1197 06bc 0CDB     		blt	.L69
 1198 06be 032B     		cmp	r3, #3
 1199 06c0 0ADC     		bgt	.L69
 488:build/openmote-cc2538_armgcc/openstack/03a-IPHC/iphc.c ****       case IPHC_HLIM_INLINE:
 489:build/openmote-cc2538_armgcc/openstack/03a-IPHC/iphc.c ****          packetfunctions_reserveHeaderSize(msg,sizeof(uint8_t));
 490:build/openmote-cc2538_armgcc/openstack/03a-IPHC/iphc.c ****          *((uint8_t*)(msg->payload)) = value_hopLimit;
 491:build/openmote-cc2538_armgcc/openstack/03a-IPHC/iphc.c ****          break;
 492:build/openmote-cc2538_armgcc/openstack/03a-IPHC/iphc.c ****       case IPHC_HLIM_1:
 493:build/openmote-cc2538_armgcc/openstack/03a-IPHC/iphc.c ****       case IPHC_HLIM_64:
 494:build/openmote-cc2538_armgcc/openstack/03a-IPHC/iphc.c ****       case IPHC_HLIM_255:
 495:build/openmote-cc2538_armgcc/openstack/03a-IPHC/iphc.c ****          break;
 1200              		.loc 1 495 0
 1201 06c2 13E0     		b	.L72
 1202              	.L70:
 489:build/openmote-cc2538_armgcc/openstack/03a-IPHC/iphc.c ****          *((uint8_t*)(msg->payload)) = value_hopLimit;
 1203              		.loc 1 489 0
 1204 06c4 F868     		ldr	r0, [r7, #12]
 1205 06c6 0121     		movs	r1, #1
 1206 06c8 FFF7FEFF 		bl	packetfunctions_reserveHeaderSize
 490:build/openmote-cc2538_armgcc/openstack/03a-IPHC/iphc.c ****          break;
 1207              		.loc 1 490 0
 1208 06cc FB68     		ldr	r3, [r7, #12]
 1209 06ce 5B68     		ldr	r3, [r3, #4]
 1210 06d0 97F82820 		ldrb	r2, [r7, #40]
 1211 06d4 1A70     		strb	r2, [r3]
 491:build/openmote-cc2538_armgcc/openstack/03a-IPHC/iphc.c ****       case IPHC_HLIM_1:
 1212              		.loc 1 491 0
 1213 06d6 09E0     		b	.L72
 1214              	.L69:
 496:build/openmote-cc2538_armgcc/openstack/03a-IPHC/iphc.c ****       default:
 497:build/openmote-cc2538_armgcc/openstack/03a-IPHC/iphc.c ****          openserial_printCritical(
 1215              		.loc 1 497 0
 1216 06d8 97F82430 		ldrb	r3, [r7, #36]	@ zero_extendqisi2
 1217 06dc 9BB2     		uxth	r3, r3
 1218 06de 1120     		movs	r0, #17
 1219 06e0 0C21     		movs	r1, #12
 1220 06e2 0222     		movs	r2, #2
 1221 06e4 FFF7FEFF 		bl	openserial_printCritical
 498:build/openmote-cc2538_armgcc/openstack/03a-IPHC/iphc.c ****             COMPONENT_IPHC,
 499:build/openmote-cc2538_armgcc/openstack/03a-IPHC/iphc.c ****             ERR_6LOWPAN_UNSUPPORTED,
 500:build/openmote-cc2538_armgcc/openstack/03a-IPHC/iphc.c ****             (errorparameter_t)2,
 501:build/openmote-cc2538_armgcc/openstack/03a-IPHC/iphc.c ****             (errorparameter_t)hlim
 502:build/openmote-cc2538_armgcc/openstack/03a-IPHC/iphc.c ****          );
 503:build/openmote-cc2538_armgcc/openstack/03a-IPHC/iphc.c ****          return E_FAIL;
 1222              		.loc 1 503 0
 1223 06e8 0123     		movs	r3, #1
 1224 06ea A4E0     		b	.L48
 1225              	.L72:
 504:build/openmote-cc2538_armgcc/openstack/03a-IPHC/iphc.c ****    }
 505:build/openmote-cc2538_armgcc/openstack/03a-IPHC/iphc.c ****    
 506:build/openmote-cc2538_armgcc/openstack/03a-IPHC/iphc.c ****    // next header
 507:build/openmote-cc2538_armgcc/openstack/03a-IPHC/iphc.c ****    switch (nh) {
 1226              		.loc 1 507 0
 1227 06ec BB7A     		ldrb	r3, [r7, #10]	@ zero_extendqisi2
 1228 06ee 002B     		cmp	r3, #0
 1229 06f0 02D0     		beq	.L74
 1230 06f2 012B     		cmp	r3, #1
 1231 06f4 13D0     		beq	.L84
 1232 06f6 09E0     		b	.L81
 1233              	.L74:
 508:build/openmote-cc2538_armgcc/openstack/03a-IPHC/iphc.c ****       case IPHC_NH_INLINE:
 509:build/openmote-cc2538_armgcc/openstack/03a-IPHC/iphc.c ****          packetfunctions_reserveHeaderSize(msg,sizeof(uint8_t));
 1234              		.loc 1 509 0
 1235 06f8 F868     		ldr	r0, [r7, #12]
 1236 06fa 0121     		movs	r1, #1
 1237 06fc FFF7FEFF 		bl	packetfunctions_reserveHeaderSize
 510:build/openmote-cc2538_armgcc/openstack/03a-IPHC/iphc.c ****          *((uint8_t*)(msg->payload)) = value_nextHeader;
 1238              		.loc 1 510 0
 1239 0700 FB68     		ldr	r3, [r7, #12]
 1240 0702 5B68     		ldr	r3, [r3, #4]
 1241 0704 97F82020 		ldrb	r2, [r7, #32]
 1242 0708 1A70     		strb	r2, [r3]
 511:build/openmote-cc2538_armgcc/openstack/03a-IPHC/iphc.c ****          break;
 1243              		.loc 1 511 0
 1244 070a 09E0     		b	.L76
 1245              	.L81:
 512:build/openmote-cc2538_armgcc/openstack/03a-IPHC/iphc.c ****       case IPHC_NH_COMPRESSED:
 513:build/openmote-cc2538_armgcc/openstack/03a-IPHC/iphc.c ****          //do nothing, the next header will be there
 514:build/openmote-cc2538_armgcc/openstack/03a-IPHC/iphc.c ****         break;
 515:build/openmote-cc2538_armgcc/openstack/03a-IPHC/iphc.c ****       default:
 516:build/openmote-cc2538_armgcc/openstack/03a-IPHC/iphc.c ****          openserial_printCritical(
 1246              		.loc 1 516 0
 1247 070c BB7A     		ldrb	r3, [r7, #10]	@ zero_extendqisi2
 1248 070e 9BB2     		uxth	r3, r3
 1249 0710 1120     		movs	r0, #17
 1250 0712 0C21     		movs	r1, #12
 1251 0714 0322     		movs	r2, #3
 1252 0716 FFF7FEFF 		bl	openserial_printCritical
 517:build/openmote-cc2538_armgcc/openstack/03a-IPHC/iphc.c ****             COMPONENT_IPHC,
 518:build/openmote-cc2538_armgcc/openstack/03a-IPHC/iphc.c ****             ERR_6LOWPAN_UNSUPPORTED,
 519:build/openmote-cc2538_armgcc/openstack/03a-IPHC/iphc.c ****             (errorparameter_t)3,
 520:build/openmote-cc2538_armgcc/openstack/03a-IPHC/iphc.c ****             (errorparameter_t)nh
 521:build/openmote-cc2538_armgcc/openstack/03a-IPHC/iphc.c ****          );
 522:build/openmote-cc2538_armgcc/openstack/03a-IPHC/iphc.c ****          return E_FAIL;
 1253              		.loc 1 522 0
 1254 071a 0123     		movs	r3, #1
 1255 071c 8BE0     		b	.L48
 1256              	.L84:
 514:build/openmote-cc2538_armgcc/openstack/03a-IPHC/iphc.c ****       default:
 1257              		.loc 1 514 0
 1258 071e 00BF     		nop
 1259              	.L76:
 523:build/openmote-cc2538_armgcc/openstack/03a-IPHC/iphc.c ****    }
 524:build/openmote-cc2538_armgcc/openstack/03a-IPHC/iphc.c ****    
 525:build/openmote-cc2538_armgcc/openstack/03a-IPHC/iphc.c ****    // flowlabel
 526:build/openmote-cc2538_armgcc/openstack/03a-IPHC/iphc.c ****    switch (tf) {
 1260              		.loc 1 526 0
 1261 0720 FB7A     		ldrb	r3, [r7, #11]	@ zero_extendqisi2
 1262 0722 012B     		cmp	r3, #1
 1263 0724 02D0     		beq	.L78
 1264 0726 032B     		cmp	r3, #3
 1265 0728 2BD0     		beq	.L85
 1266 072a 21E0     		b	.L82
 1267              	.L78:
 527:build/openmote-cc2538_armgcc/openstack/03a-IPHC/iphc.c ****       case IPHC_TF_3B:
 528:build/openmote-cc2538_armgcc/openstack/03a-IPHC/iphc.c ****              packetfunctions_reserveHeaderSize(msg,sizeof(uint8_t));
 1268              		.loc 1 528 0
 1269 072c F868     		ldr	r0, [r7, #12]
 1270 072e 0121     		movs	r1, #1
 1271 0730 FFF7FEFF 		bl	packetfunctions_reserveHeaderSize
 529:build/openmote-cc2538_armgcc/openstack/03a-IPHC/iphc.c **** 			 *((uint8_t*)(msg->payload)) = ((uint32_t)(value_flowLabel & 0x000000ff) >> 0);
 1272              		.loc 1 529 0
 1273 0734 FB68     		ldr	r3, [r7, #12]
 1274 0736 5B68     		ldr	r3, [r3, #4]
 1275 0738 7A68     		ldr	r2, [r7, #4]
 1276 073a D2B2     		uxtb	r2, r2
 1277 073c 1A70     		strb	r2, [r3]
 530:build/openmote-cc2538_armgcc/openstack/03a-IPHC/iphc.c **** 			 packetfunctions_reserveHeaderSize(msg,sizeof(uint8_t));
 1278              		.loc 1 530 0
 1279 073e F868     		ldr	r0, [r7, #12]
 1280 0740 0121     		movs	r1, #1
 1281 0742 FFF7FEFF 		bl	packetfunctions_reserveHeaderSize
 531:build/openmote-cc2538_armgcc/openstack/03a-IPHC/iphc.c **** 			 *((uint8_t*)(msg->payload)) = ((uint32_t)(value_flowLabel & 0x0000ff00) >> 8);
 1282              		.loc 1 531 0
 1283 0746 FB68     		ldr	r3, [r7, #12]
 1284 0748 5B68     		ldr	r3, [r3, #4]
 1285 074a 7A68     		ldr	r2, [r7, #4]
 1286 074c 02F47F42 		and	r2, r2, #65280
 1287 0750 120A     		lsrs	r2, r2, #8
 1288 0752 D2B2     		uxtb	r2, r2
 1289 0754 1A70     		strb	r2, [r3]
 532:build/openmote-cc2538_armgcc/openstack/03a-IPHC/iphc.c **** 			 packetfunctions_reserveHeaderSize(msg,sizeof(uint8_t));
 1290              		.loc 1 532 0
 1291 0756 F868     		ldr	r0, [r7, #12]
 1292 0758 0121     		movs	r1, #1
 1293 075a FFF7FEFF 		bl	packetfunctions_reserveHeaderSize
 533:build/openmote-cc2538_armgcc/openstack/03a-IPHC/iphc.c **** 			 *((uint8_t*)(msg->payload)) = ((uint32_t)(value_flowLabel & 0x00ff0000) >> 16);
 1294              		.loc 1 533 0
 1295 075e FB68     		ldr	r3, [r7, #12]
 1296 0760 5B68     		ldr	r3, [r3, #4]
 1297 0762 7A68     		ldr	r2, [r7, #4]
 1298 0764 02F47F02 		and	r2, r2, #16711680
 1299 0768 120C     		lsrs	r2, r2, #16
 1300 076a D2B2     		uxtb	r2, r2
 1301 076c 1A70     		strb	r2, [r3]
 534:build/openmote-cc2538_armgcc/openstack/03a-IPHC/iphc.c ****          break;            
 1302              		.loc 1 534 0
 1303 076e 09E0     		b	.L80
 1304              	.L82:
 535:build/openmote-cc2538_armgcc/openstack/03a-IPHC/iphc.c ****       case IPHC_TF_ELIDED:
 536:build/openmote-cc2538_armgcc/openstack/03a-IPHC/iphc.c ****          break;
 537:build/openmote-cc2538_armgcc/openstack/03a-IPHC/iphc.c ****       case IPHC_TF_4B:
 538:build/openmote-cc2538_armgcc/openstack/03a-IPHC/iphc.c ****          //unsupported
 539:build/openmote-cc2538_armgcc/openstack/03a-IPHC/iphc.c ****       case IPHC_TF_1B:
 540:build/openmote-cc2538_armgcc/openstack/03a-IPHC/iphc.c ****          //unsupported
 541:build/openmote-cc2538_armgcc/openstack/03a-IPHC/iphc.c ****       default:
 542:build/openmote-cc2538_armgcc/openstack/03a-IPHC/iphc.c ****          openserial_printCritical(
 1305              		.loc 1 542 0
 1306 0770 FB7A     		ldrb	r3, [r7, #11]	@ zero_extendqisi2
 1307 0772 9BB2     		uxth	r3, r3
 1308 0774 1120     		movs	r0, #17
 1309 0776 0C21     		movs	r1, #12
 1310 0778 0422     		movs	r2, #4
 1311 077a FFF7FEFF 		bl	openserial_printCritical
 543:build/openmote-cc2538_armgcc/openstack/03a-IPHC/iphc.c ****             COMPONENT_IPHC,
 544:build/openmote-cc2538_armgcc/openstack/03a-IPHC/iphc.c ****             ERR_6LOWPAN_UNSUPPORTED,
 545:build/openmote-cc2538_armgcc/openstack/03a-IPHC/iphc.c ****             (errorparameter_t)4,
 546:build/openmote-cc2538_armgcc/openstack/03a-IPHC/iphc.c ****             (errorparameter_t)tf
 547:build/openmote-cc2538_armgcc/openstack/03a-IPHC/iphc.c ****          );
 548:build/openmote-cc2538_armgcc/openstack/03a-IPHC/iphc.c ****          return E_FAIL;
 1312              		.loc 1 548 0
 1313 077e 0123     		movs	r3, #1
 1314 0780 59E0     		b	.L48
 1315              	.L85:
 536:build/openmote-cc2538_armgcc/openstack/03a-IPHC/iphc.c ****       case IPHC_TF_4B:
 1316              		.loc 1 536 0
 1317 0782 00BF     		nop
 1318              	.L80:
 549:build/openmote-cc2538_armgcc/openstack/03a-IPHC/iphc.c ****    }
 550:build/openmote-cc2538_armgcc/openstack/03a-IPHC/iphc.c ****    
 551:build/openmote-cc2538_armgcc/openstack/03a-IPHC/iphc.c ****    // header
 552:build/openmote-cc2538_armgcc/openstack/03a-IPHC/iphc.c ****    temp_8b    = 0;
 1319              		.loc 1 552 0
 1320 0784 0023     		movs	r3, #0
 1321 0786 FB75     		strb	r3, [r7, #23]
 553:build/openmote-cc2538_armgcc/openstack/03a-IPHC/iphc.c ****    temp_8b   |= cid                    << IPHC_CID;
 1322              		.loc 1 553 0
 1323 0788 97F82C30 		ldrb	r3, [r7, #44]	@ zero_extendqisi2
 1324 078c DB01     		lsls	r3, r3, #7
 1325 078e DAB2     		uxtb	r2, r3
 1326 0790 FB7D     		ldrb	r3, [r7, #23]	@ zero_extendqisi2
 1327 0792 1343     		orrs	r3, r3, r2
 1328 0794 DBB2     		uxtb	r3, r3
 1329 0796 FB75     		strb	r3, [r7, #23]
 554:build/openmote-cc2538_armgcc/openstack/03a-IPHC/iphc.c ****    temp_8b   |= sac                    << IPHC_SAC;
 1330              		.loc 1 554 0
 1331 0798 97F83030 		ldrb	r3, [r7, #48]	@ zero_extendqisi2
 1332 079c 9B01     		lsls	r3, r3, #6
 1333 079e DAB2     		uxtb	r2, r3
 1334 07a0 FB7D     		ldrb	r3, [r7, #23]	@ zero_extendqisi2
 1335 07a2 1343     		orrs	r3, r3, r2
 1336 07a4 DBB2     		uxtb	r3, r3
 1337 07a6 FB75     		strb	r3, [r7, #23]
 555:build/openmote-cc2538_armgcc/openstack/03a-IPHC/iphc.c ****    temp_8b   |= sam                    << IPHC_SAM;
 1338              		.loc 1 555 0
 1339 07a8 97F83430 		ldrb	r3, [r7, #52]	@ zero_extendqisi2
 1340 07ac 1B01     		lsls	r3, r3, #4
 1341 07ae DAB2     		uxtb	r2, r3
 1342 07b0 FB7D     		ldrb	r3, [r7, #23]	@ zero_extendqisi2
 1343 07b2 1343     		orrs	r3, r3, r2
 1344 07b4 DBB2     		uxtb	r3, r3
 1345 07b6 FB75     		strb	r3, [r7, #23]
 556:build/openmote-cc2538_armgcc/openstack/03a-IPHC/iphc.c ****    temp_8b   |= m                      << IPHC_M;
 1346              		.loc 1 556 0
 1347 07b8 97F83830 		ldrb	r3, [r7, #56]	@ zero_extendqisi2
 1348 07bc DB00     		lsls	r3, r3, #3
 1349 07be DAB2     		uxtb	r2, r3
 1350 07c0 FB7D     		ldrb	r3, [r7, #23]	@ zero_extendqisi2
 1351 07c2 1343     		orrs	r3, r3, r2
 1352 07c4 DBB2     		uxtb	r3, r3
 1353 07c6 FB75     		strb	r3, [r7, #23]
 557:build/openmote-cc2538_armgcc/openstack/03a-IPHC/iphc.c ****    temp_8b   |= dac                    << IPHC_DAC;
 1354              		.loc 1 557 0
 1355 07c8 97F83C30 		ldrb	r3, [r7, #60]	@ zero_extendqisi2
 1356 07cc 9B00     		lsls	r3, r3, #2
 1357 07ce DAB2     		uxtb	r2, r3
 1358 07d0 FB7D     		ldrb	r3, [r7, #23]	@ zero_extendqisi2
 1359 07d2 1343     		orrs	r3, r3, r2
 1360 07d4 DBB2     		uxtb	r3, r3
 1361 07d6 FB75     		strb	r3, [r7, #23]
 558:build/openmote-cc2538_armgcc/openstack/03a-IPHC/iphc.c ****    temp_8b   |= dam                    << IPHC_DAM;
 1362              		.loc 1 558 0
 1363 07d8 FA7D     		ldrb	r2, [r7, #23]
 1364 07da 97F84030 		ldrb	r3, [r7, #64]
 1365 07de 1343     		orrs	r3, r3, r2
 1366 07e0 FB75     		strb	r3, [r7, #23]
 559:build/openmote-cc2538_armgcc/openstack/03a-IPHC/iphc.c ****    packetfunctions_reserveHeaderSize(msg,sizeof(uint8_t));
 1367              		.loc 1 559 0
 1368 07e2 F868     		ldr	r0, [r7, #12]
 1369 07e4 0121     		movs	r1, #1
 1370 07e6 FFF7FEFF 		bl	packetfunctions_reserveHeaderSize
 560:build/openmote-cc2538_armgcc/openstack/03a-IPHC/iphc.c ****    *((uint8_t*)(msg->payload)) = temp_8b;
 1371              		.loc 1 560 0
 1372 07ea FB68     		ldr	r3, [r7, #12]
 1373 07ec 5B68     		ldr	r3, [r3, #4]
 1374 07ee FA7D     		ldrb	r2, [r7, #23]
 1375 07f0 1A70     		strb	r2, [r3]
 561:build/openmote-cc2538_armgcc/openstack/03a-IPHC/iphc.c ****    temp_8b    = 0;
 1376              		.loc 1 561 0
 1377 07f2 0023     		movs	r3, #0
 1378 07f4 FB75     		strb	r3, [r7, #23]
 562:build/openmote-cc2538_armgcc/openstack/03a-IPHC/iphc.c ****    temp_8b   |= IPHC_DISPATCH_IPHC     << IPHC_DISPATCH;
 1379              		.loc 1 562 0
 1380 07f6 FB7D     		ldrb	r3, [r7, #23]
 1381 07f8 43F06003 		orr	r3, r3, #96
 1382 07fc FB75     		strb	r3, [r7, #23]
 563:build/openmote-cc2538_armgcc/openstack/03a-IPHC/iphc.c ****    temp_8b   |= tf                     << IPHC_TF;
 1383              		.loc 1 563 0
 1384 07fe FB7A     		ldrb	r3, [r7, #11]	@ zero_extendqisi2
 1385 0800 DB00     		lsls	r3, r3, #3
 1386 0802 DAB2     		uxtb	r2, r3
 1387 0804 FB7D     		ldrb	r3, [r7, #23]	@ zero_extendqisi2
 1388 0806 1343     		orrs	r3, r3, r2
 1389 0808 DBB2     		uxtb	r3, r3
 1390 080a FB75     		strb	r3, [r7, #23]
 564:build/openmote-cc2538_armgcc/openstack/03a-IPHC/iphc.c ****    temp_8b   |= nh                     << IPHC_NH;
 1391              		.loc 1 564 0
 1392 080c BB7A     		ldrb	r3, [r7, #10]	@ zero_extendqisi2
 1393 080e 9B00     		lsls	r3, r3, #2
 1394 0810 DAB2     		uxtb	r2, r3
 1395 0812 FB7D     		ldrb	r3, [r7, #23]	@ zero_extendqisi2
 1396 0814 1343     		orrs	r3, r3, r2
 1397 0816 DBB2     		uxtb	r3, r3
 1398 0818 FB75     		strb	r3, [r7, #23]
 565:build/openmote-cc2538_armgcc/openstack/03a-IPHC/iphc.c ****    temp_8b   |= hlim                   << IPHC_HLIM;
 1399              		.loc 1 565 0
 1400 081a FA7D     		ldrb	r2, [r7, #23]
 1401 081c 97F82430 		ldrb	r3, [r7, #36]
 1402 0820 1343     		orrs	r3, r3, r2
 1403 0822 FB75     		strb	r3, [r7, #23]
 566:build/openmote-cc2538_armgcc/openstack/03a-IPHC/iphc.c ****    packetfunctions_reserveHeaderSize(msg,sizeof(uint8_t));
 1404              		.loc 1 566 0
 1405 0824 F868     		ldr	r0, [r7, #12]
 1406 0826 0121     		movs	r1, #1
 1407 0828 FFF7FEFF 		bl	packetfunctions_reserveHeaderSize
 567:build/openmote-cc2538_armgcc/openstack/03a-IPHC/iphc.c ****    *((uint8_t*)(msg->payload)) = temp_8b;
 1408              		.loc 1 567 0
 1409 082c FB68     		ldr	r3, [r7, #12]
 1410 082e 5B68     		ldr	r3, [r3, #4]
 1411 0830 FA7D     		ldrb	r2, [r7, #23]
 1412 0832 1A70     		strb	r2, [r3]
 568:build/openmote-cc2538_armgcc/openstack/03a-IPHC/iphc.c ****    
 569:build/openmote-cc2538_armgcc/openstack/03a-IPHC/iphc.c ****    return E_SUCCESS;
 1413              		.loc 1 569 0
 1414 0834 0023     		movs	r3, #0
 1415              	.L48:
 570:build/openmote-cc2538_armgcc/openstack/03a-IPHC/iphc.c **** }
 1416              		.loc 1 570 0
 1417 0836 1846     		mov	r0, r3
 1418 0838 1837     		adds	r7, r7, #24
 1419              		.cfi_def_cfa_offset 8
 1420 083a BD46     		mov	sp, r7
 1421              		.cfi_def_cfa_register 13
 1422              		@ sp needed
 1423 083c 80BD     		pop	{r7, pc}
 1424              		.cfi_endproc
 1425              	.LFE5:
 1427 083e 00BF     		.align	2
 1428              		.global	iphc_retrieveIPv6Header
 1429              		.thumb
 1430              		.thumb_func
 1432              	iphc_retrieveIPv6Header:
 1433              	.LFB6:
 571:build/openmote-cc2538_armgcc/openstack/03a-IPHC/iphc.c **** 
 572:build/openmote-cc2538_armgcc/openstack/03a-IPHC/iphc.c **** /**
 573:build/openmote-cc2538_armgcc/openstack/03a-IPHC/iphc.c **** \brief Retrieve an IPv6 header from a message.
 574:build/openmote-cc2538_armgcc/openstack/03a-IPHC/iphc.c **** */
 575:build/openmote-cc2538_armgcc/openstack/03a-IPHC/iphc.c **** void iphc_retrieveIPv6Header(OpenQueueEntry_t* msg, ipv6_header_iht* ipv6_outer_header, ipv6_header
 1434              		.loc 1 575 0
 1435              		.cfi_startproc
 1436              		@ args = 0, pretend = 0, frame = 72
 1437              		@ frame_needed = 1, uses_anonymous_args = 0
 1438 0840 B0B5     		push	{r4, r5, r7, lr}
 1439              		.cfi_def_cfa_offset 16
 1440              		.cfi_offset 4, -16
 1441              		.cfi_offset 5, -12
 1442              		.cfi_offset 7, -8
 1443              		.cfi_offset 14, -4
 1444 0842 9AB0     		sub	sp, sp, #104
 1445              		.cfi_def_cfa_offset 120
 1446 0844 08AF     		add	r7, sp, #32
 1447              		.cfi_def_cfa 7, 88
 1448 0846 F860     		str	r0, [r7, #12]
 1449 0848 B960     		str	r1, [r7, #8]
 1450 084a 7A60     		str	r2, [r7, #4]
 1451 084c 3B60     		str	r3, [r7]
 576:build/openmote-cc2538_armgcc/openstack/03a-IPHC/iphc.c ****     uint8_t         temp_8b;
 577:build/openmote-cc2538_armgcc/openstack/03a-IPHC/iphc.c ****     open_addr_t     temp_addr_16b;
 578:build/openmote-cc2538_armgcc/openstack/03a-IPHC/iphc.c ****     open_addr_t     temp_addr_64b;
 579:build/openmote-cc2538_armgcc/openstack/03a-IPHC/iphc.c ****     uint8_t         dispatch;
 580:build/openmote-cc2538_armgcc/openstack/03a-IPHC/iphc.c ****     uint8_t         tf;
 581:build/openmote-cc2538_armgcc/openstack/03a-IPHC/iphc.c ****     uint8_t         nh;
 582:build/openmote-cc2538_armgcc/openstack/03a-IPHC/iphc.c ****     uint8_t         hlim;
 583:build/openmote-cc2538_armgcc/openstack/03a-IPHC/iphc.c ****     uint8_t         sam;
 584:build/openmote-cc2538_armgcc/openstack/03a-IPHC/iphc.c ****     uint8_t         m;
 585:build/openmote-cc2538_armgcc/openstack/03a-IPHC/iphc.c ****     uint8_t         dam;
 586:build/openmote-cc2538_armgcc/openstack/03a-IPHC/iphc.c ****     uint8_t         size;
 587:build/openmote-cc2538_armgcc/openstack/03a-IPHC/iphc.c ****     uint8_t         lorh_type;
 588:build/openmote-cc2538_armgcc/openstack/03a-IPHC/iphc.c ****     uint8_t         rh3_index;
 589:build/openmote-cc2538_armgcc/openstack/03a-IPHC/iphc.c ****     uint8_t         page;
 590:build/openmote-cc2538_armgcc/openstack/03a-IPHC/iphc.c ****     uint8_t         lorh_length;
 591:build/openmote-cc2538_armgcc/openstack/03a-IPHC/iphc.c ****     
 592:build/openmote-cc2538_armgcc/openstack/03a-IPHC/iphc.c ****     uint8_t         extention_header_length;
 593:build/openmote-cc2538_armgcc/openstack/03a-IPHC/iphc.c ****     
 594:build/openmote-cc2538_armgcc/openstack/03a-IPHC/iphc.c ****     *page_length                      = 0;
 1452              		.loc 1 594 0
 1453 084e 3B68     		ldr	r3, [r7]
 1454 0850 0022     		movs	r2, #0
 1455 0852 1A70     		strb	r2, [r3]
 595:build/openmote-cc2538_armgcc/openstack/03a-IPHC/iphc.c ****     extention_header_length          = 0;
 1456              		.loc 1 595 0
 1457 0854 0023     		movs	r3, #0
 1458 0856 87F84530 		strb	r3, [r7, #69]
 596:build/openmote-cc2538_armgcc/openstack/03a-IPHC/iphc.c ****     rh3_index                        = 0;
 1459              		.loc 1 596 0
 1460 085a 0023     		movs	r3, #0
 1461 085c 87F84430 		strb	r3, [r7, #68]
 597:build/openmote-cc2538_armgcc/openstack/03a-IPHC/iphc.c ****     ipv6_outer_header->header_length = 0;
 1462              		.loc 1 597 0
 1463 0860 BB68     		ldr	r3, [r7, #8]
 1464 0862 0022     		movs	r2, #0
 1465 0864 83F84420 		strb	r2, [r3, #68]
 598:build/openmote-cc2538_armgcc/openstack/03a-IPHC/iphc.c ****     ipv6_inner_header->header_length = 0;
 1466              		.loc 1 598 0
 1467 0868 7B68     		ldr	r3, [r7, #4]
 1468 086a 0022     		movs	r2, #0
 1469 086c 83F84420 		strb	r2, [r3, #68]
 599:build/openmote-cc2538_armgcc/openstack/03a-IPHC/iphc.c ****     ipv6_outer_header->rhe_length	 = 0;
 1470              		.loc 1 599 0
 1471 0870 BB68     		ldr	r3, [r7, #8]
 1472 0872 0022     		movs	r2, #0
 1473 0874 83F82120 		strb	r2, [r3, #33]
 600:build/openmote-cc2538_armgcc/openstack/03a-IPHC/iphc.c **** 
 601:build/openmote-cc2538_armgcc/openstack/03a-IPHC/iphc.c **** 
 602:build/openmote-cc2538_armgcc/openstack/03a-IPHC/iphc.c ****     // four steps to retrieve:
 603:build/openmote-cc2538_armgcc/openstack/03a-IPHC/iphc.c ****     // step 1. Paging number
 604:build/openmote-cc2538_armgcc/openstack/03a-IPHC/iphc.c ****     // step 2. IP in IP 6LoRH
 605:build/openmote-cc2538_armgcc/openstack/03a-IPHC/iphc.c ****     // step 3. IPv6 extention header
 606:build/openmote-cc2538_armgcc/openstack/03a-IPHC/iphc.c ****     // step 4. IPv6 inner header
 607:build/openmote-cc2538_armgcc/openstack/03a-IPHC/iphc.c ****     // ====================== 1. paging number =================================
 608:build/openmote-cc2538_armgcc/openstack/03a-IPHC/iphc.c ****     temp_8b = *((uint8_t*)(msg->payload)+ipv6_outer_header->header_length);
 1474              		.loc 1 608 0
 1475 0878 FB68     		ldr	r3, [r7, #12]
 1476 087a 5B68     		ldr	r3, [r3, #4]
 1477 087c BA68     		ldr	r2, [r7, #8]
 1478 087e 92F84420 		ldrb	r2, [r2, #68]	@ zero_extendqisi2
 1479 0882 1344     		add	r3, r3, r2
 1480 0884 1B78     		ldrb	r3, [r3]
 1481 0886 87F84730 		strb	r3, [r7, #71]
 609:build/openmote-cc2538_armgcc/openstack/03a-IPHC/iphc.c ****     if ((temp_8b&PAGE_DISPATCH_TAG) == PAGE_DISPATCH_TAG){
 1482              		.loc 1 609 0
 1483 088a 97F84730 		ldrb	r3, [r7, #71]	@ zero_extendqisi2
 1484 088e 03F0F003 		and	r3, r3, #240
 1485 0892 F02B     		cmp	r3, #240
 1486 0894 09D1     		bne	.L87
 610:build/openmote-cc2538_armgcc/openstack/03a-IPHC/iphc.c ****         page = temp_8b&PAGE_DISPATCH_NUM; 
 1487              		.loc 1 610 0
 1488 0896 97F84730 		ldrb	r3, [r7, #71]
 1489 089a 03F00F03 		and	r3, r3, #15
 1490 089e 87F84630 		strb	r3, [r7, #70]
 611:build/openmote-cc2538_armgcc/openstack/03a-IPHC/iphc.c ****         *page_length = 1;
 1491              		.loc 1 611 0
 1492 08a2 3B68     		ldr	r3, [r7]
 1493 08a4 0122     		movs	r2, #1
 1494 08a6 1A70     		strb	r2, [r3]
 1495 08a8 02E0     		b	.L88
 1496              	.L87:
 612:build/openmote-cc2538_armgcc/openstack/03a-IPHC/iphc.c ****     } else {
 613:build/openmote-cc2538_armgcc/openstack/03a-IPHC/iphc.c ****         page = 0;
 1497              		.loc 1 613 0
 1498 08aa 0023     		movs	r3, #0
 1499 08ac 87F84630 		strb	r3, [r7, #70]
 1500              	.L88:
 614:build/openmote-cc2538_armgcc/openstack/03a-IPHC/iphc.c ****     }
 615:build/openmote-cc2538_armgcc/openstack/03a-IPHC/iphc.c ****     //======================= 2. and 3. IPv6 extention header and IPv6 inner header ===============
 616:build/openmote-cc2538_armgcc/openstack/03a-IPHC/iphc.c ****     if(page==1){
 1501              		.loc 1 616 0
 1502 08b0 97F84630 		ldrb	r3, [r7, #70]	@ zero_extendqisi2
 1503 08b4 012B     		cmp	r3, #1
 1504 08b6 40F02782 		bne	.L89
 617:build/openmote-cc2538_armgcc/openstack/03a-IPHC/iphc.c ****     	extention_header_length = 0;
 1505              		.loc 1 617 0
 1506 08ba 0023     		movs	r3, #0
 1507 08bc 87F84530 		strb	r3, [r7, #69]
 618:build/openmote-cc2538_armgcc/openstack/03a-IPHC/iphc.c ****     	temp_8b = *((uint8_t*)(msg->payload)+*page_length+extention_header_length);
 1508              		.loc 1 618 0
 1509 08c0 FB68     		ldr	r3, [r7, #12]
 1510 08c2 5A68     		ldr	r2, [r3, #4]
 1511 08c4 3B68     		ldr	r3, [r7]
 1512 08c6 1B78     		ldrb	r3, [r3]	@ zero_extendqisi2
 1513 08c8 1946     		mov	r1, r3
 1514 08ca 97F84530 		ldrb	r3, [r7, #69]	@ zero_extendqisi2
 1515 08ce 0B44     		add	r3, r3, r1
 1516 08d0 1344     		add	r3, r3, r2
 1517 08d2 1B78     		ldrb	r3, [r3]
 1518 08d4 87F84730 		strb	r3, [r7, #71]
 619:build/openmote-cc2538_armgcc/openstack/03a-IPHC/iphc.c ****     	while ((temp_8b&FORMAT_6LORH_MASK) == CRITICAL_6LORH || (temp_8b&FORMAT_6LORH_MASK) == ELECTIV
 1519              		.loc 1 619 0
 1520 08d8 08E2     		b	.L90
 1521              	.L121:
 620:build/openmote-cc2538_armgcc/openstack/03a-IPHC/iphc.c ****     		switch (temp_8b&FORMAT_6LORH_MASK) {
 1522              		.loc 1 620 0
 1523 08da 97F84730 		ldrb	r3, [r7, #71]	@ zero_extendqisi2
 1524 08de 03F0E003 		and	r3, r3, #224
 1525 08e2 802B     		cmp	r3, #128
 1526 08e4 03D0     		beq	.L91
 1527 08e6 A02B     		cmp	r3, #160
 1528 08e8 00F0F680 		beq	.L92
 1529 08ec FEE1     		b	.L90
 1530              	.L91:
 621:build/openmote-cc2538_armgcc/openstack/03a-IPHC/iphc.c ****     		case CRITICAL_6LORH :
 622:build/openmote-cc2538_armgcc/openstack/03a-IPHC/iphc.c ****     			lorh_type = *((uint8_t*)(msg->payload)+*page_length+extention_header_length+1);
 1531              		.loc 1 622 0
 1532 08ee FB68     		ldr	r3, [r7, #12]
 1533 08f0 5A68     		ldr	r2, [r3, #4]
 1534 08f2 3B68     		ldr	r3, [r7]
 1535 08f4 1B78     		ldrb	r3, [r3]	@ zero_extendqisi2
 1536 08f6 1946     		mov	r1, r3
 1537 08f8 97F84530 		ldrb	r3, [r7, #69]	@ zero_extendqisi2
 1538 08fc 0B44     		add	r3, r3, r1
 1539 08fe 0133     		adds	r3, r3, #1
 1540 0900 1344     		add	r3, r3, r2
 1541 0902 1B78     		ldrb	r3, [r3]
 1542 0904 87F84330 		strb	r3, [r7, #67]
 623:build/openmote-cc2538_armgcc/openstack/03a-IPHC/iphc.c ****     			if(lorh_type<=RH3_6LOTH_TYPE_4){
 1543              		.loc 1 623 0
 1544 0908 97F84330 		ldrb	r3, [r7, #67]	@ zero_extendqisi2
 1545 090c 042B     		cmp	r3, #4
 1546 090e 00F29080 		bhi	.L93
 624:build/openmote-cc2538_armgcc/openstack/03a-IPHC/iphc.c ****     				if (rh3_index == MAXNUM_RH3){
 1547              		.loc 1 624 0
 1548 0912 97F84430 		ldrb	r3, [r7, #68]	@ zero_extendqisi2
 1549 0916 032B     		cmp	r3, #3
 1550 0918 08D1     		bne	.L94
 625:build/openmote-cc2538_armgcc/openstack/03a-IPHC/iphc.c ****     					openserial_printError(
 1551              		.loc 1 625 0
 1552 091a 97F84430 		ldrb	r3, [r7, #68]	@ zero_extendqisi2
 1553 091e 9BB2     		uxth	r3, r3
 1554 0920 1120     		movs	r0, #17
 1555 0922 0C21     		movs	r1, #12
 1556 0924 0D22     		movs	r2, #13
 1557 0926 FFF7FEFF 		bl	openserial_printError
 1558 092a 18E2     		b	.L86
 1559              	.L94:
 626:build/openmote-cc2538_armgcc/openstack/03a-IPHC/iphc.c ****     							COMPONENT_IPHC,
 627:build/openmote-cc2538_armgcc/openstack/03a-IPHC/iphc.c **** 								ERR_6LOWPAN_UNSUPPORTED,
 628:build/openmote-cc2538_armgcc/openstack/03a-IPHC/iphc.c **** 								(errorparameter_t)13,
 629:build/openmote-cc2538_armgcc/openstack/03a-IPHC/iphc.c **** 								(errorparameter_t)(rh3_index)
 630:build/openmote-cc2538_armgcc/openstack/03a-IPHC/iphc.c ****     					);
 631:build/openmote-cc2538_armgcc/openstack/03a-IPHC/iphc.c ****     					return;
 632:build/openmote-cc2538_armgcc/openstack/03a-IPHC/iphc.c ****     				}
 633:build/openmote-cc2538_armgcc/openstack/03a-IPHC/iphc.c ****     				if (rh3_index==0){
 1560              		.loc 1 633 0
 1561 092c 97F84430 		ldrb	r3, [r7, #68]	@ zero_extendqisi2
 1562 0930 002B     		cmp	r3, #0
 1563 0932 16D1     		bne	.L96
 634:build/openmote-cc2538_armgcc/openstack/03a-IPHC/iphc.c ****     					if (ipv6_outer_header->hopByhop_option == NULL){
 1564              		.loc 1 634 0
 1565 0934 BB68     		ldr	r3, [r7, #8]
 1566 0936 9B69     		ldr	r3, [r3, #24]
 1567 0938 002B     		cmp	r3, #0
 1568 093a 02D1     		bne	.L97
 635:build/openmote-cc2538_armgcc/openstack/03a-IPHC/iphc.c ****     						ipv6_outer_header->next_header = IANA_IPv6ROUTE;
 1569              		.loc 1 635 0
 1570 093c BB68     		ldr	r3, [r7, #8]
 1571 093e 2B22     		movs	r2, #43
 1572 0940 5A72     		strb	r2, [r3, #9]
 1573              	.L97:
 636:build/openmote-cc2538_armgcc/openstack/03a-IPHC/iphc.c ****     					}
 637:build/openmote-cc2538_armgcc/openstack/03a-IPHC/iphc.c ****     					ipv6_outer_header->routing_header[rh3_index] = (uint8_t*)(msg->payload) + \
 1574              		.loc 1 637 0
 1575 0942 97F84430 		ldrb	r3, [r7, #68]	@ zero_extendqisi2
 1576 0946 FA68     		ldr	r2, [r7, #12]
 1577 0948 5168     		ldr	r1, [r2, #4]
 638:build/openmote-cc2538_armgcc/openstack/03a-IPHC/iphc.c ****     							*page_length + \
 1578              		.loc 1 638 0
 1579 094a 3A68     		ldr	r2, [r7]
 1580 094c 1278     		ldrb	r2, [r2]	@ zero_extendqisi2
 1581 094e 1046     		mov	r0, r2
 1582 0950 97F84520 		ldrb	r2, [r7, #69]	@ zero_extendqisi2
 1583 0954 0244     		add	r2, r2, r0
 1584 0956 0A44     		add	r2, r2, r1
 637:build/openmote-cc2538_armgcc/openstack/03a-IPHC/iphc.c ****     							*page_length + \
 1585              		.loc 1 637 0
 1586 0958 B968     		ldr	r1, [r7, #8]
 1587 095a 0233     		adds	r3, r3, #2
 1588 095c 9B00     		lsls	r3, r3, #2
 1589 095e 0B44     		add	r3, r3, r1
 1590 0960 5A60     		str	r2, [r3, #4]
 1591              	.L96:
 639:build/openmote-cc2538_armgcc/openstack/03a-IPHC/iphc.c **** 								extention_header_length;
 640:build/openmote-cc2538_armgcc/openstack/03a-IPHC/iphc.c ****     				}
 641:build/openmote-cc2538_armgcc/openstack/03a-IPHC/iphc.c ****     				size = temp_8b & RH3_6LOTH_SIZE_MASK;
 1592              		.loc 1 641 0
 1593 0962 97F84730 		ldrb	r3, [r7, #71]
 1594 0966 03F01F03 		and	r3, r3, #31
 1595 096a 87F84230 		strb	r3, [r7, #66]
 642:build/openmote-cc2538_armgcc/openstack/03a-IPHC/iphc.c ****     				size += 1;
 1596              		.loc 1 642 0
 1597 096e 97F84230 		ldrb	r3, [r7, #66]
 1598 0972 0133     		adds	r3, r3, #1
 1599 0974 87F84230 		strb	r3, [r7, #66]
 643:build/openmote-cc2538_armgcc/openstack/03a-IPHC/iphc.c ****     				switch(lorh_type){
 1600              		.loc 1 643 0
 1601 0978 97F84330 		ldrb	r3, [r7, #67]	@ zero_extendqisi2
 1602 097c 042B     		cmp	r3, #4
 1603 097e 47D8     		bhi	.L98
 1604 0980 01A2     		adr	r2, .L100
 1605 0982 52F823F0 		ldr	pc, [r2, r3, lsl #2]
 1606 0986 00BF     		.p2align 2
 1607              	.L100:
 1608 0988 9D090000 		.word	.L99+1
 1609 098c B1090000 		.word	.L101+1
 1610 0990 C9090000 		.word	.L102+1
 1611 0994 E1090000 		.word	.L103+1
 1612 0998 F9090000 		.word	.L104+1
 1613              		.p2align 1
 1614              	.L99:
 644:build/openmote-cc2538_armgcc/openstack/03a-IPHC/iphc.c ****     				case 0:
 645:build/openmote-cc2538_armgcc/openstack/03a-IPHC/iphc.c ****     					extention_header_length += 2+ 1*size;
 1615              		.loc 1 645 0
 1616 099c 97F84220 		ldrb	r2, [r7, #66]
 1617 09a0 97F84530 		ldrb	r3, [r7, #69]
 1618 09a4 1344     		add	r3, r3, r2
 1619 09a6 DBB2     		uxtb	r3, r3
 1620 09a8 0233     		adds	r3, r3, #2
 1621 09aa 87F84530 		strb	r3, [r7, #69]
 646:build/openmote-cc2538_armgcc/openstack/03a-IPHC/iphc.c ****     					break;
 1622              		.loc 1 646 0
 1623 09ae 2FE0     		b	.L98
 1624              	.L101:
 647:build/openmote-cc2538_armgcc/openstack/03a-IPHC/iphc.c ****     				case 1:
 648:build/openmote-cc2538_armgcc/openstack/03a-IPHC/iphc.c ****     					extention_header_length += 2+ 2*size;
 1625              		.loc 1 648 0
 1626 09b0 97F84230 		ldrb	r3, [r7, #66]	@ zero_extendqisi2
 1627 09b4 0133     		adds	r3, r3, #1
 1628 09b6 DBB2     		uxtb	r3, r3
 1629 09b8 5B00     		lsls	r3, r3, #1
 1630 09ba DAB2     		uxtb	r2, r3
 1631 09bc 97F84530 		ldrb	r3, [r7, #69]
 1632 09c0 1344     		add	r3, r3, r2
 1633 09c2 87F84530 		strb	r3, [r7, #69]
 649:build/openmote-cc2538_armgcc/openstack/03a-IPHC/iphc.c ****     					break;
 1634              		.loc 1 649 0
 1635 09c6 23E0     		b	.L98
 1636              	.L102:
 650:build/openmote-cc2538_armgcc/openstack/03a-IPHC/iphc.c ****     				case 2:
 651:build/openmote-cc2538_armgcc/openstack/03a-IPHC/iphc.c ****     					extention_header_length += 2+ 4*size;
 1637              		.loc 1 651 0
 1638 09c8 97F84230 		ldrb	r3, [r7, #66]
 1639 09cc 9B00     		lsls	r3, r3, #2
 1640 09ce DAB2     		uxtb	r2, r3
 1641 09d0 97F84530 		ldrb	r3, [r7, #69]
 1642 09d4 1344     		add	r3, r3, r2
 1643 09d6 DBB2     		uxtb	r3, r3
 1644 09d8 0233     		adds	r3, r3, #2
 1645 09da 87F84530 		strb	r3, [r7, #69]
 652:build/openmote-cc2538_armgcc/openstack/03a-IPHC/iphc.c ****     					break;
 1646              		.loc 1 652 0
 1647 09de 17E0     		b	.L98
 1648              	.L103:
 653:build/openmote-cc2538_armgcc/openstack/03a-IPHC/iphc.c ****     				case 3:
 654:build/openmote-cc2538_armgcc/openstack/03a-IPHC/iphc.c ****     					extention_header_length += 2+ 8*size;
 1649              		.loc 1 654 0
 1650 09e0 97F84230 		ldrb	r3, [r7, #66]
 1651 09e4 DB00     		lsls	r3, r3, #3
 1652 09e6 DAB2     		uxtb	r2, r3
 1653 09e8 97F84530 		ldrb	r3, [r7, #69]
 1654 09ec 1344     		add	r3, r3, r2
 1655 09ee DBB2     		uxtb	r3, r3
 1656 09f0 0233     		adds	r3, r3, #2
 1657 09f2 87F84530 		strb	r3, [r7, #69]
 655:build/openmote-cc2538_armgcc/openstack/03a-IPHC/iphc.c ****     					break;
 1658              		.loc 1 655 0
 1659 09f6 0BE0     		b	.L98
 1660              	.L104:
 656:build/openmote-cc2538_armgcc/openstack/03a-IPHC/iphc.c ****     				case 4:
 657:build/openmote-cc2538_armgcc/openstack/03a-IPHC/iphc.c ****     					extention_header_length += 2+ 16*size;
 1661              		.loc 1 657 0
 1662 09f8 97F84230 		ldrb	r3, [r7, #66]
 1663 09fc 1B01     		lsls	r3, r3, #4
 1664 09fe DAB2     		uxtb	r2, r3
 1665 0a00 97F84530 		ldrb	r3, [r7, #69]
 1666 0a04 1344     		add	r3, r3, r2
 1667 0a06 DBB2     		uxtb	r3, r3
 1668 0a08 0233     		adds	r3, r3, #2
 1669 0a0a 87F84530 		strb	r3, [r7, #69]
 658:build/openmote-cc2538_armgcc/openstack/03a-IPHC/iphc.c ****     					break;
 1670              		.loc 1 658 0
 1671 0a0e 00BF     		nop
 1672              	.L98:
 659:build/openmote-cc2538_armgcc/openstack/03a-IPHC/iphc.c ****     				}
 660:build/openmote-cc2538_armgcc/openstack/03a-IPHC/iphc.c ****     				temp_8b = *(uint8_t*)((msg->payload) + \
 1673              		.loc 1 660 0
 1674 0a10 FB68     		ldr	r3, [r7, #12]
 1675 0a12 5A68     		ldr	r2, [r3, #4]
 661:build/openmote-cc2538_armgcc/openstack/03a-IPHC/iphc.c ****     					*page_length + \
 1676              		.loc 1 661 0
 1677 0a14 3B68     		ldr	r3, [r7]
 1678 0a16 1B78     		ldrb	r3, [r3]	@ zero_extendqisi2
 1679 0a18 1946     		mov	r1, r3
 1680 0a1a 97F84530 		ldrb	r3, [r7, #69]	@ zero_extendqisi2
 1681 0a1e 0B44     		add	r3, r3, r1
 662:build/openmote-cc2538_armgcc/openstack/03a-IPHC/iphc.c ****     				    extention_header_length +\
 663:build/openmote-cc2538_armgcc/openstack/03a-IPHC/iphc.c ****     					ipv6_outer_header->header_length);
 1682              		.loc 1 663 0
 1683 0a20 B968     		ldr	r1, [r7, #8]
 1684 0a22 91F84410 		ldrb	r1, [r1, #68]	@ zero_extendqisi2
 662:build/openmote-cc2538_armgcc/openstack/03a-IPHC/iphc.c ****     				    extention_header_length +\
 1685              		.loc 1 662 0
 1686 0a26 0B44     		add	r3, r3, r1
 660:build/openmote-cc2538_armgcc/openstack/03a-IPHC/iphc.c ****     					*page_length + \
 1687              		.loc 1 660 0
 1688 0a28 1344     		add	r3, r3, r2
 1689 0a2a 1B78     		ldrb	r3, [r3]
 1690 0a2c 87F84730 		strb	r3, [r7, #71]
 1691 0a30 51E0     		b	.L105
 1692              	.L93:
 664:build/openmote-cc2538_armgcc/openstack/03a-IPHC/iphc.c ****     			} else {
 665:build/openmote-cc2538_armgcc/openstack/03a-IPHC/iphc.c ****     				if (lorh_type==5){
 1693              		.loc 1 665 0
 1694 0a32 97F84330 		ldrb	r3, [r7, #67]	@ zero_extendqisi2
 1695 0a36 052B     		cmp	r3, #5
 1696 0a38 45D1     		bne	.L106
 666:build/openmote-cc2538_armgcc/openstack/03a-IPHC/iphc.c ****     					if (ipv6_outer_header->routing_header[0] == NULL){
 1697              		.loc 1 666 0
 1698 0a3a BB68     		ldr	r3, [r7, #8]
 1699 0a3c DB68     		ldr	r3, [r3, #12]
 1700 0a3e 002B     		cmp	r3, #0
 1701 0a40 02D1     		bne	.L107
 667:build/openmote-cc2538_armgcc/openstack/03a-IPHC/iphc.c ****     						ipv6_outer_header->next_header = IANA_IPv6HOPOPT;
 1702              		.loc 1 667 0
 1703 0a42 BB68     		ldr	r3, [r7, #8]
 1704 0a44 0022     		movs	r2, #0
 1705 0a46 5A72     		strb	r2, [r3, #9]
 1706              	.L107:
 668:build/openmote-cc2538_armgcc/openstack/03a-IPHC/iphc.c ****     					}
 669:build/openmote-cc2538_armgcc/openstack/03a-IPHC/iphc.c ****     					ipv6_outer_header->hopByhop_option = (uint8_t*)(msg->payload) + \
 1707              		.loc 1 669 0
 1708 0a48 FB68     		ldr	r3, [r7, #12]
 1709 0a4a 5A68     		ldr	r2, [r3, #4]
 670:build/openmote-cc2538_armgcc/openstack/03a-IPHC/iphc.c ****     							*page_length + \
 1710              		.loc 1 670 0
 1711 0a4c 3B68     		ldr	r3, [r7]
 1712 0a4e 1B78     		ldrb	r3, [r3]	@ zero_extendqisi2
 1713 0a50 1946     		mov	r1, r3
 1714 0a52 97F84530 		ldrb	r3, [r7, #69]	@ zero_extendqisi2
 1715 0a56 0B44     		add	r3, r3, r1
 1716 0a58 1A44     		add	r2, r2, r3
 669:build/openmote-cc2538_armgcc/openstack/03a-IPHC/iphc.c ****     							*page_length + \
 1717              		.loc 1 669 0
 1718 0a5a BB68     		ldr	r3, [r7, #8]
 1719 0a5c 9A61     		str	r2, [r3, #24]
 671:build/openmote-cc2538_armgcc/openstack/03a-IPHC/iphc.c **** 								extention_header_length;
 672:build/openmote-cc2538_armgcc/openstack/03a-IPHC/iphc.c ****     					switch(temp_8b & (I_FLAG | K_FLAG)){
 1720              		.loc 1 672 0
 1721 0a5e 97F84730 		ldrb	r3, [r7, #71]	@ zero_extendqisi2
 1722 0a62 03F00303 		and	r3, r3, #3
 1723 0a66 032B     		cmp	r3, #3
 1724 0a68 1CD8     		bhi	.L108
 1725 0a6a 01A2     		adr	r2, .L110
 1726 0a6c 52F823F0 		ldr	pc, [r2, r3, lsl #2]
 1727              		.p2align 2
 1728              	.L110:
 1729 0a70 810A0000 		.word	.L109+1
 1730 0a74 8D0A0000 		.word	.L111+1
 1731 0a78 8D0A0000 		.word	.L111+1
 1732 0a7c 990A0000 		.word	.L112+1
 1733              		.p2align 1
 1734              	.L109:
 673:build/openmote-cc2538_armgcc/openstack/03a-IPHC/iphc.c ****     					case 0:
 674:build/openmote-cc2538_armgcc/openstack/03a-IPHC/iphc.c ****     						extention_header_length += 2+3;
 1735              		.loc 1 674 0
 1736 0a80 97F84530 		ldrb	r3, [r7, #69]
 1737 0a84 0533     		adds	r3, r3, #5
 1738 0a86 87F84530 		strb	r3, [r7, #69]
 675:build/openmote-cc2538_armgcc/openstack/03a-IPHC/iphc.c ****     						break;
 1739              		.loc 1 675 0
 1740 0a8a 0BE0     		b	.L108
 1741              	.L111:
 676:build/openmote-cc2538_armgcc/openstack/03a-IPHC/iphc.c ****     					case 1:
 677:build/openmote-cc2538_armgcc/openstack/03a-IPHC/iphc.c ****     					case 2:
 678:build/openmote-cc2538_armgcc/openstack/03a-IPHC/iphc.c ****     						extention_header_length += 2+2;
 1742              		.loc 1 678 0
 1743 0a8c 97F84530 		ldrb	r3, [r7, #69]
 1744 0a90 0433     		adds	r3, r3, #4
 1745 0a92 87F84530 		strb	r3, [r7, #69]
 679:build/openmote-cc2538_armgcc/openstack/03a-IPHC/iphc.c ****     						break;
 1746              		.loc 1 679 0
 1747 0a96 05E0     		b	.L108
 1748              	.L112:
 680:build/openmote-cc2538_armgcc/openstack/03a-IPHC/iphc.c ****     					case 3:
 681:build/openmote-cc2538_armgcc/openstack/03a-IPHC/iphc.c ****     						extention_header_length += 2+1;
 1749              		.loc 1 681 0
 1750 0a98 97F84530 		ldrb	r3, [r7, #69]
 1751 0a9c 0333     		adds	r3, r3, #3
 1752 0a9e 87F84530 		strb	r3, [r7, #69]
 682:build/openmote-cc2538_armgcc/openstack/03a-IPHC/iphc.c ****     						break;
 1753              		.loc 1 682 0
 1754 0aa2 00BF     		nop
 1755              	.L108:
 683:build/openmote-cc2538_armgcc/openstack/03a-IPHC/iphc.c ****     					}
 684:build/openmote-cc2538_armgcc/openstack/03a-IPHC/iphc.c ****     					temp_8b = *(uint8_t*)((msg->payload) + \
 1756              		.loc 1 684 0
 1757 0aa4 FB68     		ldr	r3, [r7, #12]
 1758 0aa6 5A68     		ldr	r2, [r3, #4]
 685:build/openmote-cc2538_armgcc/openstack/03a-IPHC/iphc.c ****     					    *page_length + \
 1759              		.loc 1 685 0
 1760 0aa8 3B68     		ldr	r3, [r7]
 1761 0aaa 1B78     		ldrb	r3, [r3]	@ zero_extendqisi2
 1762 0aac 1946     		mov	r1, r3
 1763 0aae 97F84530 		ldrb	r3, [r7, #69]	@ zero_extendqisi2
 1764 0ab2 0B44     		add	r3, r3, r1
 686:build/openmote-cc2538_armgcc/openstack/03a-IPHC/iphc.c ****     					    extention_header_length +\
 687:build/openmote-cc2538_armgcc/openstack/03a-IPHC/iphc.c ****     						ipv6_outer_header->header_length);
 1765              		.loc 1 687 0
 1766 0ab4 B968     		ldr	r1, [r7, #8]
 1767 0ab6 91F84410 		ldrb	r1, [r1, #68]	@ zero_extendqisi2
 686:build/openmote-cc2538_armgcc/openstack/03a-IPHC/iphc.c ****     					    extention_header_length +\
 1768              		.loc 1 686 0
 1769 0aba 0B44     		add	r3, r3, r1
 684:build/openmote-cc2538_armgcc/openstack/03a-IPHC/iphc.c ****     					    *page_length + \
 1770              		.loc 1 684 0
 1771 0abc 1344     		add	r3, r3, r2
 1772 0abe 1B78     		ldrb	r3, [r3]
 1773 0ac0 87F84730 		strb	r3, [r7, #71]
 1774 0ac4 07E0     		b	.L105
 1775              	.L106:
 688:build/openmote-cc2538_armgcc/openstack/03a-IPHC/iphc.c ****     				} else{
 689:build/openmote-cc2538_armgcc/openstack/03a-IPHC/iphc.c ****     					//log wrong inf
 690:build/openmote-cc2538_armgcc/openstack/03a-IPHC/iphc.c **** 						openserial_printError(
 1776              		.loc 1 690 0
 1777 0ac6 97F84330 		ldrb	r3, [r7, #67]	@ zero_extendqisi2
 1778 0aca 9BB2     		uxth	r3, r3
 1779 0acc 1120     		movs	r0, #17
 1780 0ace 0C21     		movs	r1, #12
 1781 0ad0 0E22     		movs	r2, #14
 1782 0ad2 FFF7FEFF 		bl	openserial_printError
 1783              	.L105:
 691:build/openmote-cc2538_armgcc/openstack/03a-IPHC/iphc.c **** 								COMPONENT_IPHC,
 692:build/openmote-cc2538_armgcc/openstack/03a-IPHC/iphc.c **** 								ERR_6LOWPAN_UNSUPPORTED,
 693:build/openmote-cc2538_armgcc/openstack/03a-IPHC/iphc.c **** 								(errorparameter_t)14,
 694:build/openmote-cc2538_armgcc/openstack/03a-IPHC/iphc.c **** 								(errorparameter_t)(lorh_type)
 695:build/openmote-cc2538_armgcc/openstack/03a-IPHC/iphc.c **** 						);
 696:build/openmote-cc2538_armgcc/openstack/03a-IPHC/iphc.c ****     				}
 697:build/openmote-cc2538_armgcc/openstack/03a-IPHC/iphc.c ****     			}
 698:build/openmote-cc2538_armgcc/openstack/03a-IPHC/iphc.c ****     			break;
 1784              		.loc 1 698 0
 1785 0ad6 09E1     		b	.L90
 1786              	.L92:
 699:build/openmote-cc2538_armgcc/openstack/03a-IPHC/iphc.c ****     		case ELECTIVE_6LoRH :
 700:build/openmote-cc2538_armgcc/openstack/03a-IPHC/iphc.c ****     			// this is an elective 6LoRH
 701:build/openmote-cc2538_armgcc/openstack/03a-IPHC/iphc.c ****     			lorh_length = temp_8b & IPINIP_LEN_6LORH_MASK;
 1787              		.loc 1 701 0
 1788 0ad8 97F84730 		ldrb	r3, [r7, #71]
 1789 0adc 03F01F03 		and	r3, r3, #31
 1790 0ae0 87F84130 		strb	r3, [r7, #65]
 702:build/openmote-cc2538_armgcc/openstack/03a-IPHC/iphc.c ****     			lorh_type = *(uint8_t*)(msg->payload+ipv6_outer_header->header_length+*page_length+extention
 1791              		.loc 1 702 0
 1792 0ae4 FB68     		ldr	r3, [r7, #12]
 1793 0ae6 5A68     		ldr	r2, [r3, #4]
 1794 0ae8 BB68     		ldr	r3, [r7, #8]
 1795 0aea 93F84430 		ldrb	r3, [r3, #68]	@ zero_extendqisi2
 1796 0aee 1946     		mov	r1, r3
 1797 0af0 3B68     		ldr	r3, [r7]
 1798 0af2 1B78     		ldrb	r3, [r3]	@ zero_extendqisi2
 1799 0af4 1944     		add	r1, r1, r3
 1800 0af6 97F84530 		ldrb	r3, [r7, #69]	@ zero_extendqisi2
 1801 0afa 0B44     		add	r3, r3, r1
 1802 0afc 0133     		adds	r3, r3, #1
 1803 0afe 1344     		add	r3, r3, r2
 1804 0b00 1B78     		ldrb	r3, [r3]
 1805 0b02 87F84330 		strb	r3, [r7, #67]
 703:build/openmote-cc2538_armgcc/openstack/03a-IPHC/iphc.c ****     			if (lorh_type == IPINIP_TYPE_6LORH){
 1806              		.loc 1 703 0
 1807 0b06 97F84330 		ldrb	r3, [r7, #67]	@ zero_extendqisi2
 1808 0b0a 062B     		cmp	r3, #6
 1809 0b0c 40F0A780 		bne	.L113
 704:build/openmote-cc2538_armgcc/openstack/03a-IPHC/iphc.c ****         			ipv6_outer_header->header_length += 1;
 1810              		.loc 1 704 0
 1811 0b10 BB68     		ldr	r3, [r7, #8]
 1812 0b12 93F84430 		ldrb	r3, [r3, #68]	@ zero_extendqisi2
 1813 0b16 0133     		adds	r3, r3, #1
 1814 0b18 DAB2     		uxtb	r2, r3
 1815 0b1a BB68     		ldr	r3, [r7, #8]
 1816 0b1c 83F84420 		strb	r2, [r3, #68]
 705:build/openmote-cc2538_armgcc/openstack/03a-IPHC/iphc.c ****     				// this is IpinIP 6LoRH
 706:build/openmote-cc2538_armgcc/openstack/03a-IPHC/iphc.c ****     				ipv6_outer_header->header_length += 1;
 1817              		.loc 1 706 0
 1818 0b20 BB68     		ldr	r3, [r7, #8]
 1819 0b22 93F84430 		ldrb	r3, [r3, #68]	@ zero_extendqisi2
 1820 0b26 0133     		adds	r3, r3, #1
 1821 0b28 DAB2     		uxtb	r2, r3
 1822 0b2a BB68     		ldr	r3, [r7, #8]
 1823 0b2c 83F84420 		strb	r2, [r3, #68]
 707:build/openmote-cc2538_armgcc/openstack/03a-IPHC/iphc.c ****     				ipv6_outer_header->hop_limit = *(uint8_t*)(msg->payload+ipv6_outer_header->header_length+*p
 1824              		.loc 1 707 0
 1825 0b30 FB68     		ldr	r3, [r7, #12]
 1826 0b32 5A68     		ldr	r2, [r3, #4]
 1827 0b34 BB68     		ldr	r3, [r7, #8]
 1828 0b36 93F84430 		ldrb	r3, [r3, #68]	@ zero_extendqisi2
 1829 0b3a 1946     		mov	r1, r3
 1830 0b3c 3B68     		ldr	r3, [r7]
 1831 0b3e 1B78     		ldrb	r3, [r3]	@ zero_extendqisi2
 1832 0b40 1944     		add	r1, r1, r3
 1833 0b42 97F84530 		ldrb	r3, [r7, #69]	@ zero_extendqisi2
 1834 0b46 0B44     		add	r3, r3, r1
 1835 0b48 1344     		add	r3, r3, r2
 1836 0b4a 1A78     		ldrb	r2, [r3]	@ zero_extendqisi2
 1837 0b4c BB68     		ldr	r3, [r7, #8]
 1838 0b4e 83F82020 		strb	r2, [r3, #32]
 708:build/openmote-cc2538_armgcc/openstack/03a-IPHC/iphc.c ****     				ipv6_outer_header->header_length += 1;
 1839              		.loc 1 708 0
 1840 0b52 BB68     		ldr	r3, [r7, #8]
 1841 0b54 93F84430 		ldrb	r3, [r3, #68]	@ zero_extendqisi2
 1842 0b58 0133     		adds	r3, r3, #1
 1843 0b5a DAB2     		uxtb	r2, r3
 1844 0b5c BB68     		ldr	r3, [r7, #8]
 1845 0b5e 83F84420 		strb	r2, [r3, #68]
 709:build/openmote-cc2538_armgcc/openstack/03a-IPHC/iphc.c ****     				// destination address maybe is the first address in RH3 6LoRH OR dest adress in IPHC, rese
 710:build/openmote-cc2538_armgcc/openstack/03a-IPHC/iphc.c ****     				// update destination address if necessary after the processing
 711:build/openmote-cc2538_armgcc/openstack/03a-IPHC/iphc.c ****     				ipv6_outer_header->dest.type = ADDR_NONE;
 1846              		.loc 1 711 0
 1847 0b62 BB68     		ldr	r3, [r7, #8]
 1848 0b64 0022     		movs	r2, #0
 1849 0b66 83F83320 		strb	r2, [r3, #51]
 712:build/openmote-cc2538_armgcc/openstack/03a-IPHC/iphc.c ****     				memset(&(ipv6_outer_header->dest.addr_128b[0]),0,16);
 1850              		.loc 1 712 0
 1851 0b6a BB68     		ldr	r3, [r7, #8]
 1852 0b6c 3433     		adds	r3, r3, #52
 1853 0b6e 1846     		mov	r0, r3
 1854 0b70 0021     		movs	r1, #0
 1855 0b72 1022     		movs	r2, #16
 1856 0b74 FFF7FEFF 		bl	memset
 713:build/openmote-cc2538_armgcc/openstack/03a-IPHC/iphc.c ****     				if (lorh_length == 1){
 1857              		.loc 1 713 0
 1858 0b78 97F84130 		ldrb	r3, [r7, #65]	@ zero_extendqisi2
 1859 0b7c 012B     		cmp	r3, #1
 1860 0b7e 12D1     		bne	.L114
 714:build/openmote-cc2538_armgcc/openstack/03a-IPHC/iphc.c ****     					// source address is root
 715:build/openmote-cc2538_armgcc/openstack/03a-IPHC/iphc.c ****     					memset(&(ipv6_outer_header->src),0,sizeof(open_addr_t));
 1861              		.loc 1 715 0
 1862 0b80 BB68     		ldr	r3, [r7, #8]
 1863 0b82 2233     		adds	r3, r3, #34
 1864 0b84 1846     		mov	r0, r3
 1865 0b86 0021     		movs	r1, #0
 1866 0b88 1122     		movs	r2, #17
 1867 0b8a FFF7FEFF 		bl	memset
 716:build/openmote-cc2538_armgcc/openstack/03a-IPHC/iphc.c ****     					packetfunctions_mac64bToIp128b(idmanager_getMyID(ADDR_PREFIX),(open_addr_t*)dagroot_mac64b
 1868              		.loc 1 716 0
 1869 0b8e 0520     		movs	r0, #5
 1870 0b90 FFF7FEFF 		bl	idmanager_getMyID
 1871 0b94 0246     		mov	r2, r0
 1872 0b96 BB68     		ldr	r3, [r7, #8]
 1873 0b98 2233     		adds	r3, r3, #34
 1874 0b9a 1046     		mov	r0, r2
 1875 0b9c 7149     		ldr	r1, .L123
 1876 0b9e 1A46     		mov	r2, r3
 1877 0ba0 FFF7FEFF 		bl	packetfunctions_mac64bToIp128b
 1878 0ba4 91E0     		b	.L119
 1879              	.L114:
 717:build/openmote-cc2538_armgcc/openstack/03a-IPHC/iphc.c ****     					// destination address is the first address in RH3 6LoRH OR dest adress in IPHC
 718:build/openmote-cc2538_armgcc/openstack/03a-IPHC/iphc.c ****     				} else{
 719:build/openmote-cc2538_armgcc/openstack/03a-IPHC/iphc.c ****     					switch(lorh_length-1){
 1880              		.loc 1 719 0
 1881 0ba6 97F84130 		ldrb	r3, [r7, #65]	@ zero_extendqisi2
 1882 0baa 013B     		subs	r3, r3, #1
 1883 0bac 082B     		cmp	r3, #8
 1884 0bae 1FD0     		beq	.L117
 1885 0bb0 102B     		cmp	r3, #16
 1886 0bb2 48D1     		bne	.L122
 720:build/openmote-cc2538_armgcc/openstack/03a-IPHC/iphc.c ****     					case 16:
 721:build/openmote-cc2538_armgcc/openstack/03a-IPHC/iphc.c ****     						// this is source address
 722:build/openmote-cc2538_armgcc/openstack/03a-IPHC/iphc.c ****     						packetfunctions_readAddress(((uint8_t*)(msg->payload+ipv6_outer_header->header_length+*pa
 1887              		.loc 1 722 0
 1888 0bb4 FB68     		ldr	r3, [r7, #12]
 1889 0bb6 5A68     		ldr	r2, [r3, #4]
 1890 0bb8 BB68     		ldr	r3, [r7, #8]
 1891 0bba 93F84430 		ldrb	r3, [r3, #68]	@ zero_extendqisi2
 1892 0bbe 1946     		mov	r1, r3
 1893 0bc0 3B68     		ldr	r3, [r7]
 1894 0bc2 1B78     		ldrb	r3, [r3]	@ zero_extendqisi2
 1895 0bc4 1944     		add	r1, r1, r3
 1896 0bc6 97F84530 		ldrb	r3, [r7, #69]	@ zero_extendqisi2
 1897 0bca 0B44     		add	r3, r3, r1
 1898 0bcc 1A44     		add	r2, r2, r3
 1899 0bce BB68     		ldr	r3, [r7, #8]
 1900 0bd0 2233     		adds	r3, r3, #34
 1901 0bd2 1046     		mov	r0, r2
 1902 0bd4 0321     		movs	r1, #3
 1903 0bd6 1A46     		mov	r2, r3
 1904 0bd8 0023     		movs	r3, #0
 1905 0bda FFF7FEFF 		bl	packetfunctions_readAddress
 723:build/openmote-cc2538_armgcc/openstack/03a-IPHC/iphc.c ****     						ipv6_outer_header->header_length += 16*sizeof(uint8_t);
 1906              		.loc 1 723 0
 1907 0bde BB68     		ldr	r3, [r7, #8]
 1908 0be0 93F84430 		ldrb	r3, [r3, #68]	@ zero_extendqisi2
 1909 0be4 1033     		adds	r3, r3, #16
 1910 0be6 DAB2     		uxtb	r2, r3
 1911 0be8 BB68     		ldr	r3, [r7, #8]
 1912 0bea 83F84420 		strb	r2, [r3, #68]
 724:build/openmote-cc2538_armgcc/openstack/03a-IPHC/iphc.c ****     						break;
 1913              		.loc 1 724 0
 1914 0bee 35E0     		b	.L115
 1915              	.L117:
 725:build/openmote-cc2538_armgcc/openstack/03a-IPHC/iphc.c ****     					case 8:
 726:build/openmote-cc2538_armgcc/openstack/03a-IPHC/iphc.c ****     						// this is source address
 727:build/openmote-cc2538_armgcc/openstack/03a-IPHC/iphc.c ****     						packetfunctions_readAddress(((uint8_t*)(msg->payload+ipv6_outer_header->header_length+*pa
 1916              		.loc 1 727 0
 1917 0bf0 FB68     		ldr	r3, [r7, #12]
 1918 0bf2 5A68     		ldr	r2, [r3, #4]
 1919 0bf4 BB68     		ldr	r3, [r7, #8]
 1920 0bf6 93F84430 		ldrb	r3, [r3, #68]	@ zero_extendqisi2
 1921 0bfa 1946     		mov	r1, r3
 1922 0bfc 3B68     		ldr	r3, [r7]
 1923 0bfe 1B78     		ldrb	r3, [r3]	@ zero_extendqisi2
 1924 0c00 1944     		add	r1, r1, r3
 1925 0c02 97F84530 		ldrb	r3, [r7, #69]	@ zero_extendqisi2
 1926 0c06 0B44     		add	r3, r3, r1
 1927 0c08 1A44     		add	r2, r2, r3
 1928 0c0a 07F11C03 		add	r3, r7, #28
 1929 0c0e 1046     		mov	r0, r2
 1930 0c10 0221     		movs	r1, #2
 1931 0c12 1A46     		mov	r2, r3
 1932 0c14 0023     		movs	r3, #0
 1933 0c16 FFF7FEFF 		bl	packetfunctions_readAddress
 728:build/openmote-cc2538_armgcc/openstack/03a-IPHC/iphc.c ****     						ipv6_outer_header->header_length += 8*sizeof(uint8_t);
 1934              		.loc 1 728 0
 1935 0c1a BB68     		ldr	r3, [r7, #8]
 1936 0c1c 93F84430 		ldrb	r3, [r3, #68]	@ zero_extendqisi2
 1937 0c20 0833     		adds	r3, r3, #8
 1938 0c22 DAB2     		uxtb	r2, r3
 1939 0c24 BB68     		ldr	r3, [r7, #8]
 1940 0c26 83F84420 		strb	r2, [r3, #68]
 729:build/openmote-cc2538_armgcc/openstack/03a-IPHC/iphc.c ****     						packetfunctions_mac64bToIp128b(idmanager_getMyID(ADDR_PREFIX),&temp_addr_64b,&ipv6_outer_
 1941              		.loc 1 729 0
 1942 0c2a 0520     		movs	r0, #5
 1943 0c2c FFF7FEFF 		bl	idmanager_getMyID
 1944 0c30 0146     		mov	r1, r0
 1945 0c32 BB68     		ldr	r3, [r7, #8]
 1946 0c34 2233     		adds	r3, r3, #34
 1947 0c36 07F11C02 		add	r2, r7, #28
 1948 0c3a 0846     		mov	r0, r1
 1949 0c3c 1146     		mov	r1, r2
 1950 0c3e 1A46     		mov	r2, r3
 1951 0c40 FFF7FEFF 		bl	packetfunctions_mac64bToIp128b
 730:build/openmote-cc2538_armgcc/openstack/03a-IPHC/iphc.c ****     						break;
 1952              		.loc 1 730 0
 1953 0c44 0AE0     		b	.L115
 1954              	.L122:
 731:build/openmote-cc2538_armgcc/openstack/03a-IPHC/iphc.c ****     					default:
 732:build/openmote-cc2538_armgcc/openstack/03a-IPHC/iphc.c ****     						// do not support other length yet and destination address will be in RH3 or IPHC
 733:build/openmote-cc2538_armgcc/openstack/03a-IPHC/iphc.c ****     						openserial_printError(
 1955              		.loc 1 733 0
 1956 0c46 97F84130 		ldrb	r3, [r7, #65]	@ zero_extendqisi2
 1957 0c4a 9BB2     		uxth	r3, r3
 1958 0c4c 013B     		subs	r3, r3, #1
 1959 0c4e 9BB2     		uxth	r3, r3
 1960 0c50 1120     		movs	r0, #17
 1961 0c52 0C21     		movs	r1, #12
 1962 0c54 0C22     		movs	r2, #12
 1963 0c56 FFF7FEFF 		bl	openserial_printError
 1964 0c5a 36E0     		b	.L119
 1965              	.L115:
 1966 0c5c 35E0     		b	.L119
 1967              	.L113:
 734:build/openmote-cc2538_armgcc/openstack/03a-IPHC/iphc.c ****     								COMPONENT_IPHC,
 735:build/openmote-cc2538_armgcc/openstack/03a-IPHC/iphc.c **** 									ERR_6LOWPAN_UNSUPPORTED,
 736:build/openmote-cc2538_armgcc/openstack/03a-IPHC/iphc.c **** 									(errorparameter_t)12,
 737:build/openmote-cc2538_armgcc/openstack/03a-IPHC/iphc.c **** 									(errorparameter_t)(lorh_length-1)
 738:build/openmote-cc2538_armgcc/openstack/03a-IPHC/iphc.c ****     						);
 739:build/openmote-cc2538_armgcc/openstack/03a-IPHC/iphc.c ****     					}
 740:build/openmote-cc2538_armgcc/openstack/03a-IPHC/iphc.c ****     				}
 741:build/openmote-cc2538_armgcc/openstack/03a-IPHC/iphc.c ****     			}
 742:build/openmote-cc2538_armgcc/openstack/03a-IPHC/iphc.c **** #ifdef DEADLINE_OPTION_ENABLED    			
 743:build/openmote-cc2538_armgcc/openstack/03a-IPHC/iphc.c ****     			else if (lorh_type == DEADLINE_6LOTH_TYPE){
 1968              		.loc 1 743 0
 1969 0c5e 97F84330 		ldrb	r3, [r7, #67]	@ zero_extendqisi2
 1970 0c62 072B     		cmp	r3, #7
 1971 0c64 14D1     		bne	.L120
 744:build/openmote-cc2538_armgcc/openstack/03a-IPHC/iphc.c ****     						ipv6_outer_header->deadline_option = (uint8_t*)(msg->payload) + \
 1972              		.loc 1 744 0
 1973 0c66 FB68     		ldr	r3, [r7, #12]
 1974 0c68 5A68     		ldr	r2, [r3, #4]
 745:build/openmote-cc2538_armgcc/openstack/03a-IPHC/iphc.c ****     							*page_length + \
 1975              		.loc 1 745 0
 1976 0c6a 3B68     		ldr	r3, [r7]
 1977 0c6c 1B78     		ldrb	r3, [r3]	@ zero_extendqisi2
 1978 0c6e 1946     		mov	r1, r3
 1979 0c70 97F84530 		ldrb	r3, [r7, #69]	@ zero_extendqisi2
 1980 0c74 0B44     		add	r3, r3, r1
 1981 0c76 1A44     		add	r2, r2, r3
 744:build/openmote-cc2538_armgcc/openstack/03a-IPHC/iphc.c ****     						ipv6_outer_header->deadline_option = (uint8_t*)(msg->payload) + \
 1982              		.loc 1 744 0
 1983 0c78 BB68     		ldr	r3, [r7, #8]
 1984 0c7a DA61     		str	r2, [r3, #28]
 746:build/openmote-cc2538_armgcc/openstack/03a-IPHC/iphc.c **** 								extention_header_length;	
 747:build/openmote-cc2538_armgcc/openstack/03a-IPHC/iphc.c ****     						extention_header_length += (lorh_length + 1);
 1985              		.loc 1 747 0
 1986 0c7c 97F84120 		ldrb	r2, [r7, #65]
 1987 0c80 97F84530 		ldrb	r3, [r7, #69]
 1988 0c84 1344     		add	r3, r3, r2
 1989 0c86 DBB2     		uxtb	r3, r3
 1990 0c88 0133     		adds	r3, r3, #1
 1991 0c8a 87F84530 		strb	r3, [r7, #69]
 1992 0c8e 1CE0     		b	.L119
 1993              	.L120:
 748:build/openmote-cc2538_armgcc/openstack/03a-IPHC/iphc.c ****     			}
 749:build/openmote-cc2538_armgcc/openstack/03a-IPHC/iphc.c **** #endif			
 750:build/openmote-cc2538_armgcc/openstack/03a-IPHC/iphc.c ****     			 else {
 751:build/openmote-cc2538_armgcc/openstack/03a-IPHC/iphc.c ****     				//unknown elective packet, print error and skip it
 752:build/openmote-cc2538_armgcc/openstack/03a-IPHC/iphc.c ****     				openserial_printError(
 1994              		.loc 1 752 0
 1995 0c90 97F84430 		ldrb	r3, [r7, #68]	@ zero_extendqisi2
 1996 0c94 9BB2     		uxth	r3, r3
 1997 0c96 1120     		movs	r0, #17
 1998 0c98 0C21     		movs	r1, #12
 1999 0c9a 0D22     		movs	r2, #13
 2000 0c9c FFF7FEFF 		bl	openserial_printError
 753:build/openmote-cc2538_armgcc/openstack/03a-IPHC/iphc.c ****     						COMPONENT_IPHC,
 754:build/openmote-cc2538_armgcc/openstack/03a-IPHC/iphc.c ****     				        ERR_6LOWPAN_UNSUPPORTED,
 755:build/openmote-cc2538_armgcc/openstack/03a-IPHC/iphc.c ****     				        (errorparameter_t)13,
 756:build/openmote-cc2538_armgcc/openstack/03a-IPHC/iphc.c ****     				        (errorparameter_t)(rh3_index)
 757:build/openmote-cc2538_armgcc/openstack/03a-IPHC/iphc.c ****     				);
 758:build/openmote-cc2538_armgcc/openstack/03a-IPHC/iphc.c ****     				extention_header_length += 2 + lorh_length;
 2001              		.loc 1 758 0
 2002 0ca0 97F84120 		ldrb	r2, [r7, #65]
 2003 0ca4 97F84530 		ldrb	r3, [r7, #69]
 2004 0ca8 1344     		add	r3, r3, r2
 2005 0caa DBB2     		uxtb	r3, r3
 2006 0cac 0233     		adds	r3, r3, #2
 2007 0cae 87F84530 		strb	r3, [r7, #69]
 759:build/openmote-cc2538_armgcc/openstack/03a-IPHC/iphc.c ****     				ipv6_outer_header->rhe_length += 2 + lorh_length;
 2008              		.loc 1 759 0
 2009 0cb2 BB68     		ldr	r3, [r7, #8]
 2010 0cb4 93F82120 		ldrb	r2, [r3, #33]	@ zero_extendqisi2
 2011 0cb8 97F84130 		ldrb	r3, [r7, #65]
 2012 0cbc 1344     		add	r3, r3, r2
 2013 0cbe DBB2     		uxtb	r3, r3
 2014 0cc0 0233     		adds	r3, r3, #2
 2015 0cc2 DAB2     		uxtb	r2, r3
 2016 0cc4 BB68     		ldr	r3, [r7, #8]
 2017 0cc6 83F82120 		strb	r2, [r3, #33]
 2018              	.L119:
 760:build/openmote-cc2538_armgcc/openstack/03a-IPHC/iphc.c ****     			}
 761:build/openmote-cc2538_armgcc/openstack/03a-IPHC/iphc.c ****    				temp_8b = *(uint8_t*)((msg->payload) + \
 2019              		.loc 1 761 0
 2020 0cca FB68     		ldr	r3, [r7, #12]
 2021 0ccc 5A68     		ldr	r2, [r3, #4]
 762:build/openmote-cc2538_armgcc/openstack/03a-IPHC/iphc.c ****     				    *page_length + \
 2022              		.loc 1 762 0
 2023 0cce 3B68     		ldr	r3, [r7]
 2024 0cd0 1B78     		ldrb	r3, [r3]	@ zero_extendqisi2
 2025 0cd2 1946     		mov	r1, r3
 2026 0cd4 97F84530 		ldrb	r3, [r7, #69]	@ zero_extendqisi2
 2027 0cd8 0B44     		add	r3, r3, r1
 763:build/openmote-cc2538_armgcc/openstack/03a-IPHC/iphc.c ****     					extention_header_length +\
 764:build/openmote-cc2538_armgcc/openstack/03a-IPHC/iphc.c **** 						ipv6_outer_header->header_length);
 2028              		.loc 1 764 0
 2029 0cda B968     		ldr	r1, [r7, #8]
 2030 0cdc 91F84410 		ldrb	r1, [r1, #68]	@ zero_extendqisi2
 763:build/openmote-cc2538_armgcc/openstack/03a-IPHC/iphc.c ****     					extention_header_length +\
 2031              		.loc 1 763 0
 2032 0ce0 0B44     		add	r3, r3, r1
 761:build/openmote-cc2538_armgcc/openstack/03a-IPHC/iphc.c ****     				    *page_length + \
 2033              		.loc 1 761 0
 2034 0ce2 1344     		add	r3, r3, r2
 2035 0ce4 1B78     		ldrb	r3, [r3]
 2036 0ce6 87F84730 		strb	r3, [r7, #71]
 765:build/openmote-cc2538_armgcc/openstack/03a-IPHC/iphc.c ****     			break;
 2037              		.loc 1 765 0
 2038 0cea 00BF     		nop
 2039              	.L90:
 619:build/openmote-cc2538_armgcc/openstack/03a-IPHC/iphc.c ****     		switch (temp_8b&FORMAT_6LORH_MASK) {
 2040              		.loc 1 619 0
 2041 0cec 97F84730 		ldrb	r3, [r7, #71]	@ zero_extendqisi2
 2042 0cf0 03F0E003 		and	r3, r3, #224
 2043 0cf4 802B     		cmp	r3, #128
 2044 0cf6 3FF4F0AD 		beq	.L121
 619:build/openmote-cc2538_armgcc/openstack/03a-IPHC/iphc.c ****     		switch (temp_8b&FORMAT_6LORH_MASK) {
 2045              		.loc 1 619 0 is_stmt 0 discriminator 1
 2046 0cfa 97F84730 		ldrb	r3, [r7, #71]	@ zero_extendqisi2
 2047 0cfe 03F0E003 		and	r3, r3, #224
 2048 0d02 A02B     		cmp	r3, #160
 2049 0d04 3FF4E9AD 		beq	.L121
 2050              	.L89:
 766:build/openmote-cc2538_armgcc/openstack/03a-IPHC/iphc.c ****     		}
 767:build/openmote-cc2538_armgcc/openstack/03a-IPHC/iphc.c ****     	}
 768:build/openmote-cc2538_armgcc/openstack/03a-IPHC/iphc.c ****     }
 769:build/openmote-cc2538_armgcc/openstack/03a-IPHC/iphc.c **** 
 770:build/openmote-cc2538_armgcc/openstack/03a-IPHC/iphc.c ****     //======================= 4. IPHC inner header =============================
 771:build/openmote-cc2538_armgcc/openstack/03a-IPHC/iphc.c ****     iphc_retrieveIphcHeader(
 772:build/openmote-cc2538_armgcc/openstack/03a-IPHC/iphc.c ****         &temp_addr_16b, 
 773:build/openmote-cc2538_armgcc/openstack/03a-IPHC/iphc.c ****         &temp_addr_64b,
 774:build/openmote-cc2538_armgcc/openstack/03a-IPHC/iphc.c ****         &dispatch,
 775:build/openmote-cc2538_armgcc/openstack/03a-IPHC/iphc.c ****         &tf,
 776:build/openmote-cc2538_armgcc/openstack/03a-IPHC/iphc.c ****         &nh,
 777:build/openmote-cc2538_armgcc/openstack/03a-IPHC/iphc.c ****         &hlim,
 778:build/openmote-cc2538_armgcc/openstack/03a-IPHC/iphc.c ****         &sam,
 779:build/openmote-cc2538_armgcc/openstack/03a-IPHC/iphc.c ****         &m,
 780:build/openmote-cc2538_armgcc/openstack/03a-IPHC/iphc.c ****         &dam,
 781:build/openmote-cc2538_armgcc/openstack/03a-IPHC/iphc.c ****         msg,
 782:build/openmote-cc2538_armgcc/openstack/03a-IPHC/iphc.c ****         ipv6_inner_header,
 783:build/openmote-cc2538_armgcc/openstack/03a-IPHC/iphc.c ****         extention_header_length + ipv6_outer_header->header_length + *page_length
 2051              		.loc 1 783 0 is_stmt 1
 2052 0d08 BB68     		ldr	r3, [r7, #8]
 2053 0d0a 93F84420 		ldrb	r2, [r3, #68]	@ zero_extendqisi2
 771:build/openmote-cc2538_armgcc/openstack/03a-IPHC/iphc.c ****         &temp_addr_16b, 
 2054              		.loc 1 771 0
 2055 0d0e 97F84530 		ldrb	r3, [r7, #69]
 2056 0d12 1344     		add	r3, r3, r2
 2057 0d14 DAB2     		uxtb	r2, r3
 2058              		.loc 1 783 0
 2059 0d16 3B68     		ldr	r3, [r7]
 2060 0d18 1B78     		ldrb	r3, [r3]	@ zero_extendqisi2
 771:build/openmote-cc2538_armgcc/openstack/03a-IPHC/iphc.c ****         &temp_addr_16b, 
 2061              		.loc 1 771 0
 2062 0d1a 1344     		add	r3, r3, r2
 2063 0d1c DBB2     		uxtb	r3, r3
 2064 0d1e 07F13000 		add	r0, r7, #48
 2065 0d22 07F11C01 		add	r1, r7, #28
 2066 0d26 07F11B05 		add	r5, r7, #27
 2067 0d2a 07F11A04 		add	r4, r7, #26
 2068 0d2e 07F11902 		add	r2, r7, #25
 2069 0d32 0092     		str	r2, [sp]
 2070 0d34 07F11802 		add	r2, r7, #24
 2071 0d38 0192     		str	r2, [sp, #4]
 2072 0d3a 07F11702 		add	r2, r7, #23
 2073 0d3e 0292     		str	r2, [sp, #8]
 2074 0d40 07F11602 		add	r2, r7, #22
 2075 0d44 0392     		str	r2, [sp, #12]
 2076 0d46 07F11502 		add	r2, r7, #21
 2077 0d4a 0492     		str	r2, [sp, #16]
 2078 0d4c FA68     		ldr	r2, [r7, #12]
 2079 0d4e 0592     		str	r2, [sp, #20]
 2080 0d50 7A68     		ldr	r2, [r7, #4]
 2081 0d52 0692     		str	r2, [sp, #24]
 2082 0d54 0793     		str	r3, [sp, #28]
 2083 0d56 2A46     		mov	r2, r5
 2084 0d58 2346     		mov	r3, r4
 2085 0d5a FFF7FEFF 		bl	iphc_retrieveIphcHeader
 2086              	.L86:
 784:build/openmote-cc2538_armgcc/openstack/03a-IPHC/iphc.c ****     );
 785:build/openmote-cc2538_armgcc/openstack/03a-IPHC/iphc.c **** }
 2087              		.loc 1 785 0
 2088 0d5e 4837     		adds	r7, r7, #72
 2089              		.cfi_def_cfa_offset 16
 2090 0d60 BD46     		mov	sp, r7
 2091              		.cfi_def_cfa_register 13
 2092              		@ sp needed
 2093 0d62 B0BD     		pop	{r4, r5, r7, pc}
 2094              	.L124:
 2095              		.align	2
 2096              	.L123:
 2097 0d64 74000000 		.word	dagroot_mac64b
 2098              		.cfi_endproc
 2099              	.LFE6:
 2101              		.align	2
 2102              		.global	iphc_retrieveIphcHeader
 2103              		.thumb
 2104              		.thumb_func
 2106              	iphc_retrieveIphcHeader:
 2107              	.LFB7:
 786:build/openmote-cc2538_armgcc/openstack/03a-IPHC/iphc.c **** 
 787:build/openmote-cc2538_armgcc/openstack/03a-IPHC/iphc.c **** uint8_t iphc_retrieveIphcHeader(open_addr_t* temp_addr_16b,
 788:build/openmote-cc2538_armgcc/openstack/03a-IPHC/iphc.c ****     open_addr_t*         temp_addr_64b,
 789:build/openmote-cc2538_armgcc/openstack/03a-IPHC/iphc.c ****     uint8_t*             dispatch,
 790:build/openmote-cc2538_armgcc/openstack/03a-IPHC/iphc.c ****     uint8_t*             tf,
 791:build/openmote-cc2538_armgcc/openstack/03a-IPHC/iphc.c ****     uint8_t*             nh,
 792:build/openmote-cc2538_armgcc/openstack/03a-IPHC/iphc.c ****     uint8_t*             hlim,
 793:build/openmote-cc2538_armgcc/openstack/03a-IPHC/iphc.c ****     uint8_t*             sam,
 794:build/openmote-cc2538_armgcc/openstack/03a-IPHC/iphc.c ****     uint8_t*             m,
 795:build/openmote-cc2538_armgcc/openstack/03a-IPHC/iphc.c ****     uint8_t*             dam,
 796:build/openmote-cc2538_armgcc/openstack/03a-IPHC/iphc.c ****     OpenQueueEntry_t*    msg,
 797:build/openmote-cc2538_armgcc/openstack/03a-IPHC/iphc.c ****     ipv6_header_iht*     ipv6_header,
 798:build/openmote-cc2538_armgcc/openstack/03a-IPHC/iphc.c ****     uint8_t              previousLen){
 2108              		.loc 1 798 0
 2109              		.cfi_startproc
 2110              		@ args = 32, pretend = 0, frame = 24
 2111              		@ frame_needed = 1, uses_anonymous_args = 0
 2112 0d68 B0B5     		push	{r4, r5, r7, lr}
 2113              		.cfi_def_cfa_offset 16
 2114              		.cfi_offset 4, -16
 2115              		.cfi_offset 5, -12
 2116              		.cfi_offset 7, -8
 2117              		.cfi_offset 14, -4
 2118 0d6a 86B0     		sub	sp, sp, #24
 2119              		.cfi_def_cfa_offset 40
 2120 0d6c 00AF     		add	r7, sp, #0
 2121              		.cfi_def_cfa_register 7
 2122 0d6e F860     		str	r0, [r7, #12]
 2123 0d70 B960     		str	r1, [r7, #8]
 2124 0d72 7A60     		str	r2, [r7, #4]
 2125 0d74 3B60     		str	r3, [r7]
 799:build/openmote-cc2538_armgcc/openstack/03a-IPHC/iphc.c ****        
 800:build/openmote-cc2538_armgcc/openstack/03a-IPHC/iphc.c ****     uint8_t page;
 801:build/openmote-cc2538_armgcc/openstack/03a-IPHC/iphc.c ****     uint8_t temp_8b;
 802:build/openmote-cc2538_armgcc/openstack/03a-IPHC/iphc.c ****     uint8_t ipinip_length;
 803:build/openmote-cc2538_armgcc/openstack/03a-IPHC/iphc.c ****     uint8_t lowpan_nhc;
 804:build/openmote-cc2538_armgcc/openstack/03a-IPHC/iphc.c **** 
 805:build/openmote-cc2538_armgcc/openstack/03a-IPHC/iphc.c ****     temp_8b = *((uint8_t*)(msg->payload)+ipv6_header->header_length+previousLen);
 2126              		.loc 1 805 0
 2127 0d76 FB6B     		ldr	r3, [r7, #60]
 2128 0d78 5A68     		ldr	r2, [r3, #4]
 2129 0d7a 3B6C     		ldr	r3, [r7, #64]
 2130 0d7c 93F84430 		ldrb	r3, [r3, #68]	@ zero_extendqisi2
 2131 0d80 1946     		mov	r1, r3
 2132 0d82 97F84430 		ldrb	r3, [r7, #68]	@ zero_extendqisi2
 2133 0d86 0B44     		add	r3, r3, r1
 2134 0d88 1344     		add	r3, r3, r2
 2135 0d8a 1B78     		ldrb	r3, [r3]
 2136 0d8c BB75     		strb	r3, [r7, #22]
 806:build/openmote-cc2538_armgcc/openstack/03a-IPHC/iphc.c ****     
 807:build/openmote-cc2538_armgcc/openstack/03a-IPHC/iphc.c ****     if ((temp_8b&PAGE_DISPATCH_TAG) == PAGE_DISPATCH_TAG){
 2137              		.loc 1 807 0
 2138 0d8e BB7D     		ldrb	r3, [r7, #22]	@ zero_extendqisi2
 2139 0d90 03F0F003 		and	r3, r3, #240
 2140 0d94 F02B     		cmp	r3, #240
 2141 0d96 0CD1     		bne	.L126
 808:build/openmote-cc2538_armgcc/openstack/03a-IPHC/iphc.c ****         page = temp_8b&PAGE_DISPATCH_NUM; 
 2142              		.loc 1 808 0
 2143 0d98 BB7D     		ldrb	r3, [r7, #22]
 2144 0d9a 03F00F03 		and	r3, r3, #15
 2145 0d9e FB75     		strb	r3, [r7, #23]
 809:build/openmote-cc2538_armgcc/openstack/03a-IPHC/iphc.c ****         ipv6_header->header_length += sizeof(uint8_t);
 2146              		.loc 1 809 0
 2147 0da0 3B6C     		ldr	r3, [r7, #64]
 2148 0da2 93F84430 		ldrb	r3, [r3, #68]	@ zero_extendqisi2
 2149 0da6 0133     		adds	r3, r3, #1
 2150 0da8 DAB2     		uxtb	r2, r3
 2151 0daa 3B6C     		ldr	r3, [r7, #64]
 2152 0dac 83F84420 		strb	r2, [r3, #68]
 2153 0db0 01E0     		b	.L127
 2154              	.L126:
 810:build/openmote-cc2538_armgcc/openstack/03a-IPHC/iphc.c ****     } else {
 811:build/openmote-cc2538_armgcc/openstack/03a-IPHC/iphc.c ****         page = 0;
 2155              		.loc 1 811 0
 2156 0db2 0023     		movs	r3, #0
 2157 0db4 FB75     		strb	r3, [r7, #23]
 2158              	.L127:
 812:build/openmote-cc2538_armgcc/openstack/03a-IPHC/iphc.c ****     }
 813:build/openmote-cc2538_armgcc/openstack/03a-IPHC/iphc.c ****     
 814:build/openmote-cc2538_armgcc/openstack/03a-IPHC/iphc.c ****     if (
 2159              		.loc 1 814 0
 2160 0db6 FB7D     		ldrb	r3, [r7, #23]	@ zero_extendqisi2
 2161 0db8 002B     		cmp	r3, #0
 2162 0dba 13D0     		beq	.L128
 815:build/openmote-cc2538_armgcc/openstack/03a-IPHC/iphc.c ****         page==0 ||
 2163              		.loc 1 815 0
 2164 0dbc FB7D     		ldrb	r3, [r7, #23]	@ zero_extendqisi2
 2165 0dbe 012B     		cmp	r3, #1
 2166 0dc0 40F0C182 		bne	.L129
 816:build/openmote-cc2538_armgcc/openstack/03a-IPHC/iphc.c ****         (page==1 && (*((uint8_t*)(msg->payload)+ipv6_header->header_length+previousLen) & 0xC0) != 
 2167              		.loc 1 816 0
 2168 0dc4 FB6B     		ldr	r3, [r7, #60]
 2169 0dc6 5A68     		ldr	r2, [r3, #4]
 2170 0dc8 3B6C     		ldr	r3, [r7, #64]
 2171 0dca 93F84430 		ldrb	r3, [r3, #68]	@ zero_extendqisi2
 2172 0dce 1946     		mov	r1, r3
 2173 0dd0 97F84430 		ldrb	r3, [r7, #68]	@ zero_extendqisi2
 2174 0dd4 0B44     		add	r3, r3, r1
 2175 0dd6 1344     		add	r3, r3, r2
 2176 0dd8 1B78     		ldrb	r3, [r3]	@ zero_extendqisi2
 2177 0dda 03F0C003 		and	r3, r3, #192
 2178 0dde 802B     		cmp	r3, #128
 2179 0de0 00F0B182 		beq	.L129
 2180              	.L128:
 817:build/openmote-cc2538_armgcc/openstack/03a-IPHC/iphc.c ****     ){
 818:build/openmote-cc2538_armgcc/openstack/03a-IPHC/iphc.c ****         // header
 819:build/openmote-cc2538_armgcc/openstack/03a-IPHC/iphc.c ****         temp_8b    = *((uint8_t*)(msg->payload)+ipv6_header->header_length+previousLen);
 2181              		.loc 1 819 0
 2182 0de4 FB6B     		ldr	r3, [r7, #60]
 2183 0de6 5A68     		ldr	r2, [r3, #4]
 2184 0de8 3B6C     		ldr	r3, [r7, #64]
 2185 0dea 93F84430 		ldrb	r3, [r3, #68]	@ zero_extendqisi2
 2186 0dee 1946     		mov	r1, r3
 2187 0df0 97F84430 		ldrb	r3, [r7, #68]	@ zero_extendqisi2
 2188 0df4 0B44     		add	r3, r3, r1
 2189 0df6 1344     		add	r3, r3, r2
 2190 0df8 1B78     		ldrb	r3, [r3]
 2191 0dfa BB75     		strb	r3, [r7, #22]
 820:build/openmote-cc2538_armgcc/openstack/03a-IPHC/iphc.c ****         *dispatch  = (temp_8b >> IPHC_DISPATCH)  & 0x07;   // 3b
 2192              		.loc 1 820 0
 2193 0dfc BB7D     		ldrb	r3, [r7, #22]	@ zero_extendqisi2
 2194 0dfe 5B09     		lsrs	r3, r3, #5
 2195 0e00 DAB2     		uxtb	r2, r3
 2196 0e02 7B68     		ldr	r3, [r7, #4]
 2197 0e04 1A70     		strb	r2, [r3]
 821:build/openmote-cc2538_armgcc/openstack/03a-IPHC/iphc.c ****         *tf        = (temp_8b >> IPHC_TF)        & 0x03;   // 2b
 2198              		.loc 1 821 0
 2199 0e06 BB7D     		ldrb	r3, [r7, #22]	@ zero_extendqisi2
 2200 0e08 DB08     		lsrs	r3, r3, #3
 2201 0e0a DBB2     		uxtb	r3, r3
 2202 0e0c 03F00303 		and	r3, r3, #3
 2203 0e10 DAB2     		uxtb	r2, r3
 2204 0e12 3B68     		ldr	r3, [r7]
 2205 0e14 1A70     		strb	r2, [r3]
 822:build/openmote-cc2538_armgcc/openstack/03a-IPHC/iphc.c ****         *nh        = (temp_8b >> IPHC_NH)        & 0x01;   // 1b
 2206              		.loc 1 822 0
 2207 0e16 BB7D     		ldrb	r3, [r7, #22]	@ zero_extendqisi2
 2208 0e18 9B08     		lsrs	r3, r3, #2
 2209 0e1a DBB2     		uxtb	r3, r3
 2210 0e1c 03F00103 		and	r3, r3, #1
 2211 0e20 DAB2     		uxtb	r2, r3
 2212 0e22 BB6A     		ldr	r3, [r7, #40]
 2213 0e24 1A70     		strb	r2, [r3]
 823:build/openmote-cc2538_armgcc/openstack/03a-IPHC/iphc.c ****         *hlim      = (temp_8b >> IPHC_HLIM)      & 0x03;   // 2b
 2214              		.loc 1 823 0
 2215 0e26 BB7D     		ldrb	r3, [r7, #22]
 2216 0e28 03F00303 		and	r3, r3, #3
 2217 0e2c DAB2     		uxtb	r2, r3
 2218 0e2e FB6A     		ldr	r3, [r7, #44]
 2219 0e30 1A70     		strb	r2, [r3]
 824:build/openmote-cc2538_armgcc/openstack/03a-IPHC/iphc.c ****         ipv6_header->header_length += sizeof(uint8_t);
 2220              		.loc 1 824 0
 2221 0e32 3B6C     		ldr	r3, [r7, #64]
 2222 0e34 93F84430 		ldrb	r3, [r3, #68]	@ zero_extendqisi2
 2223 0e38 0133     		adds	r3, r3, #1
 2224 0e3a DAB2     		uxtb	r2, r3
 2225 0e3c 3B6C     		ldr	r3, [r7, #64]
 2226 0e3e 83F84420 		strb	r2, [r3, #68]
 825:build/openmote-cc2538_armgcc/openstack/03a-IPHC/iphc.c ****         temp_8b    = *((uint8_t*)(msg->payload)+ipv6_header->header_length+previousLen);
 2227              		.loc 1 825 0
 2228 0e42 FB6B     		ldr	r3, [r7, #60]
 2229 0e44 5A68     		ldr	r2, [r3, #4]
 2230 0e46 3B6C     		ldr	r3, [r7, #64]
 2231 0e48 93F84430 		ldrb	r3, [r3, #68]	@ zero_extendqisi2
 2232 0e4c 1946     		mov	r1, r3
 2233 0e4e 97F84430 		ldrb	r3, [r7, #68]	@ zero_extendqisi2
 2234 0e52 0B44     		add	r3, r3, r1
 2235 0e54 1344     		add	r3, r3, r2
 2236 0e56 1B78     		ldrb	r3, [r3]
 2237 0e58 BB75     		strb	r3, [r7, #22]
 826:build/openmote-cc2538_armgcc/openstack/03a-IPHC/iphc.c ****        // cid unused
 827:build/openmote-cc2538_armgcc/openstack/03a-IPHC/iphc.c ****        // sac unused
 828:build/openmote-cc2538_armgcc/openstack/03a-IPHC/iphc.c ****        *sam       = (temp_8b >> IPHC_SAM)       & 0x03;   // 2b
 2238              		.loc 1 828 0
 2239 0e5a BB7D     		ldrb	r3, [r7, #22]	@ zero_extendqisi2
 2240 0e5c 1B09     		lsrs	r3, r3, #4
 2241 0e5e DBB2     		uxtb	r3, r3
 2242 0e60 03F00303 		and	r3, r3, #3
 2243 0e64 DAB2     		uxtb	r2, r3
 2244 0e66 3B6B     		ldr	r3, [r7, #48]
 2245 0e68 1A70     		strb	r2, [r3]
 829:build/openmote-cc2538_armgcc/openstack/03a-IPHC/iphc.c ****        // m unused
 830:build/openmote-cc2538_armgcc/openstack/03a-IPHC/iphc.c ****        *m         = (temp_8b >> IPHC_M)         & 0x01;   // 1b
 2246              		.loc 1 830 0
 2247 0e6a BB7D     		ldrb	r3, [r7, #22]	@ zero_extendqisi2
 2248 0e6c DB08     		lsrs	r3, r3, #3
 2249 0e6e DBB2     		uxtb	r3, r3
 2250 0e70 03F00103 		and	r3, r3, #1
 2251 0e74 DAB2     		uxtb	r2, r3
 2252 0e76 7B6B     		ldr	r3, [r7, #52]
 2253 0e78 1A70     		strb	r2, [r3]
 831:build/openmote-cc2538_armgcc/openstack/03a-IPHC/iphc.c ****        // dac unused
 832:build/openmote-cc2538_armgcc/openstack/03a-IPHC/iphc.c ****        *dam       = (temp_8b >> IPHC_DAM)       & 0x03;   // 2b
 2254              		.loc 1 832 0
 2255 0e7a BB7D     		ldrb	r3, [r7, #22]
 2256 0e7c 03F00303 		and	r3, r3, #3
 2257 0e80 DAB2     		uxtb	r2, r3
 2258 0e82 BB6B     		ldr	r3, [r7, #56]
 2259 0e84 1A70     		strb	r2, [r3]
 833:build/openmote-cc2538_armgcc/openstack/03a-IPHC/iphc.c ****        ipv6_header->header_length += sizeof(uint8_t);
 2260              		.loc 1 833 0
 2261 0e86 3B6C     		ldr	r3, [r7, #64]
 2262 0e88 93F84430 		ldrb	r3, [r3, #68]	@ zero_extendqisi2
 2263 0e8c 0133     		adds	r3, r3, #1
 2264 0e8e DAB2     		uxtb	r2, r3
 2265 0e90 3B6C     		ldr	r3, [r7, #64]
 2266 0e92 83F84420 		strb	r2, [r3, #68]
 834:build/openmote-cc2538_armgcc/openstack/03a-IPHC/iphc.c ****        
 835:build/openmote-cc2538_armgcc/openstack/03a-IPHC/iphc.c ****        // dispatch
 836:build/openmote-cc2538_armgcc/openstack/03a-IPHC/iphc.c ****        switch (*dispatch) {
 2267              		.loc 1 836 0
 2268 0e96 7B68     		ldr	r3, [r7, #4]
 2269 0e98 1B78     		ldrb	r3, [r3]	@ zero_extendqisi2
 2270 0e9a 032B     		cmp	r3, #3
 2271 0e9c 08D0     		beq	.L181
 837:build/openmote-cc2538_armgcc/openstack/03a-IPHC/iphc.c ****           case IPHC_DISPATCH_IPHC:
 838:build/openmote-cc2538_armgcc/openstack/03a-IPHC/iphc.c ****              break;
 839:build/openmote-cc2538_armgcc/openstack/03a-IPHC/iphc.c ****           default:
 840:build/openmote-cc2538_armgcc/openstack/03a-IPHC/iphc.c ****              openserial_printError(
 841:build/openmote-cc2538_armgcc/openstack/03a-IPHC/iphc.c ****                 COMPONENT_IPHC,
 842:build/openmote-cc2538_armgcc/openstack/03a-IPHC/iphc.c ****                 ERR_6LOWPAN_UNSUPPORTED,
 843:build/openmote-cc2538_armgcc/openstack/03a-IPHC/iphc.c ****                 (errorparameter_t)5,
 844:build/openmote-cc2538_armgcc/openstack/03a-IPHC/iphc.c ****                 (errorparameter_t)(*dispatch)
 2272              		.loc 1 844 0
 2273 0e9e 7B68     		ldr	r3, [r7, #4]
 2274 0ea0 1B78     		ldrb	r3, [r3]	@ zero_extendqisi2
 840:build/openmote-cc2538_armgcc/openstack/03a-IPHC/iphc.c ****                 COMPONENT_IPHC,
 2275              		.loc 1 840 0
 2276 0ea2 9BB2     		uxth	r3, r3
 2277 0ea4 1120     		movs	r0, #17
 2278 0ea6 0C21     		movs	r1, #12
 2279 0ea8 0522     		movs	r2, #5
 2280 0eaa FFF7FEFF 		bl	openserial_printError
 845:build/openmote-cc2538_armgcc/openstack/03a-IPHC/iphc.c ****              );
 846:build/openmote-cc2538_armgcc/openstack/03a-IPHC/iphc.c ****              break;
 2281              		.loc 1 846 0
 2282 0eae 00E0     		b	.L132
 2283              	.L181:
 838:build/openmote-cc2538_armgcc/openstack/03a-IPHC/iphc.c ****           default:
 2284              		.loc 1 838 0
 2285 0eb0 00BF     		nop
 2286              	.L132:
 847:build/openmote-cc2538_armgcc/openstack/03a-IPHC/iphc.c ****        }
 848:build/openmote-cc2538_armgcc/openstack/03a-IPHC/iphc.c ****        
 849:build/openmote-cc2538_armgcc/openstack/03a-IPHC/iphc.c ****        // flowlabel
 850:build/openmote-cc2538_armgcc/openstack/03a-IPHC/iphc.c ****        switch (*tf) {
 2287              		.loc 1 850 0
 2288 0eb2 3B68     		ldr	r3, [r7]
 2289 0eb4 1B78     		ldrb	r3, [r3]	@ zero_extendqisi2
 2290 0eb6 012B     		cmp	r3, #1
 2291 0eb8 02D0     		beq	.L134
 2292 0eba 032B     		cmp	r3, #3
 2293 0ebc 4ED0     		beq	.L135
 2294 0ebe 51E0     		b	.L178
 2295              	.L134:
 851:build/openmote-cc2538_armgcc/openstack/03a-IPHC/iphc.c ****           case IPHC_TF_3B:
 852:build/openmote-cc2538_armgcc/openstack/03a-IPHC/iphc.c **** 
 853:build/openmote-cc2538_armgcc/openstack/03a-IPHC/iphc.c ****              ipv6_header->flow_label        = 0;
 2296              		.loc 1 853 0
 2297 0ec0 3B6C     		ldr	r3, [r7, #64]
 2298 0ec2 0022     		movs	r2, #0
 2299 0ec4 5A60     		str	r2, [r3, #4]
 854:build/openmote-cc2538_armgcc/openstack/03a-IPHC/iphc.c ****              ipv6_header->flow_label       |= ((uint32_t) *((uint8_t*)(msg->payload)+ipv6_header->h
 2300              		.loc 1 854 0
 2301 0ec6 3B6C     		ldr	r3, [r7, #64]
 2302 0ec8 5B68     		ldr	r3, [r3, #4]
 2303 0eca FA6B     		ldr	r2, [r7, #60]
 2304 0ecc 5168     		ldr	r1, [r2, #4]
 2305 0ece 3A6C     		ldr	r2, [r7, #64]
 2306 0ed0 92F84420 		ldrb	r2, [r2, #68]	@ zero_extendqisi2
 2307 0ed4 1046     		mov	r0, r2
 2308 0ed6 97F84420 		ldrb	r2, [r7, #68]	@ zero_extendqisi2
 2309 0eda 0244     		add	r2, r2, r0
 2310 0edc 0A44     		add	r2, r2, r1
 2311 0ede 1278     		ldrb	r2, [r2]	@ zero_extendqisi2
 2312 0ee0 1A43     		orrs	r2, r2, r3
 2313 0ee2 3B6C     		ldr	r3, [r7, #64]
 2314 0ee4 5A60     		str	r2, [r3, #4]
 855:build/openmote-cc2538_armgcc/openstack/03a-IPHC/iphc.c ****              ipv6_header->header_length    += sizeof(uint8_t);
 2315              		.loc 1 855 0
 2316 0ee6 3B6C     		ldr	r3, [r7, #64]
 2317 0ee8 93F84430 		ldrb	r3, [r3, #68]	@ zero_extendqisi2
 2318 0eec 0133     		adds	r3, r3, #1
 2319 0eee DAB2     		uxtb	r2, r3
 2320 0ef0 3B6C     		ldr	r3, [r7, #64]
 2321 0ef2 83F84420 		strb	r2, [r3, #68]
 856:build/openmote-cc2538_armgcc/openstack/03a-IPHC/iphc.c ****              ipv6_header->flow_label       |= ((uint32_t) *((uint8_t*)(msg->payload)+ipv6_header->h
 2322              		.loc 1 856 0
 2323 0ef6 3B6C     		ldr	r3, [r7, #64]
 2324 0ef8 5A68     		ldr	r2, [r3, #4]
 2325 0efa FB6B     		ldr	r3, [r7, #60]
 2326 0efc 5968     		ldr	r1, [r3, #4]
 2327 0efe 3B6C     		ldr	r3, [r7, #64]
 2328 0f00 93F84430 		ldrb	r3, [r3, #68]	@ zero_extendqisi2
 2329 0f04 1846     		mov	r0, r3
 2330 0f06 97F84430 		ldrb	r3, [r7, #68]	@ zero_extendqisi2
 2331 0f0a 0344     		add	r3, r3, r0
 2332 0f0c 0B44     		add	r3, r3, r1
 2333 0f0e 1B78     		ldrb	r3, [r3]	@ zero_extendqisi2
 2334 0f10 1B02     		lsls	r3, r3, #8
 2335 0f12 1A43     		orrs	r2, r2, r3
 2336 0f14 3B6C     		ldr	r3, [r7, #64]
 2337 0f16 5A60     		str	r2, [r3, #4]
 857:build/openmote-cc2538_armgcc/openstack/03a-IPHC/iphc.c ****              ipv6_header->header_length    += sizeof(uint8_t);
 2338              		.loc 1 857 0
 2339 0f18 3B6C     		ldr	r3, [r7, #64]
 2340 0f1a 93F84430 		ldrb	r3, [r3, #68]	@ zero_extendqisi2
 2341 0f1e 0133     		adds	r3, r3, #1
 2342 0f20 DAB2     		uxtb	r2, r3
 2343 0f22 3B6C     		ldr	r3, [r7, #64]
 2344 0f24 83F84420 		strb	r2, [r3, #68]
 858:build/openmote-cc2538_armgcc/openstack/03a-IPHC/iphc.c ****              ipv6_header->flow_label       |= ((uint32_t) *((uint8_t*)(msg->payload)+ipv6_header->h
 2345              		.loc 1 858 0
 2346 0f28 3B6C     		ldr	r3, [r7, #64]
 2347 0f2a 5A68     		ldr	r2, [r3, #4]
 2348 0f2c FB6B     		ldr	r3, [r7, #60]
 2349 0f2e 5968     		ldr	r1, [r3, #4]
 2350 0f30 3B6C     		ldr	r3, [r7, #64]
 2351 0f32 93F84430 		ldrb	r3, [r3, #68]	@ zero_extendqisi2
 2352 0f36 1846     		mov	r0, r3
 2353 0f38 97F84430 		ldrb	r3, [r7, #68]	@ zero_extendqisi2
 2354 0f3c 0344     		add	r3, r3, r0
 2355 0f3e 0B44     		add	r3, r3, r1
 2356 0f40 1B78     		ldrb	r3, [r3]	@ zero_extendqisi2
 2357 0f42 1B04     		lsls	r3, r3, #16
 2358 0f44 1A43     		orrs	r2, r2, r3
 2359 0f46 3B6C     		ldr	r3, [r7, #64]
 2360 0f48 5A60     		str	r2, [r3, #4]
 859:build/openmote-cc2538_armgcc/openstack/03a-IPHC/iphc.c ****              ipv6_header->header_length    += sizeof(uint8_t);
 2361              		.loc 1 859 0
 2362 0f4a 3B6C     		ldr	r3, [r7, #64]
 2363 0f4c 93F84430 		ldrb	r3, [r3, #68]	@ zero_extendqisi2
 2364 0f50 0133     		adds	r3, r3, #1
 2365 0f52 DAB2     		uxtb	r2, r3
 2366 0f54 3B6C     		ldr	r3, [r7, #64]
 2367 0f56 83F84420 		strb	r2, [r3, #68]
 860:build/openmote-cc2538_armgcc/openstack/03a-IPHC/iphc.c ****              break;            
 2368              		.loc 1 860 0
 2369 0f5a 0CE0     		b	.L136
 2370              	.L135:
 861:build/openmote-cc2538_armgcc/openstack/03a-IPHC/iphc.c ****           case IPHC_TF_ELIDED:
 862:build/openmote-cc2538_armgcc/openstack/03a-IPHC/iphc.c ****              ipv6_header->flow_label        = 0;
 2371              		.loc 1 862 0
 2372 0f5c 3B6C     		ldr	r3, [r7, #64]
 2373 0f5e 0022     		movs	r2, #0
 2374 0f60 5A60     		str	r2, [r3, #4]
 863:build/openmote-cc2538_armgcc/openstack/03a-IPHC/iphc.c ****              break;
 2375              		.loc 1 863 0
 2376 0f62 08E0     		b	.L136
 2377              	.L178:
 864:build/openmote-cc2538_armgcc/openstack/03a-IPHC/iphc.c ****           case IPHC_TF_4B:
 865:build/openmote-cc2538_armgcc/openstack/03a-IPHC/iphc.c ****              //unsupported
 866:build/openmote-cc2538_armgcc/openstack/03a-IPHC/iphc.c ****           case IPHC_TF_1B:
 867:build/openmote-cc2538_armgcc/openstack/03a-IPHC/iphc.c ****              //unsupported
 868:build/openmote-cc2538_armgcc/openstack/03a-IPHC/iphc.c ****           default:
 869:build/openmote-cc2538_armgcc/openstack/03a-IPHC/iphc.c ****              openserial_printError(
 870:build/openmote-cc2538_armgcc/openstack/03a-IPHC/iphc.c ****                 COMPONENT_IPHC,
 871:build/openmote-cc2538_armgcc/openstack/03a-IPHC/iphc.c ****                 ERR_6LOWPAN_UNSUPPORTED,
 872:build/openmote-cc2538_armgcc/openstack/03a-IPHC/iphc.c ****                 (errorparameter_t)6,
 873:build/openmote-cc2538_armgcc/openstack/03a-IPHC/iphc.c ****                 (errorparameter_t)(*tf)
 2378              		.loc 1 873 0
 2379 0f64 3B68     		ldr	r3, [r7]
 2380 0f66 1B78     		ldrb	r3, [r3]	@ zero_extendqisi2
 869:build/openmote-cc2538_armgcc/openstack/03a-IPHC/iphc.c ****                 COMPONENT_IPHC,
 2381              		.loc 1 869 0
 2382 0f68 9BB2     		uxth	r3, r3
 2383 0f6a 1120     		movs	r0, #17
 2384 0f6c 0C21     		movs	r1, #12
 2385 0f6e 0622     		movs	r2, #6
 2386 0f70 FFF7FEFF 		bl	openserial_printError
 874:build/openmote-cc2538_armgcc/openstack/03a-IPHC/iphc.c ****              );
 875:build/openmote-cc2538_armgcc/openstack/03a-IPHC/iphc.c ****              break;
 2387              		.loc 1 875 0
 2388 0f74 00BF     		nop
 2389              	.L136:
 876:build/openmote-cc2538_armgcc/openstack/03a-IPHC/iphc.c ****        }
 877:build/openmote-cc2538_armgcc/openstack/03a-IPHC/iphc.c ****        
 878:build/openmote-cc2538_armgcc/openstack/03a-IPHC/iphc.c ****        // next header
 879:build/openmote-cc2538_armgcc/openstack/03a-IPHC/iphc.c ****        switch (*nh) {
 2390              		.loc 1 879 0
 2391 0f76 BB6A     		ldr	r3, [r7, #40]
 2392 0f78 1B78     		ldrb	r3, [r3]	@ zero_extendqisi2
 2393 0f7a 002B     		cmp	r3, #0
 2394 0f7c 02D0     		beq	.L138
 2395 0f7e 012B     		cmp	r3, #1
 2396 0f80 19D0     		beq	.L139
 2397 0f82 1CE0     		b	.L179
 2398              	.L138:
 880:build/openmote-cc2538_armgcc/openstack/03a-IPHC/iphc.c ****           case IPHC_NH_INLINE:
 881:build/openmote-cc2538_armgcc/openstack/03a-IPHC/iphc.c ****              // Full 8 bits for Next Header are carried in-line
 882:build/openmote-cc2538_armgcc/openstack/03a-IPHC/iphc.c ****              ipv6_header->next_header_compressed = FALSE;
 2399              		.loc 1 882 0
 2400 0f84 3B6C     		ldr	r3, [r7, #64]
 2401 0f86 0022     		movs	r2, #0
 2402 0f88 1A72     		strb	r2, [r3, #8]
 883:build/openmote-cc2538_armgcc/openstack/03a-IPHC/iphc.c ****              ipv6_header->next_header            = *((uint8_t*)(msg->payload)+ipv6_header->header_l
 2403              		.loc 1 883 0
 2404 0f8a FB6B     		ldr	r3, [r7, #60]
 2405 0f8c 5A68     		ldr	r2, [r3, #4]
 2406 0f8e 3B6C     		ldr	r3, [r7, #64]
 2407 0f90 93F84430 		ldrb	r3, [r3, #68]	@ zero_extendqisi2
 2408 0f94 1946     		mov	r1, r3
 2409 0f96 97F84430 		ldrb	r3, [r7, #68]	@ zero_extendqisi2
 2410 0f9a 0B44     		add	r3, r3, r1
 2411 0f9c 1344     		add	r3, r3, r2
 2412 0f9e 1A78     		ldrb	r2, [r3]	@ zero_extendqisi2
 2413 0fa0 3B6C     		ldr	r3, [r7, #64]
 2414 0fa2 5A72     		strb	r2, [r3, #9]
 884:build/openmote-cc2538_armgcc/openstack/03a-IPHC/iphc.c ****              ipv6_header->header_length         += sizeof(uint8_t);
 2415              		.loc 1 884 0
 2416 0fa4 3B6C     		ldr	r3, [r7, #64]
 2417 0fa6 93F84430 		ldrb	r3, [r3, #68]	@ zero_extendqisi2
 2418 0faa 0133     		adds	r3, r3, #1
 2419 0fac DAB2     		uxtb	r2, r3
 2420 0fae 3B6C     		ldr	r3, [r7, #64]
 2421 0fb0 83F84420 		strb	r2, [r3, #68]
 885:build/openmote-cc2538_armgcc/openstack/03a-IPHC/iphc.c ****           
 886:build/openmote-cc2538_armgcc/openstack/03a-IPHC/iphc.c ****              break;
 2422              		.loc 1 886 0
 2423 0fb4 0CE0     		b	.L140
 2424              	.L139:
 887:build/openmote-cc2538_armgcc/openstack/03a-IPHC/iphc.c ****           case IPHC_NH_COMPRESSED:
 888:build/openmote-cc2538_armgcc/openstack/03a-IPHC/iphc.c ****              // the Next header field is compressed and the next header is encoded
 889:build/openmote-cc2538_armgcc/openstack/03a-IPHC/iphc.c ****              // using LOWPAN_NHC, which is discussed in Section 4.1 of RFC6282
 890:build/openmote-cc2538_armgcc/openstack/03a-IPHC/iphc.c ****              // we don't parse anything here, but will look at the (compressed)
 891:build/openmote-cc2538_armgcc/openstack/03a-IPHC/iphc.c ****              // next header after having parsed all address fields.
 892:build/openmote-cc2538_armgcc/openstack/03a-IPHC/iphc.c ****              ipv6_header->next_header_compressed = TRUE;
 2425              		.loc 1 892 0
 2426 0fb6 3B6C     		ldr	r3, [r7, #64]
 2427 0fb8 0122     		movs	r2, #1
 2428 0fba 1A72     		strb	r2, [r3, #8]
 893:build/openmote-cc2538_armgcc/openstack/03a-IPHC/iphc.c ****              break;
 2429              		.loc 1 893 0
 2430 0fbc 08E0     		b	.L140
 2431              	.L179:
 894:build/openmote-cc2538_armgcc/openstack/03a-IPHC/iphc.c ****           default:
 895:build/openmote-cc2538_armgcc/openstack/03a-IPHC/iphc.c ****              openserial_printError(
 896:build/openmote-cc2538_armgcc/openstack/03a-IPHC/iphc.c ****                 COMPONENT_IPHC,
 897:build/openmote-cc2538_armgcc/openstack/03a-IPHC/iphc.c ****                 ERR_6LOWPAN_UNSUPPORTED,
 898:build/openmote-cc2538_armgcc/openstack/03a-IPHC/iphc.c ****                 (errorparameter_t)7,
 899:build/openmote-cc2538_armgcc/openstack/03a-IPHC/iphc.c ****                 (errorparameter_t)(*nh)
 2432              		.loc 1 899 0
 2433 0fbe BB6A     		ldr	r3, [r7, #40]
 2434 0fc0 1B78     		ldrb	r3, [r3]	@ zero_extendqisi2
 895:build/openmote-cc2538_armgcc/openstack/03a-IPHC/iphc.c ****                 COMPONENT_IPHC,
 2435              		.loc 1 895 0
 2436 0fc2 9BB2     		uxth	r3, r3
 2437 0fc4 1120     		movs	r0, #17
 2438 0fc6 0C21     		movs	r1, #12
 2439 0fc8 0722     		movs	r2, #7
 2440 0fca FFF7FEFF 		bl	openserial_printError
 900:build/openmote-cc2538_armgcc/openstack/03a-IPHC/iphc.c ****              );
 901:build/openmote-cc2538_armgcc/openstack/03a-IPHC/iphc.c ****              break;
 2441              		.loc 1 901 0
 2442 0fce 00BF     		nop
 2443              	.L140:
 902:build/openmote-cc2538_armgcc/openstack/03a-IPHC/iphc.c ****        }
 903:build/openmote-cc2538_armgcc/openstack/03a-IPHC/iphc.c ****        
 904:build/openmote-cc2538_armgcc/openstack/03a-IPHC/iphc.c ****        // hop limit
 905:build/openmote-cc2538_armgcc/openstack/03a-IPHC/iphc.c ****        switch (*hlim) {
 2444              		.loc 1 905 0
 2445 0fd0 FB6A     		ldr	r3, [r7, #44]
 2446 0fd2 1B78     		ldrb	r3, [r3]	@ zero_extendqisi2
 2447 0fd4 032B     		cmp	r3, #3
 2448 0fd6 31D8     		bhi	.L141
 2449 0fd8 01A2     		adr	r2, .L143
 2450 0fda 52F823F0 		ldr	pc, [r2, r3, lsl #2]
 2451 0fde 00BF     		.p2align 2
 2452              	.L143:
 2453 0fe0 F10F0000 		.word	.L142+1
 2454 0fe4 1F100000 		.word	.L144+1
 2455 0fe8 29100000 		.word	.L145+1
 2456 0fec 33100000 		.word	.L146+1
 2457              		.p2align 1
 2458              	.L142:
 906:build/openmote-cc2538_armgcc/openstack/03a-IPHC/iphc.c ****           case IPHC_HLIM_INLINE:
 907:build/openmote-cc2538_armgcc/openstack/03a-IPHC/iphc.c ****              ipv6_header->hop_limit         = *((uint8_t*)(msg->payload+ipv6_header->header_length+
 2459              		.loc 1 907 0
 2460 0ff0 FB6B     		ldr	r3, [r7, #60]
 2461 0ff2 5A68     		ldr	r2, [r3, #4]
 2462 0ff4 3B6C     		ldr	r3, [r7, #64]
 2463 0ff6 93F84430 		ldrb	r3, [r3, #68]	@ zero_extendqisi2
 2464 0ffa 1946     		mov	r1, r3
 2465 0ffc 97F84430 		ldrb	r3, [r7, #68]	@ zero_extendqisi2
 2466 1000 0B44     		add	r3, r3, r1
 2467 1002 1344     		add	r3, r3, r2
 2468 1004 1A78     		ldrb	r2, [r3]	@ zero_extendqisi2
 2469 1006 3B6C     		ldr	r3, [r7, #64]
 2470 1008 83F82020 		strb	r2, [r3, #32]
 908:build/openmote-cc2538_armgcc/openstack/03a-IPHC/iphc.c ****              ipv6_header->header_length    += sizeof(uint8_t);
 2471              		.loc 1 908 0
 2472 100c 3B6C     		ldr	r3, [r7, #64]
 2473 100e 93F84430 		ldrb	r3, [r3, #68]	@ zero_extendqisi2
 2474 1012 0133     		adds	r3, r3, #1
 2475 1014 DAB2     		uxtb	r2, r3
 2476 1016 3B6C     		ldr	r3, [r7, #64]
 2477 1018 83F84420 		strb	r2, [r3, #68]
 909:build/openmote-cc2538_armgcc/openstack/03a-IPHC/iphc.c ****              break;
 2478              		.loc 1 909 0
 2479 101c 17E0     		b	.L147
 2480              	.L144:
 910:build/openmote-cc2538_armgcc/openstack/03a-IPHC/iphc.c ****           case IPHC_HLIM_1:
 911:build/openmote-cc2538_armgcc/openstack/03a-IPHC/iphc.c ****              ipv6_header->hop_limit         = 1;
 2481              		.loc 1 911 0
 2482 101e 3B6C     		ldr	r3, [r7, #64]
 2483 1020 0122     		movs	r2, #1
 2484 1022 83F82020 		strb	r2, [r3, #32]
 912:build/openmote-cc2538_armgcc/openstack/03a-IPHC/iphc.c ****              break;
 2485              		.loc 1 912 0
 2486 1026 12E0     		b	.L147
 2487              	.L145:
 913:build/openmote-cc2538_armgcc/openstack/03a-IPHC/iphc.c ****           case IPHC_HLIM_64:
 914:build/openmote-cc2538_armgcc/openstack/03a-IPHC/iphc.c ****              ipv6_header->hop_limit         = 64;
 2488              		.loc 1 914 0
 2489 1028 3B6C     		ldr	r3, [r7, #64]
 2490 102a 4022     		movs	r2, #64
 2491 102c 83F82020 		strb	r2, [r3, #32]
 915:build/openmote-cc2538_armgcc/openstack/03a-IPHC/iphc.c ****              break;
 2492              		.loc 1 915 0
 2493 1030 0DE0     		b	.L147
 2494              	.L146:
 916:build/openmote-cc2538_armgcc/openstack/03a-IPHC/iphc.c ****           case IPHC_HLIM_255:
 917:build/openmote-cc2538_armgcc/openstack/03a-IPHC/iphc.c ****              ipv6_header->hop_limit         = 255;
 2495              		.loc 1 917 0
 2496 1032 3B6C     		ldr	r3, [r7, #64]
 2497 1034 FF22     		movs	r2, #255
 2498 1036 83F82020 		strb	r2, [r3, #32]
 918:build/openmote-cc2538_armgcc/openstack/03a-IPHC/iphc.c ****              break;
 2499              		.loc 1 918 0
 2500 103a 08E0     		b	.L147
 2501              	.L141:
 919:build/openmote-cc2538_armgcc/openstack/03a-IPHC/iphc.c ****           default:
 920:build/openmote-cc2538_armgcc/openstack/03a-IPHC/iphc.c ****              openserial_printError(
 921:build/openmote-cc2538_armgcc/openstack/03a-IPHC/iphc.c ****                 COMPONENT_IPHC,
 922:build/openmote-cc2538_armgcc/openstack/03a-IPHC/iphc.c ****                 ERR_6LOWPAN_UNSUPPORTED,
 923:build/openmote-cc2538_armgcc/openstack/03a-IPHC/iphc.c ****                 (errorparameter_t)8,
 924:build/openmote-cc2538_armgcc/openstack/03a-IPHC/iphc.c ****                 (errorparameter_t)(*hlim)
 2502              		.loc 1 924 0
 2503 103c FB6A     		ldr	r3, [r7, #44]
 2504 103e 1B78     		ldrb	r3, [r3]	@ zero_extendqisi2
 920:build/openmote-cc2538_armgcc/openstack/03a-IPHC/iphc.c ****                 COMPONENT_IPHC,
 2505              		.loc 1 920 0
 2506 1040 9BB2     		uxth	r3, r3
 2507 1042 1120     		movs	r0, #17
 2508 1044 0C21     		movs	r1, #12
 2509 1046 0822     		movs	r2, #8
 2510 1048 FFF7FEFF 		bl	openserial_printError
 925:build/openmote-cc2538_armgcc/openstack/03a-IPHC/iphc.c ****              );
 926:build/openmote-cc2538_armgcc/openstack/03a-IPHC/iphc.c ****              break;
 2511              		.loc 1 926 0
 2512 104c 00BF     		nop
 2513              	.L147:
 927:build/openmote-cc2538_armgcc/openstack/03a-IPHC/iphc.c ****        }
 928:build/openmote-cc2538_armgcc/openstack/03a-IPHC/iphc.c ****        
 929:build/openmote-cc2538_armgcc/openstack/03a-IPHC/iphc.c ****        // source address
 930:build/openmote-cc2538_armgcc/openstack/03a-IPHC/iphc.c ****        switch (*sam) {
 2514              		.loc 1 930 0
 2515 104e 3B6B     		ldr	r3, [r7, #48]
 2516 1050 1B78     		ldrb	r3, [r3]	@ zero_extendqisi2
 2517 1052 032B     		cmp	r3, #3
 2518 1054 00F28280 		bhi	.L148
 2519 1058 01A2     		adr	r2, .L150
 2520 105a 52F823F0 		ldr	pc, [r2, r3, lsl #2]
 2521 105e 00BF     		.p2align 2
 2522              	.L150:
 2523 1060 27110000 		.word	.L149+1
 2524 1064 DF100000 		.word	.L151+1
 2525 1068 8F100000 		.word	.L152+1
 2526 106c 71100000 		.word	.L153+1
 2527              		.p2align 1
 2528              	.L153:
 931:build/openmote-cc2538_armgcc/openstack/03a-IPHC/iphc.c ****           case IPHC_SAM_ELIDED:
 932:build/openmote-cc2538_armgcc/openstack/03a-IPHC/iphc.c ****              packetfunctions_mac64bToIp128b(idmanager_getMyID(ADDR_PREFIX),&(msg->l2_nextORprevious
 2529              		.loc 1 932 0
 2530 1070 0520     		movs	r0, #5
 2531 1072 FFF7FEFF 		bl	idmanager_getMyID
 2532 1076 0146     		mov	r1, r0
 2533 1078 FB6B     		ldr	r3, [r7, #60]
 2534 107a 03F13C02 		add	r2, r3, #60
 2535 107e 3B6C     		ldr	r3, [r7, #64]
 2536 1080 2233     		adds	r3, r3, #34
 2537 1082 0846     		mov	r0, r1
 2538 1084 1146     		mov	r1, r2
 2539 1086 1A46     		mov	r2, r3
 2540 1088 FFF7FEFF 		bl	packetfunctions_mac64bToIp128b
 933:build/openmote-cc2538_armgcc/openstack/03a-IPHC/iphc.c ****              break;
 2541              		.loc 1 933 0
 2542 108c 6FE0     		b	.L154
 2543              	.L152:
 934:build/openmote-cc2538_armgcc/openstack/03a-IPHC/iphc.c ****           case IPHC_SAM_16B:
 935:build/openmote-cc2538_armgcc/openstack/03a-IPHC/iphc.c ****              packetfunctions_readAddress(((uint8_t*)(msg->payload+ipv6_header->header_length+previo
 2544              		.loc 1 935 0
 2545 108e FB6B     		ldr	r3, [r7, #60]
 2546 1090 5A68     		ldr	r2, [r3, #4]
 2547 1092 3B6C     		ldr	r3, [r7, #64]
 2548 1094 93F84430 		ldrb	r3, [r3, #68]	@ zero_extendqisi2
 2549 1098 1946     		mov	r1, r3
 2550 109a 97F84430 		ldrb	r3, [r7, #68]	@ zero_extendqisi2
 2551 109e 0B44     		add	r3, r3, r1
 2552 10a0 1344     		add	r3, r3, r2
 2553 10a2 1846     		mov	r0, r3
 2554 10a4 0121     		movs	r1, #1
 2555 10a6 FA68     		ldr	r2, [r7, #12]
 2556 10a8 0023     		movs	r3, #0
 2557 10aa FFF7FEFF 		bl	packetfunctions_readAddress
 936:build/openmote-cc2538_armgcc/openstack/03a-IPHC/iphc.c ****              ipv6_header->header_length += 2*sizeof(uint8_t);
 2558              		.loc 1 936 0
 2559 10ae 3B6C     		ldr	r3, [r7, #64]
 2560 10b0 93F84430 		ldrb	r3, [r3, #68]	@ zero_extendqisi2
 2561 10b4 0233     		adds	r3, r3, #2
 2562 10b6 DAB2     		uxtb	r2, r3
 2563 10b8 3B6C     		ldr	r3, [r7, #64]
 2564 10ba 83F84420 		strb	r2, [r3, #68]
 937:build/openmote-cc2538_armgcc/openstack/03a-IPHC/iphc.c ****              packetfunctions_mac16bToMac64b(temp_addr_16b,temp_addr_64b);
 2565              		.loc 1 937 0
 2566 10be F868     		ldr	r0, [r7, #12]
 2567 10c0 B968     		ldr	r1, [r7, #8]
 2568 10c2 FFF7FEFF 		bl	packetfunctions_mac16bToMac64b
 938:build/openmote-cc2538_armgcc/openstack/03a-IPHC/iphc.c ****              packetfunctions_mac64bToIp128b(idmanager_getMyID(ADDR_PREFIX),temp_addr_64b,&ipv6_head
 2569              		.loc 1 938 0
 2570 10c6 0520     		movs	r0, #5
 2571 10c8 FFF7FEFF 		bl	idmanager_getMyID
 2572 10cc 0246     		mov	r2, r0
 2573 10ce 3B6C     		ldr	r3, [r7, #64]
 2574 10d0 2233     		adds	r3, r3, #34
 2575 10d2 1046     		mov	r0, r2
 2576 10d4 B968     		ldr	r1, [r7, #8]
 2577 10d6 1A46     		mov	r2, r3
 2578 10d8 FFF7FEFF 		bl	packetfunctions_mac64bToIp128b
 939:build/openmote-cc2538_armgcc/openstack/03a-IPHC/iphc.c ****              break;
 2579              		.loc 1 939 0
 2580 10dc 47E0     		b	.L154
 2581              	.L151:
 940:build/openmote-cc2538_armgcc/openstack/03a-IPHC/iphc.c ****           case IPHC_SAM_64B:
 941:build/openmote-cc2538_armgcc/openstack/03a-IPHC/iphc.c ****              packetfunctions_readAddress(((uint8_t*)(msg->payload+ipv6_header->header_length+previo
 2582              		.loc 1 941 0
 2583 10de FB6B     		ldr	r3, [r7, #60]
 2584 10e0 5A68     		ldr	r2, [r3, #4]
 2585 10e2 3B6C     		ldr	r3, [r7, #64]
 2586 10e4 93F84430 		ldrb	r3, [r3, #68]	@ zero_extendqisi2
 2587 10e8 1946     		mov	r1, r3
 2588 10ea 97F84430 		ldrb	r3, [r7, #68]	@ zero_extendqisi2
 2589 10ee 0B44     		add	r3, r3, r1
 2590 10f0 1344     		add	r3, r3, r2
 2591 10f2 1846     		mov	r0, r3
 2592 10f4 0221     		movs	r1, #2
 2593 10f6 BA68     		ldr	r2, [r7, #8]
 2594 10f8 0023     		movs	r3, #0
 2595 10fa FFF7FEFF 		bl	packetfunctions_readAddress
 942:build/openmote-cc2538_armgcc/openstack/03a-IPHC/iphc.c ****              ipv6_header->header_length += 8*sizeof(uint8_t);
 2596              		.loc 1 942 0
 2597 10fe 3B6C     		ldr	r3, [r7, #64]
 2598 1100 93F84430 		ldrb	r3, [r3, #68]	@ zero_extendqisi2
 2599 1104 0833     		adds	r3, r3, #8
 2600 1106 DAB2     		uxtb	r2, r3
 2601 1108 3B6C     		ldr	r3, [r7, #64]
 2602 110a 83F84420 		strb	r2, [r3, #68]
 943:build/openmote-cc2538_armgcc/openstack/03a-IPHC/iphc.c ****              packetfunctions_mac64bToIp128b(idmanager_getMyID(ADDR_PREFIX),temp_addr_64b,&ipv6_head
 2603              		.loc 1 943 0
 2604 110e 0520     		movs	r0, #5
 2605 1110 FFF7FEFF 		bl	idmanager_getMyID
 2606 1114 0246     		mov	r2, r0
 2607 1116 3B6C     		ldr	r3, [r7, #64]
 2608 1118 2233     		adds	r3, r3, #34
 2609 111a 1046     		mov	r0, r2
 2610 111c B968     		ldr	r1, [r7, #8]
 2611 111e 1A46     		mov	r2, r3
 2612 1120 FFF7FEFF 		bl	packetfunctions_mac64bToIp128b
 944:build/openmote-cc2538_armgcc/openstack/03a-IPHC/iphc.c ****              break;
 2613              		.loc 1 944 0
 2614 1124 23E0     		b	.L154
 2615              	.L149:
 945:build/openmote-cc2538_armgcc/openstack/03a-IPHC/iphc.c ****           case IPHC_SAM_128B:
 946:build/openmote-cc2538_armgcc/openstack/03a-IPHC/iphc.c ****              packetfunctions_readAddress(((uint8_t*)(msg->payload+ipv6_header->header_length+previo
 2616              		.loc 1 946 0
 2617 1126 FB6B     		ldr	r3, [r7, #60]
 2618 1128 5A68     		ldr	r2, [r3, #4]
 2619 112a 3B6C     		ldr	r3, [r7, #64]
 2620 112c 93F84430 		ldrb	r3, [r3, #68]	@ zero_extendqisi2
 2621 1130 1946     		mov	r1, r3
 2622 1132 97F84430 		ldrb	r3, [r7, #68]	@ zero_extendqisi2
 2623 1136 0B44     		add	r3, r3, r1
 2624 1138 1A44     		add	r2, r2, r3
 2625 113a 3B6C     		ldr	r3, [r7, #64]
 2626 113c 2233     		adds	r3, r3, #34
 2627 113e 1046     		mov	r0, r2
 2628 1140 0321     		movs	r1, #3
 2629 1142 1A46     		mov	r2, r3
 2630 1144 0023     		movs	r3, #0
 2631 1146 FFF7FEFF 		bl	packetfunctions_readAddress
 947:build/openmote-cc2538_armgcc/openstack/03a-IPHC/iphc.c ****              ipv6_header->header_length += 16*sizeof(uint8_t);
 2632              		.loc 1 947 0
 2633 114a 3B6C     		ldr	r3, [r7, #64]
 2634 114c 93F84430 		ldrb	r3, [r3, #68]	@ zero_extendqisi2
 2635 1150 1033     		adds	r3, r3, #16
 2636 1152 DAB2     		uxtb	r2, r3
 2637 1154 3B6C     		ldr	r3, [r7, #64]
 2638 1156 83F84420 		strb	r2, [r3, #68]
 948:build/openmote-cc2538_armgcc/openstack/03a-IPHC/iphc.c ****              break;
 2639              		.loc 1 948 0
 2640 115a 08E0     		b	.L154
 2641              	.L148:
 949:build/openmote-cc2538_armgcc/openstack/03a-IPHC/iphc.c ****           default:
 950:build/openmote-cc2538_armgcc/openstack/03a-IPHC/iphc.c ****              openserial_printError(
 951:build/openmote-cc2538_armgcc/openstack/03a-IPHC/iphc.c ****                 COMPONENT_IPHC,
 952:build/openmote-cc2538_armgcc/openstack/03a-IPHC/iphc.c ****                 ERR_6LOWPAN_UNSUPPORTED,
 953:build/openmote-cc2538_armgcc/openstack/03a-IPHC/iphc.c ****                 (errorparameter_t)9,
 954:build/openmote-cc2538_armgcc/openstack/03a-IPHC/iphc.c ****                 (errorparameter_t)(*sam)
 2642              		.loc 1 954 0
 2643 115c 3B6B     		ldr	r3, [r7, #48]
 2644 115e 1B78     		ldrb	r3, [r3]	@ zero_extendqisi2
 950:build/openmote-cc2538_armgcc/openstack/03a-IPHC/iphc.c ****                 COMPONENT_IPHC,
 2645              		.loc 1 950 0
 2646 1160 9BB2     		uxth	r3, r3
 2647 1162 1120     		movs	r0, #17
 2648 1164 0C21     		movs	r1, #12
 2649 1166 0922     		movs	r2, #9
 2650 1168 FFF7FEFF 		bl	openserial_printError
 955:build/openmote-cc2538_armgcc/openstack/03a-IPHC/iphc.c ****              );
 956:build/openmote-cc2538_armgcc/openstack/03a-IPHC/iphc.c ****              break;
 2651              		.loc 1 956 0
 2652 116c 00BF     		nop
 2653              	.L154:
 957:build/openmote-cc2538_armgcc/openstack/03a-IPHC/iphc.c ****        }
 958:build/openmote-cc2538_armgcc/openstack/03a-IPHC/iphc.c ****        
 959:build/openmote-cc2538_armgcc/openstack/03a-IPHC/iphc.c ****        // destination address
 960:build/openmote-cc2538_armgcc/openstack/03a-IPHC/iphc.c ****        if(*m == IPHC_M_YES) {
 2654              		.loc 1 960 0
 2655 116e 7B6B     		ldr	r3, [r7, #52]
 2656 1170 1B78     		ldrb	r3, [r3]	@ zero_extendqisi2
 2657 1172 012B     		cmp	r3, #1
 2658 1174 3ED1     		bne	.L155
 961:build/openmote-cc2538_armgcc/openstack/03a-IPHC/iphc.c ****            switch (*dam) {
 2659              		.loc 1 961 0
 2660 1176 BB6B     		ldr	r3, [r7, #56]
 2661 1178 1B78     		ldrb	r3, [r3]	@ zero_extendqisi2
 2662 117a 032B     		cmp	r3, #3
 2663 117c 2FD8     		bhi	.L156
 2664 117e 01A2     		adr	r2, .L158
 2665 1180 52F823F0 		ldr	pc, [r2, r3, lsl #2]
 2666              		.p2align 2
 2667              	.L158:
 2668 1184 F1110000 		.word	.L182+1
 2669 1188 F1110000 		.word	.L182+1
 2670 118c F1110000 		.word	.L182+1
 2671 1190 95110000 		.word	.L161+1
 2672              		.p2align 1
 2673              	.L161:
 962:build/openmote-cc2538_armgcc/openstack/03a-IPHC/iphc.c ****               case IPHC_DAM_ELIDED:
 963:build/openmote-cc2538_armgcc/openstack/03a-IPHC/iphc.c ****                  ipv6_header->dest.type = ADDR_128B;
 2674              		.loc 1 963 0
 2675 1194 3B6C     		ldr	r3, [r7, #64]
 2676 1196 0322     		movs	r2, #3
 2677 1198 83F83320 		strb	r2, [r3, #51]
 964:build/openmote-cc2538_armgcc/openstack/03a-IPHC/iphc.c ****                  memcpy(&(ipv6_header->dest.addr_128b[0]),all_routers_multicast,sizeof(all_routers_
 2678              		.loc 1 964 0
 2679 119c 3B6C     		ldr	r3, [r7, #64]
 2680 119e 3433     		adds	r3, r3, #52
 2681 11a0 B24A     		ldr	r2, .L183
 2682 11a2 1C46     		mov	r4, r3
 2683 11a4 1546     		mov	r5, r2
 2684 11a6 0FCD     		ldmia	r5!, {r0, r1, r2, r3}
 2685 11a8 2060     		str	r0, [r4]	@ unaligned
 2686 11aa 6160     		str	r1, [r4, #4]	@ unaligned
 2687 11ac A260     		str	r2, [r4, #8]	@ unaligned
 2688 11ae E360     		str	r3, [r4, #12]	@ unaligned
 965:build/openmote-cc2538_armgcc/openstack/03a-IPHC/iphc.c ****                  ipv6_header->dest.addr_128b[15] = *(msg->payload+ipv6_header->header_length+previo
 2689              		.loc 1 965 0
 2690 11b0 FB6B     		ldr	r3, [r7, #60]
 2691 11b2 5A68     		ldr	r2, [r3, #4]
 2692 11b4 3B6C     		ldr	r3, [r7, #64]
 2693 11b6 93F84430 		ldrb	r3, [r3, #68]	@ zero_extendqisi2
 2694 11ba 1946     		mov	r1, r3
 2695 11bc 97F84430 		ldrb	r3, [r7, #68]	@ zero_extendqisi2
 2696 11c0 0B44     		add	r3, r3, r1
 2697 11c2 1344     		add	r3, r3, r2
 2698 11c4 1A78     		ldrb	r2, [r3]	@ zero_extendqisi2
 2699 11c6 3B6C     		ldr	r3, [r7, #64]
 2700 11c8 83F84320 		strb	r2, [r3, #67]
 966:build/openmote-cc2538_armgcc/openstack/03a-IPHC/iphc.c ****                  ipv6_header->header_length += sizeof(uint8_t);
 2701              		.loc 1 966 0
 2702 11cc 3B6C     		ldr	r3, [r7, #64]
 2703 11ce 93F84430 		ldrb	r3, [r3, #68]	@ zero_extendqisi2
 2704 11d2 0133     		adds	r3, r3, #1
 2705 11d4 DAB2     		uxtb	r2, r3
 2706 11d6 3B6C     		ldr	r3, [r7, #64]
 2707 11d8 83F84420 		strb	r2, [r3, #68]
 967:build/openmote-cc2538_armgcc/openstack/03a-IPHC/iphc.c ****                  break;
 2708              		.loc 1 967 0
 2709 11dc 09E0     		b	.L162
 2710              	.L156:
 968:build/openmote-cc2538_armgcc/openstack/03a-IPHC/iphc.c ****               case IPHC_DAM_16B:
 969:build/openmote-cc2538_armgcc/openstack/03a-IPHC/iphc.c ****                  // tengfei: todo
 970:build/openmote-cc2538_armgcc/openstack/03a-IPHC/iphc.c ****                  break;
 971:build/openmote-cc2538_armgcc/openstack/03a-IPHC/iphc.c ****               case IPHC_DAM_64B:
 972:build/openmote-cc2538_armgcc/openstack/03a-IPHC/iphc.c ****                  // tengfei: todo
 973:build/openmote-cc2538_armgcc/openstack/03a-IPHC/iphc.c ****                  break;
 974:build/openmote-cc2538_armgcc/openstack/03a-IPHC/iphc.c ****               case IPHC_DAM_128B:
 975:build/openmote-cc2538_armgcc/openstack/03a-IPHC/iphc.c ****                  // tengfei: todo
 976:build/openmote-cc2538_armgcc/openstack/03a-IPHC/iphc.c ****                  break;
 977:build/openmote-cc2538_armgcc/openstack/03a-IPHC/iphc.c ****               default:
 978:build/openmote-cc2538_armgcc/openstack/03a-IPHC/iphc.c ****                  openserial_printError(
 979:build/openmote-cc2538_armgcc/openstack/03a-IPHC/iphc.c ****                     COMPONENT_IPHC,
 980:build/openmote-cc2538_armgcc/openstack/03a-IPHC/iphc.c ****                     ERR_6LOWPAN_UNSUPPORTED,
 981:build/openmote-cc2538_armgcc/openstack/03a-IPHC/iphc.c ****                     (errorparameter_t)10,
 982:build/openmote-cc2538_armgcc/openstack/03a-IPHC/iphc.c ****                     (errorparameter_t)(*dam)
 2711              		.loc 1 982 0
 2712 11de BB6B     		ldr	r3, [r7, #56]
 2713 11e0 1B78     		ldrb	r3, [r3]	@ zero_extendqisi2
 978:build/openmote-cc2538_armgcc/openstack/03a-IPHC/iphc.c ****                     COMPONENT_IPHC,
 2714              		.loc 1 978 0
 2715 11e2 9BB2     		uxth	r3, r3
 2716 11e4 1120     		movs	r0, #17
 2717 11e6 0C21     		movs	r1, #12
 2718 11e8 0A22     		movs	r2, #10
 2719 11ea FFF7FEFF 		bl	openserial_printError
 983:build/openmote-cc2538_armgcc/openstack/03a-IPHC/iphc.c ****                  );
 984:build/openmote-cc2538_armgcc/openstack/03a-IPHC/iphc.c ****                  break;
 2720              		.loc 1 984 0
 2721 11ee 00E0     		b	.L162
 2722              	.L182:
 976:build/openmote-cc2538_armgcc/openstack/03a-IPHC/iphc.c ****               default:
 2723              		.loc 1 976 0
 2724 11f0 00BF     		nop
 2725              	.L162:
 2726 11f2 8FE0     		b	.L163
 2727              	.L155:
 985:build/openmote-cc2538_armgcc/openstack/03a-IPHC/iphc.c ****            }
 986:build/openmote-cc2538_armgcc/openstack/03a-IPHC/iphc.c ****        } else {
 987:build/openmote-cc2538_armgcc/openstack/03a-IPHC/iphc.c ****            switch (*dam) {
 2728              		.loc 1 987 0
 2729 11f4 BB6B     		ldr	r3, [r7, #56]
 2730 11f6 1B78     		ldrb	r3, [r3]	@ zero_extendqisi2
 2731 11f8 032B     		cmp	r3, #3
 2732 11fa 00F28280 		bhi	.L164
 2733 11fe 01A2     		adr	r2, .L166
 2734 1200 52F823F0 		ldr	pc, [r2, r3, lsl #2]
 2735              		.p2align 2
 2736              	.L166:
 2737 1204 CD120000 		.word	.L165+1
 2738 1208 85120000 		.word	.L167+1
 2739 120c 35120000 		.word	.L168+1
 2740 1210 15120000 		.word	.L169+1
 2741              		.p2align 1
 2742              	.L169:
 988:build/openmote-cc2538_armgcc/openstack/03a-IPHC/iphc.c ****               case IPHC_DAM_ELIDED:
 989:build/openmote-cc2538_armgcc/openstack/03a-IPHC/iphc.c ****                  packetfunctions_mac64bToIp128b(idmanager_getMyID(ADDR_PREFIX),idmanager_getMyID(AD
 2743              		.loc 1 989 0
 2744 1214 0520     		movs	r0, #5
 2745 1216 FFF7FEFF 		bl	idmanager_getMyID
 2746 121a 0446     		mov	r4, r0
 2747 121c 0220     		movs	r0, #2
 2748 121e FFF7FEFF 		bl	idmanager_getMyID
 2749 1222 0246     		mov	r2, r0
 2750 1224 3B6C     		ldr	r3, [r7, #64]
 2751 1226 3333     		adds	r3, r3, #51
 2752 1228 2046     		mov	r0, r4
 2753 122a 1146     		mov	r1, r2
 2754 122c 1A46     		mov	r2, r3
 2755 122e FFF7FEFF 		bl	packetfunctions_mac64bToIp128b
 990:build/openmote-cc2538_armgcc/openstack/03a-IPHC/iphc.c ****                  break;
 2756              		.loc 1 990 0
 2757 1232 6FE0     		b	.L163
 2758              	.L168:
 991:build/openmote-cc2538_armgcc/openstack/03a-IPHC/iphc.c ****               case IPHC_DAM_16B:
 992:build/openmote-cc2538_armgcc/openstack/03a-IPHC/iphc.c ****                  packetfunctions_readAddress(((uint8_t*)(msg->payload+ipv6_header->header_length+pr
 2759              		.loc 1 992 0
 2760 1234 FB6B     		ldr	r3, [r7, #60]
 2761 1236 5A68     		ldr	r2, [r3, #4]
 2762 1238 3B6C     		ldr	r3, [r7, #64]
 2763 123a 93F84430 		ldrb	r3, [r3, #68]	@ zero_extendqisi2
 2764 123e 1946     		mov	r1, r3
 2765 1240 97F84430 		ldrb	r3, [r7, #68]	@ zero_extendqisi2
 2766 1244 0B44     		add	r3, r3, r1
 2767 1246 1344     		add	r3, r3, r2
 2768 1248 1846     		mov	r0, r3
 2769 124a 0121     		movs	r1, #1
 2770 124c FA68     		ldr	r2, [r7, #12]
 2771 124e 0023     		movs	r3, #0
 2772 1250 FFF7FEFF 		bl	packetfunctions_readAddress
 993:build/openmote-cc2538_armgcc/openstack/03a-IPHC/iphc.c ****                  ipv6_header->header_length += 2*sizeof(uint8_t);
 2773              		.loc 1 993 0
 2774 1254 3B6C     		ldr	r3, [r7, #64]
 2775 1256 93F84430 		ldrb	r3, [r3, #68]	@ zero_extendqisi2
 2776 125a 0233     		adds	r3, r3, #2
 2777 125c DAB2     		uxtb	r2, r3
 2778 125e 3B6C     		ldr	r3, [r7, #64]
 2779 1260 83F84420 		strb	r2, [r3, #68]
 994:build/openmote-cc2538_armgcc/openstack/03a-IPHC/iphc.c ****                  packetfunctions_mac16bToMac64b(temp_addr_16b,temp_addr_64b);
 2780              		.loc 1 994 0
 2781 1264 F868     		ldr	r0, [r7, #12]
 2782 1266 B968     		ldr	r1, [r7, #8]
 2783 1268 FFF7FEFF 		bl	packetfunctions_mac16bToMac64b
 995:build/openmote-cc2538_armgcc/openstack/03a-IPHC/iphc.c ****                  packetfunctions_mac64bToIp128b(idmanager_getMyID(ADDR_PREFIX),temp_addr_64b,&ipv6_
 2784              		.loc 1 995 0
 2785 126c 0520     		movs	r0, #5
 2786 126e FFF7FEFF 		bl	idmanager_getMyID
 2787 1272 0246     		mov	r2, r0
 2788 1274 3B6C     		ldr	r3, [r7, #64]
 2789 1276 3333     		adds	r3, r3, #51
 2790 1278 1046     		mov	r0, r2
 2791 127a B968     		ldr	r1, [r7, #8]
 2792 127c 1A46     		mov	r2, r3
 2793 127e FFF7FEFF 		bl	packetfunctions_mac64bToIp128b
 996:build/openmote-cc2538_armgcc/openstack/03a-IPHC/iphc.c ****                  break;
 2794              		.loc 1 996 0
 2795 1282 47E0     		b	.L163
 2796              	.L167:
 997:build/openmote-cc2538_armgcc/openstack/03a-IPHC/iphc.c ****               case IPHC_DAM_64B:
 998:build/openmote-cc2538_armgcc/openstack/03a-IPHC/iphc.c ****                  packetfunctions_readAddress(((uint8_t*)(msg->payload+ipv6_header->header_length+pr
 2797              		.loc 1 998 0
 2798 1284 FB6B     		ldr	r3, [r7, #60]
 2799 1286 5A68     		ldr	r2, [r3, #4]
 2800 1288 3B6C     		ldr	r3, [r7, #64]
 2801 128a 93F84430 		ldrb	r3, [r3, #68]	@ zero_extendqisi2
 2802 128e 1946     		mov	r1, r3
 2803 1290 97F84430 		ldrb	r3, [r7, #68]	@ zero_extendqisi2
 2804 1294 0B44     		add	r3, r3, r1
 2805 1296 1344     		add	r3, r3, r2
 2806 1298 1846     		mov	r0, r3
 2807 129a 0221     		movs	r1, #2
 2808 129c BA68     		ldr	r2, [r7, #8]
 2809 129e 0023     		movs	r3, #0
 2810 12a0 FFF7FEFF 		bl	packetfunctions_readAddress
 999:build/openmote-cc2538_armgcc/openstack/03a-IPHC/iphc.c ****                  ipv6_header->header_length += 8*sizeof(uint8_t);
 2811              		.loc 1 999 0
 2812 12a4 3B6C     		ldr	r3, [r7, #64]
 2813 12a6 93F84430 		ldrb	r3, [r3, #68]	@ zero_extendqisi2
 2814 12aa 0833     		adds	r3, r3, #8
 2815 12ac DAB2     		uxtb	r2, r3
 2816 12ae 3B6C     		ldr	r3, [r7, #64]
 2817 12b0 83F84420 		strb	r2, [r3, #68]
1000:build/openmote-cc2538_armgcc/openstack/03a-IPHC/iphc.c ****                  packetfunctions_mac64bToIp128b(idmanager_getMyID(ADDR_PREFIX),temp_addr_64b,&ipv6_
 2818              		.loc 1 1000 0
 2819 12b4 0520     		movs	r0, #5
 2820 12b6 FFF7FEFF 		bl	idmanager_getMyID
 2821 12ba 0246     		mov	r2, r0
 2822 12bc 3B6C     		ldr	r3, [r7, #64]
 2823 12be 3333     		adds	r3, r3, #51
 2824 12c0 1046     		mov	r0, r2
 2825 12c2 B968     		ldr	r1, [r7, #8]
 2826 12c4 1A46     		mov	r2, r3
 2827 12c6 FFF7FEFF 		bl	packetfunctions_mac64bToIp128b
1001:build/openmote-cc2538_armgcc/openstack/03a-IPHC/iphc.c ****                  break;
 2828              		.loc 1 1001 0
 2829 12ca 23E0     		b	.L163
 2830              	.L165:
1002:build/openmote-cc2538_armgcc/openstack/03a-IPHC/iphc.c ****               case IPHC_DAM_128B:
1003:build/openmote-cc2538_armgcc/openstack/03a-IPHC/iphc.c ****                  packetfunctions_readAddress(((uint8_t*)(msg->payload+ipv6_header->header_length+pr
 2831              		.loc 1 1003 0
 2832 12cc FB6B     		ldr	r3, [r7, #60]
 2833 12ce 5A68     		ldr	r2, [r3, #4]
 2834 12d0 3B6C     		ldr	r3, [r7, #64]
 2835 12d2 93F84430 		ldrb	r3, [r3, #68]	@ zero_extendqisi2
 2836 12d6 1946     		mov	r1, r3
 2837 12d8 97F84430 		ldrb	r3, [r7, #68]	@ zero_extendqisi2
 2838 12dc 0B44     		add	r3, r3, r1
 2839 12de 1A44     		add	r2, r2, r3
 2840 12e0 3B6C     		ldr	r3, [r7, #64]
 2841 12e2 3333     		adds	r3, r3, #51
 2842 12e4 1046     		mov	r0, r2
 2843 12e6 0321     		movs	r1, #3
 2844 12e8 1A46     		mov	r2, r3
 2845 12ea 0023     		movs	r3, #0
 2846 12ec FFF7FEFF 		bl	packetfunctions_readAddress
1004:build/openmote-cc2538_armgcc/openstack/03a-IPHC/iphc.c ****                  ipv6_header->header_length += 16*sizeof(uint8_t);
 2847              		.loc 1 1004 0
 2848 12f0 3B6C     		ldr	r3, [r7, #64]
 2849 12f2 93F84430 		ldrb	r3, [r3, #68]	@ zero_extendqisi2
 2850 12f6 1033     		adds	r3, r3, #16
 2851 12f8 DAB2     		uxtb	r2, r3
 2852 12fa 3B6C     		ldr	r3, [r7, #64]
 2853 12fc 83F84420 		strb	r2, [r3, #68]
1005:build/openmote-cc2538_armgcc/openstack/03a-IPHC/iphc.c ****                  break;
 2854              		.loc 1 1005 0
 2855 1300 08E0     		b	.L163
 2856              	.L164:
1006:build/openmote-cc2538_armgcc/openstack/03a-IPHC/iphc.c ****               default:
1007:build/openmote-cc2538_armgcc/openstack/03a-IPHC/iphc.c ****                  openserial_printError(
1008:build/openmote-cc2538_armgcc/openstack/03a-IPHC/iphc.c ****                     COMPONENT_IPHC,
1009:build/openmote-cc2538_armgcc/openstack/03a-IPHC/iphc.c ****                     ERR_6LOWPAN_UNSUPPORTED,
1010:build/openmote-cc2538_armgcc/openstack/03a-IPHC/iphc.c ****                     (errorparameter_t)10,
1011:build/openmote-cc2538_armgcc/openstack/03a-IPHC/iphc.c ****                     (errorparameter_t)(*dam)
 2857              		.loc 1 1011 0
 2858 1302 BB6B     		ldr	r3, [r7, #56]
 2859 1304 1B78     		ldrb	r3, [r3]	@ zero_extendqisi2
1007:build/openmote-cc2538_armgcc/openstack/03a-IPHC/iphc.c ****                     COMPONENT_IPHC,
 2860              		.loc 1 1007 0
 2861 1306 9BB2     		uxth	r3, r3
 2862 1308 1120     		movs	r0, #17
 2863 130a 0C21     		movs	r1, #12
 2864 130c 0A22     		movs	r2, #10
 2865 130e FFF7FEFF 		bl	openserial_printError
1012:build/openmote-cc2538_armgcc/openstack/03a-IPHC/iphc.c ****                  );
1013:build/openmote-cc2538_armgcc/openstack/03a-IPHC/iphc.c ****                  break;
 2866              		.loc 1 1013 0
 2867 1312 00BF     		nop
 2868              	.L163:
1014:build/openmote-cc2538_armgcc/openstack/03a-IPHC/iphc.c ****            }
1015:build/openmote-cc2538_armgcc/openstack/03a-IPHC/iphc.c ****        }
1016:build/openmote-cc2538_armgcc/openstack/03a-IPHC/iphc.c ****       //TODO, check NH if compressed no?
1017:build/openmote-cc2538_armgcc/openstack/03a-IPHC/iphc.c ****       if (ipv6_header->next_header_compressed){
 2869              		.loc 1 1017 0
 2870 1314 3B6C     		ldr	r3, [r7, #64]
 2871 1316 1B7A     		ldrb	r3, [r3, #8]	@ zero_extendqisi2
 2872 1318 002B     		cmp	r3, #0
 2873 131a 13D0     		beq	.L170
1018:build/openmote-cc2538_armgcc/openstack/03a-IPHC/iphc.c ****           lowpan_nhc = *(msg->payload+ipv6_header->header_length+previousLen);//get the next elemen
 2874              		.loc 1 1018 0
 2875 131c FB6B     		ldr	r3, [r7, #60]
 2876 131e 5A68     		ldr	r2, [r3, #4]
 2877 1320 3B6C     		ldr	r3, [r7, #64]
 2878 1322 93F84430 		ldrb	r3, [r3, #68]	@ zero_extendqisi2
 2879 1326 1946     		mov	r1, r3
 2880 1328 97F84430 		ldrb	r3, [r7, #68]	@ zero_extendqisi2
 2881 132c 0B44     		add	r3, r3, r1
 2882 132e 1344     		add	r3, r3, r2
 2883 1330 1B78     		ldrb	r3, [r3]
 2884 1332 3B75     		strb	r3, [r7, #20]
1019:build/openmote-cc2538_armgcc/openstack/03a-IPHC/iphc.c ****           if ((lowpan_nhc & NHC_UDP_MASK) == NHC_UDP_ID){ //check if it is UDP LOWPAN_NHC
 2885              		.loc 1 1019 0
 2886 1334 3B7D     		ldrb	r3, [r7, #20]	@ zero_extendqisi2
 2887 1336 03F0F803 		and	r3, r3, #248
 2888 133a F02B     		cmp	r3, #240
 2889 133c 02D1     		bne	.L170
1020:build/openmote-cc2538_armgcc/openstack/03a-IPHC/iphc.c ****              ipv6_header->next_header = IANA_UDP;
 2890              		.loc 1 1020 0
 2891 133e 3B6C     		ldr	r3, [r7, #64]
 2892 1340 1122     		movs	r2, #17
 2893 1342 5A72     		strb	r2, [r3, #9]
 2894              	.L170:
1017:build/openmote-cc2538_armgcc/openstack/03a-IPHC/iphc.c ****           lowpan_nhc = *(msg->payload+ipv6_header->header_length+previousLen);//get the next elemen
 2895              		.loc 1 1017 0
 2896 1344 C4E0     		b	.L171
 2897              	.L129:
1021:build/openmote-cc2538_armgcc/openstack/03a-IPHC/iphc.c ****           }
1022:build/openmote-cc2538_armgcc/openstack/03a-IPHC/iphc.c ****           else{
1023:build/openmote-cc2538_armgcc/openstack/03a-IPHC/iphc.c ****               //error?
1024:build/openmote-cc2538_armgcc/openstack/03a-IPHC/iphc.c ****           }
1025:build/openmote-cc2538_armgcc/openstack/03a-IPHC/iphc.c ****       }
1026:build/openmote-cc2538_armgcc/openstack/03a-IPHC/iphc.c ****     } else {
1027:build/openmote-cc2538_armgcc/openstack/03a-IPHC/iphc.c ****         // we are in 6LoRH now
1028:build/openmote-cc2538_armgcc/openstack/03a-IPHC/iphc.c ****         if (page == 1){
 2898              		.loc 1 1028 0
 2899 1346 FB7D     		ldrb	r3, [r7, #23]	@ zero_extendqisi2
 2900 1348 012B     		cmp	r3, #1
 2901 134a 40F0C180 		bne	.L171
1029:build/openmote-cc2538_armgcc/openstack/03a-IPHC/iphc.c ****             temp_8b = *(uint8_t*)(msg->payload+ipv6_header->header_length+previousLen);
 2902              		.loc 1 1029 0
 2903 134e FB6B     		ldr	r3, [r7, #60]
 2904 1350 5A68     		ldr	r2, [r3, #4]
 2905 1352 3B6C     		ldr	r3, [r7, #64]
 2906 1354 93F84430 		ldrb	r3, [r3, #68]	@ zero_extendqisi2
 2907 1358 1946     		mov	r1, r3
 2908 135a 97F84430 		ldrb	r3, [r7, #68]	@ zero_extendqisi2
 2909 135e 0B44     		add	r3, r3, r1
 2910 1360 1344     		add	r3, r3, r2
 2911 1362 1B78     		ldrb	r3, [r3]
 2912 1364 BB75     		strb	r3, [r7, #22]
1030:build/openmote-cc2538_armgcc/openstack/03a-IPHC/iphc.c ****             if ((temp_8b & FORMAT_6LORH_MASK) == ELECTIVE_6LoRH){
 2913              		.loc 1 1030 0
 2914 1366 BB7D     		ldrb	r3, [r7, #22]	@ zero_extendqisi2
 2915 1368 03F0E003 		and	r3, r3, #224
 2916 136c A02B     		cmp	r3, #160
 2917 136e 40F0AF80 		bne	.L171
1031:build/openmote-cc2538_armgcc/openstack/03a-IPHC/iphc.c ****                 // this is an elective 6LoRH
1032:build/openmote-cc2538_armgcc/openstack/03a-IPHC/iphc.c ****                 ipinip_length = temp_8b & IPINIP_LEN_6LORH_MASK;
 2918              		.loc 1 1032 0
 2919 1372 BB7D     		ldrb	r3, [r7, #22]
 2920 1374 03F01F03 		and	r3, r3, #31
 2921 1378 7B75     		strb	r3, [r7, #21]
1033:build/openmote-cc2538_armgcc/openstack/03a-IPHC/iphc.c ****                 ipv6_header->header_length += 1;
 2922              		.loc 1 1033 0
 2923 137a 3B6C     		ldr	r3, [r7, #64]
 2924 137c 93F84430 		ldrb	r3, [r3, #68]	@ zero_extendqisi2
 2925 1380 0133     		adds	r3, r3, #1
 2926 1382 DAB2     		uxtb	r2, r3
 2927 1384 3B6C     		ldr	r3, [r7, #64]
 2928 1386 83F84420 		strb	r2, [r3, #68]
1034:build/openmote-cc2538_armgcc/openstack/03a-IPHC/iphc.c ****                 temp_8b = *(uint8_t*)(msg->payload+ipv6_header->header_length+previousLen);
 2929              		.loc 1 1034 0
 2930 138a FB6B     		ldr	r3, [r7, #60]
 2931 138c 5A68     		ldr	r2, [r3, #4]
 2932 138e 3B6C     		ldr	r3, [r7, #64]
 2933 1390 93F84430 		ldrb	r3, [r3, #68]	@ zero_extendqisi2
 2934 1394 1946     		mov	r1, r3
 2935 1396 97F84430 		ldrb	r3, [r7, #68]	@ zero_extendqisi2
 2936 139a 0B44     		add	r3, r3, r1
 2937 139c 1344     		add	r3, r3, r2
 2938 139e 1B78     		ldrb	r3, [r3]
 2939 13a0 BB75     		strb	r3, [r7, #22]
1035:build/openmote-cc2538_armgcc/openstack/03a-IPHC/iphc.c ****                 if (temp_8b == IPINIP_TYPE_6LORH){
 2940              		.loc 1 1035 0
 2941 13a2 BB7D     		ldrb	r3, [r7, #22]	@ zero_extendqisi2
 2942 13a4 062B     		cmp	r3, #6
 2943 13a6 40F09380 		bne	.L171
1036:build/openmote-cc2538_armgcc/openstack/03a-IPHC/iphc.c ****                     // this is IpinIP 6LoRH
1037:build/openmote-cc2538_armgcc/openstack/03a-IPHC/iphc.c ****                     ipv6_header->header_length += 1;
 2944              		.loc 1 1037 0
 2945 13aa 3B6C     		ldr	r3, [r7, #64]
 2946 13ac 93F84430 		ldrb	r3, [r3, #68]	@ zero_extendqisi2
 2947 13b0 0133     		adds	r3, r3, #1
 2948 13b2 DAB2     		uxtb	r2, r3
 2949 13b4 3B6C     		ldr	r3, [r7, #64]
 2950 13b6 83F84420 		strb	r2, [r3, #68]
1038:build/openmote-cc2538_armgcc/openstack/03a-IPHC/iphc.c ****                     ipv6_header->hop_limit = *(uint8_t*)(msg->payload+ipv6_header->header_length+pr
 2951              		.loc 1 1038 0
 2952 13ba FB6B     		ldr	r3, [r7, #60]
 2953 13bc 5A68     		ldr	r2, [r3, #4]
 2954 13be 3B6C     		ldr	r3, [r7, #64]
 2955 13c0 93F84430 		ldrb	r3, [r3, #68]	@ zero_extendqisi2
 2956 13c4 1946     		mov	r1, r3
 2957 13c6 97F84430 		ldrb	r3, [r7, #68]	@ zero_extendqisi2
 2958 13ca 0B44     		add	r3, r3, r1
 2959 13cc 1344     		add	r3, r3, r2
 2960 13ce 1A78     		ldrb	r2, [r3]	@ zero_extendqisi2
 2961 13d0 3B6C     		ldr	r3, [r7, #64]
 2962 13d2 83F82020 		strb	r2, [r3, #32]
1039:build/openmote-cc2538_armgcc/openstack/03a-IPHC/iphc.c ****                     ipv6_header->header_length += 1;
 2963              		.loc 1 1039 0
 2964 13d6 3B6C     		ldr	r3, [r7, #64]
 2965 13d8 93F84430 		ldrb	r3, [r3, #68]	@ zero_extendqisi2
 2966 13dc 0133     		adds	r3, r3, #1
 2967 13de DAB2     		uxtb	r2, r3
 2968 13e0 3B6C     		ldr	r3, [r7, #64]
 2969 13e2 83F84420 		strb	r2, [r3, #68]
1040:build/openmote-cc2538_armgcc/openstack/03a-IPHC/iphc.c ****                     // destination address maybe is the first address in RH3 6LoRH OR dest adress i
1041:build/openmote-cc2538_armgcc/openstack/03a-IPHC/iphc.c ****                     // update destination address if necessary after the processing
1042:build/openmote-cc2538_armgcc/openstack/03a-IPHC/iphc.c ****                     ipv6_header->dest.type = ADDR_NONE;
 2970              		.loc 1 1042 0
 2971 13e6 3B6C     		ldr	r3, [r7, #64]
 2972 13e8 0022     		movs	r2, #0
 2973 13ea 83F83320 		strb	r2, [r3, #51]
1043:build/openmote-cc2538_armgcc/openstack/03a-IPHC/iphc.c ****                     memset(&(ipv6_header->dest.addr_128b[0]),0,16);
 2974              		.loc 1 1043 0
 2975 13ee 3B6C     		ldr	r3, [r7, #64]
 2976 13f0 3433     		adds	r3, r3, #52
 2977 13f2 1846     		mov	r0, r3
 2978 13f4 0021     		movs	r1, #0
 2979 13f6 1022     		movs	r2, #16
 2980 13f8 FFF7FEFF 		bl	memset
1044:build/openmote-cc2538_armgcc/openstack/03a-IPHC/iphc.c ****                     if (ipinip_length == 1){
 2981              		.loc 1 1044 0
 2982 13fc 7B7D     		ldrb	r3, [r7, #21]	@ zero_extendqisi2
 2983 13fe 012B     		cmp	r3, #1
 2984 1400 12D1     		bne	.L173
1045:build/openmote-cc2538_armgcc/openstack/03a-IPHC/iphc.c ****                         // source address is root
1046:build/openmote-cc2538_armgcc/openstack/03a-IPHC/iphc.c ****                         memset(&(ipv6_header->src),0,sizeof(open_addr_t));
 2985              		.loc 1 1046 0
 2986 1402 3B6C     		ldr	r3, [r7, #64]
 2987 1404 2233     		adds	r3, r3, #34
 2988 1406 1846     		mov	r0, r3
 2989 1408 0021     		movs	r1, #0
 2990 140a 1122     		movs	r2, #17
 2991 140c FFF7FEFF 		bl	memset
1047:build/openmote-cc2538_armgcc/openstack/03a-IPHC/iphc.c ****                         packetfunctions_mac64bToIp128b(idmanager_getMyID(ADDR_PREFIX),(open_addr_t*
 2992              		.loc 1 1047 0
 2993 1410 0520     		movs	r0, #5
 2994 1412 FFF7FEFF 		bl	idmanager_getMyID
 2995 1416 0246     		mov	r2, r0
 2996 1418 3B6C     		ldr	r3, [r7, #64]
 2997 141a 2233     		adds	r3, r3, #34
 2998 141c 1046     		mov	r0, r2
 2999 141e 1449     		ldr	r1, .L183+4
 3000 1420 1A46     		mov	r2, r3
 3001 1422 FFF7FEFF 		bl	packetfunctions_mac64bToIp128b
 3002 1426 53E0     		b	.L171
 3003              	.L173:
1048:build/openmote-cc2538_armgcc/openstack/03a-IPHC/iphc.c ****                         // destination address is the first address in RH3 6LoRH OR dest adress in 
1049:build/openmote-cc2538_armgcc/openstack/03a-IPHC/iphc.c ****                     } else{
1050:build/openmote-cc2538_armgcc/openstack/03a-IPHC/iphc.c ****                         switch(ipinip_length-1){
 3004              		.loc 1 1050 0
 3005 1428 7B7D     		ldrb	r3, [r7, #21]	@ zero_extendqisi2
 3006 142a 013B     		subs	r3, r3, #1
 3007 142c 082B     		cmp	r3, #8
 3008 142e 21D0     		beq	.L175
 3009 1430 102B     		cmp	r3, #16
 3010 1432 43D1     		bne	.L180
1051:build/openmote-cc2538_armgcc/openstack/03a-IPHC/iphc.c ****                         case 16:
1052:build/openmote-cc2538_armgcc/openstack/03a-IPHC/iphc.c ****                              // this is source address 
1053:build/openmote-cc2538_armgcc/openstack/03a-IPHC/iphc.c ****                              packetfunctions_readAddress(((uint8_t*)(msg->payload+ipv6_header->head
 3011              		.loc 1 1053 0
 3012 1434 FB6B     		ldr	r3, [r7, #60]
 3013 1436 5A68     		ldr	r2, [r3, #4]
 3014 1438 3B6C     		ldr	r3, [r7, #64]
 3015 143a 93F84430 		ldrb	r3, [r3, #68]	@ zero_extendqisi2
 3016 143e 1946     		mov	r1, r3
 3017 1440 97F84430 		ldrb	r3, [r7, #68]	@ zero_extendqisi2
 3018 1444 0B44     		add	r3, r3, r1
 3019 1446 1A44     		add	r2, r2, r3
 3020 1448 3B6C     		ldr	r3, [r7, #64]
 3021 144a 2233     		adds	r3, r3, #34
 3022 144c 1046     		mov	r0, r2
 3023 144e 0321     		movs	r1, #3
 3024 1450 1A46     		mov	r2, r3
 3025 1452 0023     		movs	r3, #0
 3026 1454 FFF7FEFF 		bl	packetfunctions_readAddress
1054:build/openmote-cc2538_armgcc/openstack/03a-IPHC/iphc.c ****                              ipv6_header->header_length += 16*sizeof(uint8_t);
 3027              		.loc 1 1054 0
 3028 1458 3B6C     		ldr	r3, [r7, #64]
 3029 145a 93F84430 		ldrb	r3, [r3, #68]	@ zero_extendqisi2
 3030 145e 1033     		adds	r3, r3, #16
 3031 1460 DAB2     		uxtb	r2, r3
 3032 1462 3B6C     		ldr	r3, [r7, #64]
 3033 1464 83F84420 		strb	r2, [r3, #68]
1055:build/openmote-cc2538_armgcc/openstack/03a-IPHC/iphc.c ****                              break;
 3034              		.loc 1 1055 0
 3035 1468 32E0     		b	.L172
 3036              	.L184:
 3037 146a 00BF     		.align	2
 3038              	.L183:
 3039 146c 64000000 		.word	all_routers_multicast
 3040 1470 74000000 		.word	dagroot_mac64b
 3041              	.L175:
1056:build/openmote-cc2538_armgcc/openstack/03a-IPHC/iphc.c ****                         case 8:
1057:build/openmote-cc2538_armgcc/openstack/03a-IPHC/iphc.c ****                              // this is source address 
1058:build/openmote-cc2538_armgcc/openstack/03a-IPHC/iphc.c ****                              packetfunctions_readAddress(((uint8_t*)(msg->payload+ipv6_header->head
 3042              		.loc 1 1058 0
 3043 1474 FB6B     		ldr	r3, [r7, #60]
 3044 1476 5A68     		ldr	r2, [r3, #4]
 3045 1478 3B6C     		ldr	r3, [r7, #64]
 3046 147a 93F84430 		ldrb	r3, [r3, #68]	@ zero_extendqisi2
 3047 147e 1946     		mov	r1, r3
 3048 1480 97F84430 		ldrb	r3, [r7, #68]	@ zero_extendqisi2
 3049 1484 0B44     		add	r3, r3, r1
 3050 1486 1344     		add	r3, r3, r2
 3051 1488 1846     		mov	r0, r3
 3052 148a 0221     		movs	r1, #2
 3053 148c BA68     		ldr	r2, [r7, #8]
 3054 148e 0023     		movs	r3, #0
 3055 1490 FFF7FEFF 		bl	packetfunctions_readAddress
1059:build/openmote-cc2538_armgcc/openstack/03a-IPHC/iphc.c ****                              ipv6_header->header_length += 8*sizeof(uint8_t);
 3056              		.loc 1 1059 0
 3057 1494 3B6C     		ldr	r3, [r7, #64]
 3058 1496 93F84430 		ldrb	r3, [r3, #68]	@ zero_extendqisi2
 3059 149a 0833     		adds	r3, r3, #8
 3060 149c DAB2     		uxtb	r2, r3
 3061 149e 3B6C     		ldr	r3, [r7, #64]
 3062 14a0 83F84420 		strb	r2, [r3, #68]
1060:build/openmote-cc2538_armgcc/openstack/03a-IPHC/iphc.c ****                              packetfunctions_mac64bToIp128b(idmanager_getMyID(ADDR_PREFIX),temp_add
 3063              		.loc 1 1060 0
 3064 14a4 0520     		movs	r0, #5
 3065 14a6 FFF7FEFF 		bl	idmanager_getMyID
 3066 14aa 0246     		mov	r2, r0
 3067 14ac 3B6C     		ldr	r3, [r7, #64]
 3068 14ae 2233     		adds	r3, r3, #34
 3069 14b0 1046     		mov	r0, r2
 3070 14b2 B968     		ldr	r1, [r7, #8]
 3071 14b4 1A46     		mov	r2, r3
 3072 14b6 FFF7FEFF 		bl	packetfunctions_mac64bToIp128b
1061:build/openmote-cc2538_armgcc/openstack/03a-IPHC/iphc.c ****                              break;
 3073              		.loc 1 1061 0
 3074 14ba 09E0     		b	.L172
 3075              	.L180:
1062:build/openmote-cc2538_armgcc/openstack/03a-IPHC/iphc.c ****                         default:
1063:build/openmote-cc2538_armgcc/openstack/03a-IPHC/iphc.c ****                              // do not support other length yet and destination address will be in 
1064:build/openmote-cc2538_armgcc/openstack/03a-IPHC/iphc.c ****                              openserial_printError(
 3076              		.loc 1 1064 0
 3077 14bc 7B7D     		ldrb	r3, [r7, #21]	@ zero_extendqisi2
 3078 14be 9BB2     		uxth	r3, r3
 3079 14c0 013B     		subs	r3, r3, #1
 3080 14c2 9BB2     		uxth	r3, r3
 3081 14c4 1120     		movs	r0, #17
 3082 14c6 0C21     		movs	r1, #12
 3083 14c8 0C22     		movs	r2, #12
 3084 14ca FFF7FEFF 		bl	openserial_printError
 3085 14ce FFE7     		b	.L171
 3086              	.L172:
 3087              	.L171:
1065:build/openmote-cc2538_armgcc/openstack/03a-IPHC/iphc.c ****                                 COMPONENT_IPHC,
1066:build/openmote-cc2538_armgcc/openstack/03a-IPHC/iphc.c ****                                 ERR_6LOWPAN_UNSUPPORTED,
1067:build/openmote-cc2538_armgcc/openstack/03a-IPHC/iphc.c ****                                 (errorparameter_t)12,
1068:build/openmote-cc2538_armgcc/openstack/03a-IPHC/iphc.c ****                                 (errorparameter_t)(ipinip_length-1)
1069:build/openmote-cc2538_armgcc/openstack/03a-IPHC/iphc.c ****                              );
1070:build/openmote-cc2538_armgcc/openstack/03a-IPHC/iphc.c ****                         }
1071:build/openmote-cc2538_armgcc/openstack/03a-IPHC/iphc.c ****                     }
1072:build/openmote-cc2538_armgcc/openstack/03a-IPHC/iphc.c ****                 }
1073:build/openmote-cc2538_armgcc/openstack/03a-IPHC/iphc.c **** 
1074:build/openmote-cc2538_armgcc/openstack/03a-IPHC/iphc.c ****             } else {
1075:build/openmote-cc2538_armgcc/openstack/03a-IPHC/iphc.c ****                 // ip in ip is elided: the followig is a critical 6lorh
1076:build/openmote-cc2538_armgcc/openstack/03a-IPHC/iphc.c ****                 // finish the ip header compression
1077:build/openmote-cc2538_armgcc/openstack/03a-IPHC/iphc.c ****             }
1078:build/openmote-cc2538_armgcc/openstack/03a-IPHC/iphc.c ****         }
1079:build/openmote-cc2538_armgcc/openstack/03a-IPHC/iphc.c ****     }
1080:build/openmote-cc2538_armgcc/openstack/03a-IPHC/iphc.c ****     return page;
 3088              		.loc 1 1080 0
 3089 14d0 FB7D     		ldrb	r3, [r7, #23]	@ zero_extendqisi2
1081:build/openmote-cc2538_armgcc/openstack/03a-IPHC/iphc.c **** }
 3090              		.loc 1 1081 0
 3091 14d2 1846     		mov	r0, r3
 3092 14d4 1837     		adds	r7, r7, #24
 3093              		.cfi_def_cfa_offset 16
 3094 14d6 BD46     		mov	sp, r7
 3095              		.cfi_def_cfa_register 13
 3096              		@ sp needed
 3097 14d8 B0BD     		pop	{r4, r5, r7, pc}
 3098              		.cfi_endproc
 3099              	.LFE7:
 3101 14da 00BF     		.align	2
 3102              		.global	iphc_prependIPv6HopByHopHeader
 3103              		.thumb
 3104              		.thumb_func
 3106              	iphc_prependIPv6HopByHopHeader:
 3107              	.LFB8:
1082:build/openmote-cc2538_armgcc/openstack/03a-IPHC/iphc.c **** 
1083:build/openmote-cc2538_armgcc/openstack/03a-IPHC/iphc.c **** //===== IPv6 hop-by-hop header
1084:build/openmote-cc2538_armgcc/openstack/03a-IPHC/iphc.c **** 
1085:build/openmote-cc2538_armgcc/openstack/03a-IPHC/iphc.c **** /**
1086:build/openmote-cc2538_armgcc/openstack/03a-IPHC/iphc.c **** \brief Prepend an IPv6 hop-by-hop header to a message.
1087:build/openmote-cc2538_armgcc/openstack/03a-IPHC/iphc.c **** 
1088:build/openmote-cc2538_armgcc/openstack/03a-IPHC/iphc.c **** \note The field are written in reverse order.
1089:build/openmote-cc2538_armgcc/openstack/03a-IPHC/iphc.c **** 
1090:build/openmote-cc2538_armgcc/openstack/03a-IPHC/iphc.c **** \param[in,out] msg             The message to prepend the header to.
1091:build/openmote-cc2538_armgcc/openstack/03a-IPHC/iphc.c **** \param[in]     nextheader      The next header value to use.
1092:build/openmote-cc2538_armgcc/openstack/03a-IPHC/iphc.c **** \param[in]     rpl_option      The RPL option to include.
1093:build/openmote-cc2538_armgcc/openstack/03a-IPHC/iphc.c **** */
1094:build/openmote-cc2538_armgcc/openstack/03a-IPHC/iphc.c **** void iphc_prependIPv6HopByHopHeader(
1095:build/openmote-cc2538_armgcc/openstack/03a-IPHC/iphc.c ****       OpenQueueEntry_t* msg,
1096:build/openmote-cc2538_armgcc/openstack/03a-IPHC/iphc.c ****       uint8_t           nextheader,
1097:build/openmote-cc2538_armgcc/openstack/03a-IPHC/iphc.c ****       rpl_option_ht*    rpl_option
1098:build/openmote-cc2538_armgcc/openstack/03a-IPHC/iphc.c ****    ){
 3108              		.loc 1 1098 0
 3109              		.cfi_startproc
 3110              		@ args = 0, pretend = 0, frame = 24
 3111              		@ frame_needed = 1, uses_anonymous_args = 0
 3112 14dc 80B5     		push	{r7, lr}
 3113              		.cfi_def_cfa_offset 8
 3114              		.cfi_offset 7, -8
 3115              		.cfi_offset 14, -4
 3116 14de 86B0     		sub	sp, sp, #24
 3117              		.cfi_def_cfa_offset 32
 3118 14e0 00AF     		add	r7, sp, #0
 3119              		.cfi_def_cfa_register 7
 3120 14e2 F860     		str	r0, [r7, #12]
 3121 14e4 0B46     		mov	r3, r1
 3122 14e6 7A60     		str	r2, [r7, #4]
 3123 14e8 FB72     		strb	r3, [r7, #11]
1099:build/openmote-cc2538_armgcc/openstack/03a-IPHC/iphc.c ****    uint8_t temp_8b;
1100:build/openmote-cc2538_armgcc/openstack/03a-IPHC/iphc.c ****    
1101:build/openmote-cc2538_armgcc/openstack/03a-IPHC/iphc.c ****    if ((rpl_option->flags & K_FLAG) == 0){
 3124              		.loc 1 1101 0
 3125 14ea 7B68     		ldr	r3, [r7, #4]
 3126 14ec 5B78     		ldrb	r3, [r3, #1]	@ zero_extendqisi2
 3127 14ee 03F00103 		and	r3, r3, #1
 3128 14f2 002B     		cmp	r3, #0
 3129 14f4 17D1     		bne	.L186
1102:build/openmote-cc2538_armgcc/openstack/03a-IPHC/iphc.c ****       packetfunctions_reserveHeaderSize(msg,sizeof(uint16_t));
 3130              		.loc 1 1102 0
 3131 14f6 F868     		ldr	r0, [r7, #12]
 3132 14f8 0221     		movs	r1, #2
 3133 14fa FFF7FEFF 		bl	packetfunctions_reserveHeaderSize
1103:build/openmote-cc2538_armgcc/openstack/03a-IPHC/iphc.c ****       msg->payload[0] = (uint8_t)((rpl_option->senderRank&0xFF00)>>8);
 3134              		.loc 1 1103 0
 3135 14fe FB68     		ldr	r3, [r7, #12]
 3136 1500 5B68     		ldr	r3, [r3, #4]
 3137 1502 7A68     		ldr	r2, [r7, #4]
 3138 1504 B2F80320 		ldrh	r2, [r2, #3]	@ unaligned
 3139 1508 92B2     		uxth	r2, r2
 3140 150a 120A     		lsrs	r2, r2, #8
 3141 150c 92B2     		uxth	r2, r2
 3142 150e D2B2     		uxtb	r2, r2
 3143 1510 1A70     		strb	r2, [r3]
1104:build/openmote-cc2538_armgcc/openstack/03a-IPHC/iphc.c ****       msg->payload[1] = (uint8_t)(rpl_option->senderRank&0x00FF);
 3144              		.loc 1 1104 0
 3145 1512 FB68     		ldr	r3, [r7, #12]
 3146 1514 5B68     		ldr	r3, [r3, #4]
 3147 1516 0133     		adds	r3, r3, #1
 3148 1518 7A68     		ldr	r2, [r7, #4]
 3149 151a B2F80320 		ldrh	r2, [r2, #3]	@ unaligned
 3150 151e 92B2     		uxth	r2, r2
 3151 1520 D2B2     		uxtb	r2, r2
 3152 1522 1A70     		strb	r2, [r3]
 3153 1524 0DE0     		b	.L187
 3154              	.L186:
1105:build/openmote-cc2538_armgcc/openstack/03a-IPHC/iphc.c ****    } else {
1106:build/openmote-cc2538_armgcc/openstack/03a-IPHC/iphc.c ****       packetfunctions_reserveHeaderSize(msg,sizeof(uint8_t));
 3155              		.loc 1 1106 0
 3156 1526 F868     		ldr	r0, [r7, #12]
 3157 1528 0121     		movs	r1, #1
 3158 152a FFF7FEFF 		bl	packetfunctions_reserveHeaderSize
1107:build/openmote-cc2538_armgcc/openstack/03a-IPHC/iphc.c ****       *((uint8_t*)(msg->payload)) = (uint8_t)((rpl_option->senderRank&0xFF00)>>8);
 3159              		.loc 1 1107 0
 3160 152e FB68     		ldr	r3, [r7, #12]
 3161 1530 5B68     		ldr	r3, [r3, #4]
 3162 1532 7A68     		ldr	r2, [r7, #4]
 3163 1534 B2F80320 		ldrh	r2, [r2, #3]	@ unaligned
 3164 1538 92B2     		uxth	r2, r2
 3165 153a 120A     		lsrs	r2, r2, #8
 3166 153c 92B2     		uxth	r2, r2
 3167 153e D2B2     		uxtb	r2, r2
 3168 1540 1A70     		strb	r2, [r3]
 3169              	.L187:
1108:build/openmote-cc2538_armgcc/openstack/03a-IPHC/iphc.c ****    }
1109:build/openmote-cc2538_armgcc/openstack/03a-IPHC/iphc.c ****    
1110:build/openmote-cc2538_armgcc/openstack/03a-IPHC/iphc.c ****    if ((rpl_option->flags & I_FLAG) == 0){
 3170              		.loc 1 1110 0
 3171 1542 7B68     		ldr	r3, [r7, #4]
 3172 1544 5B78     		ldrb	r3, [r3, #1]	@ zero_extendqisi2
 3173 1546 03F00203 		and	r3, r3, #2
 3174 154a 002B     		cmp	r3, #0
 3175 154c 08D1     		bne	.L188
1111:build/openmote-cc2538_armgcc/openstack/03a-IPHC/iphc.c ****       packetfunctions_reserveHeaderSize(msg,sizeof(uint8_t));
 3176              		.loc 1 1111 0
 3177 154e F868     		ldr	r0, [r7, #12]
 3178 1550 0121     		movs	r1, #1
 3179 1552 FFF7FEFF 		bl	packetfunctions_reserveHeaderSize
1112:build/openmote-cc2538_armgcc/openstack/03a-IPHC/iphc.c ****       *((uint8_t*)(msg->payload)) = rpl_option->rplInstanceID;  
 3180              		.loc 1 1112 0
 3181 1556 FB68     		ldr	r3, [r7, #12]
 3182 1558 5B68     		ldr	r3, [r3, #4]
 3183 155a 7A68     		ldr	r2, [r7, #4]
 3184 155c 9278     		ldrb	r2, [r2, #2]	@ zero_extendqisi2
 3185 155e 1A70     		strb	r2, [r3]
 3186              	.L188:
1113:build/openmote-cc2538_armgcc/openstack/03a-IPHC/iphc.c ****    }
1114:build/openmote-cc2538_armgcc/openstack/03a-IPHC/iphc.c ****    
1115:build/openmote-cc2538_armgcc/openstack/03a-IPHC/iphc.c ****    packetfunctions_reserveHeaderSize(msg,sizeof(uint8_t));
 3187              		.loc 1 1115 0
 3188 1560 F868     		ldr	r0, [r7, #12]
 3189 1562 0121     		movs	r1, #1
 3190 1564 FFF7FEFF 		bl	packetfunctions_reserveHeaderSize
1116:build/openmote-cc2538_armgcc/openstack/03a-IPHC/iphc.c ****    *((uint8_t*)(msg->payload)) = RPI_6LOTH_TYPE;
 3191              		.loc 1 1116 0
 3192 1568 FB68     		ldr	r3, [r7, #12]
 3193 156a 5B68     		ldr	r3, [r3, #4]
 3194 156c 0522     		movs	r2, #5
 3195 156e 1A70     		strb	r2, [r3]
1117:build/openmote-cc2538_armgcc/openstack/03a-IPHC/iphc.c ****        
1118:build/openmote-cc2538_armgcc/openstack/03a-IPHC/iphc.c ****    temp_8b = CRITICAL_6LORH | rpl_option->flags; 
 3196              		.loc 1 1118 0
 3197 1570 7B68     		ldr	r3, [r7, #4]
 3198 1572 5B78     		ldrb	r3, [r3, #1]	@ zero_extendqisi2
 3199 1574 63F07F03 		orn	r3, r3, #127
 3200 1578 FB75     		strb	r3, [r7, #23]
1119:build/openmote-cc2538_armgcc/openstack/03a-IPHC/iphc.c ****    packetfunctions_reserveHeaderSize(msg,sizeof(uint8_t));
 3201              		.loc 1 1119 0
 3202 157a F868     		ldr	r0, [r7, #12]
 3203 157c 0121     		movs	r1, #1
 3204 157e FFF7FEFF 		bl	packetfunctions_reserveHeaderSize
1120:build/openmote-cc2538_armgcc/openstack/03a-IPHC/iphc.c ****    *((uint8_t*)(msg->payload)) = temp_8b;
 3205              		.loc 1 1120 0
 3206 1582 FB68     		ldr	r3, [r7, #12]
 3207 1584 5B68     		ldr	r3, [r3, #4]
 3208 1586 FA7D     		ldrb	r2, [r7, #23]
 3209 1588 1A70     		strb	r2, [r3]
1121:build/openmote-cc2538_armgcc/openstack/03a-IPHC/iphc.c **** }
 3210              		.loc 1 1121 0
 3211 158a 1837     		adds	r7, r7, #24
 3212              		.cfi_def_cfa_offset 8
 3213 158c BD46     		mov	sp, r7
 3214              		.cfi_def_cfa_register 13
 3215              		@ sp needed
 3216 158e 80BD     		pop	{r7, pc}
 3217              		.cfi_endproc
 3218              	.LFE8:
 3220              		.align	2
 3221              		.global	iphc_prependIPv6DeadlineHeader
 3222              		.thumb
 3223              		.thumb_func
 3225              	iphc_prependIPv6DeadlineHeader:
 3226              	.LFB9:
1122:build/openmote-cc2538_armgcc/openstack/03a-IPHC/iphc.c **** 
1123:build/openmote-cc2538_armgcc/openstack/03a-IPHC/iphc.c **** #ifdef DEADLINE_OPTION_ENABLED
1124:build/openmote-cc2538_armgcc/openstack/03a-IPHC/iphc.c **** //===== IPv6 Deadline hop-by-hop header
1125:build/openmote-cc2538_armgcc/openstack/03a-IPHC/iphc.c **** /**
1126:build/openmote-cc2538_armgcc/openstack/03a-IPHC/iphc.c **** \brief Prepend an IPv6 Deadline hop-by-hop header to a message.
1127:build/openmote-cc2538_armgcc/openstack/03a-IPHC/iphc.c **** 
1128:build/openmote-cc2538_armgcc/openstack/03a-IPHC/iphc.c **** \note The field are written in reverse order.
1129:build/openmote-cc2538_armgcc/openstack/03a-IPHC/iphc.c **** 
1130:build/openmote-cc2538_armgcc/openstack/03a-IPHC/iphc.c **** \param[in,out] msg   The message to prepend the header to.
1131:build/openmote-cc2538_armgcc/openstack/03a-IPHC/iphc.c **** */
1132:build/openmote-cc2538_armgcc/openstack/03a-IPHC/iphc.c **** void iphc_prependIPv6DeadlineHeader(
1133:build/openmote-cc2538_armgcc/openstack/03a-IPHC/iphc.c ****       OpenQueueEntry_t* msg
1134:build/openmote-cc2538_armgcc/openstack/03a-IPHC/iphc.c ****    ){
 3227              		.loc 1 1134 0
 3228              		.cfi_startproc
 3229              		@ args = 0, pretend = 0, frame = 40
 3230              		@ frame_needed = 1, uses_anonymous_args = 0
 3231 1590 80B5     		push	{r7, lr}
 3232              		.cfi_def_cfa_offset 8
 3233              		.cfi_offset 7, -8
 3234              		.cfi_offset 14, -4
 3235 1592 8AB0     		sub	sp, sp, #40
 3236              		.cfi_def_cfa_offset 48
 3237 1594 00AF     		add	r7, sp, #0
 3238              		.cfi_def_cfa_register 7
 3239 1596 7860     		str	r0, [r7, #4]
1135:build/openmote-cc2538_armgcc/openstack/03a-IPHC/iphc.c ****    uint8_t temp_8b = 0, temp_len = 0, asn_len = 0;
 3240              		.loc 1 1135 0
 3241 1598 0023     		movs	r3, #0
 3242 159a 87F82630 		strb	r3, [r7, #38]
 3243 159e 0023     		movs	r3, #0
 3244 15a0 87F82730 		strb	r3, [r7, #39]
 3245 15a4 0023     		movs	r3, #0
 3246 15a6 87F82530 		strb	r3, [r7, #37]
1136:build/openmote-cc2538_armgcc/openstack/03a-IPHC/iphc.c ****    deadline_option_ht curr_deadline_option;
1137:build/openmote-cc2538_armgcc/openstack/03a-IPHC/iphc.c ****    uint8_t asn_array[5];
1138:build/openmote-cc2538_armgcc/openstack/03a-IPHC/iphc.c **** 
1139:build/openmote-cc2538_armgcc/openstack/03a-IPHC/iphc.c ****    // Origination Time (OT)
1140:build/openmote-cc2538_armgcc/openstack/03a-IPHC/iphc.c ****    if (msg->orgination_time_flag == 1){	
 3247              		.loc 1 1140 0
 3248 15aa 7B68     		ldr	r3, [r7, #4]
 3249 15ac 1B7B     		ldrb	r3, [r3, #12]	@ zero_extendqisi2
 3250 15ae 002B     		cmp	r3, #0
 3251 15b0 30D0     		beq	.L190
1141:build/openmote-cc2538_armgcc/openstack/03a-IPHC/iphc.c ****       ieee154e_getAsn(asn_array);
 3252              		.loc 1 1141 0
 3253 15b2 07F10803 		add	r3, r7, #8
 3254 15b6 1846     		mov	r0, r3
 3255 15b8 FFF7FEFF 		bl	ieee154e_getAsn
1142:build/openmote-cc2538_armgcc/openstack/03a-IPHC/iphc.c ****       
1143:build/openmote-cc2538_armgcc/openstack/03a-IPHC/iphc.c ****       asn_len = iphc_getAsnLen(asn_array);
 3256              		.loc 1 1143 0
 3257 15bc 07F10803 		add	r3, r7, #8
 3258 15c0 1846     		mov	r0, r3
 3259 15c2 FFF7FEFF 		bl	iphc_getAsnLen
 3260 15c6 0346     		mov	r3, r0
 3261 15c8 87F82530 		strb	r3, [r7, #37]
1144:build/openmote-cc2538_armgcc/openstack/03a-IPHC/iphc.c ****       
1145:build/openmote-cc2538_armgcc/openstack/03a-IPHC/iphc.c ****       packetfunctions_reserveHeaderSize(msg,asn_len);
 3262              		.loc 1 1145 0
 3263 15cc 97F82530 		ldrb	r3, [r7, #37]	@ zero_extendqisi2
 3264 15d0 7868     		ldr	r0, [r7, #4]
 3265 15d2 1946     		mov	r1, r3
 3266 15d4 FFF7FEFF 		bl	packetfunctions_reserveHeaderSize
1146:build/openmote-cc2538_armgcc/openstack/03a-IPHC/iphc.c ****       memcpy(&msg->payload[0],&asn_array,asn_len*sizeof(uint8_t));
 3267              		.loc 1 1146 0
 3268 15d8 7B68     		ldr	r3, [r7, #4]
 3269 15da 5968     		ldr	r1, [r3, #4]
 3270 15dc 97F82530 		ldrb	r3, [r7, #37]	@ zero_extendqisi2
 3271 15e0 07F10802 		add	r2, r7, #8
 3272 15e4 0846     		mov	r0, r1
 3273 15e6 1146     		mov	r1, r2
 3274 15e8 1A46     		mov	r2, r3
 3275 15ea FFF7FEFF 		bl	memcpy
1147:build/openmote-cc2538_armgcc/openstack/03a-IPHC/iphc.c ****       temp_len += asn_len;
 3276              		.loc 1 1147 0
 3277 15ee 97F82720 		ldrb	r2, [r7, #39]
 3278 15f2 97F82530 		ldrb	r3, [r7, #37]
 3279 15f6 1344     		add	r3, r3, r2
 3280 15f8 87F82730 		strb	r3, [r7, #39]
1148:build/openmote-cc2538_armgcc/openstack/03a-IPHC/iphc.c ****       
1149:build/openmote-cc2538_armgcc/openstack/03a-IPHC/iphc.c ****       //set OTL flag value
1150:build/openmote-cc2538_armgcc/openstack/03a-IPHC/iphc.c ****       curr_deadline_option.org_otl = asn_len-1;   		
 3281              		.loc 1 1150 0
 3282 15fc 97F82530 		ldrb	r3, [r7, #37]
 3283 1600 013B     		subs	r3, r3, #1
 3284 1602 DBB2     		uxtb	r3, r3
 3285 1604 03F00703 		and	r3, r3, #7
 3286 1608 DAB2     		uxtb	r2, r3
 3287 160a 7B7C     		ldrb	r3, [r7, #17]
 3288 160c 62F34713 		bfi	r3, r2, #5, #3
 3289 1610 7B74     		strb	r3, [r7, #17]
 3290 1612 03E0     		b	.L191
 3291              	.L190:
1151:build/openmote-cc2538_armgcc/openstack/03a-IPHC/iphc.c ****    } else {
1152:build/openmote-cc2538_armgcc/openstack/03a-IPHC/iphc.c ****       //set OTL flag value
1153:build/openmote-cc2538_armgcc/openstack/03a-IPHC/iphc.c ****       curr_deadline_option.org_otl = 0;
 3292              		.loc 1 1153 0
 3293 1614 7B7C     		ldrb	r3, [r7, #17]
 3294 1616 6FF34713 		bfc	r3, #5, #3
 3295 161a 7B74     		strb	r3, [r7, #17]
 3296              	.L191:
1154:build/openmote-cc2538_armgcc/openstack/03a-IPHC/iphc.c ****    } 
1155:build/openmote-cc2538_armgcc/openstack/03a-IPHC/iphc.c ****    
1156:build/openmote-cc2538_armgcc/openstack/03a-IPHC/iphc.c ****    // Expiration Time (ET)
1157:build/openmote-cc2538_armgcc/openstack/03a-IPHC/iphc.c ****    ieee154e_calculateExpTime(msg->max_delay,asn_array);    
 3297              		.loc 1 1157 0
 3298 161c 7B68     		ldr	r3, [r7, #4]
 3299 161e 5A89     		ldrh	r2, [r3, #10]
 3300 1620 07F10803 		add	r3, r7, #8
 3301 1624 1046     		mov	r0, r2
 3302 1626 1946     		mov	r1, r3
 3303 1628 FFF7FEFF 		bl	ieee154e_calculateExpTime
1158:build/openmote-cc2538_armgcc/openstack/03a-IPHC/iphc.c ****    asn_len = iphc_getAsnLen(asn_array);
 3304              		.loc 1 1158 0
 3305 162c 07F10803 		add	r3, r7, #8
 3306 1630 1846     		mov	r0, r3
 3307 1632 FFF7FEFF 		bl	iphc_getAsnLen
 3308 1636 0346     		mov	r3, r0
 3309 1638 87F82530 		strb	r3, [r7, #37]
1159:build/openmote-cc2538_armgcc/openstack/03a-IPHC/iphc.c ****    packetfunctions_reserveHeaderSize(msg,asn_len);
 3310              		.loc 1 1159 0
 3311 163c 97F82530 		ldrb	r3, [r7, #37]	@ zero_extendqisi2
 3312 1640 7868     		ldr	r0, [r7, #4]
 3313 1642 1946     		mov	r1, r3
 3314 1644 FFF7FEFF 		bl	packetfunctions_reserveHeaderSize
1160:build/openmote-cc2538_armgcc/openstack/03a-IPHC/iphc.c ****    memcpy(&msg->payload[0],&asn_array,asn_len*sizeof(uint8_t));
 3315              		.loc 1 1160 0
 3316 1648 7B68     		ldr	r3, [r7, #4]
 3317 164a 5968     		ldr	r1, [r3, #4]
 3318 164c 97F82530 		ldrb	r3, [r7, #37]	@ zero_extendqisi2
 3319 1650 07F10802 		add	r2, r7, #8
 3320 1654 0846     		mov	r0, r1
 3321 1656 1146     		mov	r1, r2
 3322 1658 1A46     		mov	r2, r3
 3323 165a FFF7FEFF 		bl	memcpy
1161:build/openmote-cc2538_armgcc/openstack/03a-IPHC/iphc.c ****    temp_len += asn_len;
 3324              		.loc 1 1161 0
 3325 165e 97F82720 		ldrb	r2, [r7, #39]
 3326 1662 97F82530 		ldrb	r3, [r7, #37]
 3327 1666 1344     		add	r3, r3, r2
 3328 1668 87F82730 		strb	r3, [r7, #39]
1162:build/openmote-cc2538_armgcc/openstack/03a-IPHC/iphc.c ****    
1163:build/openmote-cc2538_armgcc/openstack/03a-IPHC/iphc.c ****    // 4th byte
1164:build/openmote-cc2538_armgcc/openstack/03a-IPHC/iphc.c ****    // TU(2bytes) | EXP(3bytes) | RSV(3bytes)
1165:build/openmote-cc2538_armgcc/openstack/03a-IPHC/iphc.c ****    curr_deadline_option.time_unit = 2 ; // in ASN
 3329              		.loc 1 1165 0
 3330 166c BB7C     		ldrb	r3, [r7, #18]
 3331 166e 0222     		movs	r2, #2
 3332 1670 62F30103 		bfi	r3, r2, #0, #2
 3333 1674 BB74     		strb	r3, [r7, #18]
1166:build/openmote-cc2538_armgcc/openstack/03a-IPHC/iphc.c ****    curr_deadline_option.exponent = 0; // Time in ASN
 3334              		.loc 1 1166 0
 3335 1676 BB7C     		ldrb	r3, [r7, #18]
 3336 1678 6FF38403 		bfc	r3, #2, #3
 3337 167c BB74     		strb	r3, [r7, #18]
1167:build/openmote-cc2538_armgcc/openstack/03a-IPHC/iphc.c ****    curr_deadline_option.rsv = 0; // Reserved
 3338              		.loc 1 1167 0
 3339 167e BB7C     		ldrb	r3, [r7, #18]
 3340 1680 6FF34713 		bfc	r3, #5, #3
 3341 1684 BB74     		strb	r3, [r7, #18]
1168:build/openmote-cc2538_armgcc/openstack/03a-IPHC/iphc.c ****    temp_8b = (curr_deadline_option.time_unit << 6) | (curr_deadline_option.exponent << 3) | curr_de
 3342              		.loc 1 1168 0
 3343 1686 BB7C     		ldrb	r3, [r7, #18]
 3344 1688 C3F30103 		ubfx	r3, r3, #0, #2
 3345 168c DBB2     		uxtb	r3, r3
 3346 168e 9B01     		lsls	r3, r3, #6
 3347 1690 DAB2     		uxtb	r2, r3
 3348 1692 BB7C     		ldrb	r3, [r7, #18]
 3349 1694 C3F38203 		ubfx	r3, r3, #2, #3
 3350 1698 DBB2     		uxtb	r3, r3
 3351 169a DB00     		lsls	r3, r3, #3
 3352 169c DBB2     		uxtb	r3, r3
 3353 169e 1343     		orrs	r3, r3, r2
 3354 16a0 DAB2     		uxtb	r2, r3
 3355 16a2 BB7C     		ldrb	r3, [r7, #18]
 3356 16a4 C3F34213 		ubfx	r3, r3, #5, #3
 3357 16a8 DBB2     		uxtb	r3, r3
 3358 16aa DBB2     		uxtb	r3, r3
 3359 16ac 1343     		orrs	r3, r3, r2
 3360 16ae DBB2     		uxtb	r3, r3
 3361 16b0 87F82630 		strb	r3, [r7, #38]
1169:build/openmote-cc2538_armgcc/openstack/03a-IPHC/iphc.c ****    packetfunctions_reserveHeaderSize(msg,sizeof(uint8_t));
 3362              		.loc 1 1169 0
 3363 16b4 7868     		ldr	r0, [r7, #4]
 3364 16b6 0121     		movs	r1, #1
 3365 16b8 FFF7FEFF 		bl	packetfunctions_reserveHeaderSize
1170:build/openmote-cc2538_armgcc/openstack/03a-IPHC/iphc.c ****    *((uint8_t*)(msg->payload)) = temp_8b;
 3366              		.loc 1 1170 0
 3367 16bc 7B68     		ldr	r3, [r7, #4]
 3368 16be 5B68     		ldr	r3, [r3, #4]
 3369 16c0 97F82620 		ldrb	r2, [r7, #38]
 3370 16c4 1A70     		strb	r2, [r3]
1171:build/openmote-cc2538_armgcc/openstack/03a-IPHC/iphc.c ****    temp_len ++;
 3371              		.loc 1 1171 0
 3372 16c6 97F82730 		ldrb	r3, [r7, #39]	@ zero_extendqisi2
 3373 16ca 0133     		adds	r3, r3, #1
 3374 16cc 87F82730 		strb	r3, [r7, #39]
1172:build/openmote-cc2538_armgcc/openstack/03a-IPHC/iphc.c ****    
1173:build/openmote-cc2538_armgcc/openstack/03a-IPHC/iphc.c ****    // 3rd byte
1174:build/openmote-cc2538_armgcc/openstack/03a-IPHC/iphc.c ****    // O_FLAG(1byte) | D_FLAG(1byte) | ETL(3bytes) | OTL(3bytes)   
1175:build/openmote-cc2538_armgcc/openstack/03a-IPHC/iphc.c ****    curr_deadline_option.exp_etl = asn_len-1;
 3375              		.loc 1 1175 0
 3376 16d0 97F82530 		ldrb	r3, [r7, #37]
 3377 16d4 013B     		subs	r3, r3, #1
 3378 16d6 DBB2     		uxtb	r3, r3
 3379 16d8 03F00703 		and	r3, r3, #7
