   1              		.syntax unified
   2              		.cpu cortex-m3
   3              		.fpu softvfp
   4              		.eabi_attribute 20, 1
   5              		.eabi_attribute 21, 1
   6              		.eabi_attribute 23, 3
   7              		.eabi_attribute 24, 1
   8              		.eabi_attribute 25, 1
   9              		.eabi_attribute 26, 1
  10              		.eabi_attribute 30, 6
  11              		.eabi_attribute 34, 1
  12              		.eabi_attribute 18, 4
  13              		.thumb
  14              		.file	"neighbors.c"
  15              		.text
  16              	.Ltext0:
  17              		.cfi_sections	.debug_frame
  18              		.section	.rodata
  19              		.align	2
  22              	rreg_uriquery:
  23 0000 683D7563 		.ascii	"h=ucb\000"
  23      6200
  24 0006 0000     		.align	2
  27              	infoBoardname:
  28 0008 43433235 		.ascii	"CC2538\000"
  28      333800
  29 000f 00       		.align	2
  32              	infouCName:
  33 0010 43433235 		.ascii	"CC2538\000"
  33      333800
  34 0017 00       		.align	2
  37              	infoRadioName:
  38 0018 43433235 		.ascii	"CC2538 SoC\000"
  38      33382053 
  38      6F4300
  39 0023 00       		.align	2
  42              	infoStackName:
  43 0024 4F70656E 		.ascii	"OpenWSN \000"
  43      57534E20 
  43      00
  44 002d 000000   		.align	2
  47              	all_routers_multicast:
  48 0030 FF       		.byte	-1
  49 0031 02       		.byte	2
  50 0032 00       		.byte	0
  51 0033 00       		.byte	0
  52 0034 00       		.byte	0
  53 0035 00       		.byte	0
  54 0036 00       		.byte	0
  55 0037 00       		.byte	0
  56 0038 00       		.byte	0
  57 0039 00       		.byte	0
  58 003a 00       		.byte	0
  59 003b 00       		.byte	0
  60 003c 00       		.byte	0
  61 003d 00       		.byte	0
  62 003e 00       		.byte	0
  63 003f 1A       		.byte	26
  64              		.align	2
  67              	linklocalprefix:
  68 0040 FE       		.byte	-2
  69 0041 80       		.byte	-128
  70 0042 00       		.byte	0
  71 0043 00       		.byte	0
  72 0044 00       		.byte	0
  73 0045 00       		.byte	0
  74 0046 00       		.byte	0
  75 0047 00       		.byte	0
  76              		.align	2
  79              	chTemplate_default:
  80 0048 05       		.byte	5
  81 0049 06       		.byte	6
  82 004a 0C       		.byte	12
  83 004b 07       		.byte	7
  84 004c 0F       		.byte	15
  85 004d 04       		.byte	4
  86 004e 0E       		.byte	14
  87 004f 0B       		.byte	11
  88 0050 08       		.byte	8
  89 0051 00       		.byte	0
  90 0052 01       		.byte	1
  91 0053 02       		.byte	2
  92 0054 0D       		.byte	13
  93 0055 03       		.byte	3
  94 0056 09       		.byte	9
  95 0057 0A       		.byte	10
  96              		.align	2
  99              	ebIEsBytestream:
 100 0058 1A       		.byte	26
 101 0059 88       		.byte	-120
 102 005a 06       		.byte	6
 103 005b 1A       		.byte	26
 104 005c 00       		.byte	0
 105 005d 00       		.byte	0
 106 005e 00       		.byte	0
 107 005f 00       		.byte	0
 108 0060 00       		.byte	0
 109 0061 00       		.byte	0
 110 0062 01       		.byte	1
 111 0063 1C       		.byte	28
 112 0064 00       		.byte	0
 113 0065 01       		.byte	1
 114 0066 C8       		.byte	-56
 115 0067 00       		.byte	0
 116 0068 0A       		.byte	10
 117 0069 1B       		.byte	27
 118 006a 01       		.byte	1
 119 006b 00       		.byte	0
 120 006c 65       		.byte	101
 121 006d 00       		.byte	0
 122 006e 01       		.byte	1
 123 006f 00       		.byte	0
 124 0070 00       		.byte	0
 125 0071 00       		.byte	0
 126 0072 00       		.byte	0
 127 0073 0F       		.byte	15
 128              		.bss
 129              		.align	2
 130              	neighbors_vars:
 131 0000 00000000 		.space	1204
 131      00000000 
 131      00000000 
 131      00000000 
 131      00000000 
 132              		.text
 133              		.align	2
 134              		.global	neighbors_init
 135              		.thumb
 136              		.thumb_func
 138              	neighbors_init:
 139              	.LFB0:
 140              		.file 1 "build/openmote-cc2538_armgcc/openstack/02b-MAChigh/neighbors.c"
   1:build/openmote-cc2538_armgcc/openstack/02b-MAChigh/neighbors.c **** #include "opendefs.h"
   2:build/openmote-cc2538_armgcc/openstack/02b-MAChigh/neighbors.c **** #include "neighbors.h"
   3:build/openmote-cc2538_armgcc/openstack/02b-MAChigh/neighbors.c **** #include "openqueue.h"
   4:build/openmote-cc2538_armgcc/openstack/02b-MAChigh/neighbors.c **** #include "packetfunctions.h"
   5:build/openmote-cc2538_armgcc/openstack/02b-MAChigh/neighbors.c **** #include "idmanager.h"
   6:build/openmote-cc2538_armgcc/openstack/02b-MAChigh/neighbors.c **** #include "openserial.h"
   7:build/openmote-cc2538_armgcc/openstack/02b-MAChigh/neighbors.c **** #include "IEEE802154E.h"
   8:build/openmote-cc2538_armgcc/openstack/02b-MAChigh/neighbors.c **** #include "openrandom.h"
   9:build/openmote-cc2538_armgcc/openstack/02b-MAChigh/neighbors.c **** #include "msf.h"
  10:build/openmote-cc2538_armgcc/openstack/02b-MAChigh/neighbors.c **** 
  11:build/openmote-cc2538_armgcc/openstack/02b-MAChigh/neighbors.c **** //=========================== variables =======================================
  12:build/openmote-cc2538_armgcc/openstack/02b-MAChigh/neighbors.c **** 
  13:build/openmote-cc2538_armgcc/openstack/02b-MAChigh/neighbors.c **** static neighbors_vars_t neighbors_vars;
  14:build/openmote-cc2538_armgcc/openstack/02b-MAChigh/neighbors.c **** 
  15:build/openmote-cc2538_armgcc/openstack/02b-MAChigh/neighbors.c **** //=========================== prototypes ======================================
  16:build/openmote-cc2538_armgcc/openstack/02b-MAChigh/neighbors.c **** 
  17:build/openmote-cc2538_armgcc/openstack/02b-MAChigh/neighbors.c **** void registerNewNeighbor(
  18:build/openmote-cc2538_armgcc/openstack/02b-MAChigh/neighbors.c ****         open_addr_t* neighborID,
  19:build/openmote-cc2538_armgcc/openstack/02b-MAChigh/neighbors.c ****         int8_t       rssi,
  20:build/openmote-cc2538_armgcc/openstack/02b-MAChigh/neighbors.c ****         asn_t*       asnTimestamp,
  21:build/openmote-cc2538_armgcc/openstack/02b-MAChigh/neighbors.c ****         bool         joinPrioPresent,
  22:build/openmote-cc2538_armgcc/openstack/02b-MAChigh/neighbors.c ****         uint8_t      joinPrio,
  23:build/openmote-cc2538_armgcc/openstack/02b-MAChigh/neighbors.c ****         bool         insecure
  24:build/openmote-cc2538_armgcc/openstack/02b-MAChigh/neighbors.c ****      );
  25:build/openmote-cc2538_armgcc/openstack/02b-MAChigh/neighbors.c **** bool isNeighbor(open_addr_t* neighbor);
  26:build/openmote-cc2538_armgcc/openstack/02b-MAChigh/neighbors.c **** void removeNeighbor(uint8_t neighborIndex);
  27:build/openmote-cc2538_armgcc/openstack/02b-MAChigh/neighbors.c **** bool isThisRowMatching(
  28:build/openmote-cc2538_armgcc/openstack/02b-MAChigh/neighbors.c ****         open_addr_t* address,
  29:build/openmote-cc2538_armgcc/openstack/02b-MAChigh/neighbors.c ****         uint8_t      rowNumber
  30:build/openmote-cc2538_armgcc/openstack/02b-MAChigh/neighbors.c ****      );
  31:build/openmote-cc2538_armgcc/openstack/02b-MAChigh/neighbors.c **** 
  32:build/openmote-cc2538_armgcc/openstack/02b-MAChigh/neighbors.c **** //=========================== public ==========================================
  33:build/openmote-cc2538_armgcc/openstack/02b-MAChigh/neighbors.c **** 
  34:build/openmote-cc2538_armgcc/openstack/02b-MAChigh/neighbors.c **** /**
  35:build/openmote-cc2538_armgcc/openstack/02b-MAChigh/neighbors.c **** \brief Initializes this module.
  36:build/openmote-cc2538_armgcc/openstack/02b-MAChigh/neighbors.c **** */
  37:build/openmote-cc2538_armgcc/openstack/02b-MAChigh/neighbors.c **** void neighbors_init(void) {
 141              		.loc 1 37 0
 142              		.cfi_startproc
 143              		@ args = 0, pretend = 0, frame = 0
 144              		@ frame_needed = 1, uses_anonymous_args = 0
 145 0000 80B5     		push	{r7, lr}
 146              		.cfi_def_cfa_offset 8
 147              		.cfi_offset 7, -8
 148              		.cfi_offset 14, -4
 149 0002 00AF     		add	r7, sp, #0
 150              		.cfi_def_cfa_register 7
  38:build/openmote-cc2538_armgcc/openstack/02b-MAChigh/neighbors.c ****    
  39:build/openmote-cc2538_armgcc/openstack/02b-MAChigh/neighbors.c ****    // clear module variables
  40:build/openmote-cc2538_armgcc/openstack/02b-MAChigh/neighbors.c ****    memset(&neighbors_vars,0,sizeof(neighbors_vars_t));
 151              		.loc 1 40 0
 152 0004 0348     		ldr	r0, .L2
 153 0006 0021     		movs	r1, #0
 154 0008 40F2B442 		movw	r2, #1204
 155 000c FFF7FEFF 		bl	memset
  41:build/openmote-cc2538_armgcc/openstack/02b-MAChigh/neighbors.c ****    // The .used fields get reset to FALSE by this memset.
  42:build/openmote-cc2538_armgcc/openstack/02b-MAChigh/neighbors.c ****    
  43:build/openmote-cc2538_armgcc/openstack/02b-MAChigh/neighbors.c **** }
 156              		.loc 1 43 0
 157 0010 80BD     		pop	{r7, pc}
 158              	.L3:
 159 0012 00BF     		.align	2
 160              	.L2:
 161 0014 00000000 		.word	neighbors_vars
 162              		.cfi_endproc
 163              	.LFE0:
 165              		.align	2
 166              		.global	neighbors_getNumNeighbors
 167              		.thumb
 168              		.thumb_func
 170              	neighbors_getNumNeighbors:
 171              	.LFB1:
  44:build/openmote-cc2538_armgcc/openstack/02b-MAChigh/neighbors.c **** 
  45:build/openmote-cc2538_armgcc/openstack/02b-MAChigh/neighbors.c **** //===== getters
  46:build/openmote-cc2538_armgcc/openstack/02b-MAChigh/neighbors.c **** 
  47:build/openmote-cc2538_armgcc/openstack/02b-MAChigh/neighbors.c **** /**
  48:build/openmote-cc2538_armgcc/openstack/02b-MAChigh/neighbors.c **** \brief Retrieve the number of neighbors this mote's currently knows of.
  49:build/openmote-cc2538_armgcc/openstack/02b-MAChigh/neighbors.c **** 
  50:build/openmote-cc2538_armgcc/openstack/02b-MAChigh/neighbors.c **** \returns The number of neighbors this mote's currently knows of.
  51:build/openmote-cc2538_armgcc/openstack/02b-MAChigh/neighbors.c **** */
  52:build/openmote-cc2538_armgcc/openstack/02b-MAChigh/neighbors.c **** uint8_t neighbors_getNumNeighbors(void) {
 172              		.loc 1 52 0
 173              		.cfi_startproc
 174              		@ args = 0, pretend = 0, frame = 8
 175              		@ frame_needed = 1, uses_anonymous_args = 0
 176              		@ link register save eliminated.
 177 0018 80B4     		push	{r7}
 178              		.cfi_def_cfa_offset 4
 179              		.cfi_offset 7, -4
 180 001a 83B0     		sub	sp, sp, #12
 181              		.cfi_def_cfa_offset 16
 182 001c 00AF     		add	r7, sp, #0
 183              		.cfi_def_cfa_register 7
  53:build/openmote-cc2538_armgcc/openstack/02b-MAChigh/neighbors.c ****    uint8_t i;
  54:build/openmote-cc2538_armgcc/openstack/02b-MAChigh/neighbors.c ****    uint8_t returnVal;
  55:build/openmote-cc2538_armgcc/openstack/02b-MAChigh/neighbors.c ****    
  56:build/openmote-cc2538_armgcc/openstack/02b-MAChigh/neighbors.c ****    returnVal=0;
 184              		.loc 1 56 0
 185 001e 0023     		movs	r3, #0
 186 0020 BB71     		strb	r3, [r7, #6]
  57:build/openmote-cc2538_armgcc/openstack/02b-MAChigh/neighbors.c ****    for (i=0;i<MAXNUMNEIGHBORS;i++) {
 187              		.loc 1 57 0
 188 0022 0023     		movs	r3, #0
 189 0024 FB71     		strb	r3, [r7, #7]
 190 0026 0FE0     		b	.L5
 191              	.L7:
  58:build/openmote-cc2538_armgcc/openstack/02b-MAChigh/neighbors.c ****       if (neighbors_vars.neighbors[i].used==TRUE) {
 192              		.loc 1 58 0
 193 0028 FA79     		ldrb	r2, [r7, #7]	@ zero_extendqisi2
 194 002a 0C49     		ldr	r1, .L9
 195 002c 1346     		mov	r3, r2
 196 002e 9B00     		lsls	r3, r3, #2
 197 0030 1344     		add	r3, r3, r2
 198 0032 DB00     		lsls	r3, r3, #3
 199 0034 0B44     		add	r3, r3, r1
 200 0036 1B78     		ldrb	r3, [r3]	@ zero_extendqisi2
 201 0038 002B     		cmp	r3, #0
 202 003a 02D0     		beq	.L6
  59:build/openmote-cc2538_armgcc/openstack/02b-MAChigh/neighbors.c ****          returnVal++;
 203              		.loc 1 59 0
 204 003c BB79     		ldrb	r3, [r7, #6]	@ zero_extendqisi2
 205 003e 0133     		adds	r3, r3, #1
 206 0040 BB71     		strb	r3, [r7, #6]
 207              	.L6:
  57:build/openmote-cc2538_armgcc/openstack/02b-MAChigh/neighbors.c ****    for (i=0;i<MAXNUMNEIGHBORS;i++) {
 208              		.loc 1 57 0 discriminator 2
 209 0042 FB79     		ldrb	r3, [r7, #7]	@ zero_extendqisi2
 210 0044 0133     		adds	r3, r3, #1
 211 0046 FB71     		strb	r3, [r7, #7]
 212              	.L5:
  57:build/openmote-cc2538_armgcc/openstack/02b-MAChigh/neighbors.c ****    for (i=0;i<MAXNUMNEIGHBORS;i++) {
 213              		.loc 1 57 0 is_stmt 0 discriminator 1
 214 0048 FB79     		ldrb	r3, [r7, #7]	@ zero_extendqisi2
 215 004a 1D2B     		cmp	r3, #29
 216 004c ECD9     		bls	.L7
  60:build/openmote-cc2538_armgcc/openstack/02b-MAChigh/neighbors.c ****       }
  61:build/openmote-cc2538_armgcc/openstack/02b-MAChigh/neighbors.c ****    }
  62:build/openmote-cc2538_armgcc/openstack/02b-MAChigh/neighbors.c ****    return returnVal;
 217              		.loc 1 62 0 is_stmt 1
 218 004e BB79     		ldrb	r3, [r7, #6]	@ zero_extendqisi2
  63:build/openmote-cc2538_armgcc/openstack/02b-MAChigh/neighbors.c **** }
 219              		.loc 1 63 0
 220 0050 1846     		mov	r0, r3
 221 0052 0C37     		adds	r7, r7, #12
 222              		.cfi_def_cfa_offset 4
 223 0054 BD46     		mov	sp, r7
 224              		.cfi_def_cfa_register 13
 225              		@ sp needed
 226 0056 5DF8047B 		ldr	r7, [sp], #4
 227              		.cfi_restore 7
 228              		.cfi_def_cfa_offset 0
 229 005a 7047     		bx	lr
 230              	.L10:
 231              		.align	2
 232              	.L9:
 233 005c 00000000 		.word	neighbors_vars
 234              		.cfi_endproc
 235              	.LFE1:
 237              		.align	2
 238              		.global	neighbors_getNeighborRank
 239              		.thumb
 240              		.thumb_func
 242              	neighbors_getNeighborRank:
 243              	.LFB2:
  64:build/openmote-cc2538_armgcc/openstack/02b-MAChigh/neighbors.c **** 
  65:build/openmote-cc2538_armgcc/openstack/02b-MAChigh/neighbors.c **** dagrank_t neighbors_getNeighborRank(uint8_t index) {
 244              		.loc 1 65 0
 245              		.cfi_startproc
 246              		@ args = 0, pretend = 0, frame = 8
 247              		@ frame_needed = 1, uses_anonymous_args = 0
 248              		@ link register save eliminated.
 249 0060 80B4     		push	{r7}
 250              		.cfi_def_cfa_offset 4
 251              		.cfi_offset 7, -4
 252 0062 83B0     		sub	sp, sp, #12
 253              		.cfi_def_cfa_offset 16
 254 0064 00AF     		add	r7, sp, #0
 255              		.cfi_def_cfa_register 7
 256 0066 0346     		mov	r3, r0
 257 0068 FB71     		strb	r3, [r7, #7]
  66:build/openmote-cc2538_armgcc/openstack/02b-MAChigh/neighbors.c ****    return neighbors_vars.neighbors[index].DAGrank;
 258              		.loc 1 66 0
 259 006a FA79     		ldrb	r2, [r7, #7]	@ zero_extendqisi2
 260 006c 0649     		ldr	r1, .L13
 261 006e 1346     		mov	r3, r2
 262 0070 9B00     		lsls	r3, r3, #2
 263 0072 1344     		add	r3, r3, r2
 264 0074 DB00     		lsls	r3, r3, #3
 265 0076 0B44     		add	r3, r3, r1
 266 0078 1033     		adds	r3, r3, #16
 267 007a DB88     		ldrh	r3, [r3, #6]
  67:build/openmote-cc2538_armgcc/openstack/02b-MAChigh/neighbors.c **** }
 268              		.loc 1 67 0
 269 007c 1846     		mov	r0, r3
 270 007e 0C37     		adds	r7, r7, #12
 271              		.cfi_def_cfa_offset 4
 272 0080 BD46     		mov	sp, r7
 273              		.cfi_def_cfa_register 13
 274              		@ sp needed
 275 0082 5DF8047B 		ldr	r7, [sp], #4
 276              		.cfi_restore 7
 277              		.cfi_def_cfa_offset 0
 278 0086 7047     		bx	lr
 279              	.L14:
 280              		.align	2
 281              	.L13:
 282 0088 00000000 		.word	neighbors_vars
 283              		.cfi_endproc
 284              	.LFE2:
 286              		.align	2
 287              		.global	neighbors_getRssi
 288              		.thumb
 289              		.thumb_func
 291              	neighbors_getRssi:
 292              	.LFB3:
  68:build/openmote-cc2538_armgcc/openstack/02b-MAChigh/neighbors.c **** 
  69:build/openmote-cc2538_armgcc/openstack/02b-MAChigh/neighbors.c **** int8_t neighbors_getRssi(uint8_t index){
 293              		.loc 1 69 0
 294              		.cfi_startproc
 295              		@ args = 0, pretend = 0, frame = 8
 296              		@ frame_needed = 1, uses_anonymous_args = 0
 297              		@ link register save eliminated.
 298 008c 80B4     		push	{r7}
 299              		.cfi_def_cfa_offset 4
 300              		.cfi_offset 7, -4
 301 008e 83B0     		sub	sp, sp, #12
 302              		.cfi_def_cfa_offset 16
 303 0090 00AF     		add	r7, sp, #0
 304              		.cfi_def_cfa_register 7
 305 0092 0346     		mov	r3, r0
 306 0094 FB71     		strb	r3, [r7, #7]
  70:build/openmote-cc2538_armgcc/openstack/02b-MAChigh/neighbors.c ****    return neighbors_vars.neighbors[index].rssi;
 307              		.loc 1 70 0
 308 0096 FA79     		ldrb	r2, [r7, #7]	@ zero_extendqisi2
 309 0098 0749     		ldr	r1, .L17
 310 009a 1346     		mov	r3, r2
 311 009c 9B00     		lsls	r3, r3, #2
 312 009e 1344     		add	r3, r3, r2
 313 00a0 DB00     		lsls	r3, r3, #3
 314 00a2 0B44     		add	r3, r3, r1
 315 00a4 1833     		adds	r3, r3, #24
 316 00a6 1B78     		ldrb	r3, [r3]	@ zero_extendqisi2
 317 00a8 5BB2     		sxtb	r3, r3
  71:build/openmote-cc2538_armgcc/openstack/02b-MAChigh/neighbors.c **** }
 318              		.loc 1 71 0
 319 00aa 1846     		mov	r0, r3
 320 00ac 0C37     		adds	r7, r7, #12
 321              		.cfi_def_cfa_offset 4
 322 00ae BD46     		mov	sp, r7
 323              		.cfi_def_cfa_register 13
 324              		@ sp needed
 325 00b0 5DF8047B 		ldr	r7, [sp], #4
 326              		.cfi_restore 7
 327              		.cfi_def_cfa_offset 0
 328 00b4 7047     		bx	lr
 329              	.L18:
 330 00b6 00BF     		.align	2
 331              	.L17:
 332 00b8 00000000 		.word	neighbors_vars
 333              		.cfi_endproc
 334              	.LFE3:
 336              		.align	2
 337              		.global	neighbors_getNumTx
 338              		.thumb
 339              		.thumb_func
 341              	neighbors_getNumTx:
 342              	.LFB4:
  72:build/openmote-cc2538_armgcc/openstack/02b-MAChigh/neighbors.c **** 
  73:build/openmote-cc2538_armgcc/openstack/02b-MAChigh/neighbors.c **** uint8_t neighbors_getNumTx(uint8_t index){
 343              		.loc 1 73 0
 344              		.cfi_startproc
 345              		@ args = 0, pretend = 0, frame = 8
 346              		@ frame_needed = 1, uses_anonymous_args = 0
 347              		@ link register save eliminated.
 348 00bc 80B4     		push	{r7}
 349              		.cfi_def_cfa_offset 4
 350              		.cfi_offset 7, -4
 351 00be 83B0     		sub	sp, sp, #12
 352              		.cfi_def_cfa_offset 16
 353 00c0 00AF     		add	r7, sp, #0
 354              		.cfi_def_cfa_register 7
 355 00c2 0346     		mov	r3, r0
 356 00c4 FB71     		strb	r3, [r7, #7]
  74:build/openmote-cc2538_armgcc/openstack/02b-MAChigh/neighbors.c ****    return neighbors_vars.neighbors[index].numTx;
 357              		.loc 1 74 0
 358 00c6 FA79     		ldrb	r2, [r7, #7]	@ zero_extendqisi2
 359 00c8 0649     		ldr	r1, .L21
 360 00ca 1346     		mov	r3, r2
 361 00cc 9B00     		lsls	r3, r3, #2
 362 00ce 1344     		add	r3, r3, r2
 363 00d0 DB00     		lsls	r3, r3, #3
 364 00d2 0B44     		add	r3, r3, r1
 365 00d4 1833     		adds	r3, r3, #24
 366 00d6 9B78     		ldrb	r3, [r3, #2]	@ zero_extendqisi2
  75:build/openmote-cc2538_armgcc/openstack/02b-MAChigh/neighbors.c **** }
 367              		.loc 1 75 0
 368 00d8 1846     		mov	r0, r3
 369 00da 0C37     		adds	r7, r7, #12
 370              		.cfi_def_cfa_offset 4
 371 00dc BD46     		mov	sp, r7
 372              		.cfi_def_cfa_register 13
 373              		@ sp needed
 374 00de 5DF8047B 		ldr	r7, [sp], #4
 375              		.cfi_restore 7
 376              		.cfi_def_cfa_offset 0
 377 00e2 7047     		bx	lr
 378              	.L22:
 379              		.align	2
 380              	.L21:
 381 00e4 00000000 		.word	neighbors_vars
 382              		.cfi_endproc
 383              	.LFE4:
 385              		.align	2
 386              		.global	neighbors_getKANeighbor
 387              		.thumb
 388              		.thumb_func
 390              	neighbors_getKANeighbor:
 391              	.LFB5:
  76:build/openmote-cc2538_armgcc/openstack/02b-MAChigh/neighbors.c **** /**
  77:build/openmote-cc2538_armgcc/openstack/02b-MAChigh/neighbors.c **** \brief Find neighbor to which to send KA.
  78:build/openmote-cc2538_armgcc/openstack/02b-MAChigh/neighbors.c **** 
  79:build/openmote-cc2538_armgcc/openstack/02b-MAChigh/neighbors.c **** This function iterates through the neighbor table and identifies the neighbor
  80:build/openmote-cc2538_armgcc/openstack/02b-MAChigh/neighbors.c **** we need to send a KA to, if any. This neighbor satisfies the following
  81:build/openmote-cc2538_armgcc/openstack/02b-MAChigh/neighbors.c **** conditions:
  82:build/openmote-cc2538_armgcc/openstack/02b-MAChigh/neighbors.c **** - it is one of our preferred parents
  83:build/openmote-cc2538_armgcc/openstack/02b-MAChigh/neighbors.c **** - we haven't heard it for over kaPeriod
  84:build/openmote-cc2538_armgcc/openstack/02b-MAChigh/neighbors.c **** 
  85:build/openmote-cc2538_armgcc/openstack/02b-MAChigh/neighbors.c **** \param[in] kaPeriod The maximum number of slots I'm allowed not to have heard
  86:build/openmote-cc2538_armgcc/openstack/02b-MAChigh/neighbors.c ****    it.
  87:build/openmote-cc2538_armgcc/openstack/02b-MAChigh/neighbors.c **** 
  88:build/openmote-cc2538_armgcc/openstack/02b-MAChigh/neighbors.c **** \returns A pointer to the neighbor's address, or NULL if no KA is needed.
  89:build/openmote-cc2538_armgcc/openstack/02b-MAChigh/neighbors.c **** */
  90:build/openmote-cc2538_armgcc/openstack/02b-MAChigh/neighbors.c **** open_addr_t* neighbors_getKANeighbor(uint16_t kaPeriod) {
 392              		.loc 1 90 0
 393              		.cfi_startproc
 394              		@ args = 0, pretend = 0, frame = 16
 395              		@ frame_needed = 1, uses_anonymous_args = 0
 396 00e8 80B5     		push	{r7, lr}
 397              		.cfi_def_cfa_offset 8
 398              		.cfi_offset 7, -8
 399              		.cfi_offset 14, -4
 400 00ea 84B0     		sub	sp, sp, #16
 401              		.cfi_def_cfa_offset 24
 402 00ec 00AF     		add	r7, sp, #0
 403              		.cfi_def_cfa_register 7
 404 00ee 0346     		mov	r3, r0
 405 00f0 FB80     		strh	r3, [r7, #6]	@ movhi
  91:build/openmote-cc2538_armgcc/openstack/02b-MAChigh/neighbors.c ****    uint8_t         i;
  92:build/openmote-cc2538_armgcc/openstack/02b-MAChigh/neighbors.c ****    uint16_t        timeSinceHeard;
  93:build/openmote-cc2538_armgcc/openstack/02b-MAChigh/neighbors.c ****    
  94:build/openmote-cc2538_armgcc/openstack/02b-MAChigh/neighbors.c ****    // policy is not to KA to non-preferred parents so go strait to check if Preferred Parent is agi
  95:build/openmote-cc2538_armgcc/openstack/02b-MAChigh/neighbors.c ****    if (icmpv6rpl_getPreferredParentIndex(&i)) {      // we have a Parent
 406              		.loc 1 95 0
 407 00f2 07F10D03 		add	r3, r7, #13
 408 00f6 1846     		mov	r0, r3
 409 00f8 FFF7FEFF 		bl	icmpv6rpl_getPreferredParentIndex
 410 00fc 0346     		mov	r3, r0
 411 00fe 002B     		cmp	r3, #0
 412 0100 27D0     		beq	.L24
  96:build/openmote-cc2538_armgcc/openstack/02b-MAChigh/neighbors.c ****       if (neighbors_vars.neighbors[i].used==1) {     // that resolves to a neighbor in use (should 
 413              		.loc 1 96 0
 414 0102 7B7B     		ldrb	r3, [r7, #13]	@ zero_extendqisi2
 415 0104 1946     		mov	r1, r3
 416 0106 154A     		ldr	r2, .L27
 417 0108 0B46     		mov	r3, r1
 418 010a 9B00     		lsls	r3, r3, #2
 419 010c 0B44     		add	r3, r3, r1
 420 010e DB00     		lsls	r3, r3, #3
 421 0110 1344     		add	r3, r3, r2
 422 0112 1B78     		ldrb	r3, [r3]	@ zero_extendqisi2
 423 0114 002B     		cmp	r3, #0
 424 0116 1CD0     		beq	.L24
  97:build/openmote-cc2538_armgcc/openstack/02b-MAChigh/neighbors.c ****          timeSinceHeard = ieee154e_asnDiff(&neighbors_vars.neighbors[i].asn);
 425              		.loc 1 97 0
 426 0118 7B7B     		ldrb	r3, [r7, #13]	@ zero_extendqisi2
 427 011a 1A46     		mov	r2, r3
 428 011c 1346     		mov	r3, r2
 429 011e 9B00     		lsls	r3, r3, #2
 430 0120 1344     		add	r3, r3, r2
 431 0122 DB00     		lsls	r3, r3, #3
 432 0124 1833     		adds	r3, r3, #24
 433 0126 0D4A     		ldr	r2, .L27
 434 0128 1344     		add	r3, r3, r2
 435 012a 0533     		adds	r3, r3, #5
 436 012c 1846     		mov	r0, r3
 437 012e FFF7FEFF 		bl	ieee154e_asnDiff
 438 0132 0346     		mov	r3, r0
 439 0134 FB81     		strh	r3, [r7, #14]	@ movhi
  98:build/openmote-cc2538_armgcc/openstack/02b-MAChigh/neighbors.c ****          if (timeSinceHeard>kaPeriod) {
 440              		.loc 1 98 0
 441 0136 FA89     		ldrh	r2, [r7, #14]
 442 0138 FB88     		ldrh	r3, [r7, #6]
 443 013a 9A42     		cmp	r2, r3
 444 013c 09D9     		bls	.L24
  99:build/openmote-cc2538_armgcc/openstack/02b-MAChigh/neighbors.c ****             // this neighbor needs to be KA'ed to
 100:build/openmote-cc2538_armgcc/openstack/02b-MAChigh/neighbors.c ****             return &(neighbors_vars.neighbors[i].addr_64b);
 445              		.loc 1 100 0
 446 013e 7B7B     		ldrb	r3, [r7, #13]	@ zero_extendqisi2
 447 0140 1A46     		mov	r2, r3
 448 0142 1346     		mov	r3, r2
 449 0144 9B00     		lsls	r3, r3, #2
 450 0146 1344     		add	r3, r3, r2
 451 0148 DB00     		lsls	r3, r3, #3
 452 014a 044A     		ldr	r2, .L27
 453 014c 1344     		add	r3, r3, r2
 454 014e 0533     		adds	r3, r3, #5
 455 0150 00E0     		b	.L26
 456              	.L24:
 101:build/openmote-cc2538_armgcc/openstack/02b-MAChigh/neighbors.c ****          }
 102:build/openmote-cc2538_armgcc/openstack/02b-MAChigh/neighbors.c ****       }
 103:build/openmote-cc2538_armgcc/openstack/02b-MAChigh/neighbors.c ****    }
 104:build/openmote-cc2538_armgcc/openstack/02b-MAChigh/neighbors.c ****    return NULL;
 457              		.loc 1 104 0
 458 0152 0023     		movs	r3, #0
 459              	.L26:
 105:build/openmote-cc2538_armgcc/openstack/02b-MAChigh/neighbors.c **** }
 460              		.loc 1 105 0 discriminator 1
 461 0154 1846     		mov	r0, r3
 462 0156 1037     		adds	r7, r7, #16
 463              		.cfi_def_cfa_offset 8
 464 0158 BD46     		mov	sp, r7
 465              		.cfi_def_cfa_register 13
 466              		@ sp needed
 467 015a 80BD     		pop	{r7, pc}
 468              	.L28:
 469              		.align	2
 470              	.L27:
 471 015c 00000000 		.word	neighbors_vars
 472              		.cfi_endproc
 473              	.LFE5:
 475              		.align	2
 476              		.global	neighbors_getJoinProxy
 477              		.thumb
 478              		.thumb_func
 480              	neighbors_getJoinProxy:
 481              	.LFB6:
 106:build/openmote-cc2538_armgcc/openstack/02b-MAChigh/neighbors.c **** 
 107:build/openmote-cc2538_armgcc/openstack/02b-MAChigh/neighbors.c **** /**
 108:build/openmote-cc2538_armgcc/openstack/02b-MAChigh/neighbors.c **** \brief Find neighbor which should act as a Join Proxy during the join process.
 109:build/openmote-cc2538_armgcc/openstack/02b-MAChigh/neighbors.c **** 
 110:build/openmote-cc2538_armgcc/openstack/02b-MAChigh/neighbors.c **** This function iterates through the neighbor table and identifies the neighbor
 111:build/openmote-cc2538_armgcc/openstack/02b-MAChigh/neighbors.c **** with lowest join priority metric to send join traffic through. 
 112:build/openmote-cc2538_armgcc/openstack/02b-MAChigh/neighbors.c **** 
 113:build/openmote-cc2538_armgcc/openstack/02b-MAChigh/neighbors.c **** \returns A pointer to the neighbor's address, or NULL if no join proxy is found.
 114:build/openmote-cc2538_armgcc/openstack/02b-MAChigh/neighbors.c **** */
 115:build/openmote-cc2538_armgcc/openstack/02b-MAChigh/neighbors.c **** open_addr_t* neighbors_getJoinProxy(void) {
 482              		.loc 1 115 0
 483              		.cfi_startproc
 484              		@ args = 0, pretend = 0, frame = 8
 485              		@ frame_needed = 1, uses_anonymous_args = 0
 486              		@ link register save eliminated.
 487 0160 80B4     		push	{r7}
 488              		.cfi_def_cfa_offset 4
 489              		.cfi_offset 7, -4
 490 0162 83B0     		sub	sp, sp, #12
 491              		.cfi_def_cfa_offset 16
 492 0164 00AF     		add	r7, sp, #0
 493              		.cfi_def_cfa_register 7
 116:build/openmote-cc2538_armgcc/openstack/02b-MAChigh/neighbors.c ****    uint8_t i;
 117:build/openmote-cc2538_armgcc/openstack/02b-MAChigh/neighbors.c ****    uint8_t joinPrioMinimum;
 118:build/openmote-cc2538_armgcc/openstack/02b-MAChigh/neighbors.c ****    open_addr_t* joinProxy;
 119:build/openmote-cc2538_armgcc/openstack/02b-MAChigh/neighbors.c **** 
 120:build/openmote-cc2538_armgcc/openstack/02b-MAChigh/neighbors.c ****    joinPrioMinimum = 0xff;
 494              		.loc 1 120 0
 495 0166 FF23     		movs	r3, #255
 496 0168 BB71     		strb	r3, [r7, #6]
 121:build/openmote-cc2538_armgcc/openstack/02b-MAChigh/neighbors.c ****    joinProxy = NULL;
 497              		.loc 1 121 0
 498 016a 0023     		movs	r3, #0
 499 016c 3B60     		str	r3, [r7]
 122:build/openmote-cc2538_armgcc/openstack/02b-MAChigh/neighbors.c ****    for (i=0;i<MAXNUMNEIGHBORS;i++) {
 500              		.loc 1 122 0
 501 016e 0023     		movs	r3, #0
 502 0170 FB71     		strb	r3, [r7, #7]
 503 0172 35E0     		b	.L30
 504              	.L32:
 123:build/openmote-cc2538_armgcc/openstack/02b-MAChigh/neighbors.c ****       if (neighbors_vars.neighbors[i].used==TRUE && 
 505              		.loc 1 123 0
 506 0174 FA79     		ldrb	r2, [r7, #7]	@ zero_extendqisi2
 507 0176 1F49     		ldr	r1, .L34
 508 0178 1346     		mov	r3, r2
 509 017a 9B00     		lsls	r3, r3, #2
 510 017c 1344     		add	r3, r3, r2
 511 017e DB00     		lsls	r3, r3, #3
 512 0180 0B44     		add	r3, r3, r1
 513 0182 1B78     		ldrb	r3, [r3]	@ zero_extendqisi2
 514 0184 002B     		cmp	r3, #0
 515 0186 28D0     		beq	.L31
 124:build/openmote-cc2538_armgcc/openstack/02b-MAChigh/neighbors.c ****               neighbors_vars.neighbors[i].stableNeighbor==TRUE &&
 516              		.loc 1 124 0 discriminator 1
 517 0188 FA79     		ldrb	r2, [r7, #7]	@ zero_extendqisi2
 518 018a 1A49     		ldr	r1, .L34
 519 018c 1346     		mov	r3, r2
 520 018e 9B00     		lsls	r3, r3, #2
 521 0190 1344     		add	r3, r3, r2
 522 0192 DB00     		lsls	r3, r3, #3
 523 0194 0B44     		add	r3, r3, r1
 524 0196 DB78     		ldrb	r3, [r3, #3]	@ zero_extendqisi2
 123:build/openmote-cc2538_armgcc/openstack/02b-MAChigh/neighbors.c ****       if (neighbors_vars.neighbors[i].used==TRUE && 
 525              		.loc 1 123 0 discriminator 1
 526 0198 002B     		cmp	r3, #0
 527 019a 1ED0     		beq	.L31
 125:build/openmote-cc2538_armgcc/openstack/02b-MAChigh/neighbors.c ****               neighbors_vars.neighbors[i].joinPrio <= joinPrioMinimum) {
 528              		.loc 1 125 0
 529 019c FA79     		ldrb	r2, [r7, #7]	@ zero_extendqisi2
 530 019e 1549     		ldr	r1, .L34
 531 01a0 1346     		mov	r3, r2
 532 01a2 9B00     		lsls	r3, r3, #2
 533 01a4 1344     		add	r3, r3, r2
 534 01a6 DB00     		lsls	r3, r3, #3
 535 01a8 0B44     		add	r3, r3, r1
 536 01aa 2033     		adds	r3, r3, #32
 537 01ac 9B78     		ldrb	r3, [r3, #2]	@ zero_extendqisi2
 124:build/openmote-cc2538_armgcc/openstack/02b-MAChigh/neighbors.c ****               neighbors_vars.neighbors[i].stableNeighbor==TRUE &&
 538              		.loc 1 124 0
 539 01ae BA79     		ldrb	r2, [r7, #6]	@ zero_extendqisi2
 540 01b0 9A42     		cmp	r2, r3
 541 01b2 12D3     		bcc	.L31
 126:build/openmote-cc2538_armgcc/openstack/02b-MAChigh/neighbors.c ****           joinProxy = &(neighbors_vars.neighbors[i].addr_64b);
 542              		.loc 1 126 0
 543 01b4 FA79     		ldrb	r2, [r7, #7]	@ zero_extendqisi2
 544 01b6 1346     		mov	r3, r2
 545 01b8 9B00     		lsls	r3, r3, #2
 546 01ba 1344     		add	r3, r3, r2
 547 01bc DB00     		lsls	r3, r3, #3
 548 01be 0D4A     		ldr	r2, .L34
 549 01c0 1344     		add	r3, r3, r2
 550 01c2 0533     		adds	r3, r3, #5
 551 01c4 3B60     		str	r3, [r7]
 127:build/openmote-cc2538_armgcc/openstack/02b-MAChigh/neighbors.c ****           joinPrioMinimum = neighbors_vars.neighbors[i].joinPrio;
 552              		.loc 1 127 0
 553 01c6 FA79     		ldrb	r2, [r7, #7]	@ zero_extendqisi2
 554 01c8 0A49     		ldr	r1, .L34
 555 01ca 1346     		mov	r3, r2
 556 01cc 9B00     		lsls	r3, r3, #2
 557 01ce 1344     		add	r3, r3, r2
 558 01d0 DB00     		lsls	r3, r3, #3
 559 01d2 0B44     		add	r3, r3, r1
 560 01d4 2033     		adds	r3, r3, #32
 561 01d6 9B78     		ldrb	r3, [r3, #2]
 562 01d8 BB71     		strb	r3, [r7, #6]
 563              	.L31:
 122:build/openmote-cc2538_armgcc/openstack/02b-MAChigh/neighbors.c ****       if (neighbors_vars.neighbors[i].used==TRUE && 
 564              		.loc 1 122 0 discriminator 2
 565 01da FB79     		ldrb	r3, [r7, #7]	@ zero_extendqisi2
 566 01dc 0133     		adds	r3, r3, #1
 567 01de FB71     		strb	r3, [r7, #7]
 568              	.L30:
 122:build/openmote-cc2538_armgcc/openstack/02b-MAChigh/neighbors.c ****       if (neighbors_vars.neighbors[i].used==TRUE && 
 569              		.loc 1 122 0 is_stmt 0 discriminator 1
 570 01e0 FB79     		ldrb	r3, [r7, #7]	@ zero_extendqisi2
 571 01e2 1D2B     		cmp	r3, #29
 572 01e4 C6D9     		bls	.L32
 128:build/openmote-cc2538_armgcc/openstack/02b-MAChigh/neighbors.c ****       }
 129:build/openmote-cc2538_armgcc/openstack/02b-MAChigh/neighbors.c ****    }
 130:build/openmote-cc2538_armgcc/openstack/02b-MAChigh/neighbors.c ****    return joinProxy;
 573              		.loc 1 130 0 is_stmt 1
 574 01e6 3B68     		ldr	r3, [r7]
 131:build/openmote-cc2538_armgcc/openstack/02b-MAChigh/neighbors.c **** }
 575              		.loc 1 131 0
 576 01e8 1846     		mov	r0, r3
 577 01ea 0C37     		adds	r7, r7, #12
 578              		.cfi_def_cfa_offset 4
 579 01ec BD46     		mov	sp, r7
 580              		.cfi_def_cfa_register 13
 581              		@ sp needed
 582 01ee 5DF8047B 		ldr	r7, [sp], #4
 583              		.cfi_restore 7
 584              		.cfi_def_cfa_offset 0
 585 01f2 7047     		bx	lr
 586              	.L35:
 587              		.align	2
 588              	.L34:
 589 01f4 00000000 		.word	neighbors_vars
 590              		.cfi_endproc
 591              	.LFE6:
 593              		.align	2
 594              		.global	neighbors_getNeighborNoResource
 595              		.thumb
 596              		.thumb_func
 598              	neighbors_getNeighborNoResource:
 599              	.LFB7:
 132:build/openmote-cc2538_armgcc/openstack/02b-MAChigh/neighbors.c **** 
 133:build/openmote-cc2538_armgcc/openstack/02b-MAChigh/neighbors.c **** bool neighbors_getNeighborNoResource(uint8_t index){
 600              		.loc 1 133 0
 601              		.cfi_startproc
 602              		@ args = 0, pretend = 0, frame = 8
 603              		@ frame_needed = 1, uses_anonymous_args = 0
 604              		@ link register save eliminated.
 605 01f8 80B4     		push	{r7}
 606              		.cfi_def_cfa_offset 4
 607              		.cfi_offset 7, -4
 608 01fa 83B0     		sub	sp, sp, #12
 609              		.cfi_def_cfa_offset 16
 610 01fc 00AF     		add	r7, sp, #0
 611              		.cfi_def_cfa_register 7
 612 01fe 0346     		mov	r3, r0
 613 0200 FB71     		strb	r3, [r7, #7]
 134:build/openmote-cc2538_armgcc/openstack/02b-MAChigh/neighbors.c ****     return neighbors_vars.neighbors[index].f6PNORES;
 614              		.loc 1 134 0
 615 0202 FA79     		ldrb	r2, [r7, #7]	@ zero_extendqisi2
 616 0204 0649     		ldr	r1, .L38
 617 0206 1346     		mov	r3, r2
 618 0208 9B00     		lsls	r3, r3, #2
 619 020a 1344     		add	r3, r3, r2
 620 020c DB00     		lsls	r3, r3, #3
 621 020e 0B44     		add	r3, r3, r1
 622 0210 2033     		adds	r3, r3, #32
 623 0212 DB78     		ldrb	r3, [r3, #3]	@ zero_extendqisi2
 135:build/openmote-cc2538_armgcc/openstack/02b-MAChigh/neighbors.c **** }
 624              		.loc 1 135 0
 625 0214 1846     		mov	r0, r3
 626 0216 0C37     		adds	r7, r7, #12
 627              		.cfi_def_cfa_offset 4
 628 0218 BD46     		mov	sp, r7
 629              		.cfi_def_cfa_register 13
 630              		@ sp needed
 631 021a 5DF8047B 		ldr	r7, [sp], #4
 632              		.cfi_restore 7
 633              		.cfi_def_cfa_offset 0
 634 021e 7047     		bx	lr
 635              	.L39:
 636              		.align	2
 637              	.L38:
 638 0220 00000000 		.word	neighbors_vars
 639              		.cfi_endproc
 640              	.LFE7:
 642              		.align	2
 643              		.global	neighbors_getNeighborIsInBlacklist
 644              		.thumb
 645              		.thumb_func
 647              	neighbors_getNeighborIsInBlacklist:
 648              	.LFB8:
 136:build/openmote-cc2538_armgcc/openstack/02b-MAChigh/neighbors.c **** 
 137:build/openmote-cc2538_armgcc/openstack/02b-MAChigh/neighbors.c **** bool neighbors_getNeighborIsInBlacklist(uint8_t index){
 649              		.loc 1 137 0
 650              		.cfi_startproc
 651              		@ args = 0, pretend = 0, frame = 8
 652              		@ frame_needed = 1, uses_anonymous_args = 0
 653              		@ link register save eliminated.
 654 0224 80B4     		push	{r7}
 655              		.cfi_def_cfa_offset 4
 656              		.cfi_offset 7, -4
 657 0226 83B0     		sub	sp, sp, #12
 658              		.cfi_def_cfa_offset 16
 659 0228 00AF     		add	r7, sp, #0
 660              		.cfi_def_cfa_register 7
 661 022a 0346     		mov	r3, r0
 662 022c FB71     		strb	r3, [r7, #7]
 138:build/openmote-cc2538_armgcc/openstack/02b-MAChigh/neighbors.c ****     return neighbors_vars.neighbors[index].inBlacklist;
 663              		.loc 1 138 0
 664 022e FA79     		ldrb	r2, [r7, #7]	@ zero_extendqisi2
 665 0230 0649     		ldr	r1, .L42
 666 0232 1346     		mov	r3, r2
 667 0234 9B00     		lsls	r3, r3, #2
 668 0236 1344     		add	r3, r3, r2
 669 0238 DB00     		lsls	r3, r3, #3
 670 023a 0B44     		add	r3, r3, r1
 671 023c 2033     		adds	r3, r3, #32
 672 023e 1B79     		ldrb	r3, [r3, #4]	@ zero_extendqisi2
 139:build/openmote-cc2538_armgcc/openstack/02b-MAChigh/neighbors.c **** }
 673              		.loc 1 139 0
 674 0240 1846     		mov	r0, r3
 675 0242 0C37     		adds	r7, r7, #12
 676              		.cfi_def_cfa_offset 4
 677 0244 BD46     		mov	sp, r7
 678              		.cfi_def_cfa_register 13
 679              		@ sp needed
 680 0246 5DF8047B 		ldr	r7, [sp], #4
 681              		.cfi_restore 7
 682              		.cfi_def_cfa_offset 0
 683 024a 7047     		bx	lr
 684              	.L43:
 685              		.align	2
 686              	.L42:
 687 024c 00000000 		.word	neighbors_vars
 688              		.cfi_endproc
 689              	.LFE8:
 691              		.align	2
 692              		.global	neighbors_getSequenceNumber
 693              		.thumb
 694              		.thumb_func
 696              	neighbors_getSequenceNumber:
 697              	.LFB9:
 140:build/openmote-cc2538_armgcc/openstack/02b-MAChigh/neighbors.c **** 
 141:build/openmote-cc2538_armgcc/openstack/02b-MAChigh/neighbors.c **** uint8_t neighbors_getSequenceNumber(open_addr_t* address){
 698              		.loc 1 141 0
 699              		.cfi_startproc
 700              		@ args = 0, pretend = 0, frame = 16
 701              		@ frame_needed = 1, uses_anonymous_args = 0
 702 0250 80B5     		push	{r7, lr}
 703              		.cfi_def_cfa_offset 8
 704              		.cfi_offset 7, -8
 705              		.cfi_offset 14, -4
 706 0252 84B0     		sub	sp, sp, #16
 707              		.cfi_def_cfa_offset 24
 708 0254 00AF     		add	r7, sp, #0
 709              		.cfi_def_cfa_register 7
 710 0256 7860     		str	r0, [r7, #4]
 142:build/openmote-cc2538_armgcc/openstack/02b-MAChigh/neighbors.c ****     uint8_t i;
 143:build/openmote-cc2538_armgcc/openstack/02b-MAChigh/neighbors.c ****     for (i=0;i<MAXNUMNEIGHBORS;i++){
 711              		.loc 1 143 0
 712 0258 0023     		movs	r3, #0
 713 025a FB73     		strb	r3, [r7, #15]
 714 025c 12E0     		b	.L45
 715              	.L48:
 144:build/openmote-cc2538_armgcc/openstack/02b-MAChigh/neighbors.c ****         if (packetfunctions_sameAddress(address, &neighbors_vars.neighbors[i].addr_64b)){
 716              		.loc 1 144 0
 717 025e FA7B     		ldrb	r2, [r7, #15]	@ zero_extendqisi2
 718 0260 1346     		mov	r3, r2
 719 0262 9B00     		lsls	r3, r3, #2
 720 0264 1344     		add	r3, r3, r2
 721 0266 DB00     		lsls	r3, r3, #3
 722 0268 0E4A     		ldr	r2, .L50
 723 026a 1344     		add	r3, r3, r2
 724 026c 0533     		adds	r3, r3, #5
 725 026e 7868     		ldr	r0, [r7, #4]
 726 0270 1946     		mov	r1, r3
 727 0272 FFF7FEFF 		bl	packetfunctions_sameAddress
 728 0276 0346     		mov	r3, r0
 729 0278 002B     		cmp	r3, #0
 730 027a 00D0     		beq	.L46
 145:build/openmote-cc2538_armgcc/openstack/02b-MAChigh/neighbors.c ****             break;
 731              		.loc 1 145 0
 732 027c 05E0     		b	.L47
 733              	.L46:
 143:build/openmote-cc2538_armgcc/openstack/02b-MAChigh/neighbors.c ****         if (packetfunctions_sameAddress(address, &neighbors_vars.neighbors[i].addr_64b)){
 734              		.loc 1 143 0 discriminator 2
 735 027e FB7B     		ldrb	r3, [r7, #15]	@ zero_extendqisi2
 736 0280 0133     		adds	r3, r3, #1
 737 0282 FB73     		strb	r3, [r7, #15]
 738              	.L45:
 143:build/openmote-cc2538_armgcc/openstack/02b-MAChigh/neighbors.c ****         if (packetfunctions_sameAddress(address, &neighbors_vars.neighbors[i].addr_64b)){
 739              		.loc 1 143 0 is_stmt 0 discriminator 1
 740 0284 FB7B     		ldrb	r3, [r7, #15]	@ zero_extendqisi2
 741 0286 1D2B     		cmp	r3, #29
 742 0288 E9D9     		bls	.L48
 743              	.L47:
 146:build/openmote-cc2538_armgcc/openstack/02b-MAChigh/neighbors.c ****         }
 147:build/openmote-cc2538_armgcc/openstack/02b-MAChigh/neighbors.c ****     }
 148:build/openmote-cc2538_armgcc/openstack/02b-MAChigh/neighbors.c ****     return neighbors_vars.neighbors[i].sequenceNumber;
 744              		.loc 1 148 0 is_stmt 1
 745 028a FA7B     		ldrb	r2, [r7, #15]	@ zero_extendqisi2
 746 028c 0549     		ldr	r1, .L50
 747 028e 1346     		mov	r3, r2
 748 0290 9B00     		lsls	r3, r3, #2
 749 0292 1344     		add	r3, r3, r2
 750 0294 DB00     		lsls	r3, r3, #3
 751 0296 0B44     		add	r3, r3, r1
 752 0298 2033     		adds	r3, r3, #32
 753 029a 5B79     		ldrb	r3, [r3, #5]	@ zero_extendqisi2
 149:build/openmote-cc2538_armgcc/openstack/02b-MAChigh/neighbors.c **** 
 150:build/openmote-cc2538_armgcc/openstack/02b-MAChigh/neighbors.c **** }
 754              		.loc 1 150 0
 755 029c 1846     		mov	r0, r3
 756 029e 1037     		adds	r7, r7, #16
 757              		.cfi_def_cfa_offset 8
 758 02a0 BD46     		mov	sp, r7
 759              		.cfi_def_cfa_register 13
 760              		@ sp needed
 761 02a2 80BD     		pop	{r7, pc}
 762              	.L51:
 763              		.align	2
 764              	.L50:
 765 02a4 00000000 		.word	neighbors_vars
 766              		.cfi_endproc
 767              	.LFE9:
 769              		.align	2
 770              		.global	neighbors_isStableNeighbor
 771              		.thumb
 772              		.thumb_func
 774              	neighbors_isStableNeighbor:
 775              	.LFB10:
 151:build/openmote-cc2538_armgcc/openstack/02b-MAChigh/neighbors.c **** 
 152:build/openmote-cc2538_armgcc/openstack/02b-MAChigh/neighbors.c **** //===== interrogators
 153:build/openmote-cc2538_armgcc/openstack/02b-MAChigh/neighbors.c **** 
 154:build/openmote-cc2538_armgcc/openstack/02b-MAChigh/neighbors.c **** /**
 155:build/openmote-cc2538_armgcc/openstack/02b-MAChigh/neighbors.c **** \brief Indicate whether some neighbor is a stable neighbor
 156:build/openmote-cc2538_armgcc/openstack/02b-MAChigh/neighbors.c **** 
 157:build/openmote-cc2538_armgcc/openstack/02b-MAChigh/neighbors.c **** \param[in] address The address of the neighbor, a full 128-bit IPv6 addres.
 158:build/openmote-cc2538_armgcc/openstack/02b-MAChigh/neighbors.c **** 
 159:build/openmote-cc2538_armgcc/openstack/02b-MAChigh/neighbors.c **** \returns TRUE if that neighbor is stable, FALSE otherwise.
 160:build/openmote-cc2538_armgcc/openstack/02b-MAChigh/neighbors.c **** */
 161:build/openmote-cc2538_armgcc/openstack/02b-MAChigh/neighbors.c **** bool neighbors_isStableNeighbor(open_addr_t* address) {
 776              		.loc 1 161 0
 777              		.cfi_startproc
 778              		@ args = 0, pretend = 0, frame = 48
 779              		@ frame_needed = 1, uses_anonymous_args = 0
 780 02a8 80B5     		push	{r7, lr}
 781              		.cfi_def_cfa_offset 8
 782              		.cfi_offset 7, -8
 783              		.cfi_offset 14, -4
 784 02aa 8CB0     		sub	sp, sp, #48
 785              		.cfi_def_cfa_offset 56
 786 02ac 00AF     		add	r7, sp, #0
 787              		.cfi_def_cfa_register 7
 788 02ae 7860     		str	r0, [r7, #4]
 162:build/openmote-cc2538_armgcc/openstack/02b-MAChigh/neighbors.c ****    uint8_t     i;
 163:build/openmote-cc2538_armgcc/openstack/02b-MAChigh/neighbors.c ****    open_addr_t temp_addr_64b;
 164:build/openmote-cc2538_armgcc/openstack/02b-MAChigh/neighbors.c ****    open_addr_t temp_prefix;
 165:build/openmote-cc2538_armgcc/openstack/02b-MAChigh/neighbors.c ****    bool        returnVal;
 166:build/openmote-cc2538_armgcc/openstack/02b-MAChigh/neighbors.c ****    
 167:build/openmote-cc2538_armgcc/openstack/02b-MAChigh/neighbors.c ****    // by default, not stable
 168:build/openmote-cc2538_armgcc/openstack/02b-MAChigh/neighbors.c ****    returnVal  = FALSE;
 789              		.loc 1 168 0
 790 02b0 0023     		movs	r3, #0
 791 02b2 87F82E30 		strb	r3, [r7, #46]
 169:build/openmote-cc2538_armgcc/openstack/02b-MAChigh/neighbors.c ****    
 170:build/openmote-cc2538_armgcc/openstack/02b-MAChigh/neighbors.c ****    // but neighbor's IPv6 address in prefix and EUI64
 171:build/openmote-cc2538_armgcc/openstack/02b-MAChigh/neighbors.c ****    switch (address->type) {
 792              		.loc 1 171 0
 793 02b6 7B68     		ldr	r3, [r7, #4]
 794 02b8 1B78     		ldrb	r3, [r3]	@ zero_extendqisi2
 795 02ba 032B     		cmp	r3, #3
 796 02bc 0DD1     		bne	.L62
 172:build/openmote-cc2538_armgcc/openstack/02b-MAChigh/neighbors.c ****       case ADDR_128B:
 173:build/openmote-cc2538_armgcc/openstack/02b-MAChigh/neighbors.c ****          packetfunctions_ip128bToMac64b(address,&temp_prefix,&temp_addr_64b);
 797              		.loc 1 173 0
 798 02be 07F10802 		add	r2, r7, #8
 799 02c2 07F11C03 		add	r3, r7, #28
 800 02c6 7868     		ldr	r0, [r7, #4]
 801 02c8 1146     		mov	r1, r2
 802 02ca 1A46     		mov	r2, r3
 803 02cc FFF7FEFF 		bl	packetfunctions_ip128bToMac64b
 174:build/openmote-cc2538_armgcc/openstack/02b-MAChigh/neighbors.c ****          break;
 804              		.loc 1 174 0
 805 02d0 00BF     		nop
 175:build/openmote-cc2538_armgcc/openstack/02b-MAChigh/neighbors.c ****       default:
 176:build/openmote-cc2538_armgcc/openstack/02b-MAChigh/neighbors.c ****          openserial_printCritical(COMPONENT_NEIGHBORS,ERR_WRONG_ADDR_TYPE,
 177:build/openmote-cc2538_armgcc/openstack/02b-MAChigh/neighbors.c ****                                (errorparameter_t)address->type,
 178:build/openmote-cc2538_armgcc/openstack/02b-MAChigh/neighbors.c ****                                (errorparameter_t)0);
 179:build/openmote-cc2538_armgcc/openstack/02b-MAChigh/neighbors.c ****          return returnVal;
 180:build/openmote-cc2538_armgcc/openstack/02b-MAChigh/neighbors.c ****    }
 181:build/openmote-cc2538_armgcc/openstack/02b-MAChigh/neighbors.c ****    
 182:build/openmote-cc2538_armgcc/openstack/02b-MAChigh/neighbors.c ****    // iterate through neighbor table
 183:build/openmote-cc2538_armgcc/openstack/02b-MAChigh/neighbors.c ****    for (i=0;i<MAXNUMNEIGHBORS;i++) {
 806              		.loc 1 183 0
 807 02d2 0023     		movs	r3, #0
 808 02d4 87F82F30 		strb	r3, [r7, #47]
 809 02d8 2AE0     		b	.L57
 810              	.L62:
 177:build/openmote-cc2538_armgcc/openstack/02b-MAChigh/neighbors.c ****                                (errorparameter_t)0);
 811              		.loc 1 177 0
 812 02da 7B68     		ldr	r3, [r7, #4]
 813 02dc 1B78     		ldrb	r3, [r3]	@ zero_extendqisi2
 176:build/openmote-cc2538_armgcc/openstack/02b-MAChigh/neighbors.c ****                                (errorparameter_t)address->type,
 814              		.loc 1 176 0
 815 02de 9BB2     		uxth	r3, r3
 816 02e0 0D20     		movs	r0, #13
 817 02e2 3121     		movs	r1, #49
 818 02e4 1A46     		mov	r2, r3
 819 02e6 0023     		movs	r3, #0
 820 02e8 FFF7FEFF 		bl	openserial_printCritical
 179:build/openmote-cc2538_armgcc/openstack/02b-MAChigh/neighbors.c ****    }
 821              		.loc 1 179 0
 822 02ec 97F82E30 		ldrb	r3, [r7, #46]	@ zero_extendqisi2
 823 02f0 24E0     		b	.L61
 824              	.L60:
 184:build/openmote-cc2538_armgcc/openstack/02b-MAChigh/neighbors.c ****       if (isThisRowMatching(&temp_addr_64b,i) && neighbors_vars.neighbors[i].stableNeighbor==TRUE) 
 825              		.loc 1 184 0
 826 02f2 07F11C02 		add	r2, r7, #28
 827 02f6 97F82F30 		ldrb	r3, [r7, #47]	@ zero_extendqisi2
 828 02fa 1046     		mov	r0, r2
 829 02fc 1946     		mov	r1, r3
 830 02fe FFF7FEFF 		bl	isThisRowMatching
 831 0302 0346     		mov	r3, r0
 832 0304 002B     		cmp	r3, #0
 833 0306 0ED0     		beq	.L58
 834              		.loc 1 184 0 is_stmt 0 discriminator 1
 835 0308 97F82F20 		ldrb	r2, [r7, #47]	@ zero_extendqisi2
 836 030c 0D49     		ldr	r1, .L63
 837 030e 1346     		mov	r3, r2
 838 0310 9B00     		lsls	r3, r3, #2
 839 0312 1344     		add	r3, r3, r2
 840 0314 DB00     		lsls	r3, r3, #3
 841 0316 0B44     		add	r3, r3, r1
 842 0318 DB78     		ldrb	r3, [r3, #3]	@ zero_extendqisi2
 843 031a 002B     		cmp	r3, #0
 844 031c 03D0     		beq	.L58
 185:build/openmote-cc2538_armgcc/openstack/02b-MAChigh/neighbors.c ****          returnVal  = TRUE;
 845              		.loc 1 185 0 is_stmt 1
 846 031e 0123     		movs	r3, #1
 847 0320 87F82E30 		strb	r3, [r7, #46]
 186:build/openmote-cc2538_armgcc/openstack/02b-MAChigh/neighbors.c ****          break;
 848              		.loc 1 186 0
 849 0324 08E0     		b	.L59
 850              	.L58:
 183:build/openmote-cc2538_armgcc/openstack/02b-MAChigh/neighbors.c ****       if (isThisRowMatching(&temp_addr_64b,i) && neighbors_vars.neighbors[i].stableNeighbor==TRUE) 
 851              		.loc 1 183 0 discriminator 2
 852 0326 97F82F30 		ldrb	r3, [r7, #47]	@ zero_extendqisi2
 853 032a 0133     		adds	r3, r3, #1
 854 032c 87F82F30 		strb	r3, [r7, #47]
 855              	.L57:
 183:build/openmote-cc2538_armgcc/openstack/02b-MAChigh/neighbors.c ****       if (isThisRowMatching(&temp_addr_64b,i) && neighbors_vars.neighbors[i].stableNeighbor==TRUE) 
 856              		.loc 1 183 0 is_stmt 0 discriminator 1
 857 0330 97F82F30 		ldrb	r3, [r7, #47]	@ zero_extendqisi2
 858 0334 1D2B     		cmp	r3, #29
 859 0336 DCD9     		bls	.L60
 860              	.L59:
 187:build/openmote-cc2538_armgcc/openstack/02b-MAChigh/neighbors.c ****       }
 188:build/openmote-cc2538_armgcc/openstack/02b-MAChigh/neighbors.c ****    }
 189:build/openmote-cc2538_armgcc/openstack/02b-MAChigh/neighbors.c ****    
 190:build/openmote-cc2538_armgcc/openstack/02b-MAChigh/neighbors.c ****    return returnVal;
 861              		.loc 1 190 0 is_stmt 1
 862 0338 97F82E30 		ldrb	r3, [r7, #46]	@ zero_extendqisi2
 863              	.L61:
 191:build/openmote-cc2538_armgcc/openstack/02b-MAChigh/neighbors.c **** }
 864              		.loc 1 191 0 discriminator 1
 865 033c 1846     		mov	r0, r3
 866 033e 3037     		adds	r7, r7, #48
 867              		.cfi_def_cfa_offset 8
 868 0340 BD46     		mov	sp, r7
 869              		.cfi_def_cfa_register 13
 870              		@ sp needed
 871 0342 80BD     		pop	{r7, pc}
 872              	.L64:
 873              		.align	2
 874              	.L63:
 875 0344 00000000 		.word	neighbors_vars
 876              		.cfi_endproc
 877              	.LFE10:
 879              		.align	2
 880              		.global	neighbors_isStableNeighborByIndex
 881              		.thumb
 882              		.thumb_func
 884              	neighbors_isStableNeighborByIndex:
 885              	.LFB11:
 192:build/openmote-cc2538_armgcc/openstack/02b-MAChigh/neighbors.c **** 
 193:build/openmote-cc2538_armgcc/openstack/02b-MAChigh/neighbors.c **** /**
 194:build/openmote-cc2538_armgcc/openstack/02b-MAChigh/neighbors.c **** \brief Indicate whether some neighbor is a stable neighbor
 195:build/openmote-cc2538_armgcc/openstack/02b-MAChigh/neighbors.c **** 
 196:build/openmote-cc2538_armgcc/openstack/02b-MAChigh/neighbors.c **** \param[in] index into the neighbor table.
 197:build/openmote-cc2538_armgcc/openstack/02b-MAChigh/neighbors.c **** 
 198:build/openmote-cc2538_armgcc/openstack/02b-MAChigh/neighbors.c **** \returns TRUE if that neighbor is in use and stable, FALSE otherwise.
 199:build/openmote-cc2538_armgcc/openstack/02b-MAChigh/neighbors.c **** */
 200:build/openmote-cc2538_armgcc/openstack/02b-MAChigh/neighbors.c **** bool neighbors_isStableNeighborByIndex(uint8_t index) {
 886              		.loc 1 200 0
 887              		.cfi_startproc
 888              		@ args = 0, pretend = 0, frame = 8
 889              		@ frame_needed = 1, uses_anonymous_args = 0
 890              		@ link register save eliminated.
 891 0348 80B4     		push	{r7}
 892              		.cfi_def_cfa_offset 4
 893              		.cfi_offset 7, -4
 894 034a 83B0     		sub	sp, sp, #12
 895              		.cfi_def_cfa_offset 16
 896 034c 00AF     		add	r7, sp, #0
 897              		.cfi_def_cfa_register 7
 898 034e 0346     		mov	r3, r0
 899 0350 FB71     		strb	r3, [r7, #7]
 201:build/openmote-cc2538_armgcc/openstack/02b-MAChigh/neighbors.c ****    return (neighbors_vars.neighbors[index].stableNeighbor &&
 900              		.loc 1 201 0
 901 0352 FA79     		ldrb	r2, [r7, #7]	@ zero_extendqisi2
 902 0354 0F49     		ldr	r1, .L69
 903 0356 1346     		mov	r3, r2
 904 0358 9B00     		lsls	r3, r3, #2
 905 035a 1344     		add	r3, r3, r2
 906 035c DB00     		lsls	r3, r3, #3
 907 035e 0B44     		add	r3, r3, r1
 908 0360 DB78     		ldrb	r3, [r3, #3]	@ zero_extendqisi2
 909 0362 002B     		cmp	r3, #0
 910 0364 0BD0     		beq	.L66
 202:build/openmote-cc2538_armgcc/openstack/02b-MAChigh/neighbors.c ****            neighbors_vars.neighbors[index].used);
 911              		.loc 1 202 0 discriminator 1
 912 0366 FA79     		ldrb	r2, [r7, #7]	@ zero_extendqisi2
 913 0368 0A49     		ldr	r1, .L69
 914 036a 1346     		mov	r3, r2
 915 036c 9B00     		lsls	r3, r3, #2
 916 036e 1344     		add	r3, r3, r2
 917 0370 DB00     		lsls	r3, r3, #3
 918 0372 0B44     		add	r3, r3, r1
 919 0374 1B78     		ldrb	r3, [r3]	@ zero_extendqisi2
 201:build/openmote-cc2538_armgcc/openstack/02b-MAChigh/neighbors.c ****    return (neighbors_vars.neighbors[index].stableNeighbor &&
 920              		.loc 1 201 0 discriminator 1
 921 0376 002B     		cmp	r3, #0
 922 0378 01D0     		beq	.L66
 201:build/openmote-cc2538_armgcc/openstack/02b-MAChigh/neighbors.c ****    return (neighbors_vars.neighbors[index].stableNeighbor &&
 923              		.loc 1 201 0 is_stmt 0 discriminator 3
 924 037a 0123     		movs	r3, #1
 925 037c 00E0     		b	.L67
 926              	.L66:
 201:build/openmote-cc2538_armgcc/openstack/02b-MAChigh/neighbors.c ****    return (neighbors_vars.neighbors[index].stableNeighbor &&
 927              		.loc 1 201 0 discriminator 4
 928 037e 0023     		movs	r3, #0
 929              	.L67:
 201:build/openmote-cc2538_armgcc/openstack/02b-MAChigh/neighbors.c ****    return (neighbors_vars.neighbors[index].stableNeighbor &&
 930              		.loc 1 201 0 discriminator 6
 931 0380 03F00103 		and	r3, r3, #1
 932 0384 DBB2     		uxtb	r3, r3
 203:build/openmote-cc2538_armgcc/openstack/02b-MAChigh/neighbors.c **** }
 933              		.loc 1 203 0 is_stmt 1 discriminator 6
 934 0386 1846     		mov	r0, r3
 935 0388 0C37     		adds	r7, r7, #12
 936              		.cfi_def_cfa_offset 4
 937 038a BD46     		mov	sp, r7
 938              		.cfi_def_cfa_register 13
 939              		@ sp needed
 940 038c 5DF8047B 		ldr	r7, [sp], #4
 941              		.cfi_restore 7
 942              		.cfi_def_cfa_offset 0
 943 0390 7047     		bx	lr
 944              	.L70:
 945 0392 00BF     		.align	2
 946              	.L69:
 947 0394 00000000 		.word	neighbors_vars
 948              		.cfi_endproc
 949              	.LFE11:
 951              		.align	2
 952              		.global	neighbors_isInsecureNeighbor
 953              		.thumb
 954              		.thumb_func
 956              	neighbors_isInsecureNeighbor:
 957              	.LFB12:
 204:build/openmote-cc2538_armgcc/openstack/02b-MAChigh/neighbors.c **** 
 205:build/openmote-cc2538_armgcc/openstack/02b-MAChigh/neighbors.c **** /**
 206:build/openmote-cc2538_armgcc/openstack/02b-MAChigh/neighbors.c **** \brief Indicate whether some neighbor is an insecure neighbor
 207:build/openmote-cc2538_armgcc/openstack/02b-MAChigh/neighbors.c **** 
 208:build/openmote-cc2538_armgcc/openstack/02b-MAChigh/neighbors.c **** \param[in] address The address of the neighbor, a 64-bit address.
 209:build/openmote-cc2538_armgcc/openstack/02b-MAChigh/neighbors.c **** 
 210:build/openmote-cc2538_armgcc/openstack/02b-MAChigh/neighbors.c **** \returns TRUE if that neighbor is insecure, FALSE otherwise.
 211:build/openmote-cc2538_armgcc/openstack/02b-MAChigh/neighbors.c **** */
 212:build/openmote-cc2538_armgcc/openstack/02b-MAChigh/neighbors.c **** bool neighbors_isInsecureNeighbor(open_addr_t* address) {
 958              		.loc 1 212 0
 959              		.cfi_startproc
 960              		@ args = 0, pretend = 0, frame = 16
 961              		@ frame_needed = 1, uses_anonymous_args = 0
 962 0398 80B5     		push	{r7, lr}
 963              		.cfi_def_cfa_offset 8
 964              		.cfi_offset 7, -8
 965              		.cfi_offset 14, -4
 966 039a 84B0     		sub	sp, sp, #16
 967              		.cfi_def_cfa_offset 24
 968 039c 00AF     		add	r7, sp, #0
 969              		.cfi_def_cfa_register 7
 970 039e 7860     		str	r0, [r7, #4]
 213:build/openmote-cc2538_armgcc/openstack/02b-MAChigh/neighbors.c ****    uint8_t     i;
 214:build/openmote-cc2538_armgcc/openstack/02b-MAChigh/neighbors.c ****    bool        returnVal;
 215:build/openmote-cc2538_armgcc/openstack/02b-MAChigh/neighbors.c ****    
 216:build/openmote-cc2538_armgcc/openstack/02b-MAChigh/neighbors.c ****    // if not found, insecure
 217:build/openmote-cc2538_armgcc/openstack/02b-MAChigh/neighbors.c ****    returnVal  = TRUE;
 971              		.loc 1 217 0
 972 03a0 0123     		movs	r3, #1
 973 03a2 BB73     		strb	r3, [r7, #14]
 218:build/openmote-cc2538_armgcc/openstack/02b-MAChigh/neighbors.c ****    
 219:build/openmote-cc2538_armgcc/openstack/02b-MAChigh/neighbors.c ****    switch (address->type) {
 974              		.loc 1 219 0
 975 03a4 7B68     		ldr	r3, [r7, #4]
 976 03a6 1B78     		ldrb	r3, [r3]	@ zero_extendqisi2
 977 03a8 022B     		cmp	r3, #2
 978 03aa 0AD0     		beq	.L80
 220:build/openmote-cc2538_armgcc/openstack/02b-MAChigh/neighbors.c ****       case ADDR_64B:
 221:build/openmote-cc2538_armgcc/openstack/02b-MAChigh/neighbors.c ****          break;
 222:build/openmote-cc2538_armgcc/openstack/02b-MAChigh/neighbors.c ****       default:
 223:build/openmote-cc2538_armgcc/openstack/02b-MAChigh/neighbors.c ****          openserial_printCritical(COMPONENT_NEIGHBORS,ERR_WRONG_ADDR_TYPE,
 224:build/openmote-cc2538_armgcc/openstack/02b-MAChigh/neighbors.c ****                                (errorparameter_t)address->type,
 979              		.loc 1 224 0
 980 03ac 7B68     		ldr	r3, [r7, #4]
 981 03ae 1B78     		ldrb	r3, [r3]	@ zero_extendqisi2
 223:build/openmote-cc2538_armgcc/openstack/02b-MAChigh/neighbors.c ****                                (errorparameter_t)address->type,
 982              		.loc 1 223 0
 983 03b0 9BB2     		uxth	r3, r3
 984 03b2 0D20     		movs	r0, #13
 985 03b4 3121     		movs	r1, #49
 986 03b6 1A46     		mov	r2, r3
 987 03b8 0023     		movs	r3, #0
 988 03ba FFF7FEFF 		bl	openserial_printCritical
 225:build/openmote-cc2538_armgcc/openstack/02b-MAChigh/neighbors.c ****                                (errorparameter_t)0);
 226:build/openmote-cc2538_armgcc/openstack/02b-MAChigh/neighbors.c ****          return returnVal;
 989              		.loc 1 226 0
 990 03be BB7B     		ldrb	r3, [r7, #14]	@ zero_extendqisi2
 991 03c0 1CE0     		b	.L75
 992              	.L80:
 221:build/openmote-cc2538_armgcc/openstack/02b-MAChigh/neighbors.c ****       default:
 993              		.loc 1 221 0
 994 03c2 00BF     		nop
 227:build/openmote-cc2538_armgcc/openstack/02b-MAChigh/neighbors.c ****    }
 228:build/openmote-cc2538_armgcc/openstack/02b-MAChigh/neighbors.c ****    
 229:build/openmote-cc2538_armgcc/openstack/02b-MAChigh/neighbors.c ****    // iterate through neighbor table
 230:build/openmote-cc2538_armgcc/openstack/02b-MAChigh/neighbors.c ****    for (i=0;i<MAXNUMNEIGHBORS;i++) {
 995              		.loc 1 230 0
 996 03c4 0023     		movs	r3, #0
 997 03c6 FB73     		strb	r3, [r7, #15]
 998 03c8 14E0     		b	.L76
 999              	.L79:
 231:build/openmote-cc2538_armgcc/openstack/02b-MAChigh/neighbors.c ****       if (isThisRowMatching(address,i)) {
 1000              		.loc 1 231 0
 1001 03ca FB7B     		ldrb	r3, [r7, #15]	@ zero_extendqisi2
 1002 03cc 7868     		ldr	r0, [r7, #4]
 1003 03ce 1946     		mov	r1, r3
 1004 03d0 FFF7FEFF 		bl	isThisRowMatching
 1005 03d4 0346     		mov	r3, r0
 1006 03d6 002B     		cmp	r3, #0
 1007 03d8 09D0     		beq	.L77
 232:build/openmote-cc2538_armgcc/openstack/02b-MAChigh/neighbors.c ****          returnVal  = neighbors_vars.neighbors[i].insecure;
 1008              		.loc 1 232 0
 1009 03da FA7B     		ldrb	r2, [r7, #15]	@ zero_extendqisi2
 1010 03dc 0949     		ldr	r1, .L81
 1011 03de 1346     		mov	r3, r2
 1012 03e0 9B00     		lsls	r3, r3, #2
 1013 03e2 1344     		add	r3, r3, r2
 1014 03e4 DB00     		lsls	r3, r3, #3
 1015 03e6 0B44     		add	r3, r3, r1
 1016 03e8 5B78     		ldrb	r3, [r3, #1]
 1017 03ea BB73     		strb	r3, [r7, #14]
 233:build/openmote-cc2538_armgcc/openstack/02b-MAChigh/neighbors.c ****          break;
 1018              		.loc 1 233 0
 1019 03ec 05E0     		b	.L78
 1020              	.L77:
 230:build/openmote-cc2538_armgcc/openstack/02b-MAChigh/neighbors.c ****       if (isThisRowMatching(address,i)) {
 1021              		.loc 1 230 0 discriminator 2
 1022 03ee FB7B     		ldrb	r3, [r7, #15]	@ zero_extendqisi2
 1023 03f0 0133     		adds	r3, r3, #1
 1024 03f2 FB73     		strb	r3, [r7, #15]
 1025              	.L76:
 230:build/openmote-cc2538_armgcc/openstack/02b-MAChigh/neighbors.c ****       if (isThisRowMatching(address,i)) {
 1026              		.loc 1 230 0 is_stmt 0 discriminator 1
 1027 03f4 FB7B     		ldrb	r3, [r7, #15]	@ zero_extendqisi2
 1028 03f6 1D2B     		cmp	r3, #29
 1029 03f8 E7D9     		bls	.L79
 1030              	.L78:
 234:build/openmote-cc2538_armgcc/openstack/02b-MAChigh/neighbors.c ****       }
 235:build/openmote-cc2538_armgcc/openstack/02b-MAChigh/neighbors.c ****    }
 236:build/openmote-cc2538_armgcc/openstack/02b-MAChigh/neighbors.c ****    
 237:build/openmote-cc2538_armgcc/openstack/02b-MAChigh/neighbors.c ****    return returnVal;
 1031              		.loc 1 237 0 is_stmt 1
 1032 03fa BB7B     		ldrb	r3, [r7, #14]	@ zero_extendqisi2
 1033              	.L75:
 238:build/openmote-cc2538_armgcc/openstack/02b-MAChigh/neighbors.c **** }
 1034              		.loc 1 238 0
 1035 03fc 1846     		mov	r0, r3
 1036 03fe 1037     		adds	r7, r7, #16
 1037              		.cfi_def_cfa_offset 8
 1038 0400 BD46     		mov	sp, r7
 1039              		.cfi_def_cfa_register 13
 1040              		@ sp needed
 1041 0402 80BD     		pop	{r7, pc}
 1042              	.L82:
 1043              		.align	2
 1044              	.L81:
 1045 0404 00000000 		.word	neighbors_vars
 1046              		.cfi_endproc
 1047              	.LFE12:
 1049              		.align	2
 1050              		.global	neighbors_isNeighborWithHigherDAGrank
 1051              		.thumb
 1052              		.thumb_func
 1054              	neighbors_isNeighborWithHigherDAGrank:
 1055              	.LFB13:
 239:build/openmote-cc2538_armgcc/openstack/02b-MAChigh/neighbors.c **** 
 240:build/openmote-cc2538_armgcc/openstack/02b-MAChigh/neighbors.c **** /**
 241:build/openmote-cc2538_armgcc/openstack/02b-MAChigh/neighbors.c **** \brief Indicate whether some neighbor has a lower DAG rank that me.
 242:build/openmote-cc2538_armgcc/openstack/02b-MAChigh/neighbors.c **** 
 243:build/openmote-cc2538_armgcc/openstack/02b-MAChigh/neighbors.c **** \param[in] index The index of that neighbor in the neighbor table.
 244:build/openmote-cc2538_armgcc/openstack/02b-MAChigh/neighbors.c **** 
 245:build/openmote-cc2538_armgcc/openstack/02b-MAChigh/neighbors.c **** \returns TRUE if that neighbor is in use and has a higher DAG rank than me, FALSE otherwise.
 246:build/openmote-cc2538_armgcc/openstack/02b-MAChigh/neighbors.c **** */
 247:build/openmote-cc2538_armgcc/openstack/02b-MAChigh/neighbors.c **** bool neighbors_isNeighborWithHigherDAGrank(uint8_t index) {
 1056              		.loc 1 247 0
 1057              		.cfi_startproc
 1058              		@ args = 0, pretend = 0, frame = 16
 1059              		@ frame_needed = 1, uses_anonymous_args = 0
 1060 0408 90B5     		push	{r4, r7, lr}
 1061              		.cfi_def_cfa_offset 12
 1062              		.cfi_offset 4, -12
 1063              		.cfi_offset 7, -8
 1064              		.cfi_offset 14, -4
 1065 040a 85B0     		sub	sp, sp, #20
 1066              		.cfi_def_cfa_offset 32
 1067 040c 00AF     		add	r7, sp, #0
 1068              		.cfi_def_cfa_register 7
 1069 040e 0346     		mov	r3, r0
 1070 0410 FB71     		strb	r3, [r7, #7]
 248:build/openmote-cc2538_armgcc/openstack/02b-MAChigh/neighbors.c ****    bool    returnVal;
 249:build/openmote-cc2538_armgcc/openstack/02b-MAChigh/neighbors.c ****    
 250:build/openmote-cc2538_armgcc/openstack/02b-MAChigh/neighbors.c ****    if (neighbors_vars.neighbors[index].used==TRUE &&
 1071              		.loc 1 250 0
 1072 0412 FA79     		ldrb	r2, [r7, #7]	@ zero_extendqisi2
 1073 0414 1049     		ldr	r1, .L87
 1074 0416 1346     		mov	r3, r2
 1075 0418 9B00     		lsls	r3, r3, #2
 1076 041a 1344     		add	r3, r3, r2
 1077 041c DB00     		lsls	r3, r3, #3
 1078 041e 0B44     		add	r3, r3, r1
 1079 0420 1B78     		ldrb	r3, [r3]	@ zero_extendqisi2
 1080 0422 002B     		cmp	r3, #0
 1081 0424 10D0     		beq	.L84
 251:build/openmote-cc2538_armgcc/openstack/02b-MAChigh/neighbors.c ****        neighbors_vars.neighbors[index].DAGrank >= icmpv6rpl_getMyDAGrank()) { 
 1082              		.loc 1 251 0 discriminator 1
 1083 0426 FA79     		ldrb	r2, [r7, #7]	@ zero_extendqisi2
 1084 0428 0B49     		ldr	r1, .L87
 1085 042a 1346     		mov	r3, r2
 1086 042c 9B00     		lsls	r3, r3, #2
 1087 042e 1344     		add	r3, r3, r2
 1088 0430 DB00     		lsls	r3, r3, #3
 1089 0432 0B44     		add	r3, r3, r1
 1090 0434 1033     		adds	r3, r3, #16
 1091 0436 DC88     		ldrh	r4, [r3, #6]
 1092 0438 FFF7FEFF 		bl	icmpv6rpl_getMyDAGrank
 1093 043c 0346     		mov	r3, r0
 250:build/openmote-cc2538_armgcc/openstack/02b-MAChigh/neighbors.c ****        neighbors_vars.neighbors[index].DAGrank >= icmpv6rpl_getMyDAGrank()) { 
 1094              		.loc 1 250 0 discriminator 1
 1095 043e 9C42     		cmp	r4, r3
 1096 0440 02D3     		bcc	.L84
 252:build/openmote-cc2538_armgcc/openstack/02b-MAChigh/neighbors.c ****       returnVal = TRUE;
 1097              		.loc 1 252 0
 1098 0442 0123     		movs	r3, #1
 1099 0444 FB73     		strb	r3, [r7, #15]
 1100 0446 01E0     		b	.L85
 1101              	.L84:
 253:build/openmote-cc2538_armgcc/openstack/02b-MAChigh/neighbors.c ****    } else {
 254:build/openmote-cc2538_armgcc/openstack/02b-MAChigh/neighbors.c ****       returnVal = FALSE;
 1102              		.loc 1 254 0
 1103 0448 0023     		movs	r3, #0
 1104 044a FB73     		strb	r3, [r7, #15]
 1105              	.L85:
 255:build/openmote-cc2538_armgcc/openstack/02b-MAChigh/neighbors.c ****    }
 256:build/openmote-cc2538_armgcc/openstack/02b-MAChigh/neighbors.c ****    
 257:build/openmote-cc2538_armgcc/openstack/02b-MAChigh/neighbors.c ****    return returnVal;
 1106              		.loc 1 257 0
 1107 044c FB7B     		ldrb	r3, [r7, #15]	@ zero_extendqisi2
 258:build/openmote-cc2538_armgcc/openstack/02b-MAChigh/neighbors.c **** }
 1108              		.loc 1 258 0
 1109 044e 1846     		mov	r0, r3
 1110 0450 1437     		adds	r7, r7, #20
 1111              		.cfi_def_cfa_offset 12
 1112 0452 BD46     		mov	sp, r7
 1113              		.cfi_def_cfa_register 13
 1114              		@ sp needed
 1115 0454 90BD     		pop	{r4, r7, pc}
 1116              	.L88:
 1117 0456 00BF     		.align	2
 1118              	.L87:
 1119 0458 00000000 		.word	neighbors_vars
 1120              		.cfi_endproc
 1121              	.LFE13:
 1123              		.align	2
 1124              		.global	neighbors_reachedMinimalTransmission
 1125              		.thumb
 1126              		.thumb_func
 1128              	neighbors_reachedMinimalTransmission:
 1129              	.LFB14:
 259:build/openmote-cc2538_armgcc/openstack/02b-MAChigh/neighbors.c **** 
 260:build/openmote-cc2538_armgcc/openstack/02b-MAChigh/neighbors.c **** bool neighbors_reachedMinimalTransmission(uint8_t index){
 1130              		.loc 1 260 0
 1131              		.cfi_startproc
 1132              		@ args = 0, pretend = 0, frame = 16
 1133              		@ frame_needed = 1, uses_anonymous_args = 0
 1134              		@ link register save eliminated.
 1135 045c 80B4     		push	{r7}
 1136              		.cfi_def_cfa_offset 4
 1137              		.cfi_offset 7, -4
 1138 045e 85B0     		sub	sp, sp, #20
 1139              		.cfi_def_cfa_offset 24
 1140 0460 00AF     		add	r7, sp, #0
 1141              		.cfi_def_cfa_register 7
 1142 0462 0346     		mov	r3, r0
 1143 0464 FB71     		strb	r3, [r7, #7]
 261:build/openmote-cc2538_armgcc/openstack/02b-MAChigh/neighbors.c ****     bool    returnVal;
 262:build/openmote-cc2538_armgcc/openstack/02b-MAChigh/neighbors.c ****     
 263:build/openmote-cc2538_armgcc/openstack/02b-MAChigh/neighbors.c ****     if (
 264:build/openmote-cc2538_armgcc/openstack/02b-MAChigh/neighbors.c ****         neighbors_vars.neighbors[index].used  == TRUE &&
 1144              		.loc 1 264 0
 1145 0466 FA79     		ldrb	r2, [r7, #7]	@ zero_extendqisi2
 1146 0468 0F49     		ldr	r1, .L93
 1147 046a 1346     		mov	r3, r2
 1148 046c 9B00     		lsls	r3, r3, #2
 1149 046e 1344     		add	r3, r3, r2
 1150 0470 DB00     		lsls	r3, r3, #3
 1151 0472 0B44     		add	r3, r3, r1
 1152 0474 1B78     		ldrb	r3, [r3]	@ zero_extendqisi2
 263:build/openmote-cc2538_armgcc/openstack/02b-MAChigh/neighbors.c ****         neighbors_vars.neighbors[index].used  == TRUE &&
 1153              		.loc 1 263 0
 1154 0476 002B     		cmp	r3, #0
 1155 0478 0DD0     		beq	.L90
 265:build/openmote-cc2538_armgcc/openstack/02b-MAChigh/neighbors.c ****         neighbors_vars.neighbors[index].numTx >  MINIMAL_NUM_TX
 1156              		.loc 1 265 0
 1157 047a FA79     		ldrb	r2, [r7, #7]	@ zero_extendqisi2
 1158 047c 0A49     		ldr	r1, .L93
 1159 047e 1346     		mov	r3, r2
 1160 0480 9B00     		lsls	r3, r3, #2
 1161 0482 1344     		add	r3, r3, r2
 1162 0484 DB00     		lsls	r3, r3, #3
 1163 0486 0B44     		add	r3, r3, r1
 1164 0488 1833     		adds	r3, r3, #24
 1165 048a 9B78     		ldrb	r3, [r3, #2]	@ zero_extendqisi2
 264:build/openmote-cc2538_armgcc/openstack/02b-MAChigh/neighbors.c ****         neighbors_vars.neighbors[index].numTx >  MINIMAL_NUM_TX
 1166              		.loc 1 264 0
 1167 048c 102B     		cmp	r3, #16
 1168 048e 02D9     		bls	.L90
 266:build/openmote-cc2538_armgcc/openstack/02b-MAChigh/neighbors.c ****     ) {
 267:build/openmote-cc2538_armgcc/openstack/02b-MAChigh/neighbors.c ****         returnVal = TRUE;
 1169              		.loc 1 267 0
 1170 0490 0123     		movs	r3, #1
 1171 0492 FB73     		strb	r3, [r7, #15]
 1172 0494 01E0     		b	.L91
 1173              	.L90:
 268:build/openmote-cc2538_armgcc/openstack/02b-MAChigh/neighbors.c ****     } else {
 269:build/openmote-cc2538_armgcc/openstack/02b-MAChigh/neighbors.c ****         returnVal = FALSE;
 1174              		.loc 1 269 0
 1175 0496 0023     		movs	r3, #0
 1176 0498 FB73     		strb	r3, [r7, #15]
 1177              	.L91:
 270:build/openmote-cc2538_armgcc/openstack/02b-MAChigh/neighbors.c ****     }
 271:build/openmote-cc2538_armgcc/openstack/02b-MAChigh/neighbors.c ****     
 272:build/openmote-cc2538_armgcc/openstack/02b-MAChigh/neighbors.c ****     return returnVal;
 1178              		.loc 1 272 0
 1179 049a FB7B     		ldrb	r3, [r7, #15]	@ zero_extendqisi2
 273:build/openmote-cc2538_armgcc/openstack/02b-MAChigh/neighbors.c **** }
 1180              		.loc 1 273 0
 1181 049c 1846     		mov	r0, r3
 1182 049e 1437     		adds	r7, r7, #20
 1183              		.cfi_def_cfa_offset 4
 1184 04a0 BD46     		mov	sp, r7
 1185              		.cfi_def_cfa_register 13
 1186              		@ sp needed
 1187 04a2 5DF8047B 		ldr	r7, [sp], #4
 1188              		.cfi_restore 7
 1189              		.cfi_def_cfa_offset 0
 1190 04a6 7047     		bx	lr
 1191              	.L94:
 1192              		.align	2
 1193              	.L93:
 1194 04a8 00000000 		.word	neighbors_vars
 1195              		.cfi_endproc
 1196              	.LFE14:
 1198              		.align	2
 1199              		.global	neighbors_indicateRx
 1200              		.thumb
 1201              		.thumb_func
 1203              	neighbors_indicateRx:
 1204              	.LFB15:
 274:build/openmote-cc2538_armgcc/openstack/02b-MAChigh/neighbors.c **** 
 275:build/openmote-cc2538_armgcc/openstack/02b-MAChigh/neighbors.c **** //===== updating neighbor information
 276:build/openmote-cc2538_armgcc/openstack/02b-MAChigh/neighbors.c **** 
 277:build/openmote-cc2538_armgcc/openstack/02b-MAChigh/neighbors.c **** /**
 278:build/openmote-cc2538_armgcc/openstack/02b-MAChigh/neighbors.c **** \brief Indicate some (non-ACK) packet was received from a neighbor.
 279:build/openmote-cc2538_armgcc/openstack/02b-MAChigh/neighbors.c **** 
 280:build/openmote-cc2538_armgcc/openstack/02b-MAChigh/neighbors.c **** This function should be called for each received (non-ACK) packet so neighbor
 281:build/openmote-cc2538_armgcc/openstack/02b-MAChigh/neighbors.c **** statistics in the neighbor table can be updated.
 282:build/openmote-cc2538_armgcc/openstack/02b-MAChigh/neighbors.c **** 
 283:build/openmote-cc2538_armgcc/openstack/02b-MAChigh/neighbors.c **** The fields which are updated are:
 284:build/openmote-cc2538_armgcc/openstack/02b-MAChigh/neighbors.c **** - numRx
 285:build/openmote-cc2538_armgcc/openstack/02b-MAChigh/neighbors.c **** - rssi
 286:build/openmote-cc2538_armgcc/openstack/02b-MAChigh/neighbors.c **** - asn
 287:build/openmote-cc2538_armgcc/openstack/02b-MAChigh/neighbors.c **** - stableNeighbor
 288:build/openmote-cc2538_armgcc/openstack/02b-MAChigh/neighbors.c **** - switchStabilityCounter
 289:build/openmote-cc2538_armgcc/openstack/02b-MAChigh/neighbors.c **** 
 290:build/openmote-cc2538_armgcc/openstack/02b-MAChigh/neighbors.c **** \param[in] l2_src MAC source address of the packet, i.e. the neighbor who sent
 291:build/openmote-cc2538_armgcc/openstack/02b-MAChigh/neighbors.c ****    the packet just received.
 292:build/openmote-cc2538_armgcc/openstack/02b-MAChigh/neighbors.c **** \param[in] rssi   RSSI with which this packet was received.
 293:build/openmote-cc2538_armgcc/openstack/02b-MAChigh/neighbors.c **** \param[in] asnTs  ASN at which this packet was received.
 294:build/openmote-cc2538_armgcc/openstack/02b-MAChigh/neighbors.c **** \param[in] joinPrioPresent Whether a join priority was present in the received
 295:build/openmote-cc2538_armgcc/openstack/02b-MAChigh/neighbors.c ****    packet.
 296:build/openmote-cc2538_armgcc/openstack/02b-MAChigh/neighbors.c **** \param[in] joinPrio The join priority present in the packet, if any.
 297:build/openmote-cc2538_armgcc/openstack/02b-MAChigh/neighbors.c **** */
 298:build/openmote-cc2538_armgcc/openstack/02b-MAChigh/neighbors.c **** void neighbors_indicateRx(open_addr_t* l2_src,
 299:build/openmote-cc2538_armgcc/openstack/02b-MAChigh/neighbors.c ****                           int8_t       rssi,
 300:build/openmote-cc2538_armgcc/openstack/02b-MAChigh/neighbors.c ****                           asn_t*       asnTs,
 301:build/openmote-cc2538_armgcc/openstack/02b-MAChigh/neighbors.c ****                           bool         joinPrioPresent,
 302:build/openmote-cc2538_armgcc/openstack/02b-MAChigh/neighbors.c ****                           uint8_t      joinPrio,
 303:build/openmote-cc2538_armgcc/openstack/02b-MAChigh/neighbors.c ****                           bool         insecure) {
 1205              		.loc 1 303 0
 1206              		.cfi_startproc
 1207              		@ args = 8, pretend = 0, frame = 24
 1208              		@ frame_needed = 1, uses_anonymous_args = 0
 1209 04ac 90B5     		push	{r4, r7, lr}
 1210              		.cfi_def_cfa_offset 12
 1211              		.cfi_offset 4, -12
 1212              		.cfi_offset 7, -8
 1213              		.cfi_offset 14, -4
 1214 04ae 89B0     		sub	sp, sp, #36
 1215              		.cfi_def_cfa_offset 48
 1216 04b0 02AF     		add	r7, sp, #8
 1217              		.cfi_def_cfa 7, 40
 1218 04b2 F860     		str	r0, [r7, #12]
 1219 04b4 7A60     		str	r2, [r7, #4]
 1220 04b6 1A46     		mov	r2, r3
 1221 04b8 0B46     		mov	r3, r1
 1222 04ba FB72     		strb	r3, [r7, #11]
 1223 04bc 1346     		mov	r3, r2
 1224 04be BB72     		strb	r3, [r7, #10]
 304:build/openmote-cc2538_armgcc/openstack/02b-MAChigh/neighbors.c ****    uint8_t i;
 305:build/openmote-cc2538_armgcc/openstack/02b-MAChigh/neighbors.c ****    bool    newNeighbor;
 306:build/openmote-cc2538_armgcc/openstack/02b-MAChigh/neighbors.c ****    
 307:build/openmote-cc2538_armgcc/openstack/02b-MAChigh/neighbors.c ****    // update existing neighbor
 308:build/openmote-cc2538_armgcc/openstack/02b-MAChigh/neighbors.c ****    newNeighbor = TRUE;
 1225              		.loc 1 308 0
 1226 04c0 0123     		movs	r3, #1
 1227 04c2 BB75     		strb	r3, [r7, #22]
 309:build/openmote-cc2538_armgcc/openstack/02b-MAChigh/neighbors.c ****    for (i=0;i<MAXNUMNEIGHBORS;i++) {
 1228              		.loc 1 309 0
 1229 04c4 0023     		movs	r3, #0
 1230 04c6 FB75     		strb	r3, [r7, #23]
 1231 04c8 F5E0     		b	.L96
 1232              	.L107:
 310:build/openmote-cc2538_armgcc/openstack/02b-MAChigh/neighbors.c ****       if (isThisRowMatching(l2_src,i)) {
 1233              		.loc 1 310 0
 1234 04ca FB7D     		ldrb	r3, [r7, #23]	@ zero_extendqisi2
 1235 04cc F868     		ldr	r0, [r7, #12]
 1236 04ce 1946     		mov	r1, r3
 1237 04d0 FFF7FEFF 		bl	isThisRowMatching
 1238 04d4 0346     		mov	r3, r0
 1239 04d6 002B     		cmp	r3, #0
 1240 04d8 00F0EA80 		beq	.L97
 311:build/openmote-cc2538_armgcc/openstack/02b-MAChigh/neighbors.c ****          
 312:build/openmote-cc2538_armgcc/openstack/02b-MAChigh/neighbors.c ****          // this is not a new neighbor
 313:build/openmote-cc2538_armgcc/openstack/02b-MAChigh/neighbors.c ****          newNeighbor = FALSE;
 1241              		.loc 1 313 0
 1242 04dc 0023     		movs	r3, #0
 1243 04de BB75     		strb	r3, [r7, #22]
 314:build/openmote-cc2538_armgcc/openstack/02b-MAChigh/neighbors.c ****          
 315:build/openmote-cc2538_armgcc/openstack/02b-MAChigh/neighbors.c ****          // whether the neighbor is considered as secure or not
 316:build/openmote-cc2538_armgcc/openstack/02b-MAChigh/neighbors.c ****          neighbors_vars.neighbors[i].insecure = insecure;
 1244              		.loc 1 316 0
 1245 04e0 FA7D     		ldrb	r2, [r7, #23]	@ zero_extendqisi2
 1246 04e2 8149     		ldr	r1, .L109
 1247 04e4 1346     		mov	r3, r2
 1248 04e6 9B00     		lsls	r3, r3, #2
 1249 04e8 1344     		add	r3, r3, r2
 1250 04ea DB00     		lsls	r3, r3, #3
 1251 04ec 0B44     		add	r3, r3, r1
 1252 04ee 97F82C20 		ldrb	r2, [r7, #44]
 1253 04f2 5A70     		strb	r2, [r3, #1]
 317:build/openmote-cc2538_armgcc/openstack/02b-MAChigh/neighbors.c **** 
 318:build/openmote-cc2538_armgcc/openstack/02b-MAChigh/neighbors.c ****          // update numRx, rssi, asn
 319:build/openmote-cc2538_armgcc/openstack/02b-MAChigh/neighbors.c ****          neighbors_vars.neighbors[i].numRx++;
 1254              		.loc 1 319 0
 1255 04f4 FA7D     		ldrb	r2, [r7, #23]	@ zero_extendqisi2
 1256 04f6 7C49     		ldr	r1, .L109
 1257 04f8 1346     		mov	r3, r2
 1258 04fa 9B00     		lsls	r3, r3, #2
 1259 04fc 1344     		add	r3, r3, r2
 1260 04fe DB00     		lsls	r3, r3, #3
 1261 0500 0B44     		add	r3, r3, r1
 1262 0502 1833     		adds	r3, r3, #24
 1263 0504 5B78     		ldrb	r3, [r3, #1]	@ zero_extendqisi2
 1264 0506 0133     		adds	r3, r3, #1
 1265 0508 D8B2     		uxtb	r0, r3
 1266 050a 7749     		ldr	r1, .L109
 1267 050c 1346     		mov	r3, r2
 1268 050e 9B00     		lsls	r3, r3, #2
 1269 0510 1344     		add	r3, r3, r2
 1270 0512 DB00     		lsls	r3, r3, #3
 1271 0514 0B44     		add	r3, r3, r1
 1272 0516 1833     		adds	r3, r3, #24
 1273 0518 0246     		mov	r2, r0
 1274 051a 5A70     		strb	r2, [r3, #1]
 320:build/openmote-cc2538_armgcc/openstack/02b-MAChigh/neighbors.c ****          neighbors_vars.neighbors[i].rssi=rssi;
 1275              		.loc 1 320 0
 1276 051c FA7D     		ldrb	r2, [r7, #23]	@ zero_extendqisi2
 1277 051e 7249     		ldr	r1, .L109
 1278 0520 1346     		mov	r3, r2
 1279 0522 9B00     		lsls	r3, r3, #2
 1280 0524 1344     		add	r3, r3, r2
 1281 0526 DB00     		lsls	r3, r3, #3
 1282 0528 0B44     		add	r3, r3, r1
 1283 052a 1833     		adds	r3, r3, #24
 1284 052c FA7A     		ldrb	r2, [r7, #11]
 1285 052e 1A70     		strb	r2, [r3]
 321:build/openmote-cc2538_armgcc/openstack/02b-MAChigh/neighbors.c ****          memcpy(&neighbors_vars.neighbors[i].asn,asnTs,sizeof(asn_t));
 1286              		.loc 1 321 0
 1287 0530 FA7D     		ldrb	r2, [r7, #23]	@ zero_extendqisi2
 1288 0532 1346     		mov	r3, r2
 1289 0534 9B00     		lsls	r3, r3, #2
 1290 0536 1344     		add	r3, r3, r2
 1291 0538 DB00     		lsls	r3, r3, #3
 1292 053a 1833     		adds	r3, r3, #24
 1293 053c 6A4A     		ldr	r2, .L109
 1294 053e 1344     		add	r3, r3, r2
 1295 0540 0533     		adds	r3, r3, #5
 1296 0542 7A68     		ldr	r2, [r7, #4]
 1297 0544 1168     		ldr	r1, [r2]	@ unaligned
 1298 0546 1960     		str	r1, [r3]	@ unaligned
 1299 0548 1279     		ldrb	r2, [r2, #4]
 1300 054a 1A71     		strb	r2, [r3, #4]
 322:build/openmote-cc2538_armgcc/openstack/02b-MAChigh/neighbors.c ****          //update jp
 323:build/openmote-cc2538_armgcc/openstack/02b-MAChigh/neighbors.c ****          if (joinPrioPresent==TRUE){
 1301              		.loc 1 323 0
 1302 054c BB7A     		ldrb	r3, [r7, #10]	@ zero_extendqisi2
 1303 054e 002B     		cmp	r3, #0
 1304 0550 0AD0     		beq	.L98
 324:build/openmote-cc2538_armgcc/openstack/02b-MAChigh/neighbors.c ****             neighbors_vars.neighbors[i].joinPrio=joinPrio;
 1305              		.loc 1 324 0
 1306 0552 FA7D     		ldrb	r2, [r7, #23]	@ zero_extendqisi2
 1307 0554 6449     		ldr	r1, .L109
 1308 0556 1346     		mov	r3, r2
 1309 0558 9B00     		lsls	r3, r3, #2
 1310 055a 1344     		add	r3, r3, r2
 1311 055c DB00     		lsls	r3, r3, #3
 1312 055e 0B44     		add	r3, r3, r1
 1313 0560 2033     		adds	r3, r3, #32
 1314 0562 97F82820 		ldrb	r2, [r7, #40]
 1315 0566 9A70     		strb	r2, [r3, #2]
 1316              	.L98:
 325:build/openmote-cc2538_armgcc/openstack/02b-MAChigh/neighbors.c ****          }
 326:build/openmote-cc2538_armgcc/openstack/02b-MAChigh/neighbors.c ****          
 327:build/openmote-cc2538_armgcc/openstack/02b-MAChigh/neighbors.c ****          // update stableNeighbor, switchStabilityCounter
 328:build/openmote-cc2538_armgcc/openstack/02b-MAChigh/neighbors.c ****          if (neighbors_vars.neighbors[i].stableNeighbor==FALSE) {
 1317              		.loc 1 328 0
 1318 0568 FA7D     		ldrb	r2, [r7, #23]	@ zero_extendqisi2
 1319 056a 5F49     		ldr	r1, .L109
 1320 056c 1346     		mov	r3, r2
 1321 056e 9B00     		lsls	r3, r3, #2
 1322 0570 1344     		add	r3, r3, r2
 1323 0572 DB00     		lsls	r3, r3, #3
 1324 0574 0B44     		add	r3, r3, r1
 1325 0576 DB78     		ldrb	r3, [r3, #3]	@ zero_extendqisi2
 1326 0578 83F00103 		eor	r3, r3, #1
 1327 057c DBB2     		uxtb	r3, r3
 1328 057e 002B     		cmp	r3, #0
 1329 0580 45D0     		beq	.L99
 329:build/openmote-cc2538_armgcc/openstack/02b-MAChigh/neighbors.c ****             if (neighbors_vars.neighbors[i].rssi>BADNEIGHBORMAXRSSI) {
 1330              		.loc 1 329 0
 1331 0582 FA7D     		ldrb	r2, [r7, #23]	@ zero_extendqisi2
 1332 0584 5849     		ldr	r1, .L109
 1333 0586 1346     		mov	r3, r2
 1334 0588 9B00     		lsls	r3, r3, #2
 1335 058a 1344     		add	r3, r3, r2
 1336 058c DB00     		lsls	r3, r3, #3
 1337 058e 0B44     		add	r3, r3, r1
 1338 0590 1833     		adds	r3, r3, #24
 1339 0592 1B78     		ldrb	r3, [r3]	@ zero_extendqisi2
 1340 0594 5BB2     		sxtb	r3, r3
 1341 0596 13F14F0F 		cmn	r3, #79
 1342 059a 2EDB     		blt	.L100
 330:build/openmote-cc2538_armgcc/openstack/02b-MAChigh/neighbors.c ****                neighbors_vars.neighbors[i].switchStabilityCounter++;
 1343              		.loc 1 330 0
 1344 059c FA7D     		ldrb	r2, [r7, #23]	@ zero_extendqisi2
 1345 059e 5249     		ldr	r1, .L109
 1346 05a0 1346     		mov	r3, r2
 1347 05a2 9B00     		lsls	r3, r3, #2
 1348 05a4 1344     		add	r3, r3, r2
 1349 05a6 DB00     		lsls	r3, r3, #3
 1350 05a8 0B44     		add	r3, r3, r1
 1351 05aa 1B79     		ldrb	r3, [r3, #4]	@ zero_extendqisi2
 1352 05ac 0133     		adds	r3, r3, #1
 1353 05ae D8B2     		uxtb	r0, r3
 1354 05b0 4D49     		ldr	r1, .L109
 1355 05b2 1346     		mov	r3, r2
 1356 05b4 9B00     		lsls	r3, r3, #2
 1357 05b6 1344     		add	r3, r3, r2
 1358 05b8 DB00     		lsls	r3, r3, #3
 1359 05ba 0B44     		add	r3, r3, r1
 1360 05bc 0246     		mov	r2, r0
 1361 05be 1A71     		strb	r2, [r3, #4]
 331:build/openmote-cc2538_armgcc/openstack/02b-MAChigh/neighbors.c ****                if (neighbors_vars.neighbors[i].switchStabilityCounter>=SWITCHSTABILITYTHRESHOLD) {
 1362              		.loc 1 331 0
 1363 05c0 FA7D     		ldrb	r2, [r7, #23]	@ zero_extendqisi2
 1364 05c2 4949     		ldr	r1, .L109
 1365 05c4 1346     		mov	r3, r2
 1366 05c6 9B00     		lsls	r3, r3, #2
 1367 05c8 1344     		add	r3, r3, r2
 1368 05ca DB00     		lsls	r3, r3, #3
 1369 05cc 0B44     		add	r3, r3, r1
 1370 05ce 1B79     		ldrb	r3, [r3, #4]	@ zero_extendqisi2
 1371 05d0 022B     		cmp	r3, #2
 1372 05d2 6CD9     		bls	.L103
 332:build/openmote-cc2538_armgcc/openstack/02b-MAChigh/neighbors.c ****                   neighbors_vars.neighbors[i].switchStabilityCounter=0;
 1373              		.loc 1 332 0
 1374 05d4 FA7D     		ldrb	r2, [r7, #23]	@ zero_extendqisi2
 1375 05d6 4449     		ldr	r1, .L109
 1376 05d8 1346     		mov	r3, r2
 1377 05da 9B00     		lsls	r3, r3, #2
 1378 05dc 1344     		add	r3, r3, r2
 1379 05de DB00     		lsls	r3, r3, #3
 1380 05e0 0B44     		add	r3, r3, r1
 1381 05e2 0022     		movs	r2, #0
 1382 05e4 1A71     		strb	r2, [r3, #4]
 333:build/openmote-cc2538_armgcc/openstack/02b-MAChigh/neighbors.c ****                   neighbors_vars.neighbors[i].stableNeighbor=TRUE;
 1383              		.loc 1 333 0
 1384 05e6 FA7D     		ldrb	r2, [r7, #23]	@ zero_extendqisi2
 1385 05e8 3F49     		ldr	r1, .L109
 1386 05ea 1346     		mov	r3, r2
 1387 05ec 9B00     		lsls	r3, r3, #2
 1388 05ee 1344     		add	r3, r3, r2
 1389 05f0 DB00     		lsls	r3, r3, #3
 1390 05f2 0B44     		add	r3, r3, r1
 1391 05f4 0122     		movs	r2, #1
 1392 05f6 DA70     		strb	r2, [r3, #3]
 1393 05f8 59E0     		b	.L103
 1394              	.L100:
 334:build/openmote-cc2538_armgcc/openstack/02b-MAChigh/neighbors.c ****                }
 335:build/openmote-cc2538_armgcc/openstack/02b-MAChigh/neighbors.c ****             } else {
 336:build/openmote-cc2538_armgcc/openstack/02b-MAChigh/neighbors.c ****                neighbors_vars.neighbors[i].switchStabilityCounter=0;
 1395              		.loc 1 336 0
 1396 05fa FA7D     		ldrb	r2, [r7, #23]	@ zero_extendqisi2
 1397 05fc 3A49     		ldr	r1, .L109
 1398 05fe 1346     		mov	r3, r2
 1399 0600 9B00     		lsls	r3, r3, #2
 1400 0602 1344     		add	r3, r3, r2
 1401 0604 DB00     		lsls	r3, r3, #3
 1402 0606 0B44     		add	r3, r3, r1
 1403 0608 0022     		movs	r2, #0
 1404 060a 1A71     		strb	r2, [r3, #4]
 337:build/openmote-cc2538_armgcc/openstack/02b-MAChigh/neighbors.c ****             }
 338:build/openmote-cc2538_armgcc/openstack/02b-MAChigh/neighbors.c ****          } else if (neighbors_vars.neighbors[i].stableNeighbor==TRUE) {
 339:build/openmote-cc2538_armgcc/openstack/02b-MAChigh/neighbors.c ****             if (neighbors_vars.neighbors[i].rssi<GOODNEIGHBORMINRSSI) {
 340:build/openmote-cc2538_armgcc/openstack/02b-MAChigh/neighbors.c ****                neighbors_vars.neighbors[i].switchStabilityCounter++;
 341:build/openmote-cc2538_armgcc/openstack/02b-MAChigh/neighbors.c ****                if (neighbors_vars.neighbors[i].switchStabilityCounter>=SWITCHSTABILITYTHRESHOLD) {
 342:build/openmote-cc2538_armgcc/openstack/02b-MAChigh/neighbors.c ****                   neighbors_vars.neighbors[i].switchStabilityCounter=0;
 343:build/openmote-cc2538_armgcc/openstack/02b-MAChigh/neighbors.c ****                    neighbors_vars.neighbors[i].stableNeighbor=FALSE;
 344:build/openmote-cc2538_armgcc/openstack/02b-MAChigh/neighbors.c ****                }
 345:build/openmote-cc2538_armgcc/openstack/02b-MAChigh/neighbors.c ****             } else {
 346:build/openmote-cc2538_armgcc/openstack/02b-MAChigh/neighbors.c ****                neighbors_vars.neighbors[i].switchStabilityCounter=0;
 347:build/openmote-cc2538_armgcc/openstack/02b-MAChigh/neighbors.c ****             }
 348:build/openmote-cc2538_armgcc/openstack/02b-MAChigh/neighbors.c ****          }
 349:build/openmote-cc2538_armgcc/openstack/02b-MAChigh/neighbors.c ****          
 350:build/openmote-cc2538_armgcc/openstack/02b-MAChigh/neighbors.c ****          // stop looping
 351:build/openmote-cc2538_armgcc/openstack/02b-MAChigh/neighbors.c ****          break;
 1405              		.loc 1 351 0
 1406 060c 57E0     		b	.L106
 1407              	.L99:
 338:build/openmote-cc2538_armgcc/openstack/02b-MAChigh/neighbors.c ****             if (neighbors_vars.neighbors[i].rssi<GOODNEIGHBORMINRSSI) {
 1408              		.loc 1 338 0
 1409 060e FA7D     		ldrb	r2, [r7, #23]	@ zero_extendqisi2
 1410 0610 3549     		ldr	r1, .L109
 1411 0612 1346     		mov	r3, r2
 1412 0614 9B00     		lsls	r3, r3, #2
 1413 0616 1344     		add	r3, r3, r2
 1414 0618 DB00     		lsls	r3, r3, #3
 1415 061a 0B44     		add	r3, r3, r1
 1416 061c DB78     		ldrb	r3, [r3, #3]	@ zero_extendqisi2
 1417 061e 002B     		cmp	r3, #0
 1418 0620 45D0     		beq	.L103
 339:build/openmote-cc2538_armgcc/openstack/02b-MAChigh/neighbors.c ****                neighbors_vars.neighbors[i].switchStabilityCounter++;
 1419              		.loc 1 339 0
 1420 0622 FA7D     		ldrb	r2, [r7, #23]	@ zero_extendqisi2
 1421 0624 3049     		ldr	r1, .L109
 1422 0626 1346     		mov	r3, r2
 1423 0628 9B00     		lsls	r3, r3, #2
 1424 062a 1344     		add	r3, r3, r2
 1425 062c DB00     		lsls	r3, r3, #3
 1426 062e 0B44     		add	r3, r3, r1
 1427 0630 1833     		adds	r3, r3, #24
 1428 0632 1B78     		ldrb	r3, [r3]	@ zero_extendqisi2
 1429 0634 5BB2     		sxtb	r3, r3
 1430 0636 13F15A0F 		cmn	r3, #90
 1431 063a 2EDA     		bge	.L104
 340:build/openmote-cc2538_armgcc/openstack/02b-MAChigh/neighbors.c ****                if (neighbors_vars.neighbors[i].switchStabilityCounter>=SWITCHSTABILITYTHRESHOLD) {
 1432              		.loc 1 340 0
 1433 063c FA7D     		ldrb	r2, [r7, #23]	@ zero_extendqisi2
 1434 063e 2A49     		ldr	r1, .L109
 1435 0640 1346     		mov	r3, r2
 1436 0642 9B00     		lsls	r3, r3, #2
 1437 0644 1344     		add	r3, r3, r2
 1438 0646 DB00     		lsls	r3, r3, #3
 1439 0648 0B44     		add	r3, r3, r1
 1440 064a 1B79     		ldrb	r3, [r3, #4]	@ zero_extendqisi2
 1441 064c 0133     		adds	r3, r3, #1
 1442 064e D8B2     		uxtb	r0, r3
 1443 0650 2549     		ldr	r1, .L109
 1444 0652 1346     		mov	r3, r2
 1445 0654 9B00     		lsls	r3, r3, #2
 1446 0656 1344     		add	r3, r3, r2
 1447 0658 DB00     		lsls	r3, r3, #3
 1448 065a 0B44     		add	r3, r3, r1
 1449 065c 0246     		mov	r2, r0
 1450 065e 1A71     		strb	r2, [r3, #4]
 341:build/openmote-cc2538_armgcc/openstack/02b-MAChigh/neighbors.c ****                   neighbors_vars.neighbors[i].switchStabilityCounter=0;
 1451              		.loc 1 341 0
 1452 0660 FA7D     		ldrb	r2, [r7, #23]	@ zero_extendqisi2
 1453 0662 2149     		ldr	r1, .L109
 1454 0664 1346     		mov	r3, r2
 1455 0666 9B00     		lsls	r3, r3, #2
 1456 0668 1344     		add	r3, r3, r2
 1457 066a DB00     		lsls	r3, r3, #3
 1458 066c 0B44     		add	r3, r3, r1
 1459 066e 1B79     		ldrb	r3, [r3, #4]	@ zero_extendqisi2
 1460 0670 022B     		cmp	r3, #2
 1461 0672 1CD9     		bls	.L103
 342:build/openmote-cc2538_armgcc/openstack/02b-MAChigh/neighbors.c ****                    neighbors_vars.neighbors[i].stableNeighbor=FALSE;
 1462              		.loc 1 342 0
 1463 0674 FA7D     		ldrb	r2, [r7, #23]	@ zero_extendqisi2
 1464 0676 1C49     		ldr	r1, .L109
 1465 0678 1346     		mov	r3, r2
 1466 067a 9B00     		lsls	r3, r3, #2
 1467 067c 1344     		add	r3, r3, r2
 1468 067e DB00     		lsls	r3, r3, #3
 1469 0680 0B44     		add	r3, r3, r1
 1470 0682 0022     		movs	r2, #0
 1471 0684 1A71     		strb	r2, [r3, #4]
 343:build/openmote-cc2538_armgcc/openstack/02b-MAChigh/neighbors.c ****                }
 1472              		.loc 1 343 0
 1473 0686 FA7D     		ldrb	r2, [r7, #23]	@ zero_extendqisi2
 1474 0688 1749     		ldr	r1, .L109
 1475 068a 1346     		mov	r3, r2
 1476 068c 9B00     		lsls	r3, r3, #2
 1477 068e 1344     		add	r3, r3, r2
 1478 0690 DB00     		lsls	r3, r3, #3
 1479 0692 0B44     		add	r3, r3, r1
 1480 0694 0022     		movs	r2, #0
 1481 0696 DA70     		strb	r2, [r3, #3]
 1482              		.loc 1 351 0
 1483 0698 11E0     		b	.L106
 1484              	.L104:
 346:build/openmote-cc2538_armgcc/openstack/02b-MAChigh/neighbors.c ****             }
 1485              		.loc 1 346 0
 1486 069a FA7D     		ldrb	r2, [r7, #23]	@ zero_extendqisi2
 1487 069c 1249     		ldr	r1, .L109
 1488 069e 1346     		mov	r3, r2
 1489 06a0 9B00     		lsls	r3, r3, #2
 1490 06a2 1344     		add	r3, r3, r2
 1491 06a4 DB00     		lsls	r3, r3, #3
 1492 06a6 0B44     		add	r3, r3, r1
 1493 06a8 0022     		movs	r2, #0
 1494 06aa 1A71     		strb	r2, [r3, #4]
 1495              		.loc 1 351 0
 1496 06ac 07E0     		b	.L106
 1497              	.L103:
 1498              		.loc 1 351 0 is_stmt 0 discriminator 2
 1499 06ae 06E0     		b	.L106
 1500              	.L97:
 309:build/openmote-cc2538_armgcc/openstack/02b-MAChigh/neighbors.c ****       if (isThisRowMatching(l2_src,i)) {
 1501              		.loc 1 309 0 is_stmt 1 discriminator 2
 1502 06b0 FB7D     		ldrb	r3, [r7, #23]	@ zero_extendqisi2
 1503 06b2 0133     		adds	r3, r3, #1
 1504 06b4 FB75     		strb	r3, [r7, #23]
 1505              	.L96:
 309:build/openmote-cc2538_armgcc/openstack/02b-MAChigh/neighbors.c ****       if (isThisRowMatching(l2_src,i)) {
 1506              		.loc 1 309 0 is_stmt 0 discriminator 1
 1507 06b6 FB7D     		ldrb	r3, [r7, #23]	@ zero_extendqisi2
 1508 06b8 1D2B     		cmp	r3, #29
 1509 06ba 7FF606AF 		bls	.L107
 1510              	.L106:
 352:build/openmote-cc2538_armgcc/openstack/02b-MAChigh/neighbors.c ****       }
 353:build/openmote-cc2538_armgcc/openstack/02b-MAChigh/neighbors.c ****    }
 354:build/openmote-cc2538_armgcc/openstack/02b-MAChigh/neighbors.c ****    
 355:build/openmote-cc2538_armgcc/openstack/02b-MAChigh/neighbors.c ****    // register new neighbor
 356:build/openmote-cc2538_armgcc/openstack/02b-MAChigh/neighbors.c ****    if (newNeighbor==TRUE) {
 1511              		.loc 1 356 0 is_stmt 1
 1512 06be BB7D     		ldrb	r3, [r7, #22]	@ zero_extendqisi2
 1513 06c0 002B     		cmp	r3, #0
 1514 06c2 0ED0     		beq	.L95
 357:build/openmote-cc2538_armgcc/openstack/02b-MAChigh/neighbors.c ****       registerNewNeighbor(l2_src, rssi, asnTs, joinPrioPresent, joinPrio, insecure);
 1515              		.loc 1 357 0
 1516 06c4 97F90B20 		ldrsb	r2, [r7, #11]
 1517 06c8 BC7A     		ldrb	r4, [r7, #10]	@ zero_extendqisi2
 1518 06ca 97F82830 		ldrb	r3, [r7, #40]	@ zero_extendqisi2
 1519 06ce 0093     		str	r3, [sp]
 1520 06d0 97F82C30 		ldrb	r3, [r7, #44]	@ zero_extendqisi2
 1521 06d4 0193     		str	r3, [sp, #4]
 1522 06d6 F868     		ldr	r0, [r7, #12]
 1523 06d8 1146     		mov	r1, r2
 1524 06da 7A68     		ldr	r2, [r7, #4]
 1525 06dc 2346     		mov	r3, r4
 1526 06de FFF7FEFF 		bl	registerNewNeighbor
 1527              	.L95:
 358:build/openmote-cc2538_armgcc/openstack/02b-MAChigh/neighbors.c ****    }
 359:build/openmote-cc2538_armgcc/openstack/02b-MAChigh/neighbors.c **** }
 1528              		.loc 1 359 0
 1529 06e2 1C37     		adds	r7, r7, #28
 1530              		.cfi_def_cfa_offset 12
 1531 06e4 BD46     		mov	sp, r7
 1532              		.cfi_def_cfa_register 13
 1533              		@ sp needed
 1534 06e6 90BD     		pop	{r4, r7, pc}
 1535              	.L110:
 1536              		.align	2
 1537              	.L109:
 1538 06e8 00000000 		.word	neighbors_vars
 1539              		.cfi_endproc
 1540              	.LFE15:
 1542              		.align	2
 1543              		.global	neighbors_indicateTx
 1544              		.thumb
 1545              		.thumb_func
 1547              	neighbors_indicateTx:
 1548              	.LFB16:
 360:build/openmote-cc2538_armgcc/openstack/02b-MAChigh/neighbors.c **** 
 361:build/openmote-cc2538_armgcc/openstack/02b-MAChigh/neighbors.c **** /**
 362:build/openmote-cc2538_armgcc/openstack/02b-MAChigh/neighbors.c **** \brief Indicate some packet was sent to some neighbor.
 363:build/openmote-cc2538_armgcc/openstack/02b-MAChigh/neighbors.c **** 
 364:build/openmote-cc2538_armgcc/openstack/02b-MAChigh/neighbors.c **** This function should be called for each transmitted (non-ACK) packet so
 365:build/openmote-cc2538_armgcc/openstack/02b-MAChigh/neighbors.c **** neighbor statistics in the neighbor table can be updated.
 366:build/openmote-cc2538_armgcc/openstack/02b-MAChigh/neighbors.c **** 
 367:build/openmote-cc2538_armgcc/openstack/02b-MAChigh/neighbors.c **** The fields which are updated are:
 368:build/openmote-cc2538_armgcc/openstack/02b-MAChigh/neighbors.c **** - numTx
 369:build/openmote-cc2538_armgcc/openstack/02b-MAChigh/neighbors.c **** - numTxACK
 370:build/openmote-cc2538_armgcc/openstack/02b-MAChigh/neighbors.c **** - asn
 371:build/openmote-cc2538_armgcc/openstack/02b-MAChigh/neighbors.c **** 
 372:build/openmote-cc2538_armgcc/openstack/02b-MAChigh/neighbors.c **** \param[in] l2_dest MAC destination address of the packet, i.e. the neighbor
 373:build/openmote-cc2538_armgcc/openstack/02b-MAChigh/neighbors.c ****    who I just sent the packet to.
 374:build/openmote-cc2538_armgcc/openstack/02b-MAChigh/neighbors.c **** \param[in] numTxAttempts Number of transmission attempts to this neighbor.
 375:build/openmote-cc2538_armgcc/openstack/02b-MAChigh/neighbors.c **** \param[in] was_finally_acked TRUE iff the packet was ACK'ed by the neighbor
 376:build/openmote-cc2538_armgcc/openstack/02b-MAChigh/neighbors.c ****    on final transmission attempt.
 377:build/openmote-cc2538_armgcc/openstack/02b-MAChigh/neighbors.c **** \param[in] asnTs ASN of the last transmission attempt.
 378:build/openmote-cc2538_armgcc/openstack/02b-MAChigh/neighbors.c **** */
 379:build/openmote-cc2538_armgcc/openstack/02b-MAChigh/neighbors.c **** void neighbors_indicateTx(
 380:build/openmote-cc2538_armgcc/openstack/02b-MAChigh/neighbors.c ****     open_addr_t* l2_dest,
 381:build/openmote-cc2538_armgcc/openstack/02b-MAChigh/neighbors.c ****     uint8_t      numTxAttempts,
 382:build/openmote-cc2538_armgcc/openstack/02b-MAChigh/neighbors.c ****     bool         was_finally_acked,
 383:build/openmote-cc2538_armgcc/openstack/02b-MAChigh/neighbors.c ****     asn_t*       asnTs
 384:build/openmote-cc2538_armgcc/openstack/02b-MAChigh/neighbors.c **** ) {
 1549              		.loc 1 384 0
 1550              		.cfi_startproc
 1551              		@ args = 0, pretend = 0, frame = 24
 1552              		@ frame_needed = 1, uses_anonymous_args = 0
 1553 06ec 80B5     		push	{r7, lr}
 1554              		.cfi_def_cfa_offset 8
 1555              		.cfi_offset 7, -8
 1556              		.cfi_offset 14, -4
 1557 06ee 86B0     		sub	sp, sp, #24
 1558              		.cfi_def_cfa_offset 32
 1559 06f0 00AF     		add	r7, sp, #0
 1560              		.cfi_def_cfa_register 7
 1561 06f2 F860     		str	r0, [r7, #12]
 1562 06f4 7B60     		str	r3, [r7, #4]
 1563 06f6 0B46     		mov	r3, r1
 1564 06f8 FB72     		strb	r3, [r7, #11]
 1565 06fa 1346     		mov	r3, r2
 1566 06fc BB72     		strb	r3, [r7, #10]
 385:build/openmote-cc2538_armgcc/openstack/02b-MAChigh/neighbors.c ****     uint8_t i;
 386:build/openmote-cc2538_armgcc/openstack/02b-MAChigh/neighbors.c ****     // don't run through this function if packet was sent to broadcast address
 387:build/openmote-cc2538_armgcc/openstack/02b-MAChigh/neighbors.c ****     if (packetfunctions_isBroadcastMulticast(l2_dest)==TRUE) {
 1567              		.loc 1 387 0
 1568 06fe F868     		ldr	r0, [r7, #12]
 1569 0700 FFF7FEFF 		bl	packetfunctions_isBroadcastMulticast
 1570 0704 0346     		mov	r3, r0
 1571 0706 002B     		cmp	r3, #0
 1572 0708 00D0     		beq	.L112
 388:build/openmote-cc2538_armgcc/openstack/02b-MAChigh/neighbors.c ****         return;
 1573              		.loc 1 388 0
 1574 070a 9DE0     		b	.L111
 1575              	.L112:
 389:build/openmote-cc2538_armgcc/openstack/02b-MAChigh/neighbors.c ****     }
 390:build/openmote-cc2538_armgcc/openstack/02b-MAChigh/neighbors.c ****     
 391:build/openmote-cc2538_armgcc/openstack/02b-MAChigh/neighbors.c ****     // loop through neighbor table
 392:build/openmote-cc2538_armgcc/openstack/02b-MAChigh/neighbors.c ****     for (i=0;i<MAXNUMNEIGHBORS;i++) {
 1576              		.loc 1 392 0
 1577 070c 0023     		movs	r3, #0
 1578 070e FB75     		strb	r3, [r7, #23]
 1579 0710 96E0     		b	.L114
 1580              	.L118:
 393:build/openmote-cc2538_armgcc/openstack/02b-MAChigh/neighbors.c ****         if (isThisRowMatching(l2_dest,i)) {
 1581              		.loc 1 393 0
 1582 0712 FB7D     		ldrb	r3, [r7, #23]	@ zero_extendqisi2
 1583 0714 F868     		ldr	r0, [r7, #12]
 1584 0716 1946     		mov	r1, r3
 1585 0718 FFF7FEFF 		bl	isThisRowMatching
 1586 071c 0346     		mov	r3, r0
 1587 071e 002B     		cmp	r3, #0
 1588 0720 00F08B80 		beq	.L115
 394:build/openmote-cc2538_armgcc/openstack/02b-MAChigh/neighbors.c ****             // handle roll-over case
 395:build/openmote-cc2538_armgcc/openstack/02b-MAChigh/neighbors.c ****             
 396:build/openmote-cc2538_armgcc/openstack/02b-MAChigh/neighbors.c ****             if (neighbors_vars.neighbors[i].numTx>(0xff-numTxAttempts)) {
 1589              		.loc 1 396 0
 1590 0724 FA7D     		ldrb	r2, [r7, #23]	@ zero_extendqisi2
 1591 0726 4A49     		ldr	r1, .L119
 1592 0728 1346     		mov	r3, r2
 1593 072a 9B00     		lsls	r3, r3, #2
 1594 072c 1344     		add	r3, r3, r2
 1595 072e DB00     		lsls	r3, r3, #3
 1596 0730 0B44     		add	r3, r3, r1
 1597 0732 1833     		adds	r3, r3, #24
 1598 0734 9B78     		ldrb	r3, [r3, #2]	@ zero_extendqisi2
 1599 0736 1A46     		mov	r2, r3
 1600 0738 FB7A     		ldrb	r3, [r7, #11]	@ zero_extendqisi2
 1601 073a C3F1FF03 		rsb	r3, r3, #255
 1602 073e 9A42     		cmp	r2, r3
 1603 0740 3DDD     		ble	.L116
 397:build/openmote-cc2538_armgcc/openstack/02b-MAChigh/neighbors.c ****                 neighbors_vars.neighbors[i].numWraps++; //counting the number of times that tx wrap
 1604              		.loc 1 397 0
 1605 0742 FA7D     		ldrb	r2, [r7, #23]	@ zero_extendqisi2
 1606 0744 4249     		ldr	r1, .L119
 1607 0746 1346     		mov	r3, r2
 1608 0748 9B00     		lsls	r3, r3, #2
 1609 074a 1344     		add	r3, r3, r2
 1610 074c DB00     		lsls	r3, r3, #3
 1611 074e 0B44     		add	r3, r3, r1
 1612 0750 1833     		adds	r3, r3, #24
 1613 0752 1B79     		ldrb	r3, [r3, #4]	@ zero_extendqisi2
 1614 0754 0133     		adds	r3, r3, #1
 1615 0756 D8B2     		uxtb	r0, r3
 1616 0758 3D49     		ldr	r1, .L119
 1617 075a 1346     		mov	r3, r2
 1618 075c 9B00     		lsls	r3, r3, #2
 1619 075e 1344     		add	r3, r3, r2
 1620 0760 DB00     		lsls	r3, r3, #3
 1621 0762 0B44     		add	r3, r3, r1
 1622 0764 1833     		adds	r3, r3, #24
 1623 0766 0246     		mov	r2, r0
 1624 0768 1A71     		strb	r2, [r3, #4]
 398:build/openmote-cc2538_armgcc/openstack/02b-MAChigh/neighbors.c ****                 neighbors_vars.neighbors[i].numTx/=2;
 1625              		.loc 1 398 0
 1626 076a FA7D     		ldrb	r2, [r7, #23]	@ zero_extendqisi2
 1627 076c F97D     		ldrb	r1, [r7, #23]	@ zero_extendqisi2
 1628 076e 3848     		ldr	r0, .L119
 1629 0770 0B46     		mov	r3, r1
 1630 0772 9B00     		lsls	r3, r3, #2
 1631 0774 0B44     		add	r3, r3, r1
 1632 0776 DB00     		lsls	r3, r3, #3
 1633 0778 0344     		add	r3, r3, r0
 1634 077a 1833     		adds	r3, r3, #24
 1635 077c 9B78     		ldrb	r3, [r3, #2]	@ zero_extendqisi2
 1636 077e 5B08     		lsrs	r3, r3, #1
 1637 0780 D8B2     		uxtb	r0, r3
 1638 0782 3349     		ldr	r1, .L119
 1639 0784 1346     		mov	r3, r2
 1640 0786 9B00     		lsls	r3, r3, #2
 1641 0788 1344     		add	r3, r3, r2
 1642 078a DB00     		lsls	r3, r3, #3
 1643 078c 0B44     		add	r3, r3, r1
 1644 078e 1833     		adds	r3, r3, #24
 1645 0790 0246     		mov	r2, r0
 1646 0792 9A70     		strb	r2, [r3, #2]
 399:build/openmote-cc2538_armgcc/openstack/02b-MAChigh/neighbors.c ****                 neighbors_vars.neighbors[i].numTxACK/=2;
 1647              		.loc 1 399 0
 1648 0794 FA7D     		ldrb	r2, [r7, #23]	@ zero_extendqisi2
 1649 0796 F97D     		ldrb	r1, [r7, #23]	@ zero_extendqisi2
 1650 0798 2D48     		ldr	r0, .L119
 1651 079a 0B46     		mov	r3, r1
 1652 079c 9B00     		lsls	r3, r3, #2
 1653 079e 0B44     		add	r3, r3, r1
 1654 07a0 DB00     		lsls	r3, r3, #3
 1655 07a2 0344     		add	r3, r3, r0
 1656 07a4 1833     		adds	r3, r3, #24
 1657 07a6 DB78     		ldrb	r3, [r3, #3]	@ zero_extendqisi2
 1658 07a8 5B08     		lsrs	r3, r3, #1
 1659 07aa D8B2     		uxtb	r0, r3
 1660 07ac 2849     		ldr	r1, .L119
 1661 07ae 1346     		mov	r3, r2
 1662 07b0 9B00     		lsls	r3, r3, #2
 1663 07b2 1344     		add	r3, r3, r2
 1664 07b4 DB00     		lsls	r3, r3, #3
 1665 07b6 0B44     		add	r3, r3, r1
 1666 07b8 1833     		adds	r3, r3, #24
 1667 07ba 0246     		mov	r2, r0
 1668 07bc DA70     		strb	r2, [r3, #3]
 1669              	.L116:
 400:build/openmote-cc2538_armgcc/openstack/02b-MAChigh/neighbors.c ****             }
 401:build/openmote-cc2538_armgcc/openstack/02b-MAChigh/neighbors.c ****             // update statistics
 402:build/openmote-cc2538_armgcc/openstack/02b-MAChigh/neighbors.c ****             neighbors_vars.neighbors[i].numTx += numTxAttempts; 
 1670              		.loc 1 402 0
 1671 07be FA7D     		ldrb	r2, [r7, #23]	@ zero_extendqisi2
 1672 07c0 F97D     		ldrb	r1, [r7, #23]	@ zero_extendqisi2
 1673 07c2 2348     		ldr	r0, .L119
 1674 07c4 0B46     		mov	r3, r1
 1675 07c6 9B00     		lsls	r3, r3, #2
 1676 07c8 0B44     		add	r3, r3, r1
 1677 07ca DB00     		lsls	r3, r3, #3
 1678 07cc 0344     		add	r3, r3, r0
 1679 07ce 1833     		adds	r3, r3, #24
 1680 07d0 9978     		ldrb	r1, [r3, #2]	@ zero_extendqisi2
 1681 07d2 FB7A     		ldrb	r3, [r7, #11]
 1682 07d4 0B44     		add	r3, r3, r1
 1683 07d6 D8B2     		uxtb	r0, r3
 1684 07d8 1D49     		ldr	r1, .L119
 1685 07da 1346     		mov	r3, r2
 1686 07dc 9B00     		lsls	r3, r3, #2
 1687 07de 1344     		add	r3, r3, r2
 1688 07e0 DB00     		lsls	r3, r3, #3
 1689 07e2 0B44     		add	r3, r3, r1
 1690 07e4 1833     		adds	r3, r3, #24
 1691 07e6 0246     		mov	r2, r0
 1692 07e8 9A70     		strb	r2, [r3, #2]
 403:build/openmote-cc2538_armgcc/openstack/02b-MAChigh/neighbors.c ****             
 404:build/openmote-cc2538_armgcc/openstack/02b-MAChigh/neighbors.c ****             if (was_finally_acked==TRUE) {
 1693              		.loc 1 404 0
 1694 07ea BB7A     		ldrb	r3, [r7, #10]	@ zero_extendqisi2
 1695 07ec 002B     		cmp	r3, #0
 1696 07ee 21D0     		beq	.L117
 405:build/openmote-cc2538_armgcc/openstack/02b-MAChigh/neighbors.c ****                 neighbors_vars.neighbors[i].numTxACK++;
 1697              		.loc 1 405 0
 1698 07f0 FA7D     		ldrb	r2, [r7, #23]	@ zero_extendqisi2
 1699 07f2 1749     		ldr	r1, .L119
 1700 07f4 1346     		mov	r3, r2
 1701 07f6 9B00     		lsls	r3, r3, #2
 1702 07f8 1344     		add	r3, r3, r2
 1703 07fa DB00     		lsls	r3, r3, #3
 1704 07fc 0B44     		add	r3, r3, r1
 1705 07fe 1833     		adds	r3, r3, #24
 1706 0800 DB78     		ldrb	r3, [r3, #3]	@ zero_extendqisi2
 1707 0802 0133     		adds	r3, r3, #1
 1708 0804 D8B2     		uxtb	r0, r3
 1709 0806 1249     		ldr	r1, .L119
 1710 0808 1346     		mov	r3, r2
 1711 080a 9B00     		lsls	r3, r3, #2
 1712 080c 1344     		add	r3, r3, r2
 1713 080e DB00     		lsls	r3, r3, #3
 1714 0810 0B44     		add	r3, r3, r1
 1715 0812 1833     		adds	r3, r3, #24
 1716 0814 0246     		mov	r2, r0
 1717 0816 DA70     		strb	r2, [r3, #3]
 406:build/openmote-cc2538_armgcc/openstack/02b-MAChigh/neighbors.c ****                 memcpy(&neighbors_vars.neighbors[i].asn,asnTs,sizeof(asn_t));
 1718              		.loc 1 406 0
 1719 0818 FA7D     		ldrb	r2, [r7, #23]	@ zero_extendqisi2
 1720 081a 1346     		mov	r3, r2
 1721 081c 9B00     		lsls	r3, r3, #2
 1722 081e 1344     		add	r3, r3, r2
 1723 0820 DB00     		lsls	r3, r3, #3
 1724 0822 1833     		adds	r3, r3, #24
 1725 0824 0A4A     		ldr	r2, .L119
 1726 0826 1344     		add	r3, r3, r2
 1727 0828 0533     		adds	r3, r3, #5
 1728 082a 7A68     		ldr	r2, [r7, #4]
 1729 082c 1168     		ldr	r1, [r2]	@ unaligned
 1730 082e 1960     		str	r1, [r3]	@ unaligned
 1731 0830 1279     		ldrb	r2, [r2, #4]
 1732 0832 1A71     		strb	r2, [r3, #4]
 1733              	.L117:
 407:build/openmote-cc2538_armgcc/openstack/02b-MAChigh/neighbors.c ****             }
 408:build/openmote-cc2538_armgcc/openstack/02b-MAChigh/neighbors.c ****             
 409:build/openmote-cc2538_armgcc/openstack/02b-MAChigh/neighbors.c ****             // numTx and numTxAck changed,, update my rank
 410:build/openmote-cc2538_armgcc/openstack/02b-MAChigh/neighbors.c ****             icmpv6rpl_updateMyDAGrankAndParentSelection();
 1734              		.loc 1 410 0
 1735 0834 FFF7FEFF 		bl	icmpv6rpl_updateMyDAGrankAndParentSelection
 411:build/openmote-cc2538_armgcc/openstack/02b-MAChigh/neighbors.c ****             break;
 1736              		.loc 1 411 0
 1737 0838 06E0     		b	.L111
 1738              	.L115:
 392:build/openmote-cc2538_armgcc/openstack/02b-MAChigh/neighbors.c ****         if (isThisRowMatching(l2_dest,i)) {
 1739              		.loc 1 392 0 discriminator 2
 1740 083a FB7D     		ldrb	r3, [r7, #23]	@ zero_extendqisi2
 1741 083c 0133     		adds	r3, r3, #1
 1742 083e FB75     		strb	r3, [r7, #23]
 1743              	.L114:
 392:build/openmote-cc2538_armgcc/openstack/02b-MAChigh/neighbors.c ****         if (isThisRowMatching(l2_dest,i)) {
 1744              		.loc 1 392 0 is_stmt 0 discriminator 1
 1745 0840 FB7D     		ldrb	r3, [r7, #23]	@ zero_extendqisi2
 1746 0842 1D2B     		cmp	r3, #29
 1747 0844 7FF665AF 		bls	.L118
 1748              	.L111:
 412:build/openmote-cc2538_armgcc/openstack/02b-MAChigh/neighbors.c ****         }
 413:build/openmote-cc2538_armgcc/openstack/02b-MAChigh/neighbors.c ****     }
 414:build/openmote-cc2538_armgcc/openstack/02b-MAChigh/neighbors.c **** }
 1749              		.loc 1 414 0 is_stmt 1
 1750 0848 1837     		adds	r7, r7, #24
 1751              		.cfi_def_cfa_offset 8
 1752 084a BD46     		mov	sp, r7
 1753              		.cfi_def_cfa_register 13
 1754              		@ sp needed
 1755 084c 80BD     		pop	{r7, pc}
 1756              	.L120:
 1757 084e 00BF     		.align	2
 1758              	.L119:
 1759 0850 00000000 		.word	neighbors_vars
 1760              		.cfi_endproc
 1761              	.LFE16:
 1763              		.align	2
 1764              		.global	neighbors_updateSequenceNumber
 1765              		.thumb
 1766              		.thumb_func
 1768              	neighbors_updateSequenceNumber:
 1769              	.LFB17:
 415:build/openmote-cc2538_armgcc/openstack/02b-MAChigh/neighbors.c **** 
 416:build/openmote-cc2538_armgcc/openstack/02b-MAChigh/neighbors.c **** void neighbors_updateSequenceNumber(open_addr_t* address){
 1770              		.loc 1 416 0
 1771              		.cfi_startproc
 1772              		@ args = 0, pretend = 0, frame = 16
 1773              		@ frame_needed = 1, uses_anonymous_args = 0
 1774 0854 80B5     		push	{r7, lr}
 1775              		.cfi_def_cfa_offset 8
 1776              		.cfi_offset 7, -8
 1777              		.cfi_offset 14, -4
 1778 0856 84B0     		sub	sp, sp, #16
 1779              		.cfi_def_cfa_offset 24
 1780 0858 00AF     		add	r7, sp, #0
 1781              		.cfi_def_cfa_register 7
 1782 085a 7860     		str	r0, [r7, #4]
 417:build/openmote-cc2538_armgcc/openstack/02b-MAChigh/neighbors.c ****     uint8_t i;
 418:build/openmote-cc2538_armgcc/openstack/02b-MAChigh/neighbors.c ****     for (i=0;i<MAXNUMNEIGHBORS;i++){
 1783              		.loc 1 418 0
 1784 085c 0023     		movs	r3, #0
 1785 085e FB73     		strb	r3, [r7, #15]
 1786 0860 3DE0     		b	.L122
 1787              	.L126:
 419:build/openmote-cc2538_armgcc/openstack/02b-MAChigh/neighbors.c ****         if (packetfunctions_sameAddress(address, &neighbors_vars.neighbors[i].addr_64b)){
 1788              		.loc 1 419 0
 1789 0862 FA7B     		ldrb	r2, [r7, #15]	@ zero_extendqisi2
 1790 0864 1346     		mov	r3, r2
 1791 0866 9B00     		lsls	r3, r3, #2
 1792 0868 1344     		add	r3, r3, r2
 1793 086a DB00     		lsls	r3, r3, #3
 1794 086c 1F4A     		ldr	r2, .L127
 1795 086e 1344     		add	r3, r3, r2
 1796 0870 0533     		adds	r3, r3, #5
 1797 0872 7868     		ldr	r0, [r7, #4]
 1798 0874 1946     		mov	r1, r3
 1799 0876 FFF7FEFF 		bl	packetfunctions_sameAddress
 1800 087a 0346     		mov	r3, r0
 1801 087c 002B     		cmp	r3, #0
 1802 087e 2BD0     		beq	.L123
 420:build/openmote-cc2538_armgcc/openstack/02b-MAChigh/neighbors.c ****             neighbors_vars.neighbors[i].sequenceNumber = (neighbors_vars.neighbors[i].sequenceNumbe
 1803              		.loc 1 420 0
 1804 0880 FA7B     		ldrb	r2, [r7, #15]	@ zero_extendqisi2
 1805 0882 F97B     		ldrb	r1, [r7, #15]	@ zero_extendqisi2
 1806 0884 1948     		ldr	r0, .L127
 1807 0886 0B46     		mov	r3, r1
 1808 0888 9B00     		lsls	r3, r3, #2
 1809 088a 0B44     		add	r3, r3, r1
 1810 088c DB00     		lsls	r3, r3, #3
 1811 088e 0344     		add	r3, r3, r0
 1812 0890 2033     		adds	r3, r3, #32
 1813 0892 5B79     		ldrb	r3, [r3, #5]	@ zero_extendqisi2
 1814 0894 0133     		adds	r3, r3, #1
 1815 0896 D8B2     		uxtb	r0, r3
 1816 0898 1449     		ldr	r1, .L127
 1817 089a 1346     		mov	r3, r2
 1818 089c 9B00     		lsls	r3, r3, #2
 1819 089e 1344     		add	r3, r3, r2
 1820 08a0 DB00     		lsls	r3, r3, #3
 1821 08a2 0B44     		add	r3, r3, r1
 1822 08a4 2033     		adds	r3, r3, #32
 1823 08a6 0246     		mov	r2, r0
 1824 08a8 5A71     		strb	r2, [r3, #5]
 421:build/openmote-cc2538_armgcc/openstack/02b-MAChigh/neighbors.c ****             // rollover from 0xff to 0x01
 422:build/openmote-cc2538_armgcc/openstack/02b-MAChigh/neighbors.c ****             if (neighbors_vars.neighbors[i].sequenceNumber == 0){
 1825              		.loc 1 422 0
 1826 08aa FA7B     		ldrb	r2, [r7, #15]	@ zero_extendqisi2
 1827 08ac 0F49     		ldr	r1, .L127
 1828 08ae 1346     		mov	r3, r2
 1829 08b0 9B00     		lsls	r3, r3, #2
 1830 08b2 1344     		add	r3, r3, r2
 1831 08b4 DB00     		lsls	r3, r3, #3
 1832 08b6 0B44     		add	r3, r3, r1
 1833 08b8 2033     		adds	r3, r3, #32
 1834 08ba 5B79     		ldrb	r3, [r3, #5]	@ zero_extendqisi2
 1835 08bc 002B     		cmp	r3, #0
 1836 08be 0AD1     		bne	.L124
 423:build/openmote-cc2538_armgcc/openstack/02b-MAChigh/neighbors.c ****                 neighbors_vars.neighbors[i].sequenceNumber = 1;
 1837              		.loc 1 423 0
 1838 08c0 FA7B     		ldrb	r2, [r7, #15]	@ zero_extendqisi2
 1839 08c2 0A49     		ldr	r1, .L127
 1840 08c4 1346     		mov	r3, r2
 1841 08c6 9B00     		lsls	r3, r3, #2
 1842 08c8 1344     		add	r3, r3, r2
 1843 08ca DB00     		lsls	r3, r3, #3
 1844 08cc 0B44     		add	r3, r3, r1
 1845 08ce 2033     		adds	r3, r3, #32
 1846 08d0 0122     		movs	r2, #1
 1847 08d2 5A71     		strb	r2, [r3, #5]
 424:build/openmote-cc2538_armgcc/openstack/02b-MAChigh/neighbors.c ****             }
 425:build/openmote-cc2538_armgcc/openstack/02b-MAChigh/neighbors.c ****             break;
 1848              		.loc 1 425 0
 1849 08d4 06E0     		b	.L121
 1850              	.L124:
 1851 08d6 05E0     		b	.L121
 1852              	.L123:
 418:build/openmote-cc2538_armgcc/openstack/02b-MAChigh/neighbors.c ****         if (packetfunctions_sameAddress(address, &neighbors_vars.neighbors[i].addr_64b)){
 1853              		.loc 1 418 0 discriminator 2
 1854 08d8 FB7B     		ldrb	r3, [r7, #15]	@ zero_extendqisi2
 1855 08da 0133     		adds	r3, r3, #1
 1856 08dc FB73     		strb	r3, [r7, #15]
 1857              	.L122:
 418:build/openmote-cc2538_armgcc/openstack/02b-MAChigh/neighbors.c ****         if (packetfunctions_sameAddress(address, &neighbors_vars.neighbors[i].addr_64b)){
 1858              		.loc 1 418 0 is_stmt 0 discriminator 1
 1859 08de FB7B     		ldrb	r3, [r7, #15]	@ zero_extendqisi2
 1860 08e0 1D2B     		cmp	r3, #29
 1861 08e2 BED9     		bls	.L126
 1862              	.L121:
 426:build/openmote-cc2538_armgcc/openstack/02b-MAChigh/neighbors.c ****         }
 427:build/openmote-cc2538_armgcc/openstack/02b-MAChigh/neighbors.c ****     }
 428:build/openmote-cc2538_armgcc/openstack/02b-MAChigh/neighbors.c **** }
 1863              		.loc 1 428 0 is_stmt 1
 1864 08e4 1037     		adds	r7, r7, #16
 1865              		.cfi_def_cfa_offset 8
 1866 08e6 BD46     		mov	sp, r7
 1867              		.cfi_def_cfa_register 13
 1868              		@ sp needed
 1869 08e8 80BD     		pop	{r7, pc}
 1870              	.L128:
 1871 08ea 00BF     		.align	2
 1872              	.L127:
 1873 08ec 00000000 		.word	neighbors_vars
 1874              		.cfi_endproc
 1875              	.LFE17:
 1877              		.align	2
 1878              		.global	neighbors_resetSequenceNumber
 1879              		.thumb
 1880              		.thumb_func
 1882              	neighbors_resetSequenceNumber:
 1883              	.LFB18:
 429:build/openmote-cc2538_armgcc/openstack/02b-MAChigh/neighbors.c **** 
 430:build/openmote-cc2538_armgcc/openstack/02b-MAChigh/neighbors.c **** void neighbors_resetSequenceNumber(open_addr_t* address){
 1884              		.loc 1 430 0
 1885              		.cfi_startproc
 1886              		@ args = 0, pretend = 0, frame = 16
 1887              		@ frame_needed = 1, uses_anonymous_args = 0
 1888 08f0 80B5     		push	{r7, lr}
 1889              		.cfi_def_cfa_offset 8
 1890              		.cfi_offset 7, -8
 1891              		.cfi_offset 14, -4
 1892 08f2 84B0     		sub	sp, sp, #16
 1893              		.cfi_def_cfa_offset 24
 1894 08f4 00AF     		add	r7, sp, #0
 1895              		.cfi_def_cfa_register 7
 1896 08f6 7860     		str	r0, [r7, #4]
 431:build/openmote-cc2538_armgcc/openstack/02b-MAChigh/neighbors.c ****     uint8_t i;
 432:build/openmote-cc2538_armgcc/openstack/02b-MAChigh/neighbors.c ****     for (i=0;i<MAXNUMNEIGHBORS;i++){
 1897              		.loc 1 432 0
 1898 08f8 0023     		movs	r3, #0
 1899 08fa FB73     		strb	r3, [r7, #15]
 1900 08fc 1CE0     		b	.L130
 1901              	.L133:
 433:build/openmote-cc2538_armgcc/openstack/02b-MAChigh/neighbors.c ****         if (packetfunctions_sameAddress(address, &neighbors_vars.neighbors[i].addr_64b)){
 1902              		.loc 1 433 0
 1903 08fe FA7B     		ldrb	r2, [r7, #15]	@ zero_extendqisi2
 1904 0900 1346     		mov	r3, r2
 1905 0902 9B00     		lsls	r3, r3, #2
 1906 0904 1344     		add	r3, r3, r2
 1907 0906 DB00     		lsls	r3, r3, #3
 1908 0908 0E4A     		ldr	r2, .L134
 1909 090a 1344     		add	r3, r3, r2
 1910 090c 0533     		adds	r3, r3, #5
 1911 090e 7868     		ldr	r0, [r7, #4]
 1912 0910 1946     		mov	r1, r3
 1913 0912 FFF7FEFF 		bl	packetfunctions_sameAddress
 1914 0916 0346     		mov	r3, r0
 1915 0918 002B     		cmp	r3, #0
 1916 091a 0AD0     		beq	.L131
 434:build/openmote-cc2538_armgcc/openstack/02b-MAChigh/neighbors.c ****             neighbors_vars.neighbors[i].sequenceNumber = 0;
 1917              		.loc 1 434 0
 1918 091c FA7B     		ldrb	r2, [r7, #15]	@ zero_extendqisi2
 1919 091e 0949     		ldr	r1, .L134
 1920 0920 1346     		mov	r3, r2
 1921 0922 9B00     		lsls	r3, r3, #2
 1922 0924 1344     		add	r3, r3, r2
 1923 0926 DB00     		lsls	r3, r3, #3
 1924 0928 0B44     		add	r3, r3, r1
 1925 092a 2033     		adds	r3, r3, #32
 1926 092c 0022     		movs	r2, #0
 1927 092e 5A71     		strb	r2, [r3, #5]
 435:build/openmote-cc2538_armgcc/openstack/02b-MAChigh/neighbors.c ****             break;
 1928              		.loc 1 435 0
 1929 0930 05E0     		b	.L129
 1930              	.L131:
 432:build/openmote-cc2538_armgcc/openstack/02b-MAChigh/neighbors.c ****         if (packetfunctions_sameAddress(address, &neighbors_vars.neighbors[i].addr_64b)){
 1931              		.loc 1 432 0 discriminator 2
 1932 0932 FB7B     		ldrb	r3, [r7, #15]	@ zero_extendqisi2
 1933 0934 0133     		adds	r3, r3, #1
 1934 0936 FB73     		strb	r3, [r7, #15]
 1935              	.L130:
 432:build/openmote-cc2538_armgcc/openstack/02b-MAChigh/neighbors.c ****         if (packetfunctions_sameAddress(address, &neighbors_vars.neighbors[i].addr_64b)){
 1936              		.loc 1 432 0 is_stmt 0 discriminator 1
 1937 0938 FB7B     		ldrb	r3, [r7, #15]	@ zero_extendqisi2
 1938 093a 1D2B     		cmp	r3, #29
 1939 093c DFD9     		bls	.L133
 1940              	.L129:
 436:build/openmote-cc2538_armgcc/openstack/02b-MAChigh/neighbors.c ****         }
 437:build/openmote-cc2538_armgcc/openstack/02b-MAChigh/neighbors.c ****     }
 438:build/openmote-cc2538_armgcc/openstack/02b-MAChigh/neighbors.c **** }
 1941              		.loc 1 438 0 is_stmt 1
 1942 093e 1037     		adds	r7, r7, #16
 1943              		.cfi_def_cfa_offset 8
 1944 0940 BD46     		mov	sp, r7
 1945              		.cfi_def_cfa_register 13
 1946              		@ sp needed
 1947 0942 80BD     		pop	{r7, pc}
 1948              	.L135:
 1949              		.align	2
 1950              	.L134:
 1951 0944 00000000 		.word	neighbors_vars
 1952              		.cfi_endproc
 1953              	.LFE18:
 1955              		.align	2
 1956              		.global	neighbors_getNeighborEui64
 1957              		.thumb
 1958              		.thumb_func
 1960              	neighbors_getNeighborEui64:
 1961              	.LFB19:
 439:build/openmote-cc2538_armgcc/openstack/02b-MAChigh/neighbors.c **** 
 440:build/openmote-cc2538_armgcc/openstack/02b-MAChigh/neighbors.c **** //===== write addresses
 441:build/openmote-cc2538_armgcc/openstack/02b-MAChigh/neighbors.c **** 
 442:build/openmote-cc2538_armgcc/openstack/02b-MAChigh/neighbors.c **** /**
 443:build/openmote-cc2538_armgcc/openstack/02b-MAChigh/neighbors.c **** \brief Write the 64-bit address of some neighbor to some location.
 444:build/openmote-cc2538_armgcc/openstack/02b-MAChigh/neighbors.c **** // Returns false if neighbor not in use or address type is not 64bits
 445:build/openmote-cc2538_armgcc/openstack/02b-MAChigh/neighbors.c **** */
 446:build/openmote-cc2538_armgcc/openstack/02b-MAChigh/neighbors.c **** bool  neighbors_getNeighborEui64(open_addr_t* address, uint8_t addr_type, uint8_t index){
 1962              		.loc 1 446 0
 1963              		.cfi_startproc
 1964              		@ args = 0, pretend = 0, frame = 16
 1965              		@ frame_needed = 1, uses_anonymous_args = 0
 1966 0948 80B5     		push	{r7, lr}
 1967              		.cfi_def_cfa_offset 8
 1968              		.cfi_offset 7, -8
 1969              		.cfi_offset 14, -4
 1970 094a 84B0     		sub	sp, sp, #16
 1971              		.cfi_def_cfa_offset 24
 1972 094c 00AF     		add	r7, sp, #0
 1973              		.cfi_def_cfa_register 7
 1974 094e 7860     		str	r0, [r7, #4]
 1975 0950 0B46     		mov	r3, r1
 1976 0952 FB70     		strb	r3, [r7, #3]
 1977 0954 1346     		mov	r3, r2
 1978 0956 BB70     		strb	r3, [r7, #2]
 447:build/openmote-cc2538_armgcc/openstack/02b-MAChigh/neighbors.c ****    bool ReturnVal = FALSE;
 1979              		.loc 1 447 0
 1980 0958 0023     		movs	r3, #0
 1981 095a FB73     		strb	r3, [r7, #15]
 448:build/openmote-cc2538_armgcc/openstack/02b-MAChigh/neighbors.c ****    switch(addr_type) {
 1982              		.loc 1 448 0
 1983 095c FB78     		ldrb	r3, [r7, #3]	@ zero_extendqisi2
 1984 095e 022B     		cmp	r3, #2
 1985 0960 1BD1     		bne	.L141
 449:build/openmote-cc2538_armgcc/openstack/02b-MAChigh/neighbors.c ****       case ADDR_64B:
 450:build/openmote-cc2538_armgcc/openstack/02b-MAChigh/neighbors.c ****          memcpy(&(address->addr_64b),&(neighbors_vars.neighbors[index].addr_64b.addr_64b),LENGTH_AD
 1986              		.loc 1 450 0
 1987 0962 7B68     		ldr	r3, [r7, #4]
 1988 0964 591C     		adds	r1, r3, #1
 1989 0966 BA78     		ldrb	r2, [r7, #2]	@ zero_extendqisi2
 1990 0968 1346     		mov	r3, r2
 1991 096a 9B00     		lsls	r3, r3, #2
 1992 096c 1344     		add	r3, r3, r2
 1993 096e DB00     		lsls	r3, r3, #3
 1994 0970 114A     		ldr	r2, .L142
 1995 0972 1344     		add	r3, r3, r2
 1996 0974 9A1D     		adds	r2, r3, #6
 1997 0976 0B46     		mov	r3, r1
 1998 0978 1168     		ldr	r1, [r2]	@ unaligned
 1999 097a 5268     		ldr	r2, [r2, #4]	@ unaligned
 2000 097c 1960     		str	r1, [r3]	@ unaligned
 2001 097e 5A60     		str	r2, [r3, #4]	@ unaligned
 451:build/openmote-cc2538_armgcc/openstack/02b-MAChigh/neighbors.c ****          address->type=ADDR_64B;
 2002              		.loc 1 451 0
 2003 0980 7B68     		ldr	r3, [r7, #4]
 2004 0982 0222     		movs	r2, #2
 2005 0984 1A70     		strb	r2, [r3]
 452:build/openmote-cc2538_armgcc/openstack/02b-MAChigh/neighbors.c ****          ReturnVal=neighbors_vars.neighbors[index].used;
 2006              		.loc 1 452 0
 2007 0986 BA78     		ldrb	r2, [r7, #2]	@ zero_extendqisi2
 2008 0988 0B49     		ldr	r1, .L142
 2009 098a 1346     		mov	r3, r2
 2010 098c 9B00     		lsls	r3, r3, #2
 2011 098e 1344     		add	r3, r3, r2
 2012 0990 DB00     		lsls	r3, r3, #3
 2013 0992 0B44     		add	r3, r3, r1
 2014 0994 1B78     		ldrb	r3, [r3]
 2015 0996 FB73     		strb	r3, [r7, #15]
 453:build/openmote-cc2538_armgcc/openstack/02b-MAChigh/neighbors.c ****          break;
 2016              		.loc 1 453 0
 2017 0998 08E0     		b	.L139
 2018              	.L141:
 454:build/openmote-cc2538_armgcc/openstack/02b-MAChigh/neighbors.c ****       default:
 455:build/openmote-cc2538_armgcc/openstack/02b-MAChigh/neighbors.c ****          openserial_printCritical(COMPONENT_NEIGHBORS,ERR_WRONG_ADDR_TYPE,
 2019              		.loc 1 455 0
 2020 099a FB78     		ldrb	r3, [r7, #3]	@ zero_extendqisi2
 2021 099c 9BB2     		uxth	r3, r3
 2022 099e 0D20     		movs	r0, #13
 2023 09a0 3121     		movs	r1, #49
 2024 09a2 1A46     		mov	r2, r3
 2025 09a4 0123     		movs	r3, #1
 2026 09a6 FFF7FEFF 		bl	openserial_printCritical
 456:build/openmote-cc2538_armgcc/openstack/02b-MAChigh/neighbors.c ****                                (errorparameter_t)addr_type,
 457:build/openmote-cc2538_armgcc/openstack/02b-MAChigh/neighbors.c ****                                (errorparameter_t)1);
 458:build/openmote-cc2538_armgcc/openstack/02b-MAChigh/neighbors.c ****          break; 
 2027              		.loc 1 458 0
 2028 09aa 00BF     		nop
 2029              	.L139:
 459:build/openmote-cc2538_armgcc/openstack/02b-MAChigh/neighbors.c ****    }
 460:build/openmote-cc2538_armgcc/openstack/02b-MAChigh/neighbors.c ****    return ReturnVal;
 2030              		.loc 1 460 0
 2031 09ac FB7B     		ldrb	r3, [r7, #15]	@ zero_extendqisi2
 461:build/openmote-cc2538_armgcc/openstack/02b-MAChigh/neighbors.c **** }
 2032              		.loc 1 461 0
 2033 09ae 1846     		mov	r0, r3
 2034 09b0 1037     		adds	r7, r7, #16
 2035              		.cfi_def_cfa_offset 8
 2036 09b2 BD46     		mov	sp, r7
 2037              		.cfi_def_cfa_register 13
 2038              		@ sp needed
 2039 09b4 80BD     		pop	{r7, pc}
 2040              	.L143:
 2041 09b6 00BF     		.align	2
 2042              	.L142:
 2043 09b8 00000000 		.word	neighbors_vars
 2044              		.cfi_endproc
 2045              	.LFE19:
 2047              		.align	2
 2048              		.global	neighbors_updateBackoff
 2049              		.thumb
 2050              		.thumb_func
 2052              	neighbors_updateBackoff:
 2053              	.LFB20:
 462:build/openmote-cc2538_armgcc/openstack/02b-MAChigh/neighbors.c **** // ==== update backoff
 463:build/openmote-cc2538_armgcc/openstack/02b-MAChigh/neighbors.c **** void neighbors_updateBackoff(open_addr_t* address){
 2054              		.loc 1 463 0
 2055              		.cfi_startproc
 2056              		@ args = 0, pretend = 0, frame = 16
 2057              		@ frame_needed = 1, uses_anonymous_args = 0
 2058 09bc 90B5     		push	{r4, r7, lr}
 2059              		.cfi_def_cfa_offset 12
 2060              		.cfi_offset 4, -12
 2061              		.cfi_offset 7, -8
 2062              		.cfi_offset 14, -4
 2063 09be 85B0     		sub	sp, sp, #20
 2064              		.cfi_def_cfa_offset 32
 2065 09c0 00AF     		add	r7, sp, #0
 2066              		.cfi_def_cfa_register 7
 2067 09c2 7860     		str	r0, [r7, #4]
 464:build/openmote-cc2538_armgcc/openstack/02b-MAChigh/neighbors.c ****     uint8_t i;
 465:build/openmote-cc2538_armgcc/openstack/02b-MAChigh/neighbors.c ****     for (i=0;i<MAXNUMNEIGHBORS;i++){
 2068              		.loc 1 465 0
 2069 09c4 0023     		movs	r3, #0
 2070 09c6 FB73     		strb	r3, [r7, #15]
 2071 09c8 53E0     		b	.L145
 2072              	.L149:
 466:build/openmote-cc2538_armgcc/openstack/02b-MAChigh/neighbors.c ****         if (packetfunctions_sameAddress(address, &neighbors_vars.neighbors[i].addr_64b)){
 2073              		.loc 1 466 0
 2074 09ca FA7B     		ldrb	r2, [r7, #15]	@ zero_extendqisi2
 2075 09cc 1346     		mov	r3, r2
 2076 09ce 9B00     		lsls	r3, r3, #2
 2077 09d0 1344     		add	r3, r3, r2
 2078 09d2 DB00     		lsls	r3, r3, #3
 2079 09d4 2A4A     		ldr	r2, .L150
 2080 09d6 1344     		add	r3, r3, r2
 2081 09d8 0533     		adds	r3, r3, #5
 2082 09da 7868     		ldr	r0, [r7, #4]
 2083 09dc 1946     		mov	r1, r3
 2084 09de FFF7FEFF 		bl	packetfunctions_sameAddress
 2085 09e2 0346     		mov	r3, r0
 2086 09e4 002B     		cmp	r3, #0
 2087 09e6 41D0     		beq	.L146
 467:build/openmote-cc2538_armgcc/openstack/02b-MAChigh/neighbors.c ****             // increase the backoffExponent
 468:build/openmote-cc2538_armgcc/openstack/02b-MAChigh/neighbors.c ****             if (neighbors_vars.neighbors[i].backoffExponenton<MAXBE) {
 2088              		.loc 1 468 0
 2089 09e8 FA7B     		ldrb	r2, [r7, #15]	@ zero_extendqisi2
 2090 09ea 2549     		ldr	r1, .L150
 2091 09ec 1346     		mov	r3, r2
 2092 09ee 9B00     		lsls	r3, r3, #2
 2093 09f0 1344     		add	r3, r3, r2
 2094 09f2 DB00     		lsls	r3, r3, #3
 2095 09f4 0B44     		add	r3, r3, r1
 2096 09f6 2033     		adds	r3, r3, #32
 2097 09f8 9B79     		ldrb	r3, [r3, #6]	@ zero_extendqisi2
 2098 09fa 032B     		cmp	r3, #3
 2099 09fc 13D8     		bhi	.L147
 469:build/openmote-cc2538_armgcc/openstack/02b-MAChigh/neighbors.c ****                 neighbors_vars.neighbors[i].backoffExponenton++;
 2100              		.loc 1 469 0
 2101 09fe FA7B     		ldrb	r2, [r7, #15]	@ zero_extendqisi2
 2102 0a00 1F49     		ldr	r1, .L150
 2103 0a02 1346     		mov	r3, r2
 2104 0a04 9B00     		lsls	r3, r3, #2
 2105 0a06 1344     		add	r3, r3, r2
 2106 0a08 DB00     		lsls	r3, r3, #3
 2107 0a0a 0B44     		add	r3, r3, r1
 2108 0a0c 2033     		adds	r3, r3, #32
 2109 0a0e 9B79     		ldrb	r3, [r3, #6]	@ zero_extendqisi2
 2110 0a10 0133     		adds	r3, r3, #1
 2111 0a12 D8B2     		uxtb	r0, r3
 2112 0a14 1A49     		ldr	r1, .L150
 2113 0a16 1346     		mov	r3, r2
 2114 0a18 9B00     		lsls	r3, r3, #2
 2115 0a1a 1344     		add	r3, r3, r2
 2116 0a1c DB00     		lsls	r3, r3, #3
 2117 0a1e 0B44     		add	r3, r3, r1
 2118 0a20 2033     		adds	r3, r3, #32
 2119 0a22 0246     		mov	r2, r0
 2120 0a24 9A71     		strb	r2, [r3, #6]
 2121              	.L147:
 470:build/openmote-cc2538_armgcc/openstack/02b-MAChigh/neighbors.c ****             }
 471:build/openmote-cc2538_armgcc/openstack/02b-MAChigh/neighbors.c ****             // set the backoff to a random value in [0..2^BE]
 472:build/openmote-cc2538_armgcc/openstack/02b-MAChigh/neighbors.c ****             neighbors_vars.neighbors[i].backoff = openrandom_get16b()%(1<<neighbors_vars.neighbors[
 2122              		.loc 1 472 0
 2123 0a26 FC7B     		ldrb	r4, [r7, #15]	@ zero_extendqisi2
 2124 0a28 FFF7FEFF 		bl	openrandom_get16b
 2125 0a2c 0346     		mov	r3, r0
 2126 0a2e D8B2     		uxtb	r0, r3
 2127 0a30 FA7B     		ldrb	r2, [r7, #15]	@ zero_extendqisi2
 2128 0a32 1349     		ldr	r1, .L150
 2129 0a34 1346     		mov	r3, r2
 2130 0a36 9B00     		lsls	r3, r3, #2
 2131 0a38 1344     		add	r3, r3, r2
 2132 0a3a DB00     		lsls	r3, r3, #3
 2133 0a3c 0B44     		add	r3, r3, r1
 2134 0a3e 2033     		adds	r3, r3, #32
 2135 0a40 9B79     		ldrb	r3, [r3, #6]	@ zero_extendqisi2
 2136 0a42 1A46     		mov	r2, r3
 2137 0a44 0123     		movs	r3, #1
 2138 0a46 9340     		lsls	r3, r3, r2
 2139 0a48 DBB2     		uxtb	r3, r3
 2140 0a4a 013B     		subs	r3, r3, #1
 2141 0a4c DBB2     		uxtb	r3, r3
 2142 0a4e DBB2     		uxtb	r3, r3
 2143 0a50 0246     		mov	r2, r0
 2144 0a52 1340     		ands	r3, r3, r2
 2145 0a54 DBB2     		uxtb	r3, r3
 2146 0a56 D9B2     		uxtb	r1, r3
 2147 0a58 094A     		ldr	r2, .L150
 2148 0a5a 2346     		mov	r3, r4
 2149 0a5c 9B00     		lsls	r3, r3, #2
 2150 0a5e 2344     		add	r3, r3, r4
 2151 0a60 DB00     		lsls	r3, r3, #3
 2152 0a62 1344     		add	r3, r3, r2
 2153 0a64 2033     		adds	r3, r3, #32
 2154 0a66 0A46     		mov	r2, r1
 2155 0a68 DA71     		strb	r2, [r3, #7]
 473:build/openmote-cc2538_armgcc/openstack/02b-MAChigh/neighbors.c ****             break;
 2156              		.loc 1 473 0
 2157 0a6a 05E0     		b	.L144
 2158              	.L146:
 465:build/openmote-cc2538_armgcc/openstack/02b-MAChigh/neighbors.c ****         if (packetfunctions_sameAddress(address, &neighbors_vars.neighbors[i].addr_64b)){
 2159              		.loc 1 465 0 discriminator 2
 2160 0a6c FB7B     		ldrb	r3, [r7, #15]	@ zero_extendqisi2
 2161 0a6e 0133     		adds	r3, r3, #1
 2162 0a70 FB73     		strb	r3, [r7, #15]
 2163              	.L145:
 465:build/openmote-cc2538_armgcc/openstack/02b-MAChigh/neighbors.c ****         if (packetfunctions_sameAddress(address, &neighbors_vars.neighbors[i].addr_64b)){
 2164              		.loc 1 465 0 is_stmt 0 discriminator 1
 2165 0a72 FB7B     		ldrb	r3, [r7, #15]	@ zero_extendqisi2
 2166 0a74 1D2B     		cmp	r3, #29
 2167 0a76 A8D9     		bls	.L149
 2168              	.L144:
 474:build/openmote-cc2538_armgcc/openstack/02b-MAChigh/neighbors.c ****         }
 475:build/openmote-cc2538_armgcc/openstack/02b-MAChigh/neighbors.c ****     }
 476:build/openmote-cc2538_armgcc/openstack/02b-MAChigh/neighbors.c **** }
 2169              		.loc 1 476 0 is_stmt 1
 2170 0a78 1437     		adds	r7, r7, #20
 2171              		.cfi_def_cfa_offset 12
 2172 0a7a BD46     		mov	sp, r7
 2173              		.cfi_def_cfa_register 13
 2174              		@ sp needed
 2175 0a7c 90BD     		pop	{r4, r7, pc}
 2176              	.L151:
 2177 0a7e 00BF     		.align	2
 2178              	.L150:
 2179 0a80 00000000 		.word	neighbors_vars
 2180              		.cfi_endproc
 2181              	.LFE20:
 2183              		.align	2
 2184              		.global	neighbors_decreaseBackoff
 2185              		.thumb
 2186              		.thumb_func
 2188              	neighbors_decreaseBackoff:
 2189              	.LFB21:
 477:build/openmote-cc2538_armgcc/openstack/02b-MAChigh/neighbors.c **** void neighbors_decreaseBackoff(open_addr_t* address){
 2190              		.loc 1 477 0
 2191              		.cfi_startproc
 2192              		@ args = 0, pretend = 0, frame = 16
 2193              		@ frame_needed = 1, uses_anonymous_args = 0
 2194 0a84 80B5     		push	{r7, lr}
 2195              		.cfi_def_cfa_offset 8
 2196              		.cfi_offset 7, -8
 2197              		.cfi_offset 14, -4
 2198 0a86 84B0     		sub	sp, sp, #16
 2199              		.cfi_def_cfa_offset 24
 2200 0a88 00AF     		add	r7, sp, #0
 2201              		.cfi_def_cfa_register 7
 2202 0a8a 7860     		str	r0, [r7, #4]
 478:build/openmote-cc2538_armgcc/openstack/02b-MAChigh/neighbors.c ****     uint8_t i;
 479:build/openmote-cc2538_armgcc/openstack/02b-MAChigh/neighbors.c ****     for (i=0;i<MAXNUMNEIGHBORS;i++){
 2203              		.loc 1 479 0
 2204 0a8c 0023     		movs	r3, #0
 2205 0a8e FB73     		strb	r3, [r7, #15]
 2206 0a90 32E0     		b	.L153
 2207              	.L157:
 480:build/openmote-cc2538_armgcc/openstack/02b-MAChigh/neighbors.c ****         if (packetfunctions_sameAddress(address, &neighbors_vars.neighbors[i].addr_64b)){
 2208              		.loc 1 480 0
 2209 0a92 FA7B     		ldrb	r2, [r7, #15]	@ zero_extendqisi2
 2210 0a94 1346     		mov	r3, r2
 2211 0a96 9B00     		lsls	r3, r3, #2
 2212 0a98 1344     		add	r3, r3, r2
 2213 0a9a DB00     		lsls	r3, r3, #3
 2214 0a9c 194A     		ldr	r2, .L158
 2215 0a9e 1344     		add	r3, r3, r2
 2216 0aa0 0533     		adds	r3, r3, #5
 2217 0aa2 7868     		ldr	r0, [r7, #4]
 2218 0aa4 1946     		mov	r1, r3
 2219 0aa6 FFF7FEFF 		bl	packetfunctions_sameAddress
 2220 0aaa 0346     		mov	r3, r0
 2221 0aac 002B     		cmp	r3, #0
 2222 0aae 20D0     		beq	.L154
 481:build/openmote-cc2538_armgcc/openstack/02b-MAChigh/neighbors.c ****             if (neighbors_vars.neighbors[i].backoff>0) {
 2223              		.loc 1 481 0
 2224 0ab0 FA7B     		ldrb	r2, [r7, #15]	@ zero_extendqisi2
 2225 0ab2 1449     		ldr	r1, .L158
 2226 0ab4 1346     		mov	r3, r2
 2227 0ab6 9B00     		lsls	r3, r3, #2
 2228 0ab8 1344     		add	r3, r3, r2
 2229 0aba DB00     		lsls	r3, r3, #3
 2230 0abc 0B44     		add	r3, r3, r1
 2231 0abe 2033     		adds	r3, r3, #32
 2232 0ac0 DB79     		ldrb	r3, [r3, #7]	@ zero_extendqisi2
 2233 0ac2 002B     		cmp	r3, #0
 2234 0ac4 14D0     		beq	.L155
 482:build/openmote-cc2538_armgcc/openstack/02b-MAChigh/neighbors.c ****                 neighbors_vars.neighbors[i].backoff--;
 2235              		.loc 1 482 0
 2236 0ac6 FA7B     		ldrb	r2, [r7, #15]	@ zero_extendqisi2
 2237 0ac8 0E49     		ldr	r1, .L158
 2238 0aca 1346     		mov	r3, r2
 2239 0acc 9B00     		lsls	r3, r3, #2
 2240 0ace 1344     		add	r3, r3, r2
 2241 0ad0 DB00     		lsls	r3, r3, #3
 2242 0ad2 0B44     		add	r3, r3, r1
 2243 0ad4 2033     		adds	r3, r3, #32
 2244 0ad6 DB79     		ldrb	r3, [r3, #7]	@ zero_extendqisi2
 2245 0ad8 013B     		subs	r3, r3, #1
 2246 0ada D8B2     		uxtb	r0, r3
 2247 0adc 0949     		ldr	r1, .L158
 2248 0ade 1346     		mov	r3, r2
 2249 0ae0 9B00     		lsls	r3, r3, #2
 2250 0ae2 1344     		add	r3, r3, r2
 2251 0ae4 DB00     		lsls	r3, r3, #3
 2252 0ae6 0B44     		add	r3, r3, r1
 2253 0ae8 2033     		adds	r3, r3, #32
 2254 0aea 0246     		mov	r2, r0
 2255 0aec DA71     		strb	r2, [r3, #7]
 483:build/openmote-cc2538_armgcc/openstack/02b-MAChigh/neighbors.c ****             }
 484:build/openmote-cc2538_armgcc/openstack/02b-MAChigh/neighbors.c ****             break;
 2256              		.loc 1 484 0
 2257 0aee 06E0     		b	.L152
 2258              	.L155:
 2259 0af0 05E0     		b	.L152
 2260              	.L154:
 479:build/openmote-cc2538_armgcc/openstack/02b-MAChigh/neighbors.c ****         if (packetfunctions_sameAddress(address, &neighbors_vars.neighbors[i].addr_64b)){
 2261              		.loc 1 479 0 discriminator 2
 2262 0af2 FB7B     		ldrb	r3, [r7, #15]	@ zero_extendqisi2
 2263 0af4 0133     		adds	r3, r3, #1
 2264 0af6 FB73     		strb	r3, [r7, #15]
 2265              	.L153:
 479:build/openmote-cc2538_armgcc/openstack/02b-MAChigh/neighbors.c ****         if (packetfunctions_sameAddress(address, &neighbors_vars.neighbors[i].addr_64b)){
 2266              		.loc 1 479 0 is_stmt 0 discriminator 1
 2267 0af8 FB7B     		ldrb	r3, [r7, #15]	@ zero_extendqisi2
 2268 0afa 1D2B     		cmp	r3, #29
 2269 0afc C9D9     		bls	.L157
 2270              	.L152:
 485:build/openmote-cc2538_armgcc/openstack/02b-MAChigh/neighbors.c ****         }
 486:build/openmote-cc2538_armgcc/openstack/02b-MAChigh/neighbors.c ****     }
 487:build/openmote-cc2538_armgcc/openstack/02b-MAChigh/neighbors.c **** }
 2271              		.loc 1 487 0 is_stmt 1
 2272 0afe 1037     		adds	r7, r7, #16
 2273              		.cfi_def_cfa_offset 8
 2274 0b00 BD46     		mov	sp, r7
 2275              		.cfi_def_cfa_register 13
 2276              		@ sp needed
 2277 0b02 80BD     		pop	{r7, pc}
 2278              	.L159:
 2279              		.align	2
 2280              	.L158:
 2281 0b04 00000000 		.word	neighbors_vars
 2282              		.cfi_endproc
 2283              	.LFE21:
 2285              		.align	2
 2286              		.global	neighbors_backoffHitZero
 2287              		.thumb
 2288              		.thumb_func
 2290              	neighbors_backoffHitZero:
 2291              	.LFB22:
 488:build/openmote-cc2538_armgcc/openstack/02b-MAChigh/neighbors.c **** bool neighbors_backoffHitZero(open_addr_t* address){
 2292              		.loc 1 488 0
 2293              		.cfi_startproc
 2294              		@ args = 0, pretend = 0, frame = 16
 2295              		@ frame_needed = 1, uses_anonymous_args = 0
 2296 0b08 80B5     		push	{r7, lr}
 2297              		.cfi_def_cfa_offset 8
 2298              		.cfi_offset 7, -8
 2299              		.cfi_offset 14, -4
 2300 0b0a 84B0     		sub	sp, sp, #16
 2301              		.cfi_def_cfa_offset 24
 2302 0b0c 00AF     		add	r7, sp, #0
 2303              		.cfi_def_cfa_register 7
 2304 0b0e 7860     		str	r0, [r7, #4]
 489:build/openmote-cc2538_armgcc/openstack/02b-MAChigh/neighbors.c ****     uint8_t i;
 490:build/openmote-cc2538_armgcc/openstack/02b-MAChigh/neighbors.c ****     bool returnVal;
 491:build/openmote-cc2538_armgcc/openstack/02b-MAChigh/neighbors.c ****     
 492:build/openmote-cc2538_armgcc/openstack/02b-MAChigh/neighbors.c ****     returnVal = FALSE;
 2305              		.loc 1 492 0
 2306 0b10 0023     		movs	r3, #0
 2307 0b12 BB73     		strb	r3, [r7, #14]
 493:build/openmote-cc2538_armgcc/openstack/02b-MAChigh/neighbors.c ****     for (i=0;i<MAXNUMNEIGHBORS;i++){
 2308              		.loc 1 493 0
 2309 0b14 0023     		movs	r3, #0
 2310 0b16 FB73     		strb	r3, [r7, #15]
 2311 0b18 20E0     		b	.L161
 2312              	.L164:
 494:build/openmote-cc2538_armgcc/openstack/02b-MAChigh/neighbors.c ****         if (packetfunctions_sameAddress(address, &neighbors_vars.neighbors[i].addr_64b)){
 2313              		.loc 1 494 0
 2314 0b1a FA7B     		ldrb	r2, [r7, #15]	@ zero_extendqisi2
 2315 0b1c 1346     		mov	r3, r2
 2316 0b1e 9B00     		lsls	r3, r3, #2
 2317 0b20 1344     		add	r3, r3, r2
 2318 0b22 DB00     		lsls	r3, r3, #3
 2319 0b24 114A     		ldr	r2, .L166
 2320 0b26 1344     		add	r3, r3, r2
 2321 0b28 0533     		adds	r3, r3, #5
 2322 0b2a 7868     		ldr	r0, [r7, #4]
 2323 0b2c 1946     		mov	r1, r3
 2324 0b2e FFF7FEFF 		bl	packetfunctions_sameAddress
 2325 0b32 0346     		mov	r3, r0
 2326 0b34 002B     		cmp	r3, #0
 2327 0b36 0ED0     		beq	.L162
 495:build/openmote-cc2538_armgcc/openstack/02b-MAChigh/neighbors.c ****             returnVal = (neighbors_vars.neighbors[i].backoff==0);
 2328              		.loc 1 495 0
 2329 0b38 FA7B     		ldrb	r2, [r7, #15]	@ zero_extendqisi2
 2330 0b3a 0C49     		ldr	r1, .L166
 2331 0b3c 1346     		mov	r3, r2
 2332 0b3e 9B00     		lsls	r3, r3, #2
 2333 0b40 1344     		add	r3, r3, r2
 2334 0b42 DB00     		lsls	r3, r3, #3
 2335 0b44 0B44     		add	r3, r3, r1
 2336 0b46 2033     		adds	r3, r3, #32
 2337 0b48 DB79     		ldrb	r3, [r3, #7]	@ zero_extendqisi2
 2338 0b4a 002B     		cmp	r3, #0
 2339 0b4c 0CBF     		ite	eq
 2340 0b4e 0123     		moveq	r3, #1
 2341 0b50 0023     		movne	r3, #0
 2342 0b52 BB73     		strb	r3, [r7, #14]
 496:build/openmote-cc2538_armgcc/openstack/02b-MAChigh/neighbors.c ****             break;
 2343              		.loc 1 496 0
 2344 0b54 05E0     		b	.L163
 2345              	.L162:
 493:build/openmote-cc2538_armgcc/openstack/02b-MAChigh/neighbors.c ****         if (packetfunctions_sameAddress(address, &neighbors_vars.neighbors[i].addr_64b)){
 2346              		.loc 1 493 0 discriminator 2
 2347 0b56 FB7B     		ldrb	r3, [r7, #15]	@ zero_extendqisi2
 2348 0b58 0133     		adds	r3, r3, #1
 2349 0b5a FB73     		strb	r3, [r7, #15]
 2350              	.L161:
 493:build/openmote-cc2538_armgcc/openstack/02b-MAChigh/neighbors.c ****         if (packetfunctions_sameAddress(address, &neighbors_vars.neighbors[i].addr_64b)){
 2351              		.loc 1 493 0 is_stmt 0 discriminator 1
 2352 0b5c FB7B     		ldrb	r3, [r7, #15]	@ zero_extendqisi2
 2353 0b5e 1D2B     		cmp	r3, #29
 2354 0b60 DBD9     		bls	.L164
 2355              	.L163:
 497:build/openmote-cc2538_armgcc/openstack/02b-MAChigh/neighbors.c ****         }
 498:build/openmote-cc2538_armgcc/openstack/02b-MAChigh/neighbors.c ****     }
 499:build/openmote-cc2538_armgcc/openstack/02b-MAChigh/neighbors.c ****     return returnVal;
 2356              		.loc 1 499 0 is_stmt 1
 2357 0b62 BB7B     		ldrb	r3, [r7, #14]	@ zero_extendqisi2
 500:build/openmote-cc2538_armgcc/openstack/02b-MAChigh/neighbors.c **** }
 2358              		.loc 1 500 0
 2359 0b64 1846     		mov	r0, r3
 2360 0b66 1037     		adds	r7, r7, #16
 2361              		.cfi_def_cfa_offset 8
 2362 0b68 BD46     		mov	sp, r7
 2363              		.cfi_def_cfa_register 13
 2364              		@ sp needed
 2365 0b6a 80BD     		pop	{r7, pc}
 2366              	.L167:
 2367              		.align	2
 2368              	.L166:
 2369 0b6c 00000000 		.word	neighbors_vars
 2370              		.cfi_endproc
 2371              	.LFE22:
 2373              		.align	2
 2374              		.global	neighbors_resetBackoff
 2375              		.thumb
 2376              		.thumb_func
 2378              	neighbors_resetBackoff:
 2379              	.LFB23:
 501:build/openmote-cc2538_armgcc/openstack/02b-MAChigh/neighbors.c **** 
 502:build/openmote-cc2538_armgcc/openstack/02b-MAChigh/neighbors.c **** void neighbors_resetBackoff(open_addr_t* address){
 2380              		.loc 1 502 0
 2381              		.cfi_startproc
 2382              		@ args = 0, pretend = 0, frame = 16
 2383              		@ frame_needed = 1, uses_anonymous_args = 0
 2384 0b70 80B5     		push	{r7, lr}
 2385              		.cfi_def_cfa_offset 8
 2386              		.cfi_offset 7, -8
 2387              		.cfi_offset 14, -4
 2388 0b72 84B0     		sub	sp, sp, #16
 2389              		.cfi_def_cfa_offset 24
 2390 0b74 00AF     		add	r7, sp, #0
 2391              		.cfi_def_cfa_register 7
 2392 0b76 7860     		str	r0, [r7, #4]
 503:build/openmote-cc2538_armgcc/openstack/02b-MAChigh/neighbors.c ****     uint8_t i;
 504:build/openmote-cc2538_armgcc/openstack/02b-MAChigh/neighbors.c **** 
 505:build/openmote-cc2538_armgcc/openstack/02b-MAChigh/neighbors.c ****     for (i=0;i<MAXNUMNEIGHBORS;i++){
 2393              		.loc 1 505 0
 2394 0b78 0023     		movs	r3, #0
 2395 0b7a FB73     		strb	r3, [r7, #15]
 2396 0b7c 26E0     		b	.L169
 2397              	.L172:
 506:build/openmote-cc2538_armgcc/openstack/02b-MAChigh/neighbors.c ****         if (packetfunctions_sameAddress(address, &neighbors_vars.neighbors[i].addr_64b)){
 2398              		.loc 1 506 0
 2399 0b7e FA7B     		ldrb	r2, [r7, #15]	@ zero_extendqisi2
 2400 0b80 1346     		mov	r3, r2
 2401 0b82 9B00     		lsls	r3, r3, #2
 2402 0b84 1344     		add	r3, r3, r2
 2403 0b86 DB00     		lsls	r3, r3, #3
 2404 0b88 134A     		ldr	r2, .L173
 2405 0b8a 1344     		add	r3, r3, r2
 2406 0b8c 0533     		adds	r3, r3, #5
 2407 0b8e 7868     		ldr	r0, [r7, #4]
 2408 0b90 1946     		mov	r1, r3
 2409 0b92 FFF7FEFF 		bl	packetfunctions_sameAddress
 2410 0b96 0346     		mov	r3, r0
 2411 0b98 002B     		cmp	r3, #0
 2412 0b9a 14D0     		beq	.L170
 507:build/openmote-cc2538_armgcc/openstack/02b-MAChigh/neighbors.c ****             neighbors_vars.neighbors[i].backoffExponenton     = MINBE-1;
 2413              		.loc 1 507 0
 2414 0b9c FA7B     		ldrb	r2, [r7, #15]	@ zero_extendqisi2
 2415 0b9e 0E49     		ldr	r1, .L173
 2416 0ba0 1346     		mov	r3, r2
 2417 0ba2 9B00     		lsls	r3, r3, #2
 2418 0ba4 1344     		add	r3, r3, r2
 2419 0ba6 DB00     		lsls	r3, r3, #3
 2420 0ba8 0B44     		add	r3, r3, r1
 2421 0baa 2033     		adds	r3, r3, #32
 2422 0bac 0122     		movs	r2, #1
 2423 0bae 9A71     		strb	r2, [r3, #6]
 508:build/openmote-cc2538_armgcc/openstack/02b-MAChigh/neighbors.c ****             neighbors_vars.neighbors[i].backoff               = 0;
 2424              		.loc 1 508 0
 2425 0bb0 FA7B     		ldrb	r2, [r7, #15]	@ zero_extendqisi2
 2426 0bb2 0949     		ldr	r1, .L173
 2427 0bb4 1346     		mov	r3, r2
 2428 0bb6 9B00     		lsls	r3, r3, #2
 2429 0bb8 1344     		add	r3, r3, r2
 2430 0bba DB00     		lsls	r3, r3, #3
 2431 0bbc 0B44     		add	r3, r3, r1
 2432 0bbe 2033     		adds	r3, r3, #32
 2433 0bc0 0022     		movs	r2, #0
 2434 0bc2 DA71     		strb	r2, [r3, #7]
 509:build/openmote-cc2538_armgcc/openstack/02b-MAChigh/neighbors.c ****             break;
 2435              		.loc 1 509 0
 2436 0bc4 05E0     		b	.L168
 2437              	.L170:
 505:build/openmote-cc2538_armgcc/openstack/02b-MAChigh/neighbors.c ****         if (packetfunctions_sameAddress(address, &neighbors_vars.neighbors[i].addr_64b)){
 2438              		.loc 1 505 0 discriminator 2
 2439 0bc6 FB7B     		ldrb	r3, [r7, #15]	@ zero_extendqisi2
 2440 0bc8 0133     		adds	r3, r3, #1
 2441 0bca FB73     		strb	r3, [r7, #15]
 2442              	.L169:
 505:build/openmote-cc2538_armgcc/openstack/02b-MAChigh/neighbors.c ****         if (packetfunctions_sameAddress(address, &neighbors_vars.neighbors[i].addr_64b)){
 2443              		.loc 1 505 0 is_stmt 0 discriminator 1
 2444 0bcc FB7B     		ldrb	r3, [r7, #15]	@ zero_extendqisi2
 2445 0bce 1D2B     		cmp	r3, #29
 2446 0bd0 D5D9     		bls	.L172
 2447              	.L168:
 510:build/openmote-cc2538_armgcc/openstack/02b-MAChigh/neighbors.c ****         }
 511:build/openmote-cc2538_armgcc/openstack/02b-MAChigh/neighbors.c ****     }
 512:build/openmote-cc2538_armgcc/openstack/02b-MAChigh/neighbors.c **** }
 2448              		.loc 1 512 0 is_stmt 1
 2449 0bd2 1037     		adds	r7, r7, #16
 2450              		.cfi_def_cfa_offset 8
 2451 0bd4 BD46     		mov	sp, r7
 2452              		.cfi_def_cfa_register 13
 2453              		@ sp needed
 2454 0bd6 80BD     		pop	{r7, pc}
 2455              	.L174:
 2456              		.align	2
 2457              	.L173:
 2458 0bd8 00000000 		.word	neighbors_vars
 2459              		.cfi_endproc
 2460              	.LFE23:
 2462              		.align	2
 2463              		.global	neighbors_setNeighborRank
 2464              		.thumb
 2465              		.thumb_func
 2467              	neighbors_setNeighborRank:
 2468              	.LFB24:
 513:build/openmote-cc2538_armgcc/openstack/02b-MAChigh/neighbors.c **** 
 514:build/openmote-cc2538_armgcc/openstack/02b-MAChigh/neighbors.c **** //===== setters
 515:build/openmote-cc2538_armgcc/openstack/02b-MAChigh/neighbors.c **** 
 516:build/openmote-cc2538_armgcc/openstack/02b-MAChigh/neighbors.c **** void neighbors_setNeighborRank(uint8_t index, dagrank_t rank) {
 2469              		.loc 1 516 0
 2470              		.cfi_startproc
 2471              		@ args = 0, pretend = 0, frame = 8
 2472              		@ frame_needed = 1, uses_anonymous_args = 0
 2473              		@ link register save eliminated.
 2474 0bdc 80B4     		push	{r7}
 2475              		.cfi_def_cfa_offset 4
 2476              		.cfi_offset 7, -4
 2477 0bde 83B0     		sub	sp, sp, #12
 2478              		.cfi_def_cfa_offset 16
 2479 0be0 00AF     		add	r7, sp, #0
 2480              		.cfi_def_cfa_register 7
 2481 0be2 0346     		mov	r3, r0
 2482 0be4 0A46     		mov	r2, r1
 2483 0be6 FB71     		strb	r3, [r7, #7]
 2484 0be8 1346     		mov	r3, r2	@ movhi
 2485 0bea BB80     		strh	r3, [r7, #4]	@ movhi
 517:build/openmote-cc2538_armgcc/openstack/02b-MAChigh/neighbors.c ****    neighbors_vars.neighbors[index].DAGrank=rank;
 2486              		.loc 1 517 0
 2487 0bec FA79     		ldrb	r2, [r7, #7]	@ zero_extendqisi2
 2488 0bee 0749     		ldr	r1, .L176
 2489 0bf0 1346     		mov	r3, r2
 2490 0bf2 9B00     		lsls	r3, r3, #2
 2491 0bf4 1344     		add	r3, r3, r2
 2492 0bf6 DB00     		lsls	r3, r3, #3
 2493 0bf8 0B44     		add	r3, r3, r1
 2494 0bfa 1033     		adds	r3, r3, #16
 2495 0bfc BA88     		ldrh	r2, [r7, #4]	@ movhi
 2496 0bfe DA80     		strh	r2, [r3, #6]	@ movhi
 518:build/openmote-cc2538_armgcc/openstack/02b-MAChigh/neighbors.c **** 
 519:build/openmote-cc2538_armgcc/openstack/02b-MAChigh/neighbors.c **** }
 2497              		.loc 1 519 0
 2498 0c00 0C37     		adds	r7, r7, #12
 2499              		.cfi_def_cfa_offset 4
 2500 0c02 BD46     		mov	sp, r7
 2501              		.cfi_def_cfa_register 13
 2502              		@ sp needed
 2503 0c04 5DF8047B 		ldr	r7, [sp], #4
 2504              		.cfi_restore 7
 2505              		.cfi_def_cfa_offset 0
 2506 0c08 7047     		bx	lr
 2507              	.L177:
 2508 0c0a 00BF     		.align	2
 2509              	.L176:
 2510 0c0c 00000000 		.word	neighbors_vars
 2511              		.cfi_endproc
 2512              	.LFE24:
 2514              		.align	2
 2515              		.global	neighbors_setNeighborNoResource
 2516              		.thumb
 2517              		.thumb_func
 2519              	neighbors_setNeighborNoResource:
 2520              	.LFB25:
 520:build/openmote-cc2538_armgcc/openstack/02b-MAChigh/neighbors.c **** 
 521:build/openmote-cc2538_armgcc/openstack/02b-MAChigh/neighbors.c **** void neighbors_setNeighborNoResource(open_addr_t* address){
 2521              		.loc 1 521 0
 2522              		.cfi_startproc
 2523              		@ args = 0, pretend = 0, frame = 16
 2524              		@ frame_needed = 1, uses_anonymous_args = 0
 2525 0c10 80B5     		push	{r7, lr}
 2526              		.cfi_def_cfa_offset 8
 2527              		.cfi_offset 7, -8
 2528              		.cfi_offset 14, -4
 2529 0c12 84B0     		sub	sp, sp, #16
 2530              		.cfi_def_cfa_offset 24
 2531 0c14 00AF     		add	r7, sp, #0
 2532              		.cfi_def_cfa_register 7
 2533 0c16 7860     		str	r0, [r7, #4]
 522:build/openmote-cc2538_armgcc/openstack/02b-MAChigh/neighbors.c ****    uint8_t i;
 523:build/openmote-cc2538_armgcc/openstack/02b-MAChigh/neighbors.c ****    
 524:build/openmote-cc2538_armgcc/openstack/02b-MAChigh/neighbors.c ****    // loop through neighbor table
 525:build/openmote-cc2538_armgcc/openstack/02b-MAChigh/neighbors.c ****    for (i=0;i<MAXNUMNEIGHBORS;i++) {
 2534              		.loc 1 525 0
 2535 0c18 0023     		movs	r3, #0
 2536 0c1a FB73     		strb	r3, [r7, #15]
 2537 0c1c 17E0     		b	.L179
 2538              	.L182:
 526:build/openmote-cc2538_armgcc/openstack/02b-MAChigh/neighbors.c ****       if (isThisRowMatching(address,i)) {
 2539              		.loc 1 526 0
 2540 0c1e FB7B     		ldrb	r3, [r7, #15]	@ zero_extendqisi2
 2541 0c20 7868     		ldr	r0, [r7, #4]
 2542 0c22 1946     		mov	r1, r3
 2543 0c24 FFF7FEFF 		bl	isThisRowMatching
 2544 0c28 0346     		mov	r3, r0
 2545 0c2a 002B     		cmp	r3, #0
 2546 0c2c 0CD0     		beq	.L180
 527:build/openmote-cc2538_armgcc/openstack/02b-MAChigh/neighbors.c ****           neighbors_vars.neighbors[i].f6PNORES = TRUE;
 2547              		.loc 1 527 0
 2548 0c2e FA7B     		ldrb	r2, [r7, #15]	@ zero_extendqisi2
 2549 0c30 0A49     		ldr	r1, .L183
 2550 0c32 1346     		mov	r3, r2
 2551 0c34 9B00     		lsls	r3, r3, #2
 2552 0c36 1344     		add	r3, r3, r2
 2553 0c38 DB00     		lsls	r3, r3, #3
 2554 0c3a 0B44     		add	r3, r3, r1
 2555 0c3c 2033     		adds	r3, r3, #32
 2556 0c3e 0122     		movs	r2, #1
 2557 0c40 DA70     		strb	r2, [r3, #3]
 528:build/openmote-cc2538_armgcc/openstack/02b-MAChigh/neighbors.c ****           icmpv6rpl_updateMyDAGrankAndParentSelection();
 2558              		.loc 1 528 0
 2559 0c42 FFF7FEFF 		bl	icmpv6rpl_updateMyDAGrankAndParentSelection
 529:build/openmote-cc2538_armgcc/openstack/02b-MAChigh/neighbors.c ****           break;
 2560              		.loc 1 529 0
 2561 0c46 05E0     		b	.L178
 2562              	.L180:
 525:build/openmote-cc2538_armgcc/openstack/02b-MAChigh/neighbors.c ****       if (isThisRowMatching(address,i)) {
 2563              		.loc 1 525 0 discriminator 2
 2564 0c48 FB7B     		ldrb	r3, [r7, #15]	@ zero_extendqisi2
 2565 0c4a 0133     		adds	r3, r3, #1
 2566 0c4c FB73     		strb	r3, [r7, #15]
 2567              	.L179:
 525:build/openmote-cc2538_armgcc/openstack/02b-MAChigh/neighbors.c ****       if (isThisRowMatching(address,i)) {
 2568              		.loc 1 525 0 is_stmt 0 discriminator 1
 2569 0c4e FB7B     		ldrb	r3, [r7, #15]	@ zero_extendqisi2
 2570 0c50 1D2B     		cmp	r3, #29
 2571 0c52 E4D9     		bls	.L182
 2572              	.L178:
 530:build/openmote-cc2538_armgcc/openstack/02b-MAChigh/neighbors.c ****       }
 531:build/openmote-cc2538_armgcc/openstack/02b-MAChigh/neighbors.c ****    }
 532:build/openmote-cc2538_armgcc/openstack/02b-MAChigh/neighbors.c **** }
 2573              		.loc 1 532 0 is_stmt 1
 2574 0c54 1037     		adds	r7, r7, #16
 2575              		.cfi_def_cfa_offset 8
 2576 0c56 BD46     		mov	sp, r7
 2577              		.cfi_def_cfa_register 13
 2578              		@ sp needed
 2579 0c58 80BD     		pop	{r7, pc}
 2580              	.L184:
 2581 0c5a 00BF     		.align	2
 2582              	.L183:
 2583 0c5c 00000000 		.word	neighbors_vars
 2584              		.cfi_endproc
 2585              	.LFE25:
 2587              		.align	2
 2588              		.global	neighbors_setPreferredParent
 2589              		.thumb
 2590              		.thumb_func
 2592              	neighbors_setPreferredParent:
 2593              	.LFB26:
 533:build/openmote-cc2538_armgcc/openstack/02b-MAChigh/neighbors.c **** 
 534:build/openmote-cc2538_armgcc/openstack/02b-MAChigh/neighbors.c **** void neighbors_setPreferredParent(uint8_t index, bool isPreferred){
 2594              		.loc 1 534 0
 2595              		.cfi_startproc
 2596              		@ args = 0, pretend = 0, frame = 8
 2597              		@ frame_needed = 1, uses_anonymous_args = 0
 2598              		@ link register save eliminated.
 2599 0c60 80B4     		push	{r7}
 2600              		.cfi_def_cfa_offset 4
 2601              		.cfi_offset 7, -4
 2602 0c62 83B0     		sub	sp, sp, #12
 2603              		.cfi_def_cfa_offset 16
 2604 0c64 00AF     		add	r7, sp, #0
 2605              		.cfi_def_cfa_register 7
 2606 0c66 0346     		mov	r3, r0
 2607 0c68 0A46     		mov	r2, r1
 2608 0c6a FB71     		strb	r3, [r7, #7]
 2609 0c6c 1346     		mov	r3, r2
 2610 0c6e BB71     		strb	r3, [r7, #6]
 535:build/openmote-cc2538_armgcc/openstack/02b-MAChigh/neighbors.c ****     neighbors_vars.neighbors[index].parentPreference = isPreferred;
 2611              		.loc 1 535 0
 2612 0c70 FA79     		ldrb	r2, [r7, #7]	@ zero_extendqisi2
 2613 0c72 B879     		ldrb	r0, [r7, #6]	@ zero_extendqisi2
 2614 0c74 0649     		ldr	r1, .L186
 2615 0c76 1346     		mov	r3, r2
 2616 0c78 9B00     		lsls	r3, r3, #2
 2617 0c7a 1344     		add	r3, r3, r2
 2618 0c7c DB00     		lsls	r3, r3, #3
 2619 0c7e 0B44     		add	r3, r3, r1
 2620 0c80 0246     		mov	r2, r0
 2621 0c82 9A70     		strb	r2, [r3, #2]
 536:build/openmote-cc2538_armgcc/openstack/02b-MAChigh/neighbors.c **** }
 2622              		.loc 1 536 0
 2623 0c84 0C37     		adds	r7, r7, #12
 2624              		.cfi_def_cfa_offset 4
 2625 0c86 BD46     		mov	sp, r7
 2626              		.cfi_def_cfa_register 13
 2627              		@ sp needed
 2628 0c88 5DF8047B 		ldr	r7, [sp], #4
 2629              		.cfi_restore 7
 2630              		.cfi_def_cfa_offset 0
 2631 0c8c 7047     		bx	lr
 2632              	.L187:
 2633 0c8e 00BF     		.align	2
 2634              	.L186:
 2635 0c90 00000000 		.word	neighbors_vars
 2636              		.cfi_endproc
 2637              	.LFE26:
 2639              		.align	2
 2640              		.global	neighbors_getLinkMetric
 2641              		.thumb
 2642              		.thumb_func
 2644              	neighbors_getLinkMetric:
 2645              	.LFB27:
 537:build/openmote-cc2538_armgcc/openstack/02b-MAChigh/neighbors.c **** 
 538:build/openmote-cc2538_armgcc/openstack/02b-MAChigh/neighbors.c **** //===== managing routing info
 539:build/openmote-cc2538_armgcc/openstack/02b-MAChigh/neighbors.c **** 
 540:build/openmote-cc2538_armgcc/openstack/02b-MAChigh/neighbors.c **** /**
 541:build/openmote-cc2538_armgcc/openstack/02b-MAChigh/neighbors.c **** \brief return the link cost to a neighbor, expressed as a rank increase from this neighbor to this 
 542:build/openmote-cc2538_armgcc/openstack/02b-MAChigh/neighbors.c **** 
 543:build/openmote-cc2538_armgcc/openstack/02b-MAChigh/neighbors.c **** This really belongs to icmpv6rpl but it would require a much more complex interface to the neighbor
 544:build/openmote-cc2538_armgcc/openstack/02b-MAChigh/neighbors.c **** */
 545:build/openmote-cc2538_armgcc/openstack/02b-MAChigh/neighbors.c **** 
 546:build/openmote-cc2538_armgcc/openstack/02b-MAChigh/neighbors.c **** uint16_t neighbors_getLinkMetric(uint8_t index) {
 2646              		.loc 1 546 0
 2647              		.cfi_startproc
 2648              		@ args = 0, pretend = 0, frame = 16
 2649              		@ frame_needed = 1, uses_anonymous_args = 0
 2650              		@ link register save eliminated.
 2651 0c94 80B4     		push	{r7}
 2652              		.cfi_def_cfa_offset 4
 2653              		.cfi_offset 7, -4
 2654 0c96 85B0     		sub	sp, sp, #20
 2655              		.cfi_def_cfa_offset 24
 2656 0c98 00AF     		add	r7, sp, #0
 2657              		.cfi_def_cfa_register 7
 2658 0c9a 0346     		mov	r3, r0
 2659 0c9c FB71     		strb	r3, [r7, #7]
 547:build/openmote-cc2538_armgcc/openstack/02b-MAChigh/neighbors.c ****     uint16_t  rankIncrease;
 548:build/openmote-cc2538_armgcc/openstack/02b-MAChigh/neighbors.c ****     uint32_t  rankIncreaseIntermediary; // stores intermediary results of rankIncrease calculation
 549:build/openmote-cc2538_armgcc/openstack/02b-MAChigh/neighbors.c **** 
 550:build/openmote-cc2538_armgcc/openstack/02b-MAChigh/neighbors.c ****     // we assume that this neighbor has already been checked for being in use         
 551:build/openmote-cc2538_armgcc/openstack/02b-MAChigh/neighbors.c ****     // calculate link cost to this neighbor
 552:build/openmote-cc2538_armgcc/openstack/02b-MAChigh/neighbors.c ****     if (neighbors_vars.neighbors[index].numTxACK==0) {
 2660              		.loc 1 552 0
 2661 0c9e FA79     		ldrb	r2, [r7, #7]	@ zero_extendqisi2
 2662 0ca0 4349     		ldr	r1, .L198
 2663 0ca2 1346     		mov	r3, r2
 2664 0ca4 9B00     		lsls	r3, r3, #2
 2665 0ca6 1344     		add	r3, r3, r2
 2666 0ca8 DB00     		lsls	r3, r3, #3
 2667 0caa 0B44     		add	r3, r3, r1
 2668 0cac 1833     		adds	r3, r3, #24
 2669 0cae DB78     		ldrb	r3, [r3, #3]	@ zero_extendqisi2
 2670 0cb0 002B     		cmp	r3, #0
 2671 0cb2 30D1     		bne	.L189
 553:build/openmote-cc2538_armgcc/openstack/02b-MAChigh/neighbors.c ****         if (neighbors_vars.neighbors[index].numTx > DEFAULTLINKCOST){
 2672              		.loc 1 553 0
 2673 0cb4 FA79     		ldrb	r2, [r7, #7]	@ zero_extendqisi2
 2674 0cb6 3E49     		ldr	r1, .L198
 2675 0cb8 1346     		mov	r3, r2
 2676 0cba 9B00     		lsls	r3, r3, #2
 2677 0cbc 1344     		add	r3, r3, r2
 2678 0cbe DB00     		lsls	r3, r3, #3
 2679 0cc0 0B44     		add	r3, r3, r1
 2680 0cc2 1833     		adds	r3, r3, #24
 2681 0cc4 9B78     		ldrb	r3, [r3, #2]	@ zero_extendqisi2
 2682 0cc6 042B     		cmp	r3, #4
 2683 0cc8 21D9     		bls	.L190
 554:build/openmote-cc2538_armgcc/openstack/02b-MAChigh/neighbors.c ****             if (neighbors_vars.neighbors[index].numTx < MINIMAL_NUM_TX){
 2684              		.loc 1 554 0
 2685 0cca FA79     		ldrb	r2, [r7, #7]	@ zero_extendqisi2
 2686 0ccc 3849     		ldr	r1, .L198
 2687 0cce 1346     		mov	r3, r2
 2688 0cd0 9B00     		lsls	r3, r3, #2
 2689 0cd2 1344     		add	r3, r3, r2
 2690 0cd4 DB00     		lsls	r3, r3, #3
 2691 0cd6 0B44     		add	r3, r3, r1
 2692 0cd8 1833     		adds	r3, r3, #24
 2693 0cda 9B78     		ldrb	r3, [r3, #2]	@ zero_extendqisi2
 2694 0cdc 0F2B     		cmp	r3, #15
 2695 0cde 12D8     		bhi	.L191
 555:build/openmote-cc2538_armgcc/openstack/02b-MAChigh/neighbors.c ****                 rankIncrease = (3*neighbors_vars.neighbors[index].numTx-2)*MINHOPRANKINCREASE;
 2696              		.loc 1 555 0
 2697 0ce0 FA79     		ldrb	r2, [r7, #7]	@ zero_extendqisi2
 2698 0ce2 3349     		ldr	r1, .L198
 2699 0ce4 1346     		mov	r3, r2
 2700 0ce6 9B00     		lsls	r3, r3, #2
 2701 0ce8 1344     		add	r3, r3, r2
 2702 0cea DB00     		lsls	r3, r3, #3
 2703 0cec 0B44     		add	r3, r3, r1
 2704 0cee 1833     		adds	r3, r3, #24
 2705 0cf0 9B78     		ldrb	r3, [r3, #2]	@ zero_extendqisi2
 2706 0cf2 9BB2     		uxth	r3, r3
 2707 0cf4 1A46     		mov	r2, r3	@ movhi
 2708 0cf6 5200     		lsls	r2, r2, #1
 2709 0cf8 1344     		add	r3, r3, r2
 2710 0cfa 1B02     		lsls	r3, r3, #8
 2711 0cfc 9BB2     		uxth	r3, r3
 2712 0cfe A3F50073 		sub	r3, r3, #512
 2713 0d02 FB81     		strh	r3, [r7, #14]	@ movhi
 2714 0d04 4CE0     		b	.L194
 2715              	.L191:
 556:build/openmote-cc2538_armgcc/openstack/02b-MAChigh/neighbors.c ****             } else {
 557:build/openmote-cc2538_armgcc/openstack/02b-MAChigh/neighbors.c ****                 rankIncrease = 65535;
 2716              		.loc 1 557 0
 2717 0d06 4FF6FF73 		movw	r3, #65535
 2718 0d0a FB81     		strh	r3, [r7, #14]	@ movhi
 2719 0d0c 48E0     		b	.L194
 2720              	.L190:
 558:build/openmote-cc2538_armgcc/openstack/02b-MAChigh/neighbors.c ****             }
 559:build/openmote-cc2538_armgcc/openstack/02b-MAChigh/neighbors.c ****         } else {
 560:build/openmote-cc2538_armgcc/openstack/02b-MAChigh/neighbors.c ****             rankIncrease = (3*DEFAULTLINKCOST-2)*MINHOPRANKINCREASE;
 2721              		.loc 1 560 0
 2722 0d0e 4FF42063 		mov	r3, #2560
 2723 0d12 FB81     		strh	r3, [r7, #14]	@ movhi
 2724 0d14 44E0     		b	.L194
 2725              	.L189:
 561:build/openmote-cc2538_armgcc/openstack/02b-MAChigh/neighbors.c ****         }
 562:build/openmote-cc2538_armgcc/openstack/02b-MAChigh/neighbors.c ****     } else {
 563:build/openmote-cc2538_armgcc/openstack/02b-MAChigh/neighbors.c ****         //6TiSCH minimal draft using OF0 for rank computation: ((3*numTx/numTxAck)-2)*minHopRankInc
 564:build/openmote-cc2538_armgcc/openstack/02b-MAChigh/neighbors.c ****         // numTx is on 8 bits, so scaling up 10 bits won't lead to saturation
 565:build/openmote-cc2538_armgcc/openstack/02b-MAChigh/neighbors.c ****         // but this <<10 followed by >>10 does not provide any benefit either. Result is the same.
 566:build/openmote-cc2538_armgcc/openstack/02b-MAChigh/neighbors.c ****         rankIncreaseIntermediary = (((uint32_t)neighbors_vars.neighbors[index].numTx) << 10);
 2726              		.loc 1 566 0
 2727 0d16 FA79     		ldrb	r2, [r7, #7]	@ zero_extendqisi2
 2728 0d18 2549     		ldr	r1, .L198
 2729 0d1a 1346     		mov	r3, r2
 2730 0d1c 9B00     		lsls	r3, r3, #2
 2731 0d1e 1344     		add	r3, r3, r2
 2732 0d20 DB00     		lsls	r3, r3, #3
 2733 0d22 0B44     		add	r3, r3, r1
 2734 0d24 1833     		adds	r3, r3, #24
 2735 0d26 9B78     		ldrb	r3, [r3, #2]	@ zero_extendqisi2
 2736 0d28 9B02     		lsls	r3, r3, #10
 2737 0d2a BB60     		str	r3, [r7, #8]
 567:build/openmote-cc2538_armgcc/openstack/02b-MAChigh/neighbors.c ****         rankIncreaseIntermediary = (3*rankIncreaseIntermediary * MINHOPRANKINCREASE) / ((uint32_t)n
 2738              		.loc 1 567 0
 2739 0d2c BA68     		ldr	r2, [r7, #8]
 2740 0d2e 1346     		mov	r3, r2
 2741 0d30 5B00     		lsls	r3, r3, #1
 2742 0d32 1344     		add	r3, r3, r2
 2743 0d34 1B02     		lsls	r3, r3, #8
 2744 0d36 1846     		mov	r0, r3
 2745 0d38 FA79     		ldrb	r2, [r7, #7]	@ zero_extendqisi2
 2746 0d3a 1D49     		ldr	r1, .L198
 2747 0d3c 1346     		mov	r3, r2
 2748 0d3e 9B00     		lsls	r3, r3, #2
 2749 0d40 1344     		add	r3, r3, r2
 2750 0d42 DB00     		lsls	r3, r3, #3
 2751 0d44 0B44     		add	r3, r3, r1
 2752 0d46 1833     		adds	r3, r3, #24
 2753 0d48 DB78     		ldrb	r3, [r3, #3]	@ zero_extendqisi2
 2754 0d4a B0FBF3F3 		udiv	r3, r0, r3
 2755 0d4e BB60     		str	r3, [r7, #8]
 568:build/openmote-cc2538_armgcc/openstack/02b-MAChigh/neighbors.c ****         rankIncreaseIntermediary = rankIncreaseIntermediary - ((uint32_t)(2 * MINHOPRANKINCREASE)<<
 2756              		.loc 1 568 0
 2757 0d50 BB68     		ldr	r3, [r7, #8]
 2758 0d52 A3F50023 		sub	r3, r3, #524288
 2759 0d56 BB60     		str	r3, [r7, #8]
 569:build/openmote-cc2538_armgcc/openstack/02b-MAChigh/neighbors.c ****         // this could still overflow for numTx large and numTxAck small, Casting to 16 bits will yi
 570:build/openmote-cc2538_armgcc/openstack/02b-MAChigh/neighbors.c ****         if (rankIncreaseIntermediary >= (65536<<10)) {
 2760              		.loc 1 570 0
 2761 0d58 BB68     		ldr	r3, [r7, #8]
 2762 0d5a B3F1806F 		cmp	r3, #67108864
 2763 0d5e 03D3     		bcc	.L195
 571:build/openmote-cc2538_armgcc/openstack/02b-MAChigh/neighbors.c ****             rankIncrease = 65535;
 2764              		.loc 1 571 0
 2765 0d60 4FF6FF73 		movw	r3, #65535
 2766 0d64 FB81     		strh	r3, [r7, #14]	@ movhi
 2767 0d66 02E0     		b	.L196
 2768              	.L195:
 572:build/openmote-cc2538_armgcc/openstack/02b-MAChigh/neighbors.c ****         } else {
 573:build/openmote-cc2538_armgcc/openstack/02b-MAChigh/neighbors.c ****             rankIncrease = (uint16_t)(rankIncreaseIntermediary >> 10);
 2769              		.loc 1 573 0
 2770 0d68 BB68     		ldr	r3, [r7, #8]
 2771 0d6a 9B0A     		lsrs	r3, r3, #10
 2772 0d6c FB81     		strh	r3, [r7, #14]	@ movhi
 2773              	.L196:
 574:build/openmote-cc2538_armgcc/openstack/02b-MAChigh/neighbors.c ****         }
 575:build/openmote-cc2538_armgcc/openstack/02b-MAChigh/neighbors.c ****         
 576:build/openmote-cc2538_armgcc/openstack/02b-MAChigh/neighbors.c ****         if (
 2774              		.loc 1 576 0
 2775 0d6e FB89     		ldrh	r3, [r7, #14]
 2776 0d70 B3F5206F 		cmp	r3, #2560
 2777 0d74 14D9     		bls	.L194
 577:build/openmote-cc2538_armgcc/openstack/02b-MAChigh/neighbors.c ****             rankIncrease>(3*DEFAULTLINKCOST-2)*MINHOPRANKINCREASE &&
 578:build/openmote-cc2538_armgcc/openstack/02b-MAChigh/neighbors.c ****             neighbors_vars.neighbors[index].numTx > MINIMAL_NUM_TX
 2778              		.loc 1 578 0
 2779 0d76 FA79     		ldrb	r2, [r7, #7]	@ zero_extendqisi2
 2780 0d78 0D49     		ldr	r1, .L198
 2781 0d7a 1346     		mov	r3, r2
 2782 0d7c 9B00     		lsls	r3, r3, #2
 2783 0d7e 1344     		add	r3, r3, r2
 2784 0d80 DB00     		lsls	r3, r3, #3
 2785 0d82 0B44     		add	r3, r3, r1
 2786 0d84 1833     		adds	r3, r3, #24
 2787 0d86 9B78     		ldrb	r3, [r3, #2]	@ zero_extendqisi2
 577:build/openmote-cc2538_armgcc/openstack/02b-MAChigh/neighbors.c ****             rankIncrease>(3*DEFAULTLINKCOST-2)*MINHOPRANKINCREASE &&
 2788              		.loc 1 577 0
 2789 0d88 102B     		cmp	r3, #16
 2790 0d8a 09D9     		bls	.L194
 579:build/openmote-cc2538_armgcc/openstack/02b-MAChigh/neighbors.c ****         ){
 580:build/openmote-cc2538_armgcc/openstack/02b-MAChigh/neighbors.c ****             // PDR too low, put the neighbor in blacklist
 581:build/openmote-cc2538_armgcc/openstack/02b-MAChigh/neighbors.c ****             neighbors_vars.neighbors[index].inBlacklist = TRUE;
 2791              		.loc 1 581 0
 2792 0d8c FA79     		ldrb	r2, [r7, #7]	@ zero_extendqisi2
 2793 0d8e 0849     		ldr	r1, .L198
 2794 0d90 1346     		mov	r3, r2
 2795 0d92 9B00     		lsls	r3, r3, #2
 2796 0d94 1344     		add	r3, r3, r2
 2797 0d96 DB00     		lsls	r3, r3, #3
 2798 0d98 0B44     		add	r3, r3, r1
 2799 0d9a 2033     		adds	r3, r3, #32
 2800 0d9c 0122     		movs	r2, #1
 2801 0d9e 1A71     		strb	r2, [r3, #4]
 2802              	.L194:
 582:build/openmote-cc2538_armgcc/openstack/02b-MAChigh/neighbors.c ****         }
 583:build/openmote-cc2538_armgcc/openstack/02b-MAChigh/neighbors.c ****     }
 584:build/openmote-cc2538_armgcc/openstack/02b-MAChigh/neighbors.c ****     return rankIncrease;
 2803              		.loc 1 584 0
 2804 0da0 FB89     		ldrh	r3, [r7, #14]
 585:build/openmote-cc2538_armgcc/openstack/02b-MAChigh/neighbors.c **** }
 2805              		.loc 1 585 0
 2806 0da2 1846     		mov	r0, r3
 2807 0da4 1437     		adds	r7, r7, #20
 2808              		.cfi_def_cfa_offset 4
 2809 0da6 BD46     		mov	sp, r7
 2810              		.cfi_def_cfa_register 13
 2811              		@ sp needed
 2812 0da8 5DF8047B 		ldr	r7, [sp], #4
 2813              		.cfi_restore 7
 2814              		.cfi_def_cfa_offset 0
 2815 0dac 7047     		bx	lr
 2816              	.L199:
 2817 0dae 00BF     		.align	2
 2818              	.L198:
 2819 0db0 00000000 		.word	neighbors_vars
 2820              		.cfi_endproc
 2821              	.LFE27:
 2823              		.align	2
 2824              		.global	neighbors_removeOld
 2825              		.thumb
 2826              		.thumb_func
 2828              	neighbors_removeOld:
 2829              	.LFB28:
 586:build/openmote-cc2538_armgcc/openstack/02b-MAChigh/neighbors.c **** 
 587:build/openmote-cc2538_armgcc/openstack/02b-MAChigh/neighbors.c **** //===== maintenance
 588:build/openmote-cc2538_armgcc/openstack/02b-MAChigh/neighbors.c **** 
 589:build/openmote-cc2538_armgcc/openstack/02b-MAChigh/neighbors.c **** void  neighbors_removeOld(void) {
 2830              		.loc 1 589 0
 2831              		.cfi_startproc
 2832              		@ args = 0, pretend = 0, frame = 32
 2833              		@ frame_needed = 1, uses_anonymous_args = 0
 2834 0db4 80B5     		push	{r7, lr}
 2835              		.cfi_def_cfa_offset 8
 2836              		.cfi_offset 7, -8
 2837              		.cfi_offset 14, -4
 2838 0db6 88B0     		sub	sp, sp, #32
 2839              		.cfi_def_cfa_offset 40
 2840 0db8 00AF     		add	r7, sp, #0
 2841              		.cfi_def_cfa_register 7
 590:build/openmote-cc2538_armgcc/openstack/02b-MAChigh/neighbors.c ****     uint8_t    i, j;
 591:build/openmote-cc2538_armgcc/openstack/02b-MAChigh/neighbors.c ****     bool       haveParent;
 592:build/openmote-cc2538_armgcc/openstack/02b-MAChigh/neighbors.c ****     PORT_TIMER_WIDTH timeSinceHeard;
 593:build/openmote-cc2538_armgcc/openstack/02b-MAChigh/neighbors.c ****     open_addr_t addressToWrite;
 594:build/openmote-cc2538_armgcc/openstack/02b-MAChigh/neighbors.c **** 
 595:build/openmote-cc2538_armgcc/openstack/02b-MAChigh/neighbors.c ****     if (
 596:build/openmote-cc2538_armgcc/openstack/02b-MAChigh/neighbors.c ****         icmpv6rpl_getPreferredParentEui64(&addressToWrite) == FALSE      ||
 2842              		.loc 1 596 0
 2843 0dba 3B1D     		adds	r3, r7, #4
 2844 0dbc 1846     		mov	r0, r3
 2845 0dbe FFF7FEFF 		bl	icmpv6rpl_getPreferredParentEui64
 2846 0dc2 0346     		mov	r3, r0
 2847 0dc4 83F00103 		eor	r3, r3, #1
 2848 0dc8 DBB2     		uxtb	r3, r3
 595:build/openmote-cc2538_armgcc/openstack/02b-MAChigh/neighbors.c ****         icmpv6rpl_getPreferredParentEui64(&addressToWrite) == FALSE      ||
 2849              		.loc 1 595 0
 2850 0dca 002B     		cmp	r3, #0
 2851 0dcc 72D1     		bne	.L200
 597:build/openmote-cc2538_armgcc/openstack/02b-MAChigh/neighbors.c ****         (
 598:build/openmote-cc2538_armgcc/openstack/02b-MAChigh/neighbors.c ****             icmpv6rpl_getPreferredParentEui64(&addressToWrite)           &&
 2852              		.loc 1 598 0
 2853 0dce 3B1D     		adds	r3, r7, #4
 2854 0dd0 1846     		mov	r0, r3
 2855 0dd2 FFF7FEFF 		bl	icmpv6rpl_getPreferredParentEui64
 2856 0dd6 0346     		mov	r3, r0
 596:build/openmote-cc2538_armgcc/openstack/02b-MAChigh/neighbors.c ****         (
 2857              		.loc 1 596 0
 2858 0dd8 002B     		cmp	r3, #0
 2859 0dda 09D0     		beq	.L202
 599:build/openmote-cc2538_armgcc/openstack/02b-MAChigh/neighbors.c ****             schedule_hasDedicatedCellToNeighbor(&addressToWrite)== FALSE
 2860              		.loc 1 599 0
 2861 0ddc 3B1D     		adds	r3, r7, #4
 2862 0dde 1846     		mov	r0, r3
 2863 0de0 FFF7FEFF 		bl	schedule_hasDedicatedCellToNeighbor
 2864 0de4 0346     		mov	r3, r0
 2865 0de6 83F00103 		eor	r3, r3, #1
 2866 0dea DBB2     		uxtb	r3, r3
 598:build/openmote-cc2538_armgcc/openstack/02b-MAChigh/neighbors.c ****             schedule_hasDedicatedCellToNeighbor(&addressToWrite)== FALSE
 2867              		.loc 1 598 0
 2868 0dec 002B     		cmp	r3, #0
 2869 0dee 61D1     		bne	.L200
 2870              	.L202:
 600:build/openmote-cc2538_armgcc/openstack/02b-MAChigh/neighbors.c ****         )
 601:build/openmote-cc2538_armgcc/openstack/02b-MAChigh/neighbors.c ****     ) {
 602:build/openmote-cc2538_armgcc/openstack/02b-MAChigh/neighbors.c ****         return;
 603:build/openmote-cc2538_armgcc/openstack/02b-MAChigh/neighbors.c ****     }
 604:build/openmote-cc2538_armgcc/openstack/02b-MAChigh/neighbors.c ****     
 605:build/openmote-cc2538_armgcc/openstack/02b-MAChigh/neighbors.c ****     // remove old neighbor
 606:build/openmote-cc2538_armgcc/openstack/02b-MAChigh/neighbors.c ****     for (i=0;i<MAXNUMNEIGHBORS;i++) {
 2871              		.loc 1 606 0
 2872 0df0 0023     		movs	r3, #0
 2873 0df2 FB77     		strb	r3, [r7, #31]
 2874 0df4 5BE0     		b	.L204
 2875              	.L207:
 607:build/openmote-cc2538_armgcc/openstack/02b-MAChigh/neighbors.c ****         if (neighbors_vars.neighbors[i].used==1) {
 2876              		.loc 1 607 0
 2877 0df6 FA7F     		ldrb	r2, [r7, #31]	@ zero_extendqisi2
 2878 0df8 3049     		ldr	r1, .L208
 2879 0dfa 1346     		mov	r3, r2
 2880 0dfc 9B00     		lsls	r3, r3, #2
 2881 0dfe 1344     		add	r3, r3, r2
 2882 0e00 DB00     		lsls	r3, r3, #3
 2883 0e02 0B44     		add	r3, r3, r1
 2884 0e04 1B78     		ldrb	r3, [r3]	@ zero_extendqisi2
 2885 0e06 002B     		cmp	r3, #0
 2886 0e08 4ED0     		beq	.L205
 608:build/openmote-cc2538_armgcc/openstack/02b-MAChigh/neighbors.c ****             timeSinceHeard = ieee154e_asnDiff(&neighbors_vars.neighbors[i].asn);
 2887              		.loc 1 608 0
 2888 0e0a FA7F     		ldrb	r2, [r7, #31]	@ zero_extendqisi2
 2889 0e0c 1346     		mov	r3, r2
 2890 0e0e 9B00     		lsls	r3, r3, #2
 2891 0e10 1344     		add	r3, r3, r2
 2892 0e12 DB00     		lsls	r3, r3, #3
 2893 0e14 1833     		adds	r3, r3, #24
 2894 0e16 294A     		ldr	r2, .L208
 2895 0e18 1344     		add	r3, r3, r2
 2896 0e1a 0533     		adds	r3, r3, #5
 2897 0e1c 1846     		mov	r0, r3
 2898 0e1e FFF7FEFF 		bl	ieee154e_asnDiff
 2899 0e22 B861     		str	r0, [r7, #24]
 609:build/openmote-cc2538_armgcc/openstack/02b-MAChigh/neighbors.c ****             if (timeSinceHeard>DESYNCTIMEOUT) {
 2900              		.loc 1 609 0
 2901 0e24 BB69     		ldr	r3, [r7, #24]
 2902 0e26 40F61D12 		movw	r2, #2333
 2903 0e2a 9342     		cmp	r3, r2
 2904 0e2c 3CD9     		bls	.L205
 610:build/openmote-cc2538_armgcc/openstack/02b-MAChigh/neighbors.c ****                 msf_trigger6pClear(&neighbors_vars.neighbors[i].addr_64b);
 2905              		.loc 1 610 0
 2906 0e2e FA7F     		ldrb	r2, [r7, #31]	@ zero_extendqisi2
 2907 0e30 1346     		mov	r3, r2
 2908 0e32 9B00     		lsls	r3, r3, #2
 2909 0e34 1344     		add	r3, r3, r2
 2910 0e36 DB00     		lsls	r3, r3, #3
 2911 0e38 204A     		ldr	r2, .L208
 2912 0e3a 1344     		add	r3, r3, r2
 2913 0e3c 0533     		adds	r3, r3, #5
 2914 0e3e 1846     		mov	r0, r3
 2915 0e40 FFF7FEFF 		bl	msf_trigger6pClear
 611:build/openmote-cc2538_armgcc/openstack/02b-MAChigh/neighbors.c ****                 haveParent = icmpv6rpl_getPreferredParentIndex(&j);
 2916              		.loc 1 611 0
 2917 0e44 07F11603 		add	r3, r7, #22
 2918 0e48 1846     		mov	r0, r3
 2919 0e4a FFF7FEFF 		bl	icmpv6rpl_getPreferredParentIndex
 2920 0e4e 0346     		mov	r3, r0
 2921 0e50 FB75     		strb	r3, [r7, #23]
 612:build/openmote-cc2538_armgcc/openstack/02b-MAChigh/neighbors.c ****                 if (haveParent && (i==j)) { // this is our preferred parent, carefully!
 2922              		.loc 1 612 0
 2923 0e52 FB7D     		ldrb	r3, [r7, #23]	@ zero_extendqisi2
 2924 0e54 002B     		cmp	r3, #0
 2925 0e56 07D0     		beq	.L206
 2926              		.loc 1 612 0 is_stmt 0 discriminator 1
 2927 0e58 BB7D     		ldrb	r3, [r7, #22]	@ zero_extendqisi2
 2928 0e5a FA7F     		ldrb	r2, [r7, #31]	@ zero_extendqisi2
 2929 0e5c 9A42     		cmp	r2, r3
 2930 0e5e 03D1     		bne	.L206
 613:build/openmote-cc2538_armgcc/openstack/02b-MAChigh/neighbors.c ****                     icmpv6rpl_killPreferredParent();
 2931              		.loc 1 613 0 is_stmt 1
 2932 0e60 FFF7FEFF 		bl	icmpv6rpl_killPreferredParent
 614:build/openmote-cc2538_armgcc/openstack/02b-MAChigh/neighbors.c ****                     icmpv6rpl_updateMyDAGrankAndParentSelection();
 2933              		.loc 1 614 0
 2934 0e64 FFF7FEFF 		bl	icmpv6rpl_updateMyDAGrankAndParentSelection
 2935              	.L206:
 615:build/openmote-cc2538_armgcc/openstack/02b-MAChigh/neighbors.c ****                 }
 616:build/openmote-cc2538_armgcc/openstack/02b-MAChigh/neighbors.c ****                 // keep the NORES neighbor in the table
 617:build/openmote-cc2538_armgcc/openstack/02b-MAChigh/neighbors.c ****                 if (
 618:build/openmote-cc2538_armgcc/openstack/02b-MAChigh/neighbors.c ****                     neighbors_vars.neighbors[i].f6PNORES    == FALSE &&
 2936              		.loc 1 618 0
 2937 0e68 FA7F     		ldrb	r2, [r7, #31]	@ zero_extendqisi2
 2938 0e6a 1449     		ldr	r1, .L208
 2939 0e6c 1346     		mov	r3, r2
 2940 0e6e 9B00     		lsls	r3, r3, #2
 2941 0e70 1344     		add	r3, r3, r2
 2942 0e72 DB00     		lsls	r3, r3, #3
 2943 0e74 0B44     		add	r3, r3, r1
 2944 0e76 2033     		adds	r3, r3, #32
 2945 0e78 DB78     		ldrb	r3, [r3, #3]	@ zero_extendqisi2
 2946 0e7a 83F00103 		eor	r3, r3, #1
 2947 0e7e DBB2     		uxtb	r3, r3
 617:build/openmote-cc2538_armgcc/openstack/02b-MAChigh/neighbors.c ****                     neighbors_vars.neighbors[i].f6PNORES    == FALSE &&
 2948              		.loc 1 617 0
 2949 0e80 002B     		cmp	r3, #0
 2950 0e82 11D0     		beq	.L205
 619:build/openmote-cc2538_armgcc/openstack/02b-MAChigh/neighbors.c ****                     neighbors_vars.neighbors[i].inBlacklist == FALSE
 2951              		.loc 1 619 0
 2952 0e84 FA7F     		ldrb	r2, [r7, #31]	@ zero_extendqisi2
 2953 0e86 0D49     		ldr	r1, .L208
 2954 0e88 1346     		mov	r3, r2
 2955 0e8a 9B00     		lsls	r3, r3, #2
 2956 0e8c 1344     		add	r3, r3, r2
 2957 0e8e DB00     		lsls	r3, r3, #3
 2958 0e90 0B44     		add	r3, r3, r1
 2959 0e92 2033     		adds	r3, r3, #32
 2960 0e94 1B79     		ldrb	r3, [r3, #4]	@ zero_extendqisi2
 2961 0e96 83F00103 		eor	r3, r3, #1
 2962 0e9a DBB2     		uxtb	r3, r3
 618:build/openmote-cc2538_armgcc/openstack/02b-MAChigh/neighbors.c ****                     neighbors_vars.neighbors[i].inBlacklist == FALSE
 2963              		.loc 1 618 0
 2964 0e9c 002B     		cmp	r3, #0
 2965 0e9e 03D0     		beq	.L205
 620:build/openmote-cc2538_armgcc/openstack/02b-MAChigh/neighbors.c ****                 ){
 621:build/openmote-cc2538_armgcc/openstack/02b-MAChigh/neighbors.c ****                     removeNeighbor(i);
 2966              		.loc 1 621 0
 2967 0ea0 FB7F     		ldrb	r3, [r7, #31]	@ zero_extendqisi2
 2968 0ea2 1846     		mov	r0, r3
 2969 0ea4 FFF7FEFF 		bl	removeNeighbor
 2970              	.L205:
 606:build/openmote-cc2538_armgcc/openstack/02b-MAChigh/neighbors.c ****         if (neighbors_vars.neighbors[i].used==1) {
 2971              		.loc 1 606 0 discriminator 2
 2972 0ea8 FB7F     		ldrb	r3, [r7, #31]	@ zero_extendqisi2
 2973 0eaa 0133     		adds	r3, r3, #1
 2974 0eac FB77     		strb	r3, [r7, #31]
 2975              	.L204:
 606:build/openmote-cc2538_armgcc/openstack/02b-MAChigh/neighbors.c ****         if (neighbors_vars.neighbors[i].used==1) {
 2976              		.loc 1 606 0 is_stmt 0 discriminator 1
 2977 0eae FB7F     		ldrb	r3, [r7, #31]	@ zero_extendqisi2
 2978 0eb0 1D2B     		cmp	r3, #29
 2979 0eb2 A0D9     		bls	.L207
 2980              	.L200:
 622:build/openmote-cc2538_armgcc/openstack/02b-MAChigh/neighbors.c ****                 }
 623:build/openmote-cc2538_armgcc/openstack/02b-MAChigh/neighbors.c ****             }
 624:build/openmote-cc2538_armgcc/openstack/02b-MAChigh/neighbors.c ****         }
 625:build/openmote-cc2538_armgcc/openstack/02b-MAChigh/neighbors.c ****     }
 626:build/openmote-cc2538_armgcc/openstack/02b-MAChigh/neighbors.c **** }
 2981              		.loc 1 626 0 is_stmt 1
 2982 0eb4 2037     		adds	r7, r7, #32
 2983              		.cfi_def_cfa_offset 8
 2984 0eb6 BD46     		mov	sp, r7
 2985              		.cfi_def_cfa_register 13
 2986              		@ sp needed
 2987 0eb8 80BD     		pop	{r7, pc}
 2988              	.L209:
 2989 0eba 00BF     		.align	2
 2990              	.L208:
 2991 0ebc 00000000 		.word	neighbors_vars
 2992              		.cfi_endproc
 2993              	.LFE28:
 2995              		.align	2
 2996              		.global	debugPrint_neighbors
 2997              		.thumb
 2998              		.thumb_func
 3000              	debugPrint_neighbors:
 3001              	.LFB29:
 627:build/openmote-cc2538_armgcc/openstack/02b-MAChigh/neighbors.c **** 
 628:build/openmote-cc2538_armgcc/openstack/02b-MAChigh/neighbors.c **** //===== debug
 629:build/openmote-cc2538_armgcc/openstack/02b-MAChigh/neighbors.c **** 
 630:build/openmote-cc2538_armgcc/openstack/02b-MAChigh/neighbors.c **** /**
 631:build/openmote-cc2538_armgcc/openstack/02b-MAChigh/neighbors.c **** \brief Triggers this module to print status information, over serial.
 632:build/openmote-cc2538_armgcc/openstack/02b-MAChigh/neighbors.c **** 
 633:build/openmote-cc2538_armgcc/openstack/02b-MAChigh/neighbors.c **** debugPrint_* functions are used by the openserial module to continuously print
 634:build/openmote-cc2538_armgcc/openstack/02b-MAChigh/neighbors.c **** status information about several modules in the OpenWSN stack.
 635:build/openmote-cc2538_armgcc/openstack/02b-MAChigh/neighbors.c **** 
 636:build/openmote-cc2538_armgcc/openstack/02b-MAChigh/neighbors.c **** \returns TRUE if this function printed something, FALSE otherwise.
 637:build/openmote-cc2538_armgcc/openstack/02b-MAChigh/neighbors.c **** */
 638:build/openmote-cc2538_armgcc/openstack/02b-MAChigh/neighbors.c **** bool debugPrint_neighbors(void) {
 3002              		.loc 1 638 0
 3003              		.cfi_startproc
 3004              		@ args = 0, pretend = 0, frame = 48
 3005              		@ frame_needed = 1, uses_anonymous_args = 0
 3006 0ec0 F0B5     		push	{r4, r5, r6, r7, lr}
 3007              		.cfi_def_cfa_offset 20
 3008              		.cfi_offset 4, -20
 3009              		.cfi_offset 5, -16
 3010              		.cfi_offset 6, -12
 3011              		.cfi_offset 7, -8
 3012              		.cfi_offset 14, -4
 3013 0ec2 8DB0     		sub	sp, sp, #52
 3014              		.cfi_def_cfa_offset 72
 3015 0ec4 00AF     		add	r7, sp, #0
 3016              		.cfi_def_cfa_register 7
 639:build/openmote-cc2538_armgcc/openstack/02b-MAChigh/neighbors.c ****     debugNeighborEntry_t temp;
 640:build/openmote-cc2538_armgcc/openstack/02b-MAChigh/neighbors.c ****     neighbors_vars.debugRow=(neighbors_vars.debugRow+1)%MAXNUMNEIGHBORS;
 3017              		.loc 1 640 0
 3018 0ec6 214B     		ldr	r3, .L213
 3019 0ec8 93F8B234 		ldrb	r3, [r3, #1202]	@ zero_extendqisi2
 3020 0ecc 5A1C     		adds	r2, r3, #1
 3021 0ece 204B     		ldr	r3, .L213+4
 3022 0ed0 82FB0301 		smull	r0, r1, r2, r3
 3023 0ed4 5318     		adds	r3, r2, r1
 3024 0ed6 1911     		asrs	r1, r3, #4
 3025 0ed8 D317     		asrs	r3, r2, #31
 3026 0eda C91A     		subs	r1, r1, r3
 3027 0edc 0B46     		mov	r3, r1
 3028 0ede 1B01     		lsls	r3, r3, #4
 3029 0ee0 5B1A     		subs	r3, r3, r1
 3030 0ee2 5B00     		lsls	r3, r3, #1
 3031 0ee4 D11A     		subs	r1, r2, r3
 3032 0ee6 CAB2     		uxtb	r2, r1
 3033 0ee8 184B     		ldr	r3, .L213
 3034 0eea 83F8B224 		strb	r2, [r3, #1202]
 641:build/openmote-cc2538_armgcc/openstack/02b-MAChigh/neighbors.c ****     temp.row=neighbors_vars.debugRow;
 3035              		.loc 1 641 0
 3036 0eee 174B     		ldr	r3, .L213
 3037 0ef0 93F8B234 		ldrb	r3, [r3, #1202]	@ zero_extendqisi2
 3038 0ef4 3B71     		strb	r3, [r7, #4]
 642:build/openmote-cc2538_armgcc/openstack/02b-MAChigh/neighbors.c ****     temp.neighborEntry=neighbors_vars.neighbors[neighbors_vars.debugRow];
 3039              		.loc 1 642 0
 3040 0ef6 154B     		ldr	r3, .L213
 3041 0ef8 93F8B234 		ldrb	r3, [r3, #1202]	@ zero_extendqisi2
 3042 0efc 1946     		mov	r1, r3
 3043 0efe 134A     		ldr	r2, .L213
 3044 0f00 0B46     		mov	r3, r1
 3045 0f02 9B00     		lsls	r3, r3, #2
 3046 0f04 0B44     		add	r3, r3, r1
 3047 0f06 DB00     		lsls	r3, r3, #3
 3048 0f08 1344     		add	r3, r3, r2
 3049 0f0a 1C46     		mov	r4, r3
 3050 0f0c 07F1050E 		add	lr, r7, #5
 3051 0f10 04F1200C 		add	ip, r4, #32
 3052              	.L211:
 3053 0f14 7546     		mov	r5, lr
 3054 0f16 2646     		mov	r6, r4
 3055 0f18 0FCE     		ldmia	r6!, {r0, r1, r2, r3}
 3056 0f1a 2860     		str	r0, [r5]	@ unaligned
 3057 0f1c 6960     		str	r1, [r5, #4]	@ unaligned
 3058 0f1e AA60     		str	r2, [r5, #8]	@ unaligned
 3059 0f20 EB60     		str	r3, [r5, #12]	@ unaligned
 3060 0f22 1034     		adds	r4, r4, #16
 3061 0f24 0EF1100E 		add	lr, lr, #16
 3062 0f28 6445     		cmp	r4, ip
 3063 0f2a F3D1     		bne	.L211
 3064 0f2c 7246     		mov	r2, lr
 3065 0f2e 2346     		mov	r3, r4
 3066 0f30 03CB     		ldmia	r3!, {r0, r1}
 3067 0f32 1060     		str	r0, [r2]	@ unaligned
 3068 0f34 5160     		str	r1, [r2, #4]	@ unaligned
 643:build/openmote-cc2538_armgcc/openstack/02b-MAChigh/neighbors.c ****     openserial_printStatus(STATUS_NEIGHBORS,(uint8_t*)&temp,sizeof(debugNeighborEntry_t));
 3069              		.loc 1 643 0
 3070 0f36 3B1D     		adds	r3, r7, #4
 3071 0f38 0920     		movs	r0, #9
 3072 0f3a 1946     		mov	r1, r3
 3073 0f3c 2922     		movs	r2, #41
 3074 0f3e FFF7FEFF 		bl	openserial_printStatus
 644:build/openmote-cc2538_armgcc/openstack/02b-MAChigh/neighbors.c ****     return TRUE;
 3075              		.loc 1 644 0
 3076 0f42 0123     		movs	r3, #1
 645:build/openmote-cc2538_armgcc/openstack/02b-MAChigh/neighbors.c **** }
 3077              		.loc 1 645 0
 3078 0f44 1846     		mov	r0, r3
 3079 0f46 3437     		adds	r7, r7, #52
 3080              		.cfi_def_cfa_offset 20
 3081 0f48 BD46     		mov	sp, r7
 3082              		.cfi_def_cfa_register 13
 3083              		@ sp needed
 3084 0f4a F0BD     		pop	{r4, r5, r6, r7, pc}
 3085              	.L214:
 3086              		.align	2
 3087              	.L213:
 3088 0f4c 00000000 		.word	neighbors_vars
 3089 0f50 89888888 		.word	-2004318071
 3090              		.cfi_endproc
 3091              	.LFE29:
 3093              		.align	2
 3094              		.global	registerNewNeighbor
 3095              		.thumb
 3096              		.thumb_func
 3098              	registerNewNeighbor:
 3099              	.LFB30:
 646:build/openmote-cc2538_armgcc/openstack/02b-MAChigh/neighbors.c **** 
 647:build/openmote-cc2538_armgcc/openstack/02b-MAChigh/neighbors.c **** //=========================== private =========================================
 648:build/openmote-cc2538_armgcc/openstack/02b-MAChigh/neighbors.c **** 
 649:build/openmote-cc2538_armgcc/openstack/02b-MAChigh/neighbors.c **** void registerNewNeighbor(open_addr_t* address,
 650:build/openmote-cc2538_armgcc/openstack/02b-MAChigh/neighbors.c ****                          int8_t       rssi,
 651:build/openmote-cc2538_armgcc/openstack/02b-MAChigh/neighbors.c ****                          asn_t*       asnTimestamp,
 652:build/openmote-cc2538_armgcc/openstack/02b-MAChigh/neighbors.c ****                          bool         joinPrioPresent,
 653:build/openmote-cc2538_armgcc/openstack/02b-MAChigh/neighbors.c ****                          uint8_t      joinPrio,
 654:build/openmote-cc2538_armgcc/openstack/02b-MAChigh/neighbors.c ****                          bool         insecure) {
 3100              		.loc 1 654 0
 3101              		.cfi_startproc
 3102              		@ args = 8, pretend = 0, frame = 24
 3103              		@ frame_needed = 1, uses_anonymous_args = 0
 3104 0f54 B0B5     		push	{r4, r5, r7, lr}
 3105              		.cfi_def_cfa_offset 16
 3106              		.cfi_offset 4, -16
 3107              		.cfi_offset 5, -12
 3108              		.cfi_offset 7, -8
 3109              		.cfi_offset 14, -4
 3110 0f56 86B0     		sub	sp, sp, #24
 3111              		.cfi_def_cfa_offset 40
 3112 0f58 00AF     		add	r7, sp, #0
 3113              		.cfi_def_cfa_register 7
 3114 0f5a F860     		str	r0, [r7, #12]
 3115 0f5c 7A60     		str	r2, [r7, #4]
 3116 0f5e 1A46     		mov	r2, r3
 3117 0f60 0B46     		mov	r3, r1
 3118 0f62 FB72     		strb	r3, [r7, #11]
 3119 0f64 1346     		mov	r3, r2
 3120 0f66 BB72     		strb	r3, [r7, #10]
 655:build/openmote-cc2538_armgcc/openstack/02b-MAChigh/neighbors.c ****    uint8_t  i;
 656:build/openmote-cc2538_armgcc/openstack/02b-MAChigh/neighbors.c ****    // filter errors
 657:build/openmote-cc2538_armgcc/openstack/02b-MAChigh/neighbors.c ****    if (address->type!=ADDR_64B) {
 3121              		.loc 1 657 0
 3122 0f68 FB68     		ldr	r3, [r7, #12]
 3123 0f6a 1B78     		ldrb	r3, [r3]	@ zero_extendqisi2
 3124 0f6c 022B     		cmp	r3, #2
 3125 0f6e 09D0     		beq	.L216
 658:build/openmote-cc2538_armgcc/openstack/02b-MAChigh/neighbors.c ****       openserial_printCritical(COMPONENT_NEIGHBORS,ERR_WRONG_ADDR_TYPE,
 659:build/openmote-cc2538_armgcc/openstack/02b-MAChigh/neighbors.c ****                             (errorparameter_t)address->type,
 3126              		.loc 1 659 0
 3127 0f70 FB68     		ldr	r3, [r7, #12]
 3128 0f72 1B78     		ldrb	r3, [r3]	@ zero_extendqisi2
 658:build/openmote-cc2538_armgcc/openstack/02b-MAChigh/neighbors.c ****       openserial_printCritical(COMPONENT_NEIGHBORS,ERR_WRONG_ADDR_TYPE,
 3129              		.loc 1 658 0
 3130 0f74 9BB2     		uxth	r3, r3
 3131 0f76 0D20     		movs	r0, #13
 3132 0f78 3121     		movs	r1, #49
 3133 0f7a 1A46     		mov	r2, r3
 3134 0f7c 0223     		movs	r3, #2
 3135 0f7e FFF7FEFF 		bl	openserial_printCritical
 660:build/openmote-cc2538_armgcc/openstack/02b-MAChigh/neighbors.c ****                             (errorparameter_t)2);
 661:build/openmote-cc2538_armgcc/openstack/02b-MAChigh/neighbors.c ****       return;
 3136              		.loc 1 661 0
 3137 0f82 CEE0     		b	.L215
 3138              	.L216:
 662:build/openmote-cc2538_armgcc/openstack/02b-MAChigh/neighbors.c ****    }
 663:build/openmote-cc2538_armgcc/openstack/02b-MAChigh/neighbors.c ****    // add this neighbor
 664:build/openmote-cc2538_armgcc/openstack/02b-MAChigh/neighbors.c ****    if (isNeighbor(address)==FALSE) {
 3139              		.loc 1 664 0
 3140 0f84 F868     		ldr	r0, [r7, #12]
 3141 0f86 FFF7FEFF 		bl	isNeighbor
 3142 0f8a 0346     		mov	r3, r0
 3143 0f8c 83F00103 		eor	r3, r3, #1
 3144 0f90 DBB2     		uxtb	r3, r3
 3145 0f92 002B     		cmp	r3, #0
 3146 0f94 00F0C580 		beq	.L215
 665:build/openmote-cc2538_armgcc/openstack/02b-MAChigh/neighbors.c ****       i=0;
 3147              		.loc 1 665 0
 3148 0f98 0023     		movs	r3, #0
 3149 0f9a FB75     		strb	r3, [r7, #23]
 666:build/openmote-cc2538_armgcc/openstack/02b-MAChigh/neighbors.c ****       while(i<MAXNUMNEIGHBORS) {
 3150              		.loc 1 666 0
 3151 0f9c B3E0     		b	.L218
 3152              	.L223:
 667:build/openmote-cc2538_armgcc/openstack/02b-MAChigh/neighbors.c ****          if (neighbors_vars.neighbors[i].used==FALSE) {
 3153              		.loc 1 667 0
 3154 0f9e FA7D     		ldrb	r2, [r7, #23]	@ zero_extendqisi2
 3155 0fa0 6149     		ldr	r1, .L224
 3156 0fa2 1346     		mov	r3, r2
 3157 0fa4 9B00     		lsls	r3, r3, #2
 3158 0fa6 1344     		add	r3, r3, r2
 3159 0fa8 DB00     		lsls	r3, r3, #3
 3160 0faa 0B44     		add	r3, r3, r1
 3161 0fac 1B78     		ldrb	r3, [r3]	@ zero_extendqisi2
 3162 0fae 83F00103 		eor	r3, r3, #1
 3163 0fb2 DBB2     		uxtb	r3, r3
 3164 0fb4 002B     		cmp	r3, #0
 3165 0fb6 00F0A380 		beq	.L219
 668:build/openmote-cc2538_armgcc/openstack/02b-MAChigh/neighbors.c ****             if (rssi < BADNEIGHBORMAXRSSI){
 3166              		.loc 1 668 0
 3167 0fba 97F90B30 		ldrsb	r3, [r7, #11]
 3168 0fbe 13F1500F 		cmn	r3, #80
 3169 0fc2 00DA     		bge	.L220
 669:build/openmote-cc2538_armgcc/openstack/02b-MAChigh/neighbors.c ****                 break;
 3170              		.loc 1 669 0
 3171 0fc4 A3E0     		b	.L221
 3172              	.L220:
 670:build/openmote-cc2538_armgcc/openstack/02b-MAChigh/neighbors.c ****             }
 671:build/openmote-cc2538_armgcc/openstack/02b-MAChigh/neighbors.c ****             // add this neighbor
 672:build/openmote-cc2538_armgcc/openstack/02b-MAChigh/neighbors.c ****             neighbors_vars.neighbors[i].used                   = TRUE;
 3173              		.loc 1 672 0
 3174 0fc6 FA7D     		ldrb	r2, [r7, #23]	@ zero_extendqisi2
 3175 0fc8 5749     		ldr	r1, .L224
 3176 0fca 1346     		mov	r3, r2
 3177 0fcc 9B00     		lsls	r3, r3, #2
 3178 0fce 1344     		add	r3, r3, r2
 3179 0fd0 DB00     		lsls	r3, r3, #3
 3180 0fd2 0B44     		add	r3, r3, r1
 3181 0fd4 0122     		movs	r2, #1
 3182 0fd6 1A70     		strb	r2, [r3]
 673:build/openmote-cc2538_armgcc/openstack/02b-MAChigh/neighbors.c ****             neighbors_vars.neighbors[i].insecure               = insecure;
 3183              		.loc 1 673 0
 3184 0fd8 FA7D     		ldrb	r2, [r7, #23]	@ zero_extendqisi2
 3185 0fda 5349     		ldr	r1, .L224
 3186 0fdc 1346     		mov	r3, r2
 3187 0fde 9B00     		lsls	r3, r3, #2
 3188 0fe0 1344     		add	r3, r3, r2
 3189 0fe2 DB00     		lsls	r3, r3, #3
 3190 0fe4 0B44     		add	r3, r3, r1
 3191 0fe6 97F82C20 		ldrb	r2, [r7, #44]
 3192 0fea 5A70     		strb	r2, [r3, #1]
 674:build/openmote-cc2538_armgcc/openstack/02b-MAChigh/neighbors.c ****             // neighbors_vars.neighbors[i].stableNeighbor         = FALSE;
 675:build/openmote-cc2538_armgcc/openstack/02b-MAChigh/neighbors.c ****             // Note: all new neighbors are consider stable
 676:build/openmote-cc2538_armgcc/openstack/02b-MAChigh/neighbors.c ****             neighbors_vars.neighbors[i].stableNeighbor         = TRUE;
 3193              		.loc 1 676 0
 3194 0fec FA7D     		ldrb	r2, [r7, #23]	@ zero_extendqisi2
 3195 0fee 4E49     		ldr	r1, .L224
 3196 0ff0 1346     		mov	r3, r2
 3197 0ff2 9B00     		lsls	r3, r3, #2
 3198 0ff4 1344     		add	r3, r3, r2
 3199 0ff6 DB00     		lsls	r3, r3, #3
 3200 0ff8 0B44     		add	r3, r3, r1
 3201 0ffa 0122     		movs	r2, #1
 3202 0ffc DA70     		strb	r2, [r3, #3]
 677:build/openmote-cc2538_armgcc/openstack/02b-MAChigh/neighbors.c ****             neighbors_vars.neighbors[i].switchStabilityCounter = 0;
 3203              		.loc 1 677 0
 3204 0ffe FA7D     		ldrb	r2, [r7, #23]	@ zero_extendqisi2
 3205 1000 4949     		ldr	r1, .L224
 3206 1002 1346     		mov	r3, r2
 3207 1004 9B00     		lsls	r3, r3, #2
 3208 1006 1344     		add	r3, r3, r2
 3209 1008 DB00     		lsls	r3, r3, #3
 3210 100a 0B44     		add	r3, r3, r1
 3211 100c 0022     		movs	r2, #0
 3212 100e 1A71     		strb	r2, [r3, #4]
 678:build/openmote-cc2538_armgcc/openstack/02b-MAChigh/neighbors.c ****             memcpy(&neighbors_vars.neighbors[i].addr_64b,address,sizeof(open_addr_t));
 3213              		.loc 1 678 0
 3214 1010 FA7D     		ldrb	r2, [r7, #23]	@ zero_extendqisi2
 3215 1012 1346     		mov	r3, r2
 3216 1014 9B00     		lsls	r3, r3, #2
 3217 1016 1344     		add	r3, r3, r2
 3218 1018 DB00     		lsls	r3, r3, #3
 3219 101a 434A     		ldr	r2, .L224
 3220 101c 1344     		add	r3, r3, r2
 3221 101e 0533     		adds	r3, r3, #5
 3222 1020 FA68     		ldr	r2, [r7, #12]
 3223 1022 1568     		ldr	r5, [r2]	@ unaligned
 3224 1024 5468     		ldr	r4, [r2, #4]	@ unaligned
 3225 1026 9068     		ldr	r0, [r2, #8]	@ unaligned
 3226 1028 D168     		ldr	r1, [r2, #12]	@ unaligned
 3227 102a 1D60     		str	r5, [r3]	@ unaligned
 3228 102c 5C60     		str	r4, [r3, #4]	@ unaligned
 3229 102e 9860     		str	r0, [r3, #8]	@ unaligned
 3230 1030 D960     		str	r1, [r3, #12]	@ unaligned
 3231 1032 127C     		ldrb	r2, [r2, #16]
 3232 1034 1A74     		strb	r2, [r3, #16]
 679:build/openmote-cc2538_armgcc/openstack/02b-MAChigh/neighbors.c ****             neighbors_vars.neighbors[i].DAGrank                = DEFAULTDAGRANK;
 3233              		.loc 1 679 0
 3234 1036 FA7D     		ldrb	r2, [r7, #23]	@ zero_extendqisi2
 3235 1038 3B49     		ldr	r1, .L224
 3236 103a 1346     		mov	r3, r2
 3237 103c 9B00     		lsls	r3, r3, #2
 3238 103e 1344     		add	r3, r3, r2
 3239 1040 DB00     		lsls	r3, r3, #3
 3240 1042 0B44     		add	r3, r3, r1
 3241 1044 1033     		adds	r3, r3, #16
 3242 1046 4FF6FF72 		movw	r2, #65535
 3243 104a DA80     		strh	r2, [r3, #6]	@ movhi
 680:build/openmote-cc2538_armgcc/openstack/02b-MAChigh/neighbors.c ****             // since we don't have a DAG rank at this point, no need to call for routing table upda
 681:build/openmote-cc2538_armgcc/openstack/02b-MAChigh/neighbors.c ****             neighbors_vars.neighbors[i].rssi                   = rssi;
 3244              		.loc 1 681 0
 3245 104c FA7D     		ldrb	r2, [r7, #23]	@ zero_extendqisi2
 3246 104e 3649     		ldr	r1, .L224
 3247 1050 1346     		mov	r3, r2
 3248 1052 9B00     		lsls	r3, r3, #2
 3249 1054 1344     		add	r3, r3, r2
 3250 1056 DB00     		lsls	r3, r3, #3
 3251 1058 0B44     		add	r3, r3, r1
 3252 105a 1833     		adds	r3, r3, #24
 3253 105c FA7A     		ldrb	r2, [r7, #11]
 3254 105e 1A70     		strb	r2, [r3]
 682:build/openmote-cc2538_armgcc/openstack/02b-MAChigh/neighbors.c ****             neighbors_vars.neighbors[i].numRx                  = 1;
 3255              		.loc 1 682 0
 3256 1060 FA7D     		ldrb	r2, [r7, #23]	@ zero_extendqisi2
 3257 1062 3149     		ldr	r1, .L224
 3258 1064 1346     		mov	r3, r2
 3259 1066 9B00     		lsls	r3, r3, #2
 3260 1068 1344     		add	r3, r3, r2
 3261 106a DB00     		lsls	r3, r3, #3
 3262 106c 0B44     		add	r3, r3, r1
 3263 106e 1833     		adds	r3, r3, #24
 3264 1070 0122     		movs	r2, #1
 3265 1072 5A70     		strb	r2, [r3, #1]
 683:build/openmote-cc2538_armgcc/openstack/02b-MAChigh/neighbors.c ****             neighbors_vars.neighbors[i].numTx                  = 0;
 3266              		.loc 1 683 0
 3267 1074 FA7D     		ldrb	r2, [r7, #23]	@ zero_extendqisi2
 3268 1076 2C49     		ldr	r1, .L224
 3269 1078 1346     		mov	r3, r2
 3270 107a 9B00     		lsls	r3, r3, #2
 3271 107c 1344     		add	r3, r3, r2
 3272 107e DB00     		lsls	r3, r3, #3
 3273 1080 0B44     		add	r3, r3, r1
 3274 1082 1833     		adds	r3, r3, #24
 3275 1084 0022     		movs	r2, #0
 3276 1086 9A70     		strb	r2, [r3, #2]
 684:build/openmote-cc2538_armgcc/openstack/02b-MAChigh/neighbors.c ****             neighbors_vars.neighbors[i].numTxACK               = 0;
 3277              		.loc 1 684 0
 3278 1088 FA7D     		ldrb	r2, [r7, #23]	@ zero_extendqisi2
 3279 108a 2749     		ldr	r1, .L224
 3280 108c 1346     		mov	r3, r2
 3281 108e 9B00     		lsls	r3, r3, #2
 3282 1090 1344     		add	r3, r3, r2
 3283 1092 DB00     		lsls	r3, r3, #3
 3284 1094 0B44     		add	r3, r3, r1
 3285 1096 1833     		adds	r3, r3, #24
 3286 1098 0022     		movs	r2, #0
 3287 109a DA70     		strb	r2, [r3, #3]
 685:build/openmote-cc2538_armgcc/openstack/02b-MAChigh/neighbors.c ****             memcpy(&neighbors_vars.neighbors[i].asn,asnTimestamp,sizeof(asn_t));
 3288              		.loc 1 685 0
 3289 109c FA7D     		ldrb	r2, [r7, #23]	@ zero_extendqisi2
 3290 109e 1346     		mov	r3, r2
 3291 10a0 9B00     		lsls	r3, r3, #2
 3292 10a2 1344     		add	r3, r3, r2
 3293 10a4 DB00     		lsls	r3, r3, #3
 3294 10a6 1833     		adds	r3, r3, #24
 3295 10a8 1F4A     		ldr	r2, .L224
 3296 10aa 1344     		add	r3, r3, r2
 3297 10ac 0533     		adds	r3, r3, #5
 3298 10ae 7A68     		ldr	r2, [r7, #4]
 3299 10b0 1168     		ldr	r1, [r2]	@ unaligned
 3300 10b2 1960     		str	r1, [r3]	@ unaligned
 3301 10b4 1279     		ldrb	r2, [r2, #4]
 3302 10b6 1A71     		strb	r2, [r3, #4]
 686:build/openmote-cc2538_armgcc/openstack/02b-MAChigh/neighbors.c ****             neighbors_vars.neighbors[i].backoffExponenton      = MINBE-1;;
 3303              		.loc 1 686 0
 3304 10b8 FA7D     		ldrb	r2, [r7, #23]	@ zero_extendqisi2
 3305 10ba 1B49     		ldr	r1, .L224
 3306 10bc 1346     		mov	r3, r2
 3307 10be 9B00     		lsls	r3, r3, #2
 3308 10c0 1344     		add	r3, r3, r2
 3309 10c2 DB00     		lsls	r3, r3, #3
 3310 10c4 0B44     		add	r3, r3, r1
 3311 10c6 2033     		adds	r3, r3, #32
 3312 10c8 0122     		movs	r2, #1
 3313 10ca 9A71     		strb	r2, [r3, #6]
 687:build/openmote-cc2538_armgcc/openstack/02b-MAChigh/neighbors.c ****             neighbors_vars.neighbors[i].backoff                = 0;
 3314              		.loc 1 687 0
 3315 10cc FA7D     		ldrb	r2, [r7, #23]	@ zero_extendqisi2
 3316 10ce 1649     		ldr	r1, .L224
 3317 10d0 1346     		mov	r3, r2
 3318 10d2 9B00     		lsls	r3, r3, #2
 3319 10d4 1344     		add	r3, r3, r2
 3320 10d6 DB00     		lsls	r3, r3, #3
 3321 10d8 0B44     		add	r3, r3, r1
 3322 10da 2033     		adds	r3, r3, #32
 3323 10dc 0022     		movs	r2, #0
 3324 10de DA71     		strb	r2, [r3, #7]
 688:build/openmote-cc2538_armgcc/openstack/02b-MAChigh/neighbors.c ****             //update jp
 689:build/openmote-cc2538_armgcc/openstack/02b-MAChigh/neighbors.c ****             if (joinPrioPresent==TRUE){
 3325              		.loc 1 689 0
 3326 10e0 BB7A     		ldrb	r3, [r7, #10]	@ zero_extendqisi2
 3327 10e2 002B     		cmp	r3, #0
 3328 10e4 0BD0     		beq	.L222
 690:build/openmote-cc2538_armgcc/openstack/02b-MAChigh/neighbors.c ****                neighbors_vars.neighbors[i].joinPrio=joinPrio;
 3329              		.loc 1 690 0
 3330 10e6 FA7D     		ldrb	r2, [r7, #23]	@ zero_extendqisi2
 3331 10e8 0F49     		ldr	r1, .L224
 3332 10ea 1346     		mov	r3, r2
 3333 10ec 9B00     		lsls	r3, r3, #2
 3334 10ee 1344     		add	r3, r3, r2
 3335 10f0 DB00     		lsls	r3, r3, #3
 3336 10f2 0B44     		add	r3, r3, r1
 3337 10f4 2033     		adds	r3, r3, #32
 3338 10f6 97F82820 		ldrb	r2, [r7, #40]
 3339 10fa 9A70     		strb	r2, [r3, #2]
 691:build/openmote-cc2538_armgcc/openstack/02b-MAChigh/neighbors.c ****             }
 692:build/openmote-cc2538_armgcc/openstack/02b-MAChigh/neighbors.c ****             
 693:build/openmote-cc2538_armgcc/openstack/02b-MAChigh/neighbors.c ****             break;
 3340              		.loc 1 693 0
 3341 10fc 07E0     		b	.L221
 3342              	.L222:
 3343 10fe 06E0     		b	.L221
 3344              	.L219:
 694:build/openmote-cc2538_armgcc/openstack/02b-MAChigh/neighbors.c ****          }
 695:build/openmote-cc2538_armgcc/openstack/02b-MAChigh/neighbors.c ****          i++;
 3345              		.loc 1 695 0
 3346 1100 FB7D     		ldrb	r3, [r7, #23]	@ zero_extendqisi2
 3347 1102 0133     		adds	r3, r3, #1
 3348 1104 FB75     		strb	r3, [r7, #23]
 3349              	.L218:
 666:build/openmote-cc2538_armgcc/openstack/02b-MAChigh/neighbors.c ****          if (neighbors_vars.neighbors[i].used==FALSE) {
 3350              		.loc 1 666 0
 3351 1106 FB7D     		ldrb	r3, [r7, #23]	@ zero_extendqisi2
 3352 1108 1D2B     		cmp	r3, #29
 3353 110a 7FF648AF 		bls	.L223
 3354              	.L221:
 696:build/openmote-cc2538_armgcc/openstack/02b-MAChigh/neighbors.c ****       }
 697:build/openmote-cc2538_armgcc/openstack/02b-MAChigh/neighbors.c ****       if (i==MAXNUMNEIGHBORS) {
 3355              		.loc 1 697 0
 3356 110e FB7D     		ldrb	r3, [r7, #23]	@ zero_extendqisi2
 3357 1110 1E2B     		cmp	r3, #30
 3358 1112 06D1     		bne	.L215
 698:build/openmote-cc2538_armgcc/openstack/02b-MAChigh/neighbors.c ****          openserial_printError(COMPONENT_NEIGHBORS,ERR_NEIGHBORS_FULL,
 3359              		.loc 1 698 0
 3360 1114 0D20     		movs	r0, #13
 3361 1116 1421     		movs	r1, #20
 3362 1118 1E22     		movs	r2, #30
 3363 111a 0023     		movs	r3, #0
 3364 111c FFF7FEFF 		bl	openserial_printError
 699:build/openmote-cc2538_armgcc/openstack/02b-MAChigh/neighbors.c ****                                (errorparameter_t)MAXNUMNEIGHBORS,
 700:build/openmote-cc2538_armgcc/openstack/02b-MAChigh/neighbors.c ****                                (errorparameter_t)0);
 701:build/openmote-cc2538_armgcc/openstack/02b-MAChigh/neighbors.c ****          return;
 3365              		.loc 1 701 0
 3366 1120 00BF     		nop
 3367              	.L215:
 702:build/openmote-cc2538_armgcc/openstack/02b-MAChigh/neighbors.c ****       }
 703:build/openmote-cc2538_armgcc/openstack/02b-MAChigh/neighbors.c ****    }
 704:build/openmote-cc2538_armgcc/openstack/02b-MAChigh/neighbors.c **** }
 3368              		.loc 1 704 0
 3369 1122 1837     		adds	r7, r7, #24
 3370              		.cfi_def_cfa_offset 16
 3371 1124 BD46     		mov	sp, r7
 3372              		.cfi_def_cfa_register 13
 3373              		@ sp needed
 3374 1126 B0BD     		pop	{r4, r5, r7, pc}
 3375              	.L225:
 3376              		.align	2
 3377              	.L224:
 3378 1128 00000000 		.word	neighbors_vars
 3379              		.cfi_endproc
 3380              	.LFE30:
 3382              		.align	2
 3383              		.global	isNeighbor
 3384              		.thumb
 3385              		.thumb_func
 3387              	isNeighbor:
 3388              	.LFB31:
 705:build/openmote-cc2538_armgcc/openstack/02b-MAChigh/neighbors.c **** 
 706:build/openmote-cc2538_armgcc/openstack/02b-MAChigh/neighbors.c **** bool isNeighbor(open_addr_t* neighbor) {
 3389              		.loc 1 706 0
 3390              		.cfi_startproc
 3391              		@ args = 0, pretend = 0, frame = 16
 3392              		@ frame_needed = 1, uses_anonymous_args = 0
 3393 112c 80B5     		push	{r7, lr}
 3394              		.cfi_def_cfa_offset 8
 3395              		.cfi_offset 7, -8
 3396              		.cfi_offset 14, -4
 3397 112e 84B0     		sub	sp, sp, #16
 3398              		.cfi_def_cfa_offset 24
 3399 1130 00AF     		add	r7, sp, #0
 3400              		.cfi_def_cfa_register 7
 3401 1132 7860     		str	r0, [r7, #4]
 707:build/openmote-cc2538_armgcc/openstack/02b-MAChigh/neighbors.c ****    uint8_t i=0;
 3402              		.loc 1 707 0
 3403 1134 0023     		movs	r3, #0
 3404 1136 FB73     		strb	r3, [r7, #15]
 708:build/openmote-cc2538_armgcc/openstack/02b-MAChigh/neighbors.c ****    for (i=0;i<MAXNUMNEIGHBORS;i++) {
 3405              		.loc 1 708 0
 3406 1138 0023     		movs	r3, #0
 3407 113a FB73     		strb	r3, [r7, #15]
 3408 113c 0CE0     		b	.L227
 3409              	.L230:
 709:build/openmote-cc2538_armgcc/openstack/02b-MAChigh/neighbors.c ****       if (isThisRowMatching(neighbor,i)) {
 3410              		.loc 1 709 0
 3411 113e FB7B     		ldrb	r3, [r7, #15]	@ zero_extendqisi2
 3412 1140 7868     		ldr	r0, [r7, #4]
 3413 1142 1946     		mov	r1, r3
 3414 1144 FFF7FEFF 		bl	isThisRowMatching
 3415 1148 0346     		mov	r3, r0
 3416 114a 002B     		cmp	r3, #0
 3417 114c 01D0     		beq	.L228
 710:build/openmote-cc2538_armgcc/openstack/02b-MAChigh/neighbors.c ****          return TRUE;
 3418              		.loc 1 710 0
 3419 114e 0123     		movs	r3, #1
 3420 1150 06E0     		b	.L229
 3421              	.L228:
 708:build/openmote-cc2538_armgcc/openstack/02b-MAChigh/neighbors.c ****    for (i=0;i<MAXNUMNEIGHBORS;i++) {
 3422              		.loc 1 708 0 discriminator 2
 3423 1152 FB7B     		ldrb	r3, [r7, #15]	@ zero_extendqisi2
 3424 1154 0133     		adds	r3, r3, #1
 3425 1156 FB73     		strb	r3, [r7, #15]
 3426              	.L227:
 708:build/openmote-cc2538_armgcc/openstack/02b-MAChigh/neighbors.c ****    for (i=0;i<MAXNUMNEIGHBORS;i++) {
 3427              		.loc 1 708 0 is_stmt 0 discriminator 1
 3428 1158 FB7B     		ldrb	r3, [r7, #15]	@ zero_extendqisi2
 3429 115a 1D2B     		cmp	r3, #29
 3430 115c EFD9     		bls	.L230
 711:build/openmote-cc2538_armgcc/openstack/02b-MAChigh/neighbors.c ****       }
 712:build/openmote-cc2538_armgcc/openstack/02b-MAChigh/neighbors.c ****    }
 713:build/openmote-cc2538_armgcc/openstack/02b-MAChigh/neighbors.c ****    return FALSE;
 3431              		.loc 1 713 0 is_stmt 1
 3432 115e 0023     		movs	r3, #0
 3433              	.L229:
 714:build/openmote-cc2538_armgcc/openstack/02b-MAChigh/neighbors.c **** }
 3434              		.loc 1 714 0
 3435 1160 1846     		mov	r0, r3
 3436 1162 1037     		adds	r7, r7, #16
 3437              		.cfi_def_cfa_offset 8
 3438 1164 BD46     		mov	sp, r7
 3439              		.cfi_def_cfa_register 13
 3440              		@ sp needed
 3441 1166 80BD     		pop	{r7, pc}
 3442              		.cfi_endproc
 3443              	.LFE31:
 3445              		.align	2
 3446              		.global	removeNeighbor
 3447              		.thumb
 3448              		.thumb_func
 3450              	removeNeighbor:
 3451              	.LFB32:
 715:build/openmote-cc2538_armgcc/openstack/02b-MAChigh/neighbors.c **** 
 716:build/openmote-cc2538_armgcc/openstack/02b-MAChigh/neighbors.c **** void removeNeighbor(uint8_t neighborIndex) {
 3452              		.loc 1 716 0
 3453              		.cfi_startproc
 3454              		@ args = 0, pretend = 0, frame = 8
 3455              		@ frame_needed = 1, uses_anonymous_args = 0
 3456              		@ link register save eliminated.
 3457 1168 80B4     		push	{r7}
 3458              		.cfi_def_cfa_offset 4
 3459              		.cfi_offset 7, -4
 3460 116a 83B0     		sub	sp, sp, #12
 3461              		.cfi_def_cfa_offset 16
 3462 116c 00AF     		add	r7, sp, #0
 3463              		.cfi_def_cfa_register 7
 3464 116e 0346     		mov	r3, r0
 3465 1170 FB71     		strb	r3, [r7, #7]
 717:build/openmote-cc2538_armgcc/openstack/02b-MAChigh/neighbors.c ****    neighbors_vars.neighbors[neighborIndex].used                      = FALSE;
 3466              		.loc 1 717 0
 3467 1172 FA79     		ldrb	r2, [r7, #7]	@ zero_extendqisi2
 3468 1174 5449     		ldr	r1, .L232
 3469 1176 1346     		mov	r3, r2
 3470 1178 9B00     		lsls	r3, r3, #2
 3471 117a 1344     		add	r3, r3, r2
 3472 117c DB00     		lsls	r3, r3, #3
 3473 117e 0B44     		add	r3, r3, r1
 3474 1180 0022     		movs	r2, #0
 3475 1182 1A70     		strb	r2, [r3]
 718:build/openmote-cc2538_armgcc/openstack/02b-MAChigh/neighbors.c ****    neighbors_vars.neighbors[neighborIndex].parentPreference          = 0;
 3476              		.loc 1 718 0
 3477 1184 FA79     		ldrb	r2, [r7, #7]	@ zero_extendqisi2
 3478 1186 5049     		ldr	r1, .L232
 3479 1188 1346     		mov	r3, r2
 3480 118a 9B00     		lsls	r3, r3, #2
 3481 118c 1344     		add	r3, r3, r2
 3482 118e DB00     		lsls	r3, r3, #3
 3483 1190 0B44     		add	r3, r3, r1
 3484 1192 0022     		movs	r2, #0
 3485 1194 9A70     		strb	r2, [r3, #2]
 719:build/openmote-cc2538_armgcc/openstack/02b-MAChigh/neighbors.c ****    neighbors_vars.neighbors[neighborIndex].stableNeighbor            = FALSE;
 3486              		.loc 1 719 0
 3487 1196 FA79     		ldrb	r2, [r7, #7]	@ zero_extendqisi2
 3488 1198 4B49     		ldr	r1, .L232
 3489 119a 1346     		mov	r3, r2
 3490 119c 9B00     		lsls	r3, r3, #2
 3491 119e 1344     		add	r3, r3, r2
 3492 11a0 DB00     		lsls	r3, r3, #3
 3493 11a2 0B44     		add	r3, r3, r1
 3494 11a4 0022     		movs	r2, #0
 3495 11a6 DA70     		strb	r2, [r3, #3]
 720:build/openmote-cc2538_armgcc/openstack/02b-MAChigh/neighbors.c ****    neighbors_vars.neighbors[neighborIndex].switchStabilityCounter    = 0;
 3496              		.loc 1 720 0
 3497 11a8 FA79     		ldrb	r2, [r7, #7]	@ zero_extendqisi2
 3498 11aa 4749     		ldr	r1, .L232
 3499 11ac 1346     		mov	r3, r2
 3500 11ae 9B00     		lsls	r3, r3, #2
 3501 11b0 1344     		add	r3, r3, r2
 3502 11b2 DB00     		lsls	r3, r3, #3
 3503 11b4 0B44     		add	r3, r3, r1
 3504 11b6 0022     		movs	r2, #0
 3505 11b8 1A71     		strb	r2, [r3, #4]
 721:build/openmote-cc2538_armgcc/openstack/02b-MAChigh/neighbors.c ****    //neighbors_vars.neighbors[neighborIndex].addr_16b.type           = ADDR_NONE; // to save RAM
 722:build/openmote-cc2538_armgcc/openstack/02b-MAChigh/neighbors.c ****    neighbors_vars.neighbors[neighborIndex].addr_64b.type             = ADDR_NONE;
 3506              		.loc 1 722 0
 3507 11ba FA79     		ldrb	r2, [r7, #7]	@ zero_extendqisi2
 3508 11bc 4249     		ldr	r1, .L232
 3509 11be 1346     		mov	r3, r2
 3510 11c0 9B00     		lsls	r3, r3, #2
 3511 11c2 1344     		add	r3, r3, r2
 3512 11c4 DB00     		lsls	r3, r3, #3
 3513 11c6 0B44     		add	r3, r3, r1
 3514 11c8 0022     		movs	r2, #0
 3515 11ca 5A71     		strb	r2, [r3, #5]
 723:build/openmote-cc2538_armgcc/openstack/02b-MAChigh/neighbors.c ****    //neighbors_vars.neighbors[neighborIndex].addr_128b.type          = ADDR_NONE; // to save RAM
 724:build/openmote-cc2538_armgcc/openstack/02b-MAChigh/neighbors.c ****    neighbors_vars.neighbors[neighborIndex].DAGrank                   = DEFAULTDAGRANK;
 3516              		.loc 1 724 0
 3517 11cc FA79     		ldrb	r2, [r7, #7]	@ zero_extendqisi2
 3518 11ce 3E49     		ldr	r1, .L232
 3519 11d0 1346     		mov	r3, r2
 3520 11d2 9B00     		lsls	r3, r3, #2
 3521 11d4 1344     		add	r3, r3, r2
 3522 11d6 DB00     		lsls	r3, r3, #3
 3523 11d8 0B44     		add	r3, r3, r1
 3524 11da 1033     		adds	r3, r3, #16
 3525 11dc 4FF6FF72 		movw	r2, #65535
 3526 11e0 DA80     		strh	r2, [r3, #6]	@ movhi
 725:build/openmote-cc2538_armgcc/openstack/02b-MAChigh/neighbors.c ****    neighbors_vars.neighbors[neighborIndex].rssi                      = 0;
 3527              		.loc 1 725 0
 3528 11e2 FA79     		ldrb	r2, [r7, #7]	@ zero_extendqisi2
 3529 11e4 3849     		ldr	r1, .L232
 3530 11e6 1346     		mov	r3, r2
 3531 11e8 9B00     		lsls	r3, r3, #2
 3532 11ea 1344     		add	r3, r3, r2
 3533 11ec DB00     		lsls	r3, r3, #3
 3534 11ee 0B44     		add	r3, r3, r1
 3535 11f0 1833     		adds	r3, r3, #24
 3536 11f2 0022     		movs	r2, #0
 3537 11f4 1A70     		strb	r2, [r3]
 726:build/openmote-cc2538_armgcc/openstack/02b-MAChigh/neighbors.c ****    neighbors_vars.neighbors[neighborIndex].numRx                     = 0;
 3538              		.loc 1 726 0
 3539 11f6 FA79     		ldrb	r2, [r7, #7]	@ zero_extendqisi2
 3540 11f8 3349     		ldr	r1, .L232
 3541 11fa 1346     		mov	r3, r2
 3542 11fc 9B00     		lsls	r3, r3, #2
 3543 11fe 1344     		add	r3, r3, r2
 3544 1200 DB00     		lsls	r3, r3, #3
 3545 1202 0B44     		add	r3, r3, r1
 3546 1204 1833     		adds	r3, r3, #24
 3547 1206 0022     		movs	r2, #0
 3548 1208 5A70     		strb	r2, [r3, #1]
 727:build/openmote-cc2538_armgcc/openstack/02b-MAChigh/neighbors.c ****    neighbors_vars.neighbors[neighborIndex].numTx                     = 0;
 3549              		.loc 1 727 0
 3550 120a FA79     		ldrb	r2, [r7, #7]	@ zero_extendqisi2
 3551 120c 2E49     		ldr	r1, .L232
 3552 120e 1346     		mov	r3, r2
 3553 1210 9B00     		lsls	r3, r3, #2
 3554 1212 1344     		add	r3, r3, r2
 3555 1214 DB00     		lsls	r3, r3, #3
 3556 1216 0B44     		add	r3, r3, r1
 3557 1218 1833     		adds	r3, r3, #24
 3558 121a 0022     		movs	r2, #0
 3559 121c 9A70     		strb	r2, [r3, #2]
 728:build/openmote-cc2538_armgcc/openstack/02b-MAChigh/neighbors.c ****    neighbors_vars.neighbors[neighborIndex].numTxACK                  = 0;
 3560              		.loc 1 728 0
 3561 121e FA79     		ldrb	r2, [r7, #7]	@ zero_extendqisi2
 3562 1220 2949     		ldr	r1, .L232
 3563 1222 1346     		mov	r3, r2
 3564 1224 9B00     		lsls	r3, r3, #2
 3565 1226 1344     		add	r3, r3, r2
 3566 1228 DB00     		lsls	r3, r3, #3
 3567 122a 0B44     		add	r3, r3, r1
 3568 122c 1833     		adds	r3, r3, #24
 3569 122e 0022     		movs	r2, #0
 3570 1230 DA70     		strb	r2, [r3, #3]
 729:build/openmote-cc2538_armgcc/openstack/02b-MAChigh/neighbors.c ****    neighbors_vars.neighbors[neighborIndex].asn.bytes0and1            = 0;
 3571              		.loc 1 729 0
 3572 1232 FA79     		ldrb	r2, [r7, #7]	@ zero_extendqisi2
 3573 1234 2449     		ldr	r1, .L232
 3574 1236 1346     		mov	r3, r2
 3575 1238 9B00     		lsls	r3, r3, #2
 3576 123a 1344     		add	r3, r3, r2
 3577 123c DB00     		lsls	r3, r3, #3
 3578 123e 0B44     		add	r3, r3, r1
 3579 1240 1833     		adds	r3, r3, #24
 3580 1242 0022     		movs	r2, #0
 3581 1244 1A81     		strh	r2, [r3, #8]	@ movhi
 730:build/openmote-cc2538_armgcc/openstack/02b-MAChigh/neighbors.c ****    neighbors_vars.neighbors[neighborIndex].asn.bytes2and3            = 0;
 3582              		.loc 1 730 0
 3583 1246 FA79     		ldrb	r2, [r7, #7]	@ zero_extendqisi2
 3584 1248 1F49     		ldr	r1, .L232
 3585 124a 1346     		mov	r3, r2
 3586 124c 9B00     		lsls	r3, r3, #2
 3587 124e 1344     		add	r3, r3, r2
 3588 1250 DB00     		lsls	r3, r3, #3
 3589 1252 0B44     		add	r3, r3, r1
 3590 1254 1833     		adds	r3, r3, #24
 3591 1256 0022     		movs	r2, #0
 3592 1258 DA80     		strh	r2, [r3, #6]	@ movhi
 731:build/openmote-cc2538_armgcc/openstack/02b-MAChigh/neighbors.c ****    neighbors_vars.neighbors[neighborIndex].asn.byte4                 = 0;
 3593              		.loc 1 731 0
 3594 125a FA79     		ldrb	r2, [r7, #7]	@ zero_extendqisi2
 3595 125c 1A49     		ldr	r1, .L232
 3596 125e 1346     		mov	r3, r2
 3597 1260 9B00     		lsls	r3, r3, #2
 3598 1262 1344     		add	r3, r3, r2
 3599 1264 DB00     		lsls	r3, r3, #3
 3600 1266 0B44     		add	r3, r3, r1
 3601 1268 1833     		adds	r3, r3, #24
 3602 126a 0022     		movs	r2, #0
 3603 126c 5A71     		strb	r2, [r3, #5]
 732:build/openmote-cc2538_armgcc/openstack/02b-MAChigh/neighbors.c ****    neighbors_vars.neighbors[neighborIndex].f6PNORES                  = FALSE;
 3604              		.loc 1 732 0
 3605 126e FA79     		ldrb	r2, [r7, #7]	@ zero_extendqisi2
 3606 1270 1549     		ldr	r1, .L232
 3607 1272 1346     		mov	r3, r2
 3608 1274 9B00     		lsls	r3, r3, #2
 3609 1276 1344     		add	r3, r3, r2
 3610 1278 DB00     		lsls	r3, r3, #3
 3611 127a 0B44     		add	r3, r3, r1
 3612 127c 2033     		adds	r3, r3, #32
 3613 127e 0022     		movs	r2, #0
 3614 1280 DA70     		strb	r2, [r3, #3]
 733:build/openmote-cc2538_armgcc/openstack/02b-MAChigh/neighbors.c ****    neighbors_vars.neighbors[neighborIndex].sequenceNumber            = 0;
 3615              		.loc 1 733 0
 3616 1282 FA79     		ldrb	r2, [r7, #7]	@ zero_extendqisi2
 3617 1284 1049     		ldr	r1, .L232
 3618 1286 1346     		mov	r3, r2
 3619 1288 9B00     		lsls	r3, r3, #2
 3620 128a 1344     		add	r3, r3, r2
 3621 128c DB00     		lsls	r3, r3, #3
 3622 128e 0B44     		add	r3, r3, r1
 3623 1290 2033     		adds	r3, r3, #32
 3624 1292 0022     		movs	r2, #0
 3625 1294 5A71     		strb	r2, [r3, #5]
 734:build/openmote-cc2538_armgcc/openstack/02b-MAChigh/neighbors.c ****    neighbors_vars.neighbors[neighborIndex].backoffExponenton         = MINBE-1;;
 3626              		.loc 1 734 0
 3627 1296 FA79     		ldrb	r2, [r7, #7]	@ zero_extendqisi2
 3628 1298 0B49     		ldr	r1, .L232
 3629 129a 1346     		mov	r3, r2
 3630 129c 9B00     		lsls	r3, r3, #2
 3631 129e 1344     		add	r3, r3, r2
 3632 12a0 DB00     		lsls	r3, r3, #3
 3633 12a2 0B44     		add	r3, r3, r1
 3634 12a4 2033     		adds	r3, r3, #32
 3635 12a6 0122     		movs	r2, #1
 3636 12a8 9A71     		strb	r2, [r3, #6]
 735:build/openmote-cc2538_armgcc/openstack/02b-MAChigh/neighbors.c ****    neighbors_vars.neighbors[neighborIndex].backoff                   = 0;
 3637              		.loc 1 735 0
 3638 12aa FA79     		ldrb	r2, [r7, #7]	@ zero_extendqisi2
 3639 12ac 0649     		ldr	r1, .L232
 3640 12ae 1346     		mov	r3, r2
 3641 12b0 9B00     		lsls	r3, r3, #2
 3642 12b2 1344     		add	r3, r3, r2
 3643 12b4 DB00     		lsls	r3, r3, #3
 3644 12b6 0B44     		add	r3, r3, r1
 3645 12b8 2033     		adds	r3, r3, #32
 3646 12ba 0022     		movs	r2, #0
 3647 12bc DA71     		strb	r2, [r3, #7]
 736:build/openmote-cc2538_armgcc/openstack/02b-MAChigh/neighbors.c **** }
 3648              		.loc 1 736 0
 3649 12be 0C37     		adds	r7, r7, #12
 3650              		.cfi_def_cfa_offset 4
 3651 12c0 BD46     		mov	sp, r7
 3652              		.cfi_def_cfa_register 13
 3653              		@ sp needed
 3654 12c2 5DF8047B 		ldr	r7, [sp], #4
 3655              		.cfi_restore 7
 3656              		.cfi_def_cfa_offset 0
 3657 12c6 7047     		bx	lr
 3658              	.L233:
 3659              		.align	2
 3660              	.L232:
 3661 12c8 00000000 		.word	neighbors_vars
 3662              		.cfi_endproc
 3663              	.LFE32:
 3665              		.align	2
 3666              		.global	isThisRowMatching
 3667              		.thumb
 3668              		.thumb_func
 3670              	isThisRowMatching:
 3671              	.LFB33:
 737:build/openmote-cc2538_armgcc/openstack/02b-MAChigh/neighbors.c **** 
 738:build/openmote-cc2538_armgcc/openstack/02b-MAChigh/neighbors.c **** //=========================== helpers =========================================
 739:build/openmote-cc2538_armgcc/openstack/02b-MAChigh/neighbors.c **** 
 740:build/openmote-cc2538_armgcc/openstack/02b-MAChigh/neighbors.c **** bool isThisRowMatching(open_addr_t* address, uint8_t rowNumber) {
 3672              		.loc 1 740 0
 3673              		.cfi_startproc
 3674              		@ args = 0, pretend = 0, frame = 8
 3675              		@ frame_needed = 1, uses_anonymous_args = 0
 3676 12cc 80B5     		push	{r7, lr}
 3677              		.cfi_def_cfa_offset 8
 3678              		.cfi_offset 7, -8
 3679              		.cfi_offset 14, -4
 3680 12ce 82B0     		sub	sp, sp, #8
 3681              		.cfi_def_cfa_offset 16
 3682 12d0 00AF     		add	r7, sp, #0
 3683              		.cfi_def_cfa_register 7
 3684 12d2 7860     		str	r0, [r7, #4]
 3685 12d4 0B46     		mov	r3, r1
 3686 12d6 FB70     		strb	r3, [r7, #3]
 741:build/openmote-cc2538_armgcc/openstack/02b-MAChigh/neighbors.c ****    switch (address->type) {
 3687              		.loc 1 741 0
 3688 12d8 7B68     		ldr	r3, [r7, #4]
 3689 12da 1B78     		ldrb	r3, [r3]	@ zero_extendqisi2
 3690 12dc 022B     		cmp	r3, #2
 3691 12de 1FD1     		bne	.L240
 742:build/openmote-cc2538_armgcc/openstack/02b-MAChigh/neighbors.c ****       case ADDR_64B:
 743:build/openmote-cc2538_armgcc/openstack/02b-MAChigh/neighbors.c ****          return neighbors_vars.neighbors[rowNumber].used &&
 3692              		.loc 1 743 0
 3693 12e0 FA78     		ldrb	r2, [r7, #3]	@ zero_extendqisi2
 3694 12e2 1649     		ldr	r1, .L241
 3695 12e4 1346     		mov	r3, r2
 3696 12e6 9B00     		lsls	r3, r3, #2
 3697 12e8 1344     		add	r3, r3, r2
 3698 12ea DB00     		lsls	r3, r3, #3
 3699 12ec 0B44     		add	r3, r3, r1
 3700 12ee 1B78     		ldrb	r3, [r3]	@ zero_extendqisi2
 3701 12f0 002B     		cmp	r3, #0
 3702 12f2 10D0     		beq	.L237
 744:build/openmote-cc2538_armgcc/openstack/02b-MAChigh/neighbors.c ****                 packetfunctions_sameAddress(address,&neighbors_vars.neighbors[rowNumber].addr_64b);
 3703              		.loc 1 744 0 discriminator 1
 3704 12f4 FA78     		ldrb	r2, [r7, #3]	@ zero_extendqisi2
 3705 12f6 1346     		mov	r3, r2
 3706 12f8 9B00     		lsls	r3, r3, #2
 3707 12fa 1344     		add	r3, r3, r2
 3708 12fc DB00     		lsls	r3, r3, #3
 3709 12fe 0F4A     		ldr	r2, .L241
 3710 1300 1344     		add	r3, r3, r2
 3711 1302 0533     		adds	r3, r3, #5
 3712 1304 7868     		ldr	r0, [r7, #4]
 3713 1306 1946     		mov	r1, r3
 3714 1308 FFF7FEFF 		bl	packetfunctions_sameAddress
 3715 130c 0346     		mov	r3, r0
 743:build/openmote-cc2538_armgcc/openstack/02b-MAChigh/neighbors.c ****                 packetfunctions_sameAddress(address,&neighbors_vars.neighbors[rowNumber].addr_64b);
 3716              		.loc 1 743 0 discriminator 1
 3717 130e 002B     		cmp	r3, #0
 3718 1310 01D0     		beq	.L237
 743:build/openmote-cc2538_armgcc/openstack/02b-MAChigh/neighbors.c ****                 packetfunctions_sameAddress(address,&neighbors_vars.neighbors[rowNumber].addr_64b);
 3719              		.loc 1 743 0 is_stmt 0 discriminator 3
 3720 1312 0123     		movs	r3, #1
 3721 1314 00E0     		b	.L238
 3722              	.L237:
 743:build/openmote-cc2538_armgcc/openstack/02b-MAChigh/neighbors.c ****                 packetfunctions_sameAddress(address,&neighbors_vars.neighbors[rowNumber].addr_64b);
 3723              		.loc 1 743 0 discriminator 4
 3724 1316 0023     		movs	r3, #0
 3725              	.L238:
 743:build/openmote-cc2538_armgcc/openstack/02b-MAChigh/neighbors.c ****                 packetfunctions_sameAddress(address,&neighbors_vars.neighbors[rowNumber].addr_64b);
 3726              		.loc 1 743 0 discriminator 6
 3727 1318 03F00103 		and	r3, r3, #1
 3728 131c DBB2     		uxtb	r3, r3
 3729 131e 09E0     		b	.L239
 3730              	.L240:
 745:build/openmote-cc2538_armgcc/openstack/02b-MAChigh/neighbors.c ****       default:
 746:build/openmote-cc2538_armgcc/openstack/02b-MAChigh/neighbors.c ****          openserial_printCritical(COMPONENT_NEIGHBORS,ERR_WRONG_ADDR_TYPE,
 747:build/openmote-cc2538_armgcc/openstack/02b-MAChigh/neighbors.c ****                                (errorparameter_t)address->type,
 3731              		.loc 1 747 0 is_stmt 1
 3732 1320 7B68     		ldr	r3, [r7, #4]
 3733 1322 1B78     		ldrb	r3, [r3]	@ zero_extendqisi2
 746:build/openmote-cc2538_armgcc/openstack/02b-MAChigh/neighbors.c ****                                (errorparameter_t)address->type,
 3734              		.loc 1 746 0
 3735 1324 9BB2     		uxth	r3, r3
 3736 1326 0D20     		movs	r0, #13
 3737 1328 3121     		movs	r1, #49
 3738 132a 1A46     		mov	r2, r3
 3739 132c 0323     		movs	r3, #3
 3740 132e FFF7FEFF 		bl	openserial_printCritical
 748:build/openmote-cc2538_armgcc/openstack/02b-MAChigh/neighbors.c ****                                (errorparameter_t)3);
 749:build/openmote-cc2538_armgcc/openstack/02b-MAChigh/neighbors.c ****          return FALSE;
 3741              		.loc 1 749 0
 3742 1332 0023     		movs	r3, #0
 3743              	.L239:
 750:build/openmote-cc2538_armgcc/openstack/02b-MAChigh/neighbors.c ****    }
 751:build/openmote-cc2538_armgcc/openstack/02b-MAChigh/neighbors.c **** }
 3744              		.loc 1 751 0
 3745 1334 1846     		mov	r0, r3
 3746 1336 0837     		adds	r7, r7, #8
 3747              		.cfi_def_cfa_offset 8
 3748 1338 BD46     		mov	sp, r7
 3749              		.cfi_def_cfa_register 13
 3750              		@ sp needed
 3751 133a 80BD     		pop	{r7, pc}
 3752              	.L242:
 3753              		.align	2
 3754              	.L241:
 3755 133c 00000000 		.word	neighbors_vars
 3756              		.cfi_endproc
 3757              	.LFE33:
 3759              	.Letext0:
 3760              		.file 2 "/usr/include/newlib/machine/_default_types.h"
 3761              		.file 3 "/usr/include/newlib/sys/_stdint.h"
 3762              		.file 4 "inc/opendefs.h"
 3763              		.file 5 "build/openmote-cc2538_armgcc/openstack/02b-MAChigh/neighbors.h"
 3764              		.file 6 "bsp/boards/openmote-cc2538/board_info.h"
 3765              		.file 7 "openstack/03b-IPv6/icmpv6rpl.h"
 3766              		.file 8 "openstack/cross-layers/idmanager.h"
 3767              		.file 9 "openstack/02a-MAClow/IEEE802154E.h"