   1              		.syntax unified
   2              		.cpu cortex-m3
   3              		.fpu softvfp
   4              		.eabi_attribute 20, 1
   5              		.eabi_attribute 21, 1
   6              		.eabi_attribute 23, 3
   7              		.eabi_attribute 24, 1
   8              		.eabi_attribute 25, 1
   9              		.eabi_attribute 26, 1
  10              		.eabi_attribute 30, 6
  11              		.eabi_attribute 34, 1
  12              		.eabi_attribute 18, 4
  13              		.thumb
  14              		.file	"schedule.c"
  15              		.text
  16              	.Ltext0:
  17              		.cfi_sections	.debug_frame
  18              		.section	.rodata
  19              		.align	2
  22              	rreg_uriquery:
  23 0000 683D7563 		.ascii	"h=ucb\000"
  23      6200
  24 0006 0000     		.align	2
  27              	infoBoardname:
  28 0008 43433235 		.ascii	"CC2538\000"
  28      333800
  29 000f 00       		.align	2
  32              	infouCName:
  33 0010 43433235 		.ascii	"CC2538\000"
  33      333800
  34 0017 00       		.align	2
  37              	infoRadioName:
  38 0018 43433235 		.ascii	"CC2538 SoC\000"
  38      33382053 
  38      6F4300
  39 0023 00       		.align	2
  42              	infoStackName:
  43 0024 4F70656E 		.ascii	"OpenWSN \000"
  43      57534E20 
  43      00
  44 002d 000000   		.align	2
  47              	linklocalprefix:
  48 0030 FE       		.byte	-2
  49 0031 80       		.byte	-128
  50 0032 00       		.byte	0
  51 0033 00       		.byte	0
  52 0034 00       		.byte	0
  53 0035 00       		.byte	0
  54 0036 00       		.byte	0
  55 0037 00       		.byte	0
  56              		.align	2
  59              	chTemplate_default:
  60 0038 05       		.byte	5
  61 0039 06       		.byte	6
  62 003a 0C       		.byte	12
  63 003b 07       		.byte	7
  64 003c 0F       		.byte	15
  65 003d 04       		.byte	4
  66 003e 0E       		.byte	14
  67 003f 0B       		.byte	11
  68 0040 08       		.byte	8
  69 0041 00       		.byte	0
  70 0042 01       		.byte	1
  71 0043 02       		.byte	2
  72 0044 0D       		.byte	13
  73 0045 03       		.byte	3
  74 0046 09       		.byte	9
  75 0047 0A       		.byte	10
  76              		.align	2
  79              	ebIEsBytestream:
  80 0048 1A       		.byte	26
  81 0049 88       		.byte	-120
  82 004a 06       		.byte	6
  83 004b 1A       		.byte	26
  84 004c 00       		.byte	0
  85 004d 00       		.byte	0
  86 004e 00       		.byte	0
  87 004f 00       		.byte	0
  88 0050 00       		.byte	0
  89 0051 00       		.byte	0
  90 0052 01       		.byte	1
  91 0053 1C       		.byte	28
  92 0054 00       		.byte	0
  93 0055 01       		.byte	1
  94 0056 C8       		.byte	-56
  95 0057 00       		.byte	0
  96 0058 0A       		.byte	10
  97 0059 1B       		.byte	27
  98 005a 01       		.byte	1
  99 005b 00       		.byte	0
 100 005c 65       		.byte	101
 101 005d 00       		.byte	0
 102 005e 01       		.byte	1
 103 005f 00       		.byte	0
 104 0060 00       		.byte	0
 105 0061 00       		.byte	0
 106 0062 00       		.byte	0
 107 0063 0F       		.byte	15
 108              		.align	2
 111              	all_routers_multicast:
 112 0064 FF       		.byte	-1
 113 0065 02       		.byte	2
 114 0066 00       		.byte	0
 115 0067 00       		.byte	0
 116 0068 00       		.byte	0
 117 0069 00       		.byte	0
 118 006a 00       		.byte	0
 119 006b 00       		.byte	0
 120 006c 00       		.byte	0
 121 006d 00       		.byte	0
 122 006e 00       		.byte	0
 123 006f 00       		.byte	0
 124 0070 00       		.byte	0
 125 0071 00       		.byte	0
 126 0072 00       		.byte	0
 127 0073 1A       		.byte	26
 128              		.comm	schedule_vars,520,4
 129              		.text
 130              		.align	2
 131              		.global	schedule_init
 132              		.thumb
 133              		.thumb_func
 135              	schedule_init:
 136              	.LFB0:
 137              		.file 1 "build/openmote-cc2538_armgcc/openstack/02b-MAChigh/schedule.c"
   1:build/openmote-cc2538_armgcc/openstack/02b-MAChigh/schedule.c **** #include "opendefs.h"
   2:build/openmote-cc2538_armgcc/openstack/02b-MAChigh/schedule.c **** #include "schedule.h"
   3:build/openmote-cc2538_armgcc/openstack/02b-MAChigh/schedule.c **** #include "openserial.h"
   4:build/openmote-cc2538_armgcc/openstack/02b-MAChigh/schedule.c **** #include "openrandom.h"
   5:build/openmote-cc2538_armgcc/openstack/02b-MAChigh/schedule.c **** #include "packetfunctions.h"
   6:build/openmote-cc2538_armgcc/openstack/02b-MAChigh/schedule.c **** #include "sixtop.h"
   7:build/openmote-cc2538_armgcc/openstack/02b-MAChigh/schedule.c **** #include "idmanager.h"
   8:build/openmote-cc2538_armgcc/openstack/02b-MAChigh/schedule.c **** #include "msf.h"
   9:build/openmote-cc2538_armgcc/openstack/02b-MAChigh/schedule.c **** #include "IEEE802154E.h"
  10:build/openmote-cc2538_armgcc/openstack/02b-MAChigh/schedule.c **** #include "icmpv6rpl.h"
  11:build/openmote-cc2538_armgcc/openstack/02b-MAChigh/schedule.c **** #include "neighbors.h"
  12:build/openmote-cc2538_armgcc/openstack/02b-MAChigh/schedule.c **** 
  13:build/openmote-cc2538_armgcc/openstack/02b-MAChigh/schedule.c **** //=========================== definition ======================================
  14:build/openmote-cc2538_armgcc/openstack/02b-MAChigh/schedule.c **** 
  15:build/openmote-cc2538_armgcc/openstack/02b-MAChigh/schedule.c **** //=========================== variables =======================================
  16:build/openmote-cc2538_armgcc/openstack/02b-MAChigh/schedule.c **** 
  17:build/openmote-cc2538_armgcc/openstack/02b-MAChigh/schedule.c **** schedule_vars_t schedule_vars;
  18:build/openmote-cc2538_armgcc/openstack/02b-MAChigh/schedule.c **** 
  19:build/openmote-cc2538_armgcc/openstack/02b-MAChigh/schedule.c **** //=========================== prototypes ======================================
  20:build/openmote-cc2538_armgcc/openstack/02b-MAChigh/schedule.c **** 
  21:build/openmote-cc2538_armgcc/openstack/02b-MAChigh/schedule.c **** void schedule_resetEntry(scheduleEntry_t* pScheduleEntry);
  22:build/openmote-cc2538_armgcc/openstack/02b-MAChigh/schedule.c **** 
  23:build/openmote-cc2538_armgcc/openstack/02b-MAChigh/schedule.c **** //=========================== public ==========================================
  24:build/openmote-cc2538_armgcc/openstack/02b-MAChigh/schedule.c **** 
  25:build/openmote-cc2538_armgcc/openstack/02b-MAChigh/schedule.c **** //=== admin
  26:build/openmote-cc2538_armgcc/openstack/02b-MAChigh/schedule.c **** 
  27:build/openmote-cc2538_armgcc/openstack/02b-MAChigh/schedule.c **** /**
  28:build/openmote-cc2538_armgcc/openstack/02b-MAChigh/schedule.c **** \brief Initialize this module.
  29:build/openmote-cc2538_armgcc/openstack/02b-MAChigh/schedule.c **** 
  30:build/openmote-cc2538_armgcc/openstack/02b-MAChigh/schedule.c **** \post Call this function before calling any other function in this module.
  31:build/openmote-cc2538_armgcc/openstack/02b-MAChigh/schedule.c **** */
  32:build/openmote-cc2538_armgcc/openstack/02b-MAChigh/schedule.c **** void schedule_init(void) {
 138              		.loc 1 32 0
 139              		.cfi_startproc
 140              		@ args = 0, pretend = 0, frame = 24
 141              		@ frame_needed = 1, uses_anonymous_args = 0
 142 0000 80B5     		push	{r7, lr}
 143              		.cfi_def_cfa_offset 8
 144              		.cfi_offset 7, -8
 145              		.cfi_offset 14, -4
 146 0002 88B0     		sub	sp, sp, #32
 147              		.cfi_def_cfa_offset 40
 148 0004 02AF     		add	r7, sp, #8
 149              		.cfi_def_cfa 7, 32
  33:build/openmote-cc2538_armgcc/openstack/02b-MAChigh/schedule.c ****     slotOffset_t    start_slotOffset;
  34:build/openmote-cc2538_armgcc/openstack/02b-MAChigh/schedule.c ****     slotOffset_t    running_slotOffset;
  35:build/openmote-cc2538_armgcc/openstack/02b-MAChigh/schedule.c ****     open_addr_t     temp_neighbor;
  36:build/openmote-cc2538_armgcc/openstack/02b-MAChigh/schedule.c **** 
  37:build/openmote-cc2538_armgcc/openstack/02b-MAChigh/schedule.c ****     // reset local variables
  38:build/openmote-cc2538_armgcc/openstack/02b-MAChigh/schedule.c ****     memset(&schedule_vars,0,sizeof(schedule_vars_t));
 150              		.loc 1 38 0
 151 0006 2548     		ldr	r0, .L7
 152 0008 0021     		movs	r1, #0
 153 000a 4FF40272 		mov	r2, #520
 154 000e FFF7FEFF 		bl	memset
  39:build/openmote-cc2538_armgcc/openstack/02b-MAChigh/schedule.c ****     for (running_slotOffset=0;running_slotOffset<MAXACTIVESLOTS;running_slotOffset++) {
 155              		.loc 1 39 0
 156 0012 0023     		movs	r3, #0
 157 0014 FB82     		strh	r3, [r7, #22]	@ movhi
 158 0016 0CE0     		b	.L2
 159              	.L3:
  40:build/openmote-cc2538_armgcc/openstack/02b-MAChigh/schedule.c ****         schedule_resetEntry(&schedule_vars.scheduleBuf[running_slotOffset]);
 160              		.loc 1 40 0 discriminator 3
 161 0018 FA8A     		ldrh	r2, [r7, #22]
 162 001a 1346     		mov	r3, r2
 163 001c DB00     		lsls	r3, r3, #3
 164 001e 1344     		add	r3, r3, r2
 165 0020 9B00     		lsls	r3, r3, #2
 166 0022 1E4A     		ldr	r2, .L7
 167 0024 1344     		add	r3, r3, r2
 168 0026 1846     		mov	r0, r3
 169 0028 FFF7FEFF 		bl	schedule_resetEntry
  39:build/openmote-cc2538_armgcc/openstack/02b-MAChigh/schedule.c ****     for (running_slotOffset=0;running_slotOffset<MAXACTIVESLOTS;running_slotOffset++) {
 170              		.loc 1 39 0 discriminator 3
 171 002c FB8A     		ldrh	r3, [r7, #22]
 172 002e 0133     		adds	r3, r3, #1
 173 0030 FB82     		strh	r3, [r7, #22]	@ movhi
 174              	.L2:
  39:build/openmote-cc2538_armgcc/openstack/02b-MAChigh/schedule.c ****     for (running_slotOffset=0;running_slotOffset<MAXACTIVESLOTS;running_slotOffset++) {
 175              		.loc 1 39 0 is_stmt 0 discriminator 1
 176 0032 FB8A     		ldrh	r3, [r7, #22]
 177 0034 0D2B     		cmp	r3, #13
 178 0036 EFD9     		bls	.L3
  41:build/openmote-cc2538_armgcc/openstack/02b-MAChigh/schedule.c ****     }
  42:build/openmote-cc2538_armgcc/openstack/02b-MAChigh/schedule.c ****     schedule_vars.backoffExponenton   = MINBE-1;
 179              		.loc 1 42 0 is_stmt 1
 180 0038 184B     		ldr	r3, .L7
 181 003a 0122     		movs	r2, #1
 182 003c 83F80222 		strb	r2, [r3, #514]
  43:build/openmote-cc2538_armgcc/openstack/02b-MAChigh/schedule.c ****     schedule_vars.maxActiveSlots = MAXACTIVESLOTS;
 183              		.loc 1 43 0
 184 0040 164B     		ldr	r3, .L7
 185 0042 0E22     		movs	r2, #14
 186 0044 A3F8FE21 		strh	r2, [r3, #510]	@ movhi
  44:build/openmote-cc2538_armgcc/openstack/02b-MAChigh/schedule.c ****     
  45:build/openmote-cc2538_armgcc/openstack/02b-MAChigh/schedule.c ****     start_slotOffset = SCHEDULE_MINIMAL_6TISCH_SLOTOFFSET;
 187              		.loc 1 45 0
 188 0048 0023     		movs	r3, #0
 189 004a BB82     		strh	r3, [r7, #20]	@ movhi
  46:build/openmote-cc2538_armgcc/openstack/02b-MAChigh/schedule.c ****     if (idmanager_getIsDAGroot()==TRUE) {
 190              		.loc 1 46 0
 191 004c FFF7FEFF 		bl	idmanager_getIsDAGroot
 192 0050 0346     		mov	r3, r0
 193 0052 002B     		cmp	r3, #0
 194 0054 01D0     		beq	.L4
  47:build/openmote-cc2538_armgcc/openstack/02b-MAChigh/schedule.c ****         schedule_startDAGroot();
 195              		.loc 1 47 0
 196 0056 FFF7FEFF 		bl	schedule_startDAGroot
 197              	.L4:
  48:build/openmote-cc2538_armgcc/openstack/02b-MAChigh/schedule.c ****     }
  49:build/openmote-cc2538_armgcc/openstack/02b-MAChigh/schedule.c ****     
  50:build/openmote-cc2538_armgcc/openstack/02b-MAChigh/schedule.c ****     // serial RX slot(s)
  51:build/openmote-cc2538_armgcc/openstack/02b-MAChigh/schedule.c ****     start_slotOffset += SCHEDULE_MINIMAL_6TISCH_ACTIVE_CELLS;
 198              		.loc 1 51 0
 199 005a BB8A     		ldrh	r3, [r7, #20]	@ movhi
 200 005c 0133     		adds	r3, r3, #1
 201 005e BB82     		strh	r3, [r7, #20]	@ movhi
  52:build/openmote-cc2538_armgcc/openstack/02b-MAChigh/schedule.c ****     memset(&temp_neighbor,0,sizeof(temp_neighbor));
 202              		.loc 1 52 0
 203 0060 3B46     		mov	r3, r7
 204 0062 1846     		mov	r0, r3
 205 0064 0021     		movs	r1, #0
 206 0066 1122     		movs	r2, #17
 207 0068 FFF7FEFF 		bl	memset
  53:build/openmote-cc2538_armgcc/openstack/02b-MAChigh/schedule.c ****     for (running_slotOffset=start_slotOffset;running_slotOffset<start_slotOffset+NUMSERIALRX;runnin
 208              		.loc 1 53 0
 209 006c BB8A     		ldrh	r3, [r7, #20]	@ movhi
 210 006e FB82     		strh	r3, [r7, #22]	@ movhi
 211 0070 0BE0     		b	.L5
 212              	.L6:
  54:build/openmote-cc2538_armgcc/openstack/02b-MAChigh/schedule.c ****         schedule_addActiveSlot(
 213              		.loc 1 54 0 discriminator 3
 214 0072 FA8A     		ldrh	r2, [r7, #22]
 215 0074 3B46     		mov	r3, r7
 216 0076 0093     		str	r3, [sp]
 217 0078 1046     		mov	r0, r2
 218 007a 0421     		movs	r1, #4
 219 007c 0022     		movs	r2, #0
 220 007e 0023     		movs	r3, #0
 221 0080 FFF7FEFF 		bl	schedule_addActiveSlot
  53:build/openmote-cc2538_armgcc/openstack/02b-MAChigh/schedule.c ****     for (running_slotOffset=start_slotOffset;running_slotOffset<start_slotOffset+NUMSERIALRX;runnin
 222              		.loc 1 53 0 discriminator 3
 223 0084 FB8A     		ldrh	r3, [r7, #22]
 224 0086 0133     		adds	r3, r3, #1
 225 0088 FB82     		strh	r3, [r7, #22]	@ movhi
 226              	.L5:
  53:build/openmote-cc2538_armgcc/openstack/02b-MAChigh/schedule.c ****     for (running_slotOffset=start_slotOffset;running_slotOffset<start_slotOffset+NUMSERIALRX;runnin
 227              		.loc 1 53 0 is_stmt 0 discriminator 1
 228 008a FA8A     		ldrh	r2, [r7, #22]
 229 008c BB8A     		ldrh	r3, [r7, #20]
 230 008e 0333     		adds	r3, r3, #3
 231 0090 9A42     		cmp	r2, r3
 232 0092 EEDB     		blt	.L6
  55:build/openmote-cc2538_armgcc/openstack/02b-MAChigh/schedule.c ****             running_slotOffset,                    // slot offset
  56:build/openmote-cc2538_armgcc/openstack/02b-MAChigh/schedule.c ****             CELLTYPE_SERIALRX,                     // type of slot
  57:build/openmote-cc2538_armgcc/openstack/02b-MAChigh/schedule.c ****             FALSE,                                 // shared?
  58:build/openmote-cc2538_armgcc/openstack/02b-MAChigh/schedule.c ****             0,                                     // channel offset
  59:build/openmote-cc2538_armgcc/openstack/02b-MAChigh/schedule.c ****             &temp_neighbor                         // neighbor
  60:build/openmote-cc2538_armgcc/openstack/02b-MAChigh/schedule.c ****         );
  61:build/openmote-cc2538_armgcc/openstack/02b-MAChigh/schedule.c ****     }
  62:build/openmote-cc2538_armgcc/openstack/02b-MAChigh/schedule.c **** }
 233              		.loc 1 62 0 is_stmt 1
 234 0094 1837     		adds	r7, r7, #24
 235              		.cfi_def_cfa_offset 8
 236 0096 BD46     		mov	sp, r7
 237              		.cfi_def_cfa_register 13
 238              		@ sp needed
 239 0098 80BD     		pop	{r7, pc}
 240              	.L8:
 241 009a 00BF     		.align	2
 242              	.L7:
 243 009c 00000000 		.word	schedule_vars
 244              		.cfi_endproc
 245              	.LFE0:
 247              		.align	2
 248              		.global	schedule_startDAGroot
 249              		.thumb
 250              		.thumb_func
 252              	schedule_startDAGroot:
 253              	.LFB1:
  63:build/openmote-cc2538_armgcc/openstack/02b-MAChigh/schedule.c **** 
  64:build/openmote-cc2538_armgcc/openstack/02b-MAChigh/schedule.c **** /**
  65:build/openmote-cc2538_armgcc/openstack/02b-MAChigh/schedule.c **** \brief Starting the DAGroot schedule propagation.
  66:build/openmote-cc2538_armgcc/openstack/02b-MAChigh/schedule.c **** */
  67:build/openmote-cc2538_armgcc/openstack/02b-MAChigh/schedule.c **** void schedule_startDAGroot(void) {
 254              		.loc 1 67 0
 255              		.cfi_startproc
 256              		@ args = 0, pretend = 0, frame = 24
 257              		@ frame_needed = 1, uses_anonymous_args = 0
 258 00a0 80B5     		push	{r7, lr}
 259              		.cfi_def_cfa_offset 8
 260              		.cfi_offset 7, -8
 261              		.cfi_offset 14, -4
 262 00a2 88B0     		sub	sp, sp, #32
 263              		.cfi_def_cfa_offset 40
 264 00a4 02AF     		add	r7, sp, #8
 265              		.cfi_def_cfa 7, 32
  68:build/openmote-cc2538_armgcc/openstack/02b-MAChigh/schedule.c ****    slotOffset_t    start_slotOffset;
  69:build/openmote-cc2538_armgcc/openstack/02b-MAChigh/schedule.c ****    slotOffset_t    running_slotOffset;
  70:build/openmote-cc2538_armgcc/openstack/02b-MAChigh/schedule.c ****    open_addr_t     temp_neighbor;
  71:build/openmote-cc2538_armgcc/openstack/02b-MAChigh/schedule.c ****    
  72:build/openmote-cc2538_armgcc/openstack/02b-MAChigh/schedule.c ****    start_slotOffset = SCHEDULE_MINIMAL_6TISCH_SLOTOFFSET;
 266              		.loc 1 72 0
 267 00a6 0023     		movs	r3, #0
 268 00a8 BB82     		strh	r3, [r7, #20]	@ movhi
  73:build/openmote-cc2538_armgcc/openstack/02b-MAChigh/schedule.c ****    // set frame length, handle and number (default 1 by now)
  74:build/openmote-cc2538_armgcc/openstack/02b-MAChigh/schedule.c ****    if (schedule_vars.frameLength == 0) {
 269              		.loc 1 74 0
 270 00aa 164B     		ldr	r3, .L13
 271 00ac B3F8FC31 		ldrh	r3, [r3, #508]
 272 00b0 002B     		cmp	r3, #0
 273 00b2 02D1     		bne	.L10
  75:build/openmote-cc2538_armgcc/openstack/02b-MAChigh/schedule.c ****        // slotframe length is not set, set it to default length
  76:build/openmote-cc2538_armgcc/openstack/02b-MAChigh/schedule.c ****        schedule_setFrameLength(SLOTFRAME_LENGTH);
 274              		.loc 1 76 0
 275 00b4 6520     		movs	r0, #101
 276 00b6 FFF7FEFF 		bl	schedule_setFrameLength
 277              	.L10:
  77:build/openmote-cc2538_armgcc/openstack/02b-MAChigh/schedule.c ****    } else {
  78:build/openmote-cc2538_armgcc/openstack/02b-MAChigh/schedule.c ****        // slotframe elgnth is set, nothing to do here
  79:build/openmote-cc2538_armgcc/openstack/02b-MAChigh/schedule.c ****    }
  80:build/openmote-cc2538_armgcc/openstack/02b-MAChigh/schedule.c ****    schedule_setFrameHandle(SCHEDULE_MINIMAL_6TISCH_DEFAULT_SLOTFRAME_HANDLE);
 278              		.loc 1 80 0
 279 00ba 0020     		movs	r0, #0
 280 00bc FFF7FEFF 		bl	schedule_setFrameHandle
  81:build/openmote-cc2538_armgcc/openstack/02b-MAChigh/schedule.c ****    schedule_setFrameNumber(SCHEDULE_MINIMAL_6TISCH_DEFAULT_SLOTFRAME_NUMBER);
 281              		.loc 1 81 0
 282 00c0 0120     		movs	r0, #1
 283 00c2 FFF7FEFF 		bl	schedule_setFrameNumber
  82:build/openmote-cc2538_armgcc/openstack/02b-MAChigh/schedule.c **** 
  83:build/openmote-cc2538_armgcc/openstack/02b-MAChigh/schedule.c ****    // shared TXRX anycast slot(s)
  84:build/openmote-cc2538_armgcc/openstack/02b-MAChigh/schedule.c ****    memset(&temp_neighbor,0,sizeof(temp_neighbor));
 284              		.loc 1 84 0
 285 00c6 3B46     		mov	r3, r7
 286 00c8 1846     		mov	r0, r3
 287 00ca 0021     		movs	r1, #0
 288 00cc 1122     		movs	r2, #17
 289 00ce FFF7FEFF 		bl	memset
  85:build/openmote-cc2538_armgcc/openstack/02b-MAChigh/schedule.c ****    temp_neighbor.type             = ADDR_ANYCAST;
 290              		.loc 1 85 0
 291 00d2 0623     		movs	r3, #6
 292 00d4 3B70     		strb	r3, [r7]
  86:build/openmote-cc2538_armgcc/openstack/02b-MAChigh/schedule.c ****    for (running_slotOffset=start_slotOffset;running_slotOffset<start_slotOffset+SCHEDULE_MINIMAL_6T
 293              		.loc 1 86 0
 294 00d6 BB8A     		ldrh	r3, [r7, #20]	@ movhi
 295 00d8 FB82     		strh	r3, [r7, #22]	@ movhi
 296 00da 0BE0     		b	.L11
 297              	.L12:
  87:build/openmote-cc2538_armgcc/openstack/02b-MAChigh/schedule.c ****       schedule_addActiveSlot(
 298              		.loc 1 87 0 discriminator 3
 299 00dc FA8A     		ldrh	r2, [r7, #22]
 300 00de 3B46     		mov	r3, r7
 301 00e0 0093     		str	r3, [sp]
 302 00e2 1046     		mov	r0, r2
 303 00e4 0321     		movs	r1, #3
 304 00e6 0122     		movs	r2, #1
 305 00e8 0023     		movs	r3, #0
 306 00ea FFF7FEFF 		bl	schedule_addActiveSlot
  86:build/openmote-cc2538_armgcc/openstack/02b-MAChigh/schedule.c ****    for (running_slotOffset=start_slotOffset;running_slotOffset<start_slotOffset+SCHEDULE_MINIMAL_6T
 307              		.loc 1 86 0 discriminator 3
 308 00ee FB8A     		ldrh	r3, [r7, #22]
 309 00f0 0133     		adds	r3, r3, #1
 310 00f2 FB82     		strh	r3, [r7, #22]	@ movhi
 311              	.L11:
  86:build/openmote-cc2538_armgcc/openstack/02b-MAChigh/schedule.c ****    for (running_slotOffset=start_slotOffset;running_slotOffset<start_slotOffset+SCHEDULE_MINIMAL_6T
 312              		.loc 1 86 0 is_stmt 0 discriminator 1
 313 00f4 FA8A     		ldrh	r2, [r7, #22]
 314 00f6 BB8A     		ldrh	r3, [r7, #20]
 315 00f8 0133     		adds	r3, r3, #1
 316 00fa 9A42     		cmp	r2, r3
 317 00fc EEDB     		blt	.L12
  88:build/openmote-cc2538_armgcc/openstack/02b-MAChigh/schedule.c ****          running_slotOffset,                 // slot offset
  89:build/openmote-cc2538_armgcc/openstack/02b-MAChigh/schedule.c ****          CELLTYPE_TXRX,                      // type of slot
  90:build/openmote-cc2538_armgcc/openstack/02b-MAChigh/schedule.c ****          TRUE,                               // shared?
  91:build/openmote-cc2538_armgcc/openstack/02b-MAChigh/schedule.c ****          SCHEDULE_MINIMAL_6TISCH_CHANNELOFFSET,    // channel offset
  92:build/openmote-cc2538_armgcc/openstack/02b-MAChigh/schedule.c ****          &temp_neighbor                      // neighbor
  93:build/openmote-cc2538_armgcc/openstack/02b-MAChigh/schedule.c ****       );
  94:build/openmote-cc2538_armgcc/openstack/02b-MAChigh/schedule.c ****    }
  95:build/openmote-cc2538_armgcc/openstack/02b-MAChigh/schedule.c **** }
 318              		.loc 1 95 0 is_stmt 1
 319 00fe 1837     		adds	r7, r7, #24
 320              		.cfi_def_cfa_offset 8
 321 0100 BD46     		mov	sp, r7
 322              		.cfi_def_cfa_register 13
 323              		@ sp needed
 324 0102 80BD     		pop	{r7, pc}
 325              	.L14:
 326              		.align	2
 327              	.L13:
 328 0104 00000000 		.word	schedule_vars
 329              		.cfi_endproc
 330              	.LFE1:
 332              		.align	2
 333              		.global	debugPrint_schedule
 334              		.thumb
 335              		.thumb_func
 337              	debugPrint_schedule:
 338              	.LFB2:
  96:build/openmote-cc2538_armgcc/openstack/02b-MAChigh/schedule.c **** 
  97:build/openmote-cc2538_armgcc/openstack/02b-MAChigh/schedule.c **** /**
  98:build/openmote-cc2538_armgcc/openstack/02b-MAChigh/schedule.c **** \brief Trigger this module to print status information, over serial.
  99:build/openmote-cc2538_armgcc/openstack/02b-MAChigh/schedule.c **** 
 100:build/openmote-cc2538_armgcc/openstack/02b-MAChigh/schedule.c **** debugPrint_* functions are used by the openserial module to continuously print
 101:build/openmote-cc2538_armgcc/openstack/02b-MAChigh/schedule.c **** status information about several modules in the OpenWSN stack.
 102:build/openmote-cc2538_armgcc/openstack/02b-MAChigh/schedule.c **** 
 103:build/openmote-cc2538_armgcc/openstack/02b-MAChigh/schedule.c **** \returns TRUE if this function printed something, FALSE otherwise.
 104:build/openmote-cc2538_armgcc/openstack/02b-MAChigh/schedule.c **** */
 105:build/openmote-cc2538_armgcc/openstack/02b-MAChigh/schedule.c **** bool debugPrint_schedule(void) {
 339              		.loc 1 105 0
 340              		.cfi_startproc
 341              		@ args = 0, pretend = 0, frame = 32
 342              		@ frame_needed = 1, uses_anonymous_args = 0
 343 0108 B0B5     		push	{r4, r5, r7, lr}
 344              		.cfi_def_cfa_offset 16
 345              		.cfi_offset 4, -16
 346              		.cfi_offset 5, -12
 347              		.cfi_offset 7, -8
 348              		.cfi_offset 14, -4
 349 010a 88B0     		sub	sp, sp, #32
 350              		.cfi_def_cfa_offset 48
 351 010c 00AF     		add	r7, sp, #0
 352              		.cfi_def_cfa_register 7
 106:build/openmote-cc2538_armgcc/openstack/02b-MAChigh/schedule.c ****    debugScheduleEntry_t temp;
 107:build/openmote-cc2538_armgcc/openstack/02b-MAChigh/schedule.c ****    
 108:build/openmote-cc2538_armgcc/openstack/02b-MAChigh/schedule.c ****    // increment the row just printed
 109:build/openmote-cc2538_armgcc/openstack/02b-MAChigh/schedule.c ****    schedule_vars.debugPrintRow         = (schedule_vars.debugPrintRow+1)%schedule_vars.maxActiveSlo
 353              		.loc 1 109 0
 354 010e 4F4B     		ldr	r3, .L17
 355 0110 93F80432 		ldrb	r3, [r3, #516]	@ zero_extendqisi2
 356 0114 0133     		adds	r3, r3, #1
 357 0116 4D4A     		ldr	r2, .L17
 358 0118 B2F8FE21 		ldrh	r2, [r2, #510]
 359 011c 93FBF2F1 		sdiv	r1, r3, r2
 360 0120 02FB01F2 		mul	r2, r2, r1
 361 0124 9B1A     		subs	r3, r3, r2
 362 0126 DAB2     		uxtb	r2, r3
 363 0128 484B     		ldr	r3, .L17
 364 012a 83F80422 		strb	r2, [r3, #516]
 110:build/openmote-cc2538_armgcc/openstack/02b-MAChigh/schedule.c ****    
 111:build/openmote-cc2538_armgcc/openstack/02b-MAChigh/schedule.c ****    // gather status data
 112:build/openmote-cc2538_armgcc/openstack/02b-MAChigh/schedule.c ****    temp.row                            = schedule_vars.debugPrintRow;
 365              		.loc 1 112 0
 366 012e 474B     		ldr	r3, .L17
 367 0130 93F80432 		ldrb	r3, [r3, #516]	@ zero_extendqisi2
 368 0134 3B70     		strb	r3, [r7]
 113:build/openmote-cc2538_armgcc/openstack/02b-MAChigh/schedule.c ****    temp.slotOffset                     = \
 114:build/openmote-cc2538_armgcc/openstack/02b-MAChigh/schedule.c ****       schedule_vars.scheduleBuf[schedule_vars.debugPrintRow].slotOffset;
 369              		.loc 1 114 0
 370 0136 454B     		ldr	r3, .L17
 371 0138 93F80432 		ldrb	r3, [r3, #516]	@ zero_extendqisi2
 372 013c 1946     		mov	r1, r3
 373 013e 434A     		ldr	r2, .L17
 374 0140 0B46     		mov	r3, r1
 375 0142 DB00     		lsls	r3, r3, #3
 376 0144 0B44     		add	r3, r3, r1
 377 0146 9B00     		lsls	r3, r3, #2
 378 0148 1344     		add	r3, r3, r2
 379 014a 1B88     		ldrh	r3, [r3]
 113:build/openmote-cc2538_armgcc/openstack/02b-MAChigh/schedule.c ****    temp.slotOffset                     = \
 380              		.loc 1 113 0
 381 014c A7F80130 		strh	r3, [r7, #1]	@ unaligned
 115:build/openmote-cc2538_armgcc/openstack/02b-MAChigh/schedule.c ****    temp.type                           = \
 116:build/openmote-cc2538_armgcc/openstack/02b-MAChigh/schedule.c ****       schedule_vars.scheduleBuf[schedule_vars.debugPrintRow].type;
 382              		.loc 1 116 0
 383 0150 3E4B     		ldr	r3, .L17
 384 0152 93F80432 		ldrb	r3, [r3, #516]	@ zero_extendqisi2
 115:build/openmote-cc2538_armgcc/openstack/02b-MAChigh/schedule.c ****    temp.type                           = \
 385              		.loc 1 115 0
 386 0156 1946     		mov	r1, r3
 387              		.loc 1 116 0
 388 0158 3C4A     		ldr	r2, .L17
 389 015a 0B46     		mov	r3, r1
 390 015c DB00     		lsls	r3, r3, #3
 391 015e 0B44     		add	r3, r3, r1
 392 0160 9B00     		lsls	r3, r3, #2
 393 0162 1344     		add	r3, r3, r2
 394 0164 9B78     		ldrb	r3, [r3, #2]	@ zero_extendqisi2
 115:build/openmote-cc2538_armgcc/openstack/02b-MAChigh/schedule.c ****    temp.type                           = \
 395              		.loc 1 115 0
 396 0166 FB70     		strb	r3, [r7, #3]
 117:build/openmote-cc2538_armgcc/openstack/02b-MAChigh/schedule.c ****    temp.shared                         = \
 118:build/openmote-cc2538_armgcc/openstack/02b-MAChigh/schedule.c ****       schedule_vars.scheduleBuf[schedule_vars.debugPrintRow].shared;
 397              		.loc 1 118 0
 398 0168 384B     		ldr	r3, .L17
 399 016a 93F80432 		ldrb	r3, [r3, #516]	@ zero_extendqisi2
 400 016e 1946     		mov	r1, r3
 401 0170 364A     		ldr	r2, .L17
 402 0172 0B46     		mov	r3, r1
 403 0174 DB00     		lsls	r3, r3, #3
 404 0176 0B44     		add	r3, r3, r1
 405 0178 9B00     		lsls	r3, r3, #2
 406 017a 1344     		add	r3, r3, r2
 407 017c DB78     		ldrb	r3, [r3, #3]	@ zero_extendqisi2
 117:build/openmote-cc2538_armgcc/openstack/02b-MAChigh/schedule.c ****    temp.shared                         = \
 408              		.loc 1 117 0
 409 017e 3B71     		strb	r3, [r7, #4]
 119:build/openmote-cc2538_armgcc/openstack/02b-MAChigh/schedule.c ****    temp.channelOffset                  = \
 120:build/openmote-cc2538_armgcc/openstack/02b-MAChigh/schedule.c ****       schedule_vars.scheduleBuf[schedule_vars.debugPrintRow].channelOffset;
 410              		.loc 1 120 0
 411 0180 324B     		ldr	r3, .L17
 412 0182 93F80432 		ldrb	r3, [r3, #516]	@ zero_extendqisi2
 413 0186 1946     		mov	r1, r3
 414 0188 304A     		ldr	r2, .L17
 415 018a 0B46     		mov	r3, r1
 416 018c DB00     		lsls	r3, r3, #3
 417 018e 0B44     		add	r3, r3, r1
 418 0190 9B00     		lsls	r3, r3, #2
 419 0192 1344     		add	r3, r3, r2
 420 0194 1B79     		ldrb	r3, [r3, #4]	@ zero_extendqisi2
 119:build/openmote-cc2538_armgcc/openstack/02b-MAChigh/schedule.c ****    temp.channelOffset                  = \
 421              		.loc 1 119 0
 422 0196 7B71     		strb	r3, [r7, #5]
 121:build/openmote-cc2538_armgcc/openstack/02b-MAChigh/schedule.c ****    memcpy(
 122:build/openmote-cc2538_armgcc/openstack/02b-MAChigh/schedule.c ****       &temp.neighbor,
 123:build/openmote-cc2538_armgcc/openstack/02b-MAChigh/schedule.c ****       &schedule_vars.scheduleBuf[schedule_vars.debugPrintRow].neighbor,
 423              		.loc 1 123 0
 424 0198 2C4B     		ldr	r3, .L17
 425 019a 93F80432 		ldrb	r3, [r3, #516]	@ zero_extendqisi2
 426 019e 1A46     		mov	r2, r3
 427 01a0 1346     		mov	r3, r2
 428 01a2 DB00     		lsls	r3, r3, #3
 429 01a4 1344     		add	r3, r3, r2
 430 01a6 9B00     		lsls	r3, r3, #2
 431 01a8 284A     		ldr	r2, .L17
 432 01aa 1344     		add	r3, r3, r2
 433 01ac 5A1D     		adds	r2, r3, #5
 121:build/openmote-cc2538_armgcc/openstack/02b-MAChigh/schedule.c ****    memcpy(
 434              		.loc 1 121 0
 435 01ae BB1D     		adds	r3, r7, #6
 436 01b0 1568     		ldr	r5, [r2]	@ unaligned
 437 01b2 5468     		ldr	r4, [r2, #4]	@ unaligned
 438 01b4 9068     		ldr	r0, [r2, #8]	@ unaligned
 439 01b6 D168     		ldr	r1, [r2, #12]	@ unaligned
 440 01b8 1D60     		str	r5, [r3]	@ unaligned
 441 01ba 5C60     		str	r4, [r3, #4]	@ unaligned
 442 01bc 9860     		str	r0, [r3, #8]	@ unaligned
 443 01be D960     		str	r1, [r3, #12]	@ unaligned
 444 01c0 127C     		ldrb	r2, [r2, #16]
 445 01c2 1A74     		strb	r2, [r3, #16]
 124:build/openmote-cc2538_armgcc/openstack/02b-MAChigh/schedule.c ****       sizeof(open_addr_t)
 125:build/openmote-cc2538_armgcc/openstack/02b-MAChigh/schedule.c ****    );
 126:build/openmote-cc2538_armgcc/openstack/02b-MAChigh/schedule.c ****    temp.numRx                          = \
 127:build/openmote-cc2538_armgcc/openstack/02b-MAChigh/schedule.c ****       schedule_vars.scheduleBuf[schedule_vars.debugPrintRow].numRx;
 446              		.loc 1 127 0
 447 01c4 214B     		ldr	r3, .L17
 448 01c6 93F80432 		ldrb	r3, [r3, #516]	@ zero_extendqisi2
 449 01ca 1946     		mov	r1, r3
 450 01cc 1F4A     		ldr	r2, .L17
 451 01ce 0B46     		mov	r3, r1
 452 01d0 DB00     		lsls	r3, r3, #3
 453 01d2 0B44     		add	r3, r3, r1
 454 01d4 9B00     		lsls	r3, r3, #2
 455 01d6 1344     		add	r3, r3, r2
 456 01d8 1033     		adds	r3, r3, #16
 457 01da 9B79     		ldrb	r3, [r3, #6]	@ zero_extendqisi2
 126:build/openmote-cc2538_armgcc/openstack/02b-MAChigh/schedule.c ****       schedule_vars.scheduleBuf[schedule_vars.debugPrintRow].numRx;
 458              		.loc 1 126 0
 459 01dc FB75     		strb	r3, [r7, #23]
 128:build/openmote-cc2538_armgcc/openstack/02b-MAChigh/schedule.c ****    temp.numTx                          = \
 129:build/openmote-cc2538_armgcc/openstack/02b-MAChigh/schedule.c ****       schedule_vars.scheduleBuf[schedule_vars.debugPrintRow].numTx;
 460              		.loc 1 129 0
 461 01de 1B4B     		ldr	r3, .L17
 462 01e0 93F80432 		ldrb	r3, [r3, #516]	@ zero_extendqisi2
 463 01e4 1946     		mov	r1, r3
 464 01e6 194A     		ldr	r2, .L17
 465 01e8 0B46     		mov	r3, r1
 466 01ea DB00     		lsls	r3, r3, #3
 467 01ec 0B44     		add	r3, r3, r1
 468 01ee 9B00     		lsls	r3, r3, #2
 469 01f0 1344     		add	r3, r3, r2
 470 01f2 1033     		adds	r3, r3, #16
 471 01f4 DB79     		ldrb	r3, [r3, #7]	@ zero_extendqisi2
 128:build/openmote-cc2538_armgcc/openstack/02b-MAChigh/schedule.c ****    temp.numTx                          = \
 472              		.loc 1 128 0
 473 01f6 3B76     		strb	r3, [r7, #24]
 130:build/openmote-cc2538_armgcc/openstack/02b-MAChigh/schedule.c ****    temp.numTxACK                       = \
 131:build/openmote-cc2538_armgcc/openstack/02b-MAChigh/schedule.c ****       schedule_vars.scheduleBuf[schedule_vars.debugPrintRow].numTxACK;
 474              		.loc 1 131 0
 475 01f8 144B     		ldr	r3, .L17
 476 01fa 93F80432 		ldrb	r3, [r3, #516]	@ zero_extendqisi2
 477 01fe 1946     		mov	r1, r3
 478 0200 124A     		ldr	r2, .L17
 479 0202 0B46     		mov	r3, r1
 480 0204 DB00     		lsls	r3, r3, #3
 481 0206 0B44     		add	r3, r3, r1
 482 0208 9B00     		lsls	r3, r3, #2
 483 020a 1344     		add	r3, r3, r2
 484 020c 1833     		adds	r3, r3, #24
 485 020e 1B78     		ldrb	r3, [r3]	@ zero_extendqisi2
 130:build/openmote-cc2538_armgcc/openstack/02b-MAChigh/schedule.c ****    temp.numTxACK                       = \
 486              		.loc 1 130 0
 487 0210 7B76     		strb	r3, [r7, #25]
 132:build/openmote-cc2538_armgcc/openstack/02b-MAChigh/schedule.c ****    memcpy(
 133:build/openmote-cc2538_armgcc/openstack/02b-MAChigh/schedule.c ****       &temp.lastUsedAsn,
 134:build/openmote-cc2538_armgcc/openstack/02b-MAChigh/schedule.c ****       &schedule_vars.scheduleBuf[schedule_vars.debugPrintRow].lastUsedAsn,
 488              		.loc 1 134 0
 489 0212 0E4B     		ldr	r3, .L17
 490 0214 93F80432 		ldrb	r3, [r3, #516]	@ zero_extendqisi2
 491 0218 1A46     		mov	r2, r3
 492 021a 1346     		mov	r3, r2
 493 021c DB00     		lsls	r3, r3, #3
 494 021e 1344     		add	r3, r3, r2
 495 0220 9B00     		lsls	r3, r3, #2
 496 0222 1833     		adds	r3, r3, #24
 497 0224 094A     		ldr	r2, .L17
 498 0226 1344     		add	r3, r3, r2
 499 0228 5A1C     		adds	r2, r3, #1
 132:build/openmote-cc2538_armgcc/openstack/02b-MAChigh/schedule.c ****    memcpy(
 500              		.loc 1 132 0
 501 022a 07F11A03 		add	r3, r7, #26
 502 022e 1168     		ldr	r1, [r2]	@ unaligned
 503 0230 1960     		str	r1, [r3]	@ unaligned
 504 0232 1279     		ldrb	r2, [r2, #4]
 505 0234 1A71     		strb	r2, [r3, #4]
 135:build/openmote-cc2538_armgcc/openstack/02b-MAChigh/schedule.c ****       sizeof(asn_t)
 136:build/openmote-cc2538_armgcc/openstack/02b-MAChigh/schedule.c ****    );
 137:build/openmote-cc2538_armgcc/openstack/02b-MAChigh/schedule.c ****    
 138:build/openmote-cc2538_armgcc/openstack/02b-MAChigh/schedule.c ****    // send status data over serial port
 139:build/openmote-cc2538_armgcc/openstack/02b-MAChigh/schedule.c ****    openserial_printStatus(
 506              		.loc 1 139 0
 507 0236 3B46     		mov	r3, r7
 508 0238 0620     		movs	r0, #6
 509 023a 1946     		mov	r1, r3
 510 023c 1F22     		movs	r2, #31
 511 023e FFF7FEFF 		bl	openserial_printStatus
 140:build/openmote-cc2538_armgcc/openstack/02b-MAChigh/schedule.c ****       STATUS_SCHEDULE,
 141:build/openmote-cc2538_armgcc/openstack/02b-MAChigh/schedule.c ****       (uint8_t*)&temp,
 142:build/openmote-cc2538_armgcc/openstack/02b-MAChigh/schedule.c ****       sizeof(debugScheduleEntry_t)
 143:build/openmote-cc2538_armgcc/openstack/02b-MAChigh/schedule.c ****    );
 144:build/openmote-cc2538_armgcc/openstack/02b-MAChigh/schedule.c ****    
 145:build/openmote-cc2538_armgcc/openstack/02b-MAChigh/schedule.c ****    return TRUE;
 512              		.loc 1 145 0
 513 0242 0123     		movs	r3, #1
 146:build/openmote-cc2538_armgcc/openstack/02b-MAChigh/schedule.c **** }
 514              		.loc 1 146 0
 515 0244 1846     		mov	r0, r3
 516 0246 2037     		adds	r7, r7, #32
 517              		.cfi_def_cfa_offset 16
 518 0248 BD46     		mov	sp, r7
 519              		.cfi_def_cfa_register 13
 520              		@ sp needed
 521 024a B0BD     		pop	{r4, r5, r7, pc}
 522              	.L18:
 523              		.align	2
 524              	.L17:
 525 024c 00000000 		.word	schedule_vars
 526              		.cfi_endproc
 527              	.LFE2:
 529              		.align	2
 530              		.global	debugPrint_backoff
 531              		.thumb
 532              		.thumb_func
 534              	debugPrint_backoff:
 535              	.LFB3:
 147:build/openmote-cc2538_armgcc/openstack/02b-MAChigh/schedule.c **** 
 148:build/openmote-cc2538_armgcc/openstack/02b-MAChigh/schedule.c **** /**
 149:build/openmote-cc2538_armgcc/openstack/02b-MAChigh/schedule.c **** \brief Trigger this module to print status information, over serial.
 150:build/openmote-cc2538_armgcc/openstack/02b-MAChigh/schedule.c **** 
 151:build/openmote-cc2538_armgcc/openstack/02b-MAChigh/schedule.c **** debugPrint_* functions are used by the openserial module to continuously print
 152:build/openmote-cc2538_armgcc/openstack/02b-MAChigh/schedule.c **** status information about several modules in the OpenWSN stack.
 153:build/openmote-cc2538_armgcc/openstack/02b-MAChigh/schedule.c **** 
 154:build/openmote-cc2538_armgcc/openstack/02b-MAChigh/schedule.c **** \returns TRUE if this function printed something, FALSE otherwise.
 155:build/openmote-cc2538_armgcc/openstack/02b-MAChigh/schedule.c **** */
 156:build/openmote-cc2538_armgcc/openstack/02b-MAChigh/schedule.c **** bool debugPrint_backoff(void) {
 536              		.loc 1 156 0
 537              		.cfi_startproc
 538              		@ args = 0, pretend = 0, frame = 8
 539              		@ frame_needed = 1, uses_anonymous_args = 0
 540 0250 80B5     		push	{r7, lr}
 541              		.cfi_def_cfa_offset 8
 542              		.cfi_offset 7, -8
 543              		.cfi_offset 14, -4
 544 0252 82B0     		sub	sp, sp, #8
 545              		.cfi_def_cfa_offset 16
 546 0254 00AF     		add	r7, sp, #0
 547              		.cfi_def_cfa_register 7
 157:build/openmote-cc2538_armgcc/openstack/02b-MAChigh/schedule.c ****    uint8_t temp[2];
 158:build/openmote-cc2538_armgcc/openstack/02b-MAChigh/schedule.c ****    
 159:build/openmote-cc2538_armgcc/openstack/02b-MAChigh/schedule.c ****    // gather status data
 160:build/openmote-cc2538_armgcc/openstack/02b-MAChigh/schedule.c ****    temp[0] = schedule_vars.backoffExponenton;
 548              		.loc 1 160 0
 549 0256 094B     		ldr	r3, .L21
 550 0258 93F80232 		ldrb	r3, [r3, #514]	@ zero_extendqisi2
 551 025c 3B71     		strb	r3, [r7, #4]
 161:build/openmote-cc2538_armgcc/openstack/02b-MAChigh/schedule.c ****    temp[1] = schedule_vars.backoff;
 552              		.loc 1 161 0
 553 025e 074B     		ldr	r3, .L21
 554 0260 93F80332 		ldrb	r3, [r3, #515]	@ zero_extendqisi2
 555 0264 7B71     		strb	r3, [r7, #5]
 162:build/openmote-cc2538_armgcc/openstack/02b-MAChigh/schedule.c ****    
 163:build/openmote-cc2538_armgcc/openstack/02b-MAChigh/schedule.c ****    // send status data over serial port
 164:build/openmote-cc2538_armgcc/openstack/02b-MAChigh/schedule.c ****    openserial_printStatus(
 556              		.loc 1 164 0
 557 0266 3B1D     		adds	r3, r7, #4
 558 0268 0720     		movs	r0, #7
 559 026a 1946     		mov	r1, r3
 560 026c 0222     		movs	r2, #2
 561 026e FFF7FEFF 		bl	openserial_printStatus
 165:build/openmote-cc2538_armgcc/openstack/02b-MAChigh/schedule.c ****       STATUS_BACKOFF,
 166:build/openmote-cc2538_armgcc/openstack/02b-MAChigh/schedule.c ****       (uint8_t*)&temp,
 167:build/openmote-cc2538_armgcc/openstack/02b-MAChigh/schedule.c ****       sizeof(temp)
 168:build/openmote-cc2538_armgcc/openstack/02b-MAChigh/schedule.c ****    );
 169:build/openmote-cc2538_armgcc/openstack/02b-MAChigh/schedule.c ****    
 170:build/openmote-cc2538_armgcc/openstack/02b-MAChigh/schedule.c ****    return TRUE;
 562              		.loc 1 170 0
 563 0272 0123     		movs	r3, #1
 171:build/openmote-cc2538_armgcc/openstack/02b-MAChigh/schedule.c **** }
 564              		.loc 1 171 0
 565 0274 1846     		mov	r0, r3
 566 0276 0837     		adds	r7, r7, #8
 567              		.cfi_def_cfa_offset 8
 568 0278 BD46     		mov	sp, r7
 569              		.cfi_def_cfa_register 13
 570              		@ sp needed
 571 027a 80BD     		pop	{r7, pc}
 572              	.L22:
 573              		.align	2
 574              	.L21:
 575 027c 00000000 		.word	schedule_vars
 576              		.cfi_endproc
 577              	.LFE3:
 579              		.align	2
 580              		.global	schedule_setFrameLength
 581              		.thumb
 582              		.thumb_func
 584              	schedule_setFrameLength:
 585              	.LFB4:
 172:build/openmote-cc2538_armgcc/openstack/02b-MAChigh/schedule.c **** 
 173:build/openmote-cc2538_armgcc/openstack/02b-MAChigh/schedule.c **** //=== from 6top (writing the schedule)
 174:build/openmote-cc2538_armgcc/openstack/02b-MAChigh/schedule.c **** 
 175:build/openmote-cc2538_armgcc/openstack/02b-MAChigh/schedule.c **** /**
 176:build/openmote-cc2538_armgcc/openstack/02b-MAChigh/schedule.c **** \brief Set frame length.
 177:build/openmote-cc2538_armgcc/openstack/02b-MAChigh/schedule.c **** 
 178:build/openmote-cc2538_armgcc/openstack/02b-MAChigh/schedule.c **** \param newFrameLength The new frame length.
 179:build/openmote-cc2538_armgcc/openstack/02b-MAChigh/schedule.c **** */
 180:build/openmote-cc2538_armgcc/openstack/02b-MAChigh/schedule.c **** void schedule_setFrameLength(frameLength_t newFrameLength) {
 586              		.loc 1 180 0
 587              		.cfi_startproc
 588              		@ args = 0, pretend = 0, frame = 8
 589              		@ frame_needed = 1, uses_anonymous_args = 0
 590 0280 80B5     		push	{r7, lr}
 591              		.cfi_def_cfa_offset 8
 592              		.cfi_offset 7, -8
 593              		.cfi_offset 14, -4
 594 0282 82B0     		sub	sp, sp, #8
 595              		.cfi_def_cfa_offset 16
 596 0284 00AF     		add	r7, sp, #0
 597              		.cfi_def_cfa_register 7
 598 0286 0346     		mov	r3, r0
 599 0288 FB80     		strh	r3, [r7, #6]	@ movhi
 181:build/openmote-cc2538_armgcc/openstack/02b-MAChigh/schedule.c ****    
 182:build/openmote-cc2538_armgcc/openstack/02b-MAChigh/schedule.c ****    INTERRUPT_DECLARATION();
 183:build/openmote-cc2538_armgcc/openstack/02b-MAChigh/schedule.c ****    DISABLE_INTERRUPTS();
 600              		.loc 1 183 0
 601 028a FFF7FEFF 		bl	IntMasterDisable
 184:build/openmote-cc2538_armgcc/openstack/02b-MAChigh/schedule.c ****    
 185:build/openmote-cc2538_armgcc/openstack/02b-MAChigh/schedule.c ****    schedule_vars.frameLength = newFrameLength;
 602              		.loc 1 185 0
 603 028e 084A     		ldr	r2, .L25
 604 0290 FB88     		ldrh	r3, [r7, #6]	@ movhi
 605 0292 A2F8FC31 		strh	r3, [r2, #508]	@ movhi
 186:build/openmote-cc2538_armgcc/openstack/02b-MAChigh/schedule.c ****    if (newFrameLength <= MAXACTIVESLOTS) {
 606              		.loc 1 186 0
 607 0296 FB88     		ldrh	r3, [r7, #6]
 608 0298 0E2B     		cmp	r3, #14
 609 029a 03D8     		bhi	.L24
 187:build/openmote-cc2538_armgcc/openstack/02b-MAChigh/schedule.c ****       schedule_vars.maxActiveSlots = newFrameLength;
 610              		.loc 1 187 0
 611 029c 044A     		ldr	r2, .L25
 612 029e FB88     		ldrh	r3, [r7, #6]	@ movhi
 613 02a0 A2F8FE31 		strh	r3, [r2, #510]	@ movhi
 614              	.L24:
 188:build/openmote-cc2538_armgcc/openstack/02b-MAChigh/schedule.c ****    }
 189:build/openmote-cc2538_armgcc/openstack/02b-MAChigh/schedule.c ****    ENABLE_INTERRUPTS();
 615              		.loc 1 189 0
 616 02a4 FFF7FEFF 		bl	IntMasterEnable
 190:build/openmote-cc2538_armgcc/openstack/02b-MAChigh/schedule.c **** }
 617              		.loc 1 190 0
 618 02a8 0837     		adds	r7, r7, #8
 619              		.cfi_def_cfa_offset 8
 620 02aa BD46     		mov	sp, r7
 621              		.cfi_def_cfa_register 13
 622              		@ sp needed
 623 02ac 80BD     		pop	{r7, pc}
 624              	.L26:
 625 02ae 00BF     		.align	2
 626              	.L25:
 627 02b0 00000000 		.word	schedule_vars
 628              		.cfi_endproc
 629              	.LFE4:
 631              		.align	2
 632              		.global	schedule_setFrameHandle
 633              		.thumb
 634              		.thumb_func
 636              	schedule_setFrameHandle:
 637              	.LFB5:
 191:build/openmote-cc2538_armgcc/openstack/02b-MAChigh/schedule.c **** 
 192:build/openmote-cc2538_armgcc/openstack/02b-MAChigh/schedule.c **** /**
 193:build/openmote-cc2538_armgcc/openstack/02b-MAChigh/schedule.c **** \brief Set frame handle.
 194:build/openmote-cc2538_armgcc/openstack/02b-MAChigh/schedule.c **** 
 195:build/openmote-cc2538_armgcc/openstack/02b-MAChigh/schedule.c **** \param frameHandle The new frame handle.
 196:build/openmote-cc2538_armgcc/openstack/02b-MAChigh/schedule.c **** */
 197:build/openmote-cc2538_armgcc/openstack/02b-MAChigh/schedule.c **** void schedule_setFrameHandle(uint8_t frameHandle) {
 638              		.loc 1 197 0
 639              		.cfi_startproc
 640              		@ args = 0, pretend = 0, frame = 8
 641              		@ frame_needed = 1, uses_anonymous_args = 0
 642 02b4 80B5     		push	{r7, lr}
 643              		.cfi_def_cfa_offset 8
 644              		.cfi_offset 7, -8
 645              		.cfi_offset 14, -4
 646 02b6 82B0     		sub	sp, sp, #8
 647              		.cfi_def_cfa_offset 16
 648 02b8 00AF     		add	r7, sp, #0
 649              		.cfi_def_cfa_register 7
 650 02ba 0346     		mov	r3, r0
 651 02bc FB71     		strb	r3, [r7, #7]
 198:build/openmote-cc2538_armgcc/openstack/02b-MAChigh/schedule.c ****    
 199:build/openmote-cc2538_armgcc/openstack/02b-MAChigh/schedule.c ****    INTERRUPT_DECLARATION();
 200:build/openmote-cc2538_armgcc/openstack/02b-MAChigh/schedule.c ****    DISABLE_INTERRUPTS();
 652              		.loc 1 200 0
 653 02be FFF7FEFF 		bl	IntMasterDisable
 201:build/openmote-cc2538_armgcc/openstack/02b-MAChigh/schedule.c ****    
 202:build/openmote-cc2538_armgcc/openstack/02b-MAChigh/schedule.c ****    schedule_vars.frameHandle = frameHandle;
 654              		.loc 1 202 0
 655 02c2 044A     		ldr	r2, .L28
 656 02c4 FB79     		ldrb	r3, [r7, #7]
 657 02c6 82F80032 		strb	r3, [r2, #512]
 203:build/openmote-cc2538_armgcc/openstack/02b-MAChigh/schedule.c ****    
 204:build/openmote-cc2538_armgcc/openstack/02b-MAChigh/schedule.c ****    ENABLE_INTERRUPTS();
 658              		.loc 1 204 0
 659 02ca FFF7FEFF 		bl	IntMasterEnable
 205:build/openmote-cc2538_armgcc/openstack/02b-MAChigh/schedule.c **** }
 660              		.loc 1 205 0
 661 02ce 0837     		adds	r7, r7, #8
 662              		.cfi_def_cfa_offset 8
 663 02d0 BD46     		mov	sp, r7
 664              		.cfi_def_cfa_register 13
 665              		@ sp needed
 666 02d2 80BD     		pop	{r7, pc}
 667              	.L29:
 668              		.align	2
 669              	.L28:
 670 02d4 00000000 		.word	schedule_vars
 671              		.cfi_endproc
 672              	.LFE5:
 674              		.align	2
 675              		.global	schedule_setFrameNumber
 676              		.thumb
 677              		.thumb_func
 679              	schedule_setFrameNumber:
 680              	.LFB6:
 206:build/openmote-cc2538_armgcc/openstack/02b-MAChigh/schedule.c **** 
 207:build/openmote-cc2538_armgcc/openstack/02b-MAChigh/schedule.c **** /**
 208:build/openmote-cc2538_armgcc/openstack/02b-MAChigh/schedule.c **** \brief Set frame number.
 209:build/openmote-cc2538_armgcc/openstack/02b-MAChigh/schedule.c **** 
 210:build/openmote-cc2538_armgcc/openstack/02b-MAChigh/schedule.c **** \param frameNumber The new frame number.
 211:build/openmote-cc2538_armgcc/openstack/02b-MAChigh/schedule.c **** */
 212:build/openmote-cc2538_armgcc/openstack/02b-MAChigh/schedule.c **** void schedule_setFrameNumber(uint8_t frameNumber) {
 681              		.loc 1 212 0
 682              		.cfi_startproc
 683              		@ args = 0, pretend = 0, frame = 8
 684              		@ frame_needed = 1, uses_anonymous_args = 0
 685 02d8 80B5     		push	{r7, lr}
 686              		.cfi_def_cfa_offset 8
 687              		.cfi_offset 7, -8
 688              		.cfi_offset 14, -4
 689 02da 82B0     		sub	sp, sp, #8
 690              		.cfi_def_cfa_offset 16
 691 02dc 00AF     		add	r7, sp, #0
 692              		.cfi_def_cfa_register 7
 693 02de 0346     		mov	r3, r0
 694 02e0 FB71     		strb	r3, [r7, #7]
 213:build/openmote-cc2538_armgcc/openstack/02b-MAChigh/schedule.c ****    
 214:build/openmote-cc2538_armgcc/openstack/02b-MAChigh/schedule.c ****    INTERRUPT_DECLARATION();
 215:build/openmote-cc2538_armgcc/openstack/02b-MAChigh/schedule.c ****    DISABLE_INTERRUPTS();
 695              		.loc 1 215 0
 696 02e2 FFF7FEFF 		bl	IntMasterDisable
 216:build/openmote-cc2538_armgcc/openstack/02b-MAChigh/schedule.c ****    
 217:build/openmote-cc2538_armgcc/openstack/02b-MAChigh/schedule.c ****    schedule_vars.frameNumber = frameNumber;
 697              		.loc 1 217 0
 698 02e6 044A     		ldr	r2, .L31
 699 02e8 FB79     		ldrb	r3, [r7, #7]
 700 02ea 82F80132 		strb	r3, [r2, #513]
 218:build/openmote-cc2538_armgcc/openstack/02b-MAChigh/schedule.c ****    
 219:build/openmote-cc2538_armgcc/openstack/02b-MAChigh/schedule.c ****    ENABLE_INTERRUPTS();
 701              		.loc 1 219 0
 702 02ee FFF7FEFF 		bl	IntMasterEnable
 220:build/openmote-cc2538_armgcc/openstack/02b-MAChigh/schedule.c **** }
 703              		.loc 1 220 0
 704 02f2 0837     		adds	r7, r7, #8
 705              		.cfi_def_cfa_offset 8
 706 02f4 BD46     		mov	sp, r7
 707              		.cfi_def_cfa_register 13
 708              		@ sp needed
 709 02f6 80BD     		pop	{r7, pc}
 710              	.L32:
 711              		.align	2
 712              	.L31:
 713 02f8 00000000 		.word	schedule_vars
 714              		.cfi_endproc
 715              	.LFE6:
 717              		.align	2
 718              		.global	schedule_getSlotInfo
 719              		.thumb
 720              		.thumb_func
 722              	schedule_getSlotInfo:
 723              	.LFB7:
 221:build/openmote-cc2538_armgcc/openstack/02b-MAChigh/schedule.c **** 
 222:build/openmote-cc2538_armgcc/openstack/02b-MAChigh/schedule.c **** /**
 223:build/openmote-cc2538_armgcc/openstack/02b-MAChigh/schedule.c **** \brief Get the information of a specific slot.
 224:build/openmote-cc2538_armgcc/openstack/02b-MAChigh/schedule.c **** 
 225:build/openmote-cc2538_armgcc/openstack/02b-MAChigh/schedule.c **** \param slotOffset
 226:build/openmote-cc2538_armgcc/openstack/02b-MAChigh/schedule.c **** \param neighbor
 227:build/openmote-cc2538_armgcc/openstack/02b-MAChigh/schedule.c **** \param info
 228:build/openmote-cc2538_armgcc/openstack/02b-MAChigh/schedule.c **** */
 229:build/openmote-cc2538_armgcc/openstack/02b-MAChigh/schedule.c **** void  schedule_getSlotInfo(
 230:build/openmote-cc2538_armgcc/openstack/02b-MAChigh/schedule.c ****    slotOffset_t         slotOffset,
 231:build/openmote-cc2538_armgcc/openstack/02b-MAChigh/schedule.c ****    open_addr_t*         neighbor,
 232:build/openmote-cc2538_armgcc/openstack/02b-MAChigh/schedule.c ****    slotinfo_element_t*  info
 233:build/openmote-cc2538_armgcc/openstack/02b-MAChigh/schedule.c **** ){
 724              		.loc 1 233 0
 725              		.cfi_startproc
 726              		@ args = 0, pretend = 0, frame = 24
 727              		@ frame_needed = 1, uses_anonymous_args = 0
 728 02fc 80B5     		push	{r7, lr}
 729              		.cfi_def_cfa_offset 8
 730              		.cfi_offset 7, -8
 731              		.cfi_offset 14, -4
 732 02fe 86B0     		sub	sp, sp, #24
 733              		.cfi_def_cfa_offset 32
 734 0300 00AF     		add	r7, sp, #0
 735              		.cfi_def_cfa_register 7
 736 0302 0346     		mov	r3, r0
 737 0304 B960     		str	r1, [r7, #8]
 738 0306 7A60     		str	r2, [r7, #4]
 739 0308 FB81     		strh	r3, [r7, #14]	@ movhi
 234:build/openmote-cc2538_armgcc/openstack/02b-MAChigh/schedule.c ****    
 235:build/openmote-cc2538_armgcc/openstack/02b-MAChigh/schedule.c ****    scheduleEntry_t* slotContainer;
 236:build/openmote-cc2538_armgcc/openstack/02b-MAChigh/schedule.c ****   
 237:build/openmote-cc2538_armgcc/openstack/02b-MAChigh/schedule.c ****    // find an empty schedule entry container
 238:build/openmote-cc2538_armgcc/openstack/02b-MAChigh/schedule.c ****    slotContainer = &schedule_vars.scheduleBuf[0];
 740              		.loc 1 238 0
 741 030a 1D4B     		ldr	r3, .L38
 742 030c 7B61     		str	r3, [r7, #20]
 239:build/openmote-cc2538_armgcc/openstack/02b-MAChigh/schedule.c ****    while (slotContainer<=&schedule_vars.scheduleBuf[schedule_vars.maxActiveSlots-1]) {
 743              		.loc 1 239 0
 744 030e 1DE0     		b	.L34
 745              	.L37:
 240:build/openmote-cc2538_armgcc/openstack/02b-MAChigh/schedule.c ****        //check that this entry for that neighbour and timeslot is not already scheduled.
 241:build/openmote-cc2538_armgcc/openstack/02b-MAChigh/schedule.c ****        if (packetfunctions_sameAddress(neighbor,&(slotContainer->neighbor))&& (slotContainer->slotO
 746              		.loc 1 241 0
 747 0310 7B69     		ldr	r3, [r7, #20]
 748 0312 0533     		adds	r3, r3, #5
 749 0314 B868     		ldr	r0, [r7, #8]
 750 0316 1946     		mov	r1, r3
 751 0318 FFF7FEFF 		bl	packetfunctions_sameAddress
 752 031c 0346     		mov	r3, r0
 753 031e 002B     		cmp	r3, #0
 754 0320 11D0     		beq	.L35
 755              		.loc 1 241 0 is_stmt 0 discriminator 1
 756 0322 7B69     		ldr	r3, [r7, #20]
 757 0324 1B88     		ldrh	r3, [r3]
 758 0326 FA89     		ldrh	r2, [r7, #14]
 759 0328 9A42     		cmp	r2, r3
 760 032a 0CD1     		bne	.L35
 242:build/openmote-cc2538_armgcc/openstack/02b-MAChigh/schedule.c ****                //it exists so this is an update.
 243:build/openmote-cc2538_armgcc/openstack/02b-MAChigh/schedule.c ****                info->link_type                 = slotContainer->type;
 761              		.loc 1 243 0 is_stmt 1
 762 032c 7B69     		ldr	r3, [r7, #20]
 763 032e 9A78     		ldrb	r2, [r3, #2]	@ zero_extendqisi2
 764 0330 7B68     		ldr	r3, [r7, #4]
 765 0332 1A72     		strb	r2, [r3, #8]
 244:build/openmote-cc2538_armgcc/openstack/02b-MAChigh/schedule.c ****                info->shared                    =slotContainer->shared;
 766              		.loc 1 244 0
 767 0334 7B69     		ldr	r3, [r7, #20]
 768 0336 DA78     		ldrb	r2, [r3, #3]	@ zero_extendqisi2
 769 0338 7B68     		ldr	r3, [r7, #4]
 770 033a 5A72     		strb	r2, [r3, #9]
 245:build/openmote-cc2538_armgcc/openstack/02b-MAChigh/schedule.c ****                info->channelOffset             = slotContainer->channelOffset;
 771              		.loc 1 245 0
 772 033c 7B69     		ldr	r3, [r7, #20]
 773 033e 1A79     		ldrb	r2, [r3, #4]	@ zero_extendqisi2
 774 0340 7B68     		ldr	r3, [r7, #4]
 775 0342 1A73     		strb	r2, [r3, #12]
 246:build/openmote-cc2538_armgcc/openstack/02b-MAChigh/schedule.c ****                return; //as this is an update. No need to re-insert as it is in the same position o
 776              		.loc 1 246 0
 777 0344 18E0     		b	.L33
 778              	.L35:
 247:build/openmote-cc2538_armgcc/openstack/02b-MAChigh/schedule.c ****         }
 248:build/openmote-cc2538_armgcc/openstack/02b-MAChigh/schedule.c ****         slotContainer++;
 779              		.loc 1 248 0
 780 0346 7B69     		ldr	r3, [r7, #20]
 781 0348 2433     		adds	r3, r3, #36
 782 034a 7B61     		str	r3, [r7, #20]
 783              	.L34:
 239:build/openmote-cc2538_armgcc/openstack/02b-MAChigh/schedule.c ****        //check that this entry for that neighbour and timeslot is not already scheduled.
 784              		.loc 1 239 0
 785 034c 0C4B     		ldr	r3, .L38
 786 034e B3F8FE31 		ldrh	r3, [r3, #510]
 787 0352 5A1E     		subs	r2, r3, #1
 788 0354 1346     		mov	r3, r2
 789 0356 DB00     		lsls	r3, r3, #3
 790 0358 1344     		add	r3, r3, r2
 791 035a 9B00     		lsls	r3, r3, #2
 792 035c 084A     		ldr	r2, .L38
 793 035e 1A44     		add	r2, r2, r3
 794 0360 7B69     		ldr	r3, [r7, #20]
 795 0362 9A42     		cmp	r2, r3
 796 0364 D4D2     		bcs	.L37
 249:build/openmote-cc2538_armgcc/openstack/02b-MAChigh/schedule.c ****    }
 250:build/openmote-cc2538_armgcc/openstack/02b-MAChigh/schedule.c ****    //return cell type off.
 251:build/openmote-cc2538_armgcc/openstack/02b-MAChigh/schedule.c ****    info->link_type                 = CELLTYPE_OFF;
 797              		.loc 1 251 0
 798 0366 7B68     		ldr	r3, [r7, #4]
 799 0368 0022     		movs	r2, #0
 800 036a 1A72     		strb	r2, [r3, #8]
 252:build/openmote-cc2538_armgcc/openstack/02b-MAChigh/schedule.c ****    info->shared                    = FALSE;
 801              		.loc 1 252 0
 802 036c 7B68     		ldr	r3, [r7, #4]
 803 036e 0022     		movs	r2, #0
 804 0370 5A72     		strb	r2, [r3, #9]
 253:build/openmote-cc2538_armgcc/openstack/02b-MAChigh/schedule.c ****    info->channelOffset             = 0;//set to zero if not set.                          
 805              		.loc 1 253 0
 806 0372 7B68     		ldr	r3, [r7, #4]
 807 0374 0022     		movs	r2, #0
 808 0376 1A73     		strb	r2, [r3, #12]
 809              	.L33:
 254:build/openmote-cc2538_armgcc/openstack/02b-MAChigh/schedule.c **** }
 810              		.loc 1 254 0
 811 0378 1837     		adds	r7, r7, #24
 812              		.cfi_def_cfa_offset 8
 813 037a BD46     		mov	sp, r7
 814              		.cfi_def_cfa_register 13
 815              		@ sp needed
 816 037c 80BD     		pop	{r7, pc}
 817              	.L39:
 818 037e 00BF     		.align	2
 819              	.L38:
 820 0380 00000000 		.word	schedule_vars
 821              		.cfi_endproc
 822              	.LFE7:
 824              		.align	2
 825              		.global	schedule_addActiveSlot
 826              		.thumb
 827              		.thumb_func
 829              	schedule_addActiveSlot:
 830              	.LFB8:
 255:build/openmote-cc2538_armgcc/openstack/02b-MAChigh/schedule.c **** 
 256:build/openmote-cc2538_armgcc/openstack/02b-MAChigh/schedule.c **** /**
 257:build/openmote-cc2538_armgcc/openstack/02b-MAChigh/schedule.c **** \brief Add a new active slot into the schedule.
 258:build/openmote-cc2538_armgcc/openstack/02b-MAChigh/schedule.c **** 
 259:build/openmote-cc2538_armgcc/openstack/02b-MAChigh/schedule.c **** \param slotOffset       The slotoffset of the new slot
 260:build/openmote-cc2538_armgcc/openstack/02b-MAChigh/schedule.c **** \param type             The type of the cell
 261:build/openmote-cc2538_armgcc/openstack/02b-MAChigh/schedule.c **** \param shared           Whether this cell is shared (TRUE) or not (FALSE).
 262:build/openmote-cc2538_armgcc/openstack/02b-MAChigh/schedule.c **** \param channelOffset    The channelOffset of the new slot
 263:build/openmote-cc2538_armgcc/openstack/02b-MAChigh/schedule.c **** \param neighbor         The neighbor associated with this cell (all 0's if
 264:build/openmote-cc2538_armgcc/openstack/02b-MAChigh/schedule.c ****    none)
 265:build/openmote-cc2538_armgcc/openstack/02b-MAChigh/schedule.c **** */
 266:build/openmote-cc2538_armgcc/openstack/02b-MAChigh/schedule.c **** owerror_t schedule_addActiveSlot(
 267:build/openmote-cc2538_armgcc/openstack/02b-MAChigh/schedule.c ****       slotOffset_t    slotOffset,
 268:build/openmote-cc2538_armgcc/openstack/02b-MAChigh/schedule.c ****       cellType_t      type,
 269:build/openmote-cc2538_armgcc/openstack/02b-MAChigh/schedule.c ****       bool            shared,
 270:build/openmote-cc2538_armgcc/openstack/02b-MAChigh/schedule.c ****       channelOffset_t channelOffset,
 271:build/openmote-cc2538_armgcc/openstack/02b-MAChigh/schedule.c ****       open_addr_t*    neighbor
 272:build/openmote-cc2538_armgcc/openstack/02b-MAChigh/schedule.c ****    ) {
 831              		.loc 1 272 0
 832              		.cfi_startproc
 833              		@ args = 4, pretend = 0, frame = 32
 834              		@ frame_needed = 1, uses_anonymous_args = 0
 835 0384 90B5     		push	{r4, r7, lr}
 836              		.cfi_def_cfa_offset 12
 837              		.cfi_offset 4, -12
 838              		.cfi_offset 7, -8
 839              		.cfi_offset 14, -4
 840 0386 89B0     		sub	sp, sp, #36
 841              		.cfi_def_cfa_offset 48
 842 0388 00AF     		add	r7, sp, #0
 843              		.cfi_def_cfa_register 7
 844 038a 0446     		mov	r4, r0
 845 038c 0846     		mov	r0, r1
 846 038e 1146     		mov	r1, r2
 847 0390 1A46     		mov	r2, r3
 848 0392 2346     		mov	r3, r4	@ movhi
 849 0394 FB80     		strh	r3, [r7, #6]	@ movhi
 850 0396 0346     		mov	r3, r0
 851 0398 7B71     		strb	r3, [r7, #5]
 852 039a 0B46     		mov	r3, r1
 853 039c 3B71     		strb	r3, [r7, #4]
 854 039e 1346     		mov	r3, r2
 855 03a0 FB70     		strb	r3, [r7, #3]
 273:build/openmote-cc2538_armgcc/openstack/02b-MAChigh/schedule.c ****    uint8_t asn[5];
 274:build/openmote-cc2538_armgcc/openstack/02b-MAChigh/schedule.c ****    scheduleEntry_t* slotContainer;
 275:build/openmote-cc2538_armgcc/openstack/02b-MAChigh/schedule.c ****    scheduleEntry_t* previousSlotWalker;
 276:build/openmote-cc2538_armgcc/openstack/02b-MAChigh/schedule.c ****    scheduleEntry_t* nextSlotWalker;
 277:build/openmote-cc2538_armgcc/openstack/02b-MAChigh/schedule.c ****    
 278:build/openmote-cc2538_armgcc/openstack/02b-MAChigh/schedule.c ****    INTERRUPT_DECLARATION();
 279:build/openmote-cc2538_armgcc/openstack/02b-MAChigh/schedule.c ****    DISABLE_INTERRUPTS();
 856              		.loc 1 279 0
 857 03a2 FFF7FEFF 		bl	IntMasterDisable
 280:build/openmote-cc2538_armgcc/openstack/02b-MAChigh/schedule.c ****    
 281:build/openmote-cc2538_armgcc/openstack/02b-MAChigh/schedule.c ****    // find an empty schedule entry container
 282:build/openmote-cc2538_armgcc/openstack/02b-MAChigh/schedule.c ****    slotContainer = &schedule_vars.scheduleBuf[0];
 858              		.loc 1 282 0
 859 03a6 654B     		ldr	r3, .L55
 860 03a8 FB61     		str	r3, [r7, #28]
 283:build/openmote-cc2538_armgcc/openstack/02b-MAChigh/schedule.c ****    while (
 861              		.loc 1 283 0
 862 03aa 02E0     		b	.L41
 863              	.L43:
 284:build/openmote-cc2538_armgcc/openstack/02b-MAChigh/schedule.c ****          slotContainer->type!=CELLTYPE_OFF &&
 285:build/openmote-cc2538_armgcc/openstack/02b-MAChigh/schedule.c ****          slotContainer<=&schedule_vars.scheduleBuf[schedule_vars.maxActiveSlots-1]
 286:build/openmote-cc2538_armgcc/openstack/02b-MAChigh/schedule.c ****       ) {
 287:build/openmote-cc2538_armgcc/openstack/02b-MAChigh/schedule.c ****       slotContainer++;
 864              		.loc 1 287 0
 865 03ac FB69     		ldr	r3, [r7, #28]
 866 03ae 2433     		adds	r3, r3, #36
 867 03b0 FB61     		str	r3, [r7, #28]
 868              	.L41:
 284:build/openmote-cc2538_armgcc/openstack/02b-MAChigh/schedule.c ****          slotContainer->type!=CELLTYPE_OFF &&
 869              		.loc 1 284 0
 870 03b2 FB69     		ldr	r3, [r7, #28]
 871 03b4 9B78     		ldrb	r3, [r3, #2]	@ zero_extendqisi2
 283:build/openmote-cc2538_armgcc/openstack/02b-MAChigh/schedule.c ****    while (
 872              		.loc 1 283 0
 873 03b6 002B     		cmp	r3, #0
 874 03b8 0CD0     		beq	.L42
 285:build/openmote-cc2538_armgcc/openstack/02b-MAChigh/schedule.c ****       ) {
 875              		.loc 1 285 0
 876 03ba 604B     		ldr	r3, .L55
 877 03bc B3F8FE31 		ldrh	r3, [r3, #510]
 878 03c0 5A1E     		subs	r2, r3, #1
 879 03c2 1346     		mov	r3, r2
 880 03c4 DB00     		lsls	r3, r3, #3
 881 03c6 1344     		add	r3, r3, r2
 882 03c8 9B00     		lsls	r3, r3, #2
 883 03ca 5C4A     		ldr	r2, .L55
 884 03cc 1A44     		add	r2, r2, r3
 284:build/openmote-cc2538_armgcc/openstack/02b-MAChigh/schedule.c ****          slotContainer->type!=CELLTYPE_OFF &&
 885              		.loc 1 284 0
 886 03ce FB69     		ldr	r3, [r7, #28]
 887 03d0 9A42     		cmp	r2, r3
 888 03d2 EBD2     		bcs	.L43
 889              	.L42:
 288:build/openmote-cc2538_armgcc/openstack/02b-MAChigh/schedule.c ****    }
 289:build/openmote-cc2538_armgcc/openstack/02b-MAChigh/schedule.c ****    
 290:build/openmote-cc2538_armgcc/openstack/02b-MAChigh/schedule.c ****    // abort it schedule overflow
 291:build/openmote-cc2538_armgcc/openstack/02b-MAChigh/schedule.c ****    if (slotContainer>&schedule_vars.scheduleBuf[schedule_vars.maxActiveSlots-1]) {
 890              		.loc 1 291 0
 891 03d4 594B     		ldr	r3, .L55
 892 03d6 B3F8FE31 		ldrh	r3, [r3, #510]
 893 03da 5A1E     		subs	r2, r3, #1
 894 03dc 1346     		mov	r3, r2
 895 03de DB00     		lsls	r3, r3, #3
 896 03e0 1344     		add	r3, r3, r2
 897 03e2 9B00     		lsls	r3, r3, #2
 898 03e4 554A     		ldr	r2, .L55
 899 03e6 1A44     		add	r2, r2, r3
 900 03e8 FB69     		ldr	r3, [r7, #28]
 901 03ea 9A42     		cmp	r2, r3
 902 03ec 09D2     		bcs	.L44
 292:build/openmote-cc2538_armgcc/openstack/02b-MAChigh/schedule.c ****       ENABLE_INTERRUPTS();
 903              		.loc 1 292 0
 904 03ee FFF7FEFF 		bl	IntMasterEnable
 293:build/openmote-cc2538_armgcc/openstack/02b-MAChigh/schedule.c ****       openserial_printError(
 905              		.loc 1 293 0
 906 03f2 0E20     		movs	r0, #14
 907 03f4 1721     		movs	r1, #23
 908 03f6 0022     		movs	r2, #0
 909 03f8 0023     		movs	r3, #0
 910 03fa FFF7FEFF 		bl	openserial_printError
 294:build/openmote-cc2538_armgcc/openstack/02b-MAChigh/schedule.c ****          COMPONENT_SCHEDULE,ERR_SCHEDULE_OVERFLOWN,
 295:build/openmote-cc2538_armgcc/openstack/02b-MAChigh/schedule.c ****          (errorparameter_t)0,
 296:build/openmote-cc2538_armgcc/openstack/02b-MAChigh/schedule.c ****          (errorparameter_t)0
 297:build/openmote-cc2538_armgcc/openstack/02b-MAChigh/schedule.c ****       );
 298:build/openmote-cc2538_armgcc/openstack/02b-MAChigh/schedule.c ****       return E_FAIL;
 911              		.loc 1 298 0
 912 03fe 0123     		movs	r3, #1
 913 0400 97E0     		b	.L54
 914              	.L44:
 299:build/openmote-cc2538_armgcc/openstack/02b-MAChigh/schedule.c ****    }
 300:build/openmote-cc2538_armgcc/openstack/02b-MAChigh/schedule.c ****    
 301:build/openmote-cc2538_armgcc/openstack/02b-MAChigh/schedule.c ****    // fill that schedule entry with parameters passed
 302:build/openmote-cc2538_armgcc/openstack/02b-MAChigh/schedule.c ****    slotContainer->slotOffset                = slotOffset;
 915              		.loc 1 302 0
 916 0402 FB69     		ldr	r3, [r7, #28]
 917 0404 FA88     		ldrh	r2, [r7, #6]	@ movhi
 918 0406 1A80     		strh	r2, [r3]	@ movhi
 303:build/openmote-cc2538_armgcc/openstack/02b-MAChigh/schedule.c ****    slotContainer->type                      = type;
 919              		.loc 1 303 0
 920 0408 FB69     		ldr	r3, [r7, #28]
 921 040a 7A79     		ldrb	r2, [r7, #5]
 922 040c 9A70     		strb	r2, [r3, #2]
 304:build/openmote-cc2538_armgcc/openstack/02b-MAChigh/schedule.c ****    slotContainer->shared                    = shared;
 923              		.loc 1 304 0
 924 040e FB69     		ldr	r3, [r7, #28]
 925 0410 3A79     		ldrb	r2, [r7, #4]
 926 0412 DA70     		strb	r2, [r3, #3]
 305:build/openmote-cc2538_armgcc/openstack/02b-MAChigh/schedule.c ****    slotContainer->channelOffset             = channelOffset;
 927              		.loc 1 305 0
 928 0414 FB69     		ldr	r3, [r7, #28]
 929 0416 FA78     		ldrb	r2, [r7, #3]
 930 0418 1A71     		strb	r2, [r3, #4]
 306:build/openmote-cc2538_armgcc/openstack/02b-MAChigh/schedule.c ****    memcpy(&slotContainer->neighbor,neighbor,sizeof(open_addr_t));
 931              		.loc 1 306 0
 932 041a FB69     		ldr	r3, [r7, #28]
 933 041c 0533     		adds	r3, r3, #5
 934 041e 1846     		mov	r0, r3
 935 0420 396B     		ldr	r1, [r7, #48]
 936 0422 1122     		movs	r2, #17
 937 0424 FFF7FEFF 		bl	memcpy
 307:build/openmote-cc2538_armgcc/openstack/02b-MAChigh/schedule.c ****    
 308:build/openmote-cc2538_armgcc/openstack/02b-MAChigh/schedule.c ****    // fill that schedule entry with current asn
 309:build/openmote-cc2538_armgcc/openstack/02b-MAChigh/schedule.c ****    ieee154e_getAsn(&(asn[0]));
 938              		.loc 1 309 0
 939 0428 07F10C03 		add	r3, r7, #12
 940 042c 1846     		mov	r0, r3
 941 042e FFF7FEFF 		bl	ieee154e_getAsn
 310:build/openmote-cc2538_armgcc/openstack/02b-MAChigh/schedule.c ****    slotContainer->lastUsedAsn.bytes0and1 = 256*asn[1]+asn[0];
 942              		.loc 1 310 0
 943 0432 7B7B     		ldrb	r3, [r7, #13]	@ zero_extendqisi2
 944 0434 9BB2     		uxth	r3, r3
 945 0436 1B02     		lsls	r3, r3, #8
 946 0438 9AB2     		uxth	r2, r3
 947 043a 3B7B     		ldrb	r3, [r7, #12]	@ zero_extendqisi2
 948 043c 9BB2     		uxth	r3, r3
 949 043e 1344     		add	r3, r3, r2
 950 0440 9AB2     		uxth	r2, r3
 951 0442 FB69     		ldr	r3, [r7, #28]
 952 0444 9A83     		strh	r2, [r3, #28]	@ movhi
 311:build/openmote-cc2538_armgcc/openstack/02b-MAChigh/schedule.c ****    slotContainer->lastUsedAsn.bytes2and3 = 256*asn[3]+asn[2];
 953              		.loc 1 311 0
 954 0446 FB7B     		ldrb	r3, [r7, #15]	@ zero_extendqisi2
 955 0448 9BB2     		uxth	r3, r3
 956 044a 1B02     		lsls	r3, r3, #8
 957 044c 9AB2     		uxth	r2, r3
 958 044e BB7B     		ldrb	r3, [r7, #14]	@ zero_extendqisi2
 959 0450 9BB2     		uxth	r3, r3
 960 0452 1344     		add	r3, r3, r2
 961 0454 9AB2     		uxth	r2, r3
 962 0456 FB69     		ldr	r3, [r7, #28]
 963 0458 5A83     		strh	r2, [r3, #26]	@ movhi
 312:build/openmote-cc2538_armgcc/openstack/02b-MAChigh/schedule.c ****    slotContainer->lastUsedAsn.byte4      = asn[4];
 964              		.loc 1 312 0
 965 045a 3A7C     		ldrb	r2, [r7, #16]	@ zero_extendqisi2
 966 045c FB69     		ldr	r3, [r7, #28]
 967 045e 5A76     		strb	r2, [r3, #25]
 313:build/openmote-cc2538_armgcc/openstack/02b-MAChigh/schedule.c ****    
 314:build/openmote-cc2538_armgcc/openstack/02b-MAChigh/schedule.c ****    // insert in circular list
 315:build/openmote-cc2538_armgcc/openstack/02b-MAChigh/schedule.c ****    if (schedule_vars.currentScheduleEntry==NULL) {
 968              		.loc 1 315 0
 969 0460 364B     		ldr	r3, .L55
 970 0462 D3F8F831 		ldr	r3, [r3, #504]
 971 0466 002B     		cmp	r3, #0
 972 0468 07D1     		bne	.L46
 316:build/openmote-cc2538_armgcc/openstack/02b-MAChigh/schedule.c ****       // this is the first active slot added
 317:build/openmote-cc2538_armgcc/openstack/02b-MAChigh/schedule.c ****       
 318:build/openmote-cc2538_armgcc/openstack/02b-MAChigh/schedule.c ****       // the next slot of this slot is this slot
 319:build/openmote-cc2538_armgcc/openstack/02b-MAChigh/schedule.c ****       slotContainer->next                   = slotContainer;
 973              		.loc 1 319 0
 974 046a FB69     		ldr	r3, [r7, #28]
 975 046c FA69     		ldr	r2, [r7, #28]
 976 046e 1A62     		str	r2, [r3, #32]
 320:build/openmote-cc2538_armgcc/openstack/02b-MAChigh/schedule.c ****       
 321:build/openmote-cc2538_armgcc/openstack/02b-MAChigh/schedule.c ****       // current slot points to this slot
 322:build/openmote-cc2538_armgcc/openstack/02b-MAChigh/schedule.c ****       schedule_vars.currentScheduleEntry    = slotContainer;
 977              		.loc 1 322 0
 978 0470 324A     		ldr	r2, .L55
 979 0472 FB69     		ldr	r3, [r7, #28]
 980 0474 C2F8F831 		str	r3, [r2, #504]
 981 0478 58E0     		b	.L47
 982              	.L46:
 323:build/openmote-cc2538_armgcc/openstack/02b-MAChigh/schedule.c ****    } else  {
 324:build/openmote-cc2538_armgcc/openstack/02b-MAChigh/schedule.c ****       // this is NOT the first active slot added
 325:build/openmote-cc2538_armgcc/openstack/02b-MAChigh/schedule.c ****       
 326:build/openmote-cc2538_armgcc/openstack/02b-MAChigh/schedule.c ****       // find position in schedule
 327:build/openmote-cc2538_armgcc/openstack/02b-MAChigh/schedule.c ****       previousSlotWalker                    = schedule_vars.currentScheduleEntry;
 983              		.loc 1 327 0
 984 047a 304B     		ldr	r3, .L55
 985 047c D3F8F831 		ldr	r3, [r3, #504]
 986 0480 BB61     		str	r3, [r7, #24]
 987              	.L53:
 328:build/openmote-cc2538_armgcc/openstack/02b-MAChigh/schedule.c ****       while (1) {
 329:build/openmote-cc2538_armgcc/openstack/02b-MAChigh/schedule.c ****          nextSlotWalker                     = previousSlotWalker->next;
 988              		.loc 1 329 0
 989 0482 BB69     		ldr	r3, [r7, #24]
 990 0484 1B6A     		ldr	r3, [r3, #32]
 991 0486 7B61     		str	r3, [r7, #20]
 330:build/openmote-cc2538_armgcc/openstack/02b-MAChigh/schedule.c ****          if (
 331:build/openmote-cc2538_armgcc/openstack/02b-MAChigh/schedule.c ****                (
 332:build/openmote-cc2538_armgcc/openstack/02b-MAChigh/schedule.c ****                      (previousSlotWalker->slotOffset <  slotContainer->slotOffset) &&
 992              		.loc 1 332 0
 993 0488 BB69     		ldr	r3, [r7, #24]
 994 048a 1A88     		ldrh	r2, [r3]
 995 048c FB69     		ldr	r3, [r7, #28]
 996 048e 1B88     		ldrh	r3, [r3]
 330:build/openmote-cc2538_armgcc/openstack/02b-MAChigh/schedule.c ****          if (
 997              		.loc 1 330 0
 998 0490 9A42     		cmp	r2, r3
 999 0492 05D2     		bcs	.L48
 333:build/openmote-cc2538_armgcc/openstack/02b-MAChigh/schedule.c ****                      (slotContainer->slotOffset <  nextSlotWalker->slotOffset)
 1000              		.loc 1 333 0
 1001 0494 FB69     		ldr	r3, [r7, #28]
 1002 0496 1A88     		ldrh	r2, [r3]
 1003 0498 7B69     		ldr	r3, [r7, #20]
 1004 049a 1B88     		ldrh	r3, [r3]
 332:build/openmote-cc2538_armgcc/openstack/02b-MAChigh/schedule.c ****                      (slotContainer->slotOffset <  nextSlotWalker->slotOffset)
 1005              		.loc 1 332 0
 1006 049c 9A42     		cmp	r2, r3
 1007 049e 3FD3     		bcc	.L49
 1008              	.L48:
 334:build/openmote-cc2538_armgcc/openstack/02b-MAChigh/schedule.c ****                )
 335:build/openmote-cc2538_armgcc/openstack/02b-MAChigh/schedule.c ****                ||
 336:build/openmote-cc2538_armgcc/openstack/02b-MAChigh/schedule.c ****                (
 337:build/openmote-cc2538_armgcc/openstack/02b-MAChigh/schedule.c ****                      (previousSlotWalker->slotOffset <  slotContainer->slotOffset) &&
 1009              		.loc 1 337 0
 1010 04a0 BB69     		ldr	r3, [r7, #24]
 1011 04a2 1A88     		ldrh	r2, [r3]
 1012 04a4 FB69     		ldr	r3, [r7, #28]
 1013 04a6 1B88     		ldrh	r3, [r3]
 335:build/openmote-cc2538_armgcc/openstack/02b-MAChigh/schedule.c ****                (
 1014              		.loc 1 335 0
 1015 04a8 9A42     		cmp	r2, r3
 1016 04aa 05D2     		bcs	.L50
 338:build/openmote-cc2538_armgcc/openstack/02b-MAChigh/schedule.c ****                      (nextSlotWalker->slotOffset <= previousSlotWalker->slotOffset)
 1017              		.loc 1 338 0
 1018 04ac 7B69     		ldr	r3, [r7, #20]
 1019 04ae 1A88     		ldrh	r2, [r3]
 1020 04b0 BB69     		ldr	r3, [r7, #24]
 1021 04b2 1B88     		ldrh	r3, [r3]
 337:build/openmote-cc2538_armgcc/openstack/02b-MAChigh/schedule.c ****                      (nextSlotWalker->slotOffset <= previousSlotWalker->slotOffset)
 1022              		.loc 1 337 0
 1023 04b4 9A42     		cmp	r2, r3
 1024 04b6 33D9     		bls	.L49
 1025              	.L50:
 339:build/openmote-cc2538_armgcc/openstack/02b-MAChigh/schedule.c ****                )
 340:build/openmote-cc2538_armgcc/openstack/02b-MAChigh/schedule.c ****                ||
 341:build/openmote-cc2538_armgcc/openstack/02b-MAChigh/schedule.c ****                (
 342:build/openmote-cc2538_armgcc/openstack/02b-MAChigh/schedule.c ****                      (slotContainer->slotOffset <  nextSlotWalker->slotOffset) &&
 1026              		.loc 1 342 0
 1027 04b8 FB69     		ldr	r3, [r7, #28]
 1028 04ba 1A88     		ldrh	r2, [r3]
 1029 04bc 7B69     		ldr	r3, [r7, #20]
 1030 04be 1B88     		ldrh	r3, [r3]
 340:build/openmote-cc2538_armgcc/openstack/02b-MAChigh/schedule.c ****                (
 1031              		.loc 1 340 0
 1032 04c0 9A42     		cmp	r2, r3
 1033 04c2 05D2     		bcs	.L51
 343:build/openmote-cc2538_armgcc/openstack/02b-MAChigh/schedule.c ****                      (nextSlotWalker->slotOffset <= previousSlotWalker->slotOffset)
 1034              		.loc 1 343 0
 1035 04c4 7B69     		ldr	r3, [r7, #20]
 1036 04c6 1A88     		ldrh	r2, [r3]
 1037 04c8 BB69     		ldr	r3, [r7, #24]
 1038 04ca 1B88     		ldrh	r3, [r3]
 342:build/openmote-cc2538_armgcc/openstack/02b-MAChigh/schedule.c ****                      (nextSlotWalker->slotOffset <= previousSlotWalker->slotOffset)
 1039              		.loc 1 342 0
 1040 04cc 9A42     		cmp	r2, r3
 1041 04ce 27D9     		bls	.L49
 1042              	.L51:
 344:build/openmote-cc2538_armgcc/openstack/02b-MAChigh/schedule.c ****                )
 345:build/openmote-cc2538_armgcc/openstack/02b-MAChigh/schedule.c ****          ) {
 346:build/openmote-cc2538_armgcc/openstack/02b-MAChigh/schedule.c ****             break;
 347:build/openmote-cc2538_armgcc/openstack/02b-MAChigh/schedule.c ****          }
 348:build/openmote-cc2538_armgcc/openstack/02b-MAChigh/schedule.c ****          if (previousSlotWalker->slotOffset == slotContainer->slotOffset) {
 1043              		.loc 1 348 0
 1044 04d0 BB69     		ldr	r3, [r7, #24]
 1045 04d2 1A88     		ldrh	r2, [r3]
 1046 04d4 FB69     		ldr	r3, [r7, #28]
 1047 04d6 1B88     		ldrh	r3, [r3]
 1048 04d8 9A42     		cmp	r2, r3
 1049 04da 1ED1     		bne	.L52
 349:build/openmote-cc2538_armgcc/openstack/02b-MAChigh/schedule.c ****             // slot is already in schedule
 350:build/openmote-cc2538_armgcc/openstack/02b-MAChigh/schedule.c ****             openserial_printError(
 1050              		.loc 1 350 0
 1051 04dc FB69     		ldr	r3, [r7, #28]
 1052 04de 1B88     		ldrh	r3, [r3]
 1053 04e0 0E20     		movs	r0, #14
 1054 04e2 3F21     		movs	r1, #63
 1055 04e4 1A46     		mov	r2, r3
 1056 04e6 0023     		movs	r3, #0
 1057 04e8 FFF7FEFF 		bl	openserial_printError
 351:build/openmote-cc2538_armgcc/openstack/02b-MAChigh/schedule.c ****                COMPONENT_SCHEDULE,ERR_SCHEDULE_ADDDUPLICATESLOT,
 352:build/openmote-cc2538_armgcc/openstack/02b-MAChigh/schedule.c ****                (errorparameter_t)slotContainer->slotOffset,
 353:build/openmote-cc2538_armgcc/openstack/02b-MAChigh/schedule.c ****                (errorparameter_t)0
 354:build/openmote-cc2538_armgcc/openstack/02b-MAChigh/schedule.c ****             );
 355:build/openmote-cc2538_armgcc/openstack/02b-MAChigh/schedule.c ****             // reset the entry
 356:build/openmote-cc2538_armgcc/openstack/02b-MAChigh/schedule.c ****             slotContainer->slotOffset                = 0;
 1058              		.loc 1 356 0
 1059 04ec FB69     		ldr	r3, [r7, #28]
 1060 04ee 0022     		movs	r2, #0
 1061 04f0 1A80     		strh	r2, [r3]	@ movhi
 357:build/openmote-cc2538_armgcc/openstack/02b-MAChigh/schedule.c ****             slotContainer->type                      = CELLTYPE_OFF;
 1062              		.loc 1 357 0
 1063 04f2 FB69     		ldr	r3, [r7, #28]
 1064 04f4 0022     		movs	r2, #0
 1065 04f6 9A70     		strb	r2, [r3, #2]
 358:build/openmote-cc2538_armgcc/openstack/02b-MAChigh/schedule.c ****             slotContainer->shared                    = FALSE;
 1066              		.loc 1 358 0
 1067 04f8 FB69     		ldr	r3, [r7, #28]
 1068 04fa 0022     		movs	r2, #0
 1069 04fc DA70     		strb	r2, [r3, #3]
 359:build/openmote-cc2538_armgcc/openstack/02b-MAChigh/schedule.c ****             slotContainer->channelOffset             = 0;
 1070              		.loc 1 359 0
 1071 04fe FB69     		ldr	r3, [r7, #28]
 1072 0500 0022     		movs	r2, #0
 1073 0502 1A71     		strb	r2, [r3, #4]
 360:build/openmote-cc2538_armgcc/openstack/02b-MAChigh/schedule.c ****             memset(&slotContainer->neighbor,0,sizeof(open_addr_t));
 1074              		.loc 1 360 0
 1075 0504 FB69     		ldr	r3, [r7, #28]
 1076 0506 0533     		adds	r3, r3, #5
 1077 0508 1846     		mov	r0, r3
 1078 050a 0021     		movs	r1, #0
 1079 050c 1122     		movs	r2, #17
 1080 050e FFF7FEFF 		bl	memset
 361:build/openmote-cc2538_armgcc/openstack/02b-MAChigh/schedule.c ****             ENABLE_INTERRUPTS();
 1081              		.loc 1 361 0
 1082 0512 FFF7FEFF 		bl	IntMasterEnable
 362:build/openmote-cc2538_armgcc/openstack/02b-MAChigh/schedule.c ****             return E_FAIL;
 1083              		.loc 1 362 0
 1084 0516 0123     		movs	r3, #1
 1085 0518 0BE0     		b	.L54
 1086              	.L52:
 363:build/openmote-cc2538_armgcc/openstack/02b-MAChigh/schedule.c ****          }
 364:build/openmote-cc2538_armgcc/openstack/02b-MAChigh/schedule.c ****          previousSlotWalker                 = nextSlotWalker;
 1087              		.loc 1 364 0
 1088 051a 7B69     		ldr	r3, [r7, #20]
 1089 051c BB61     		str	r3, [r7, #24]
 365:build/openmote-cc2538_armgcc/openstack/02b-MAChigh/schedule.c ****       }
 1090              		.loc 1 365 0
 1091 051e B0E7     		b	.L53
 1092              	.L49:
 366:build/openmote-cc2538_armgcc/openstack/02b-MAChigh/schedule.c ****       // insert between previousSlotWalker and nextSlotWalker
 367:build/openmote-cc2538_armgcc/openstack/02b-MAChigh/schedule.c ****       previousSlotWalker->next              = slotContainer;
 1093              		.loc 1 367 0
 1094 0520 BB69     		ldr	r3, [r7, #24]
 1095 0522 FA69     		ldr	r2, [r7, #28]
 1096 0524 1A62     		str	r2, [r3, #32]
 368:build/openmote-cc2538_armgcc/openstack/02b-MAChigh/schedule.c ****       slotContainer->next                   = nextSlotWalker;
 1097              		.loc 1 368 0
 1098 0526 FB69     		ldr	r3, [r7, #28]
 1099 0528 7A69     		ldr	r2, [r7, #20]
 1100 052a 1A62     		str	r2, [r3, #32]
 1101              	.L47:
 369:build/openmote-cc2538_armgcc/openstack/02b-MAChigh/schedule.c ****    }
 370:build/openmote-cc2538_armgcc/openstack/02b-MAChigh/schedule.c ****    
 371:build/openmote-cc2538_armgcc/openstack/02b-MAChigh/schedule.c ****    ENABLE_INTERRUPTS();
 1102              		.loc 1 371 0
 1103 052c FFF7FEFF 		bl	IntMasterEnable
 372:build/openmote-cc2538_armgcc/openstack/02b-MAChigh/schedule.c ****    return E_SUCCESS;
 1104              		.loc 1 372 0
 1105 0530 0023     		movs	r3, #0
 1106              	.L54:
 373:build/openmote-cc2538_armgcc/openstack/02b-MAChigh/schedule.c **** }
 1107              		.loc 1 373 0 discriminator 1
 1108 0532 1846     		mov	r0, r3
 1109 0534 2437     		adds	r7, r7, #36
 1110              		.cfi_def_cfa_offset 12
 1111 0536 BD46     		mov	sp, r7
 1112              		.cfi_def_cfa_register 13
 1113              		@ sp needed
 1114 0538 90BD     		pop	{r4, r7, pc}
 1115              	.L56:
 1116 053a 00BF     		.align	2
 1117              	.L55:
 1118 053c 00000000 		.word	schedule_vars
 1119              		.cfi_endproc
 1120              	.LFE8:
 1122              		.align	2
 1123              		.global	schedule_removeActiveSlot
 1124              		.thumb
 1125              		.thumb_func
 1127              	schedule_removeActiveSlot:
 1128              	.LFB9:
 374:build/openmote-cc2538_armgcc/openstack/02b-MAChigh/schedule.c **** 
 375:build/openmote-cc2538_armgcc/openstack/02b-MAChigh/schedule.c **** /**
 376:build/openmote-cc2538_armgcc/openstack/02b-MAChigh/schedule.c **** \brief Remove an active slot from the schedule.
 377:build/openmote-cc2538_armgcc/openstack/02b-MAChigh/schedule.c **** 
 378:build/openmote-cc2538_armgcc/openstack/02b-MAChigh/schedule.c **** \param slotOffset       The slotoffset of the slot to remove.
 379:build/openmote-cc2538_armgcc/openstack/02b-MAChigh/schedule.c **** \param neighbor         The neighbor associated with this cell (all 0's if
 380:build/openmote-cc2538_armgcc/openstack/02b-MAChigh/schedule.c ****    none)
 381:build/openmote-cc2538_armgcc/openstack/02b-MAChigh/schedule.c **** */
 382:build/openmote-cc2538_armgcc/openstack/02b-MAChigh/schedule.c **** owerror_t schedule_removeActiveSlot(slotOffset_t slotOffset, open_addr_t* neighbor) {
 1129              		.loc 1 382 0
 1130              		.cfi_startproc
 1131              		@ args = 0, pretend = 0, frame = 16
 1132              		@ frame_needed = 1, uses_anonymous_args = 0
 1133 0540 80B5     		push	{r7, lr}
 1134              		.cfi_def_cfa_offset 8
 1135              		.cfi_offset 7, -8
 1136              		.cfi_offset 14, -4
 1137 0542 84B0     		sub	sp, sp, #16
 1138              		.cfi_def_cfa_offset 24
 1139 0544 00AF     		add	r7, sp, #0
 1140              		.cfi_def_cfa_register 7
 1141 0546 0346     		mov	r3, r0
 1142 0548 3960     		str	r1, [r7]
 1143 054a FB80     		strh	r3, [r7, #6]	@ movhi
 383:build/openmote-cc2538_armgcc/openstack/02b-MAChigh/schedule.c ****    scheduleEntry_t* slotContainer;
 384:build/openmote-cc2538_armgcc/openstack/02b-MAChigh/schedule.c ****    scheduleEntry_t* previousSlotWalker;
 385:build/openmote-cc2538_armgcc/openstack/02b-MAChigh/schedule.c ****    
 386:build/openmote-cc2538_armgcc/openstack/02b-MAChigh/schedule.c ****    INTERRUPT_DECLARATION();
 387:build/openmote-cc2538_armgcc/openstack/02b-MAChigh/schedule.c ****    DISABLE_INTERRUPTS();
 1144              		.loc 1 387 0
 1145 054c FFF7FEFF 		bl	IntMasterDisable
 388:build/openmote-cc2538_armgcc/openstack/02b-MAChigh/schedule.c ****    
 389:build/openmote-cc2538_armgcc/openstack/02b-MAChigh/schedule.c ****    // find the schedule entry
 390:build/openmote-cc2538_armgcc/openstack/02b-MAChigh/schedule.c ****    slotContainer = &schedule_vars.scheduleBuf[0];
 1146              		.loc 1 390 0
 1147 0550 364B     		ldr	r3, .L70
 1148 0552 FB60     		str	r3, [r7, #12]
 391:build/openmote-cc2538_armgcc/openstack/02b-MAChigh/schedule.c ****    while (slotContainer<=&schedule_vars.scheduleBuf[schedule_vars.maxActiveSlots-1]) {
 1149              		.loc 1 391 0
 1150 0554 11E0     		b	.L58
 1151              	.L61:
 392:build/openmote-cc2538_armgcc/openstack/02b-MAChigh/schedule.c ****       if (
 393:build/openmote-cc2538_armgcc/openstack/02b-MAChigh/schedule.c ****             slotContainer->slotOffset==slotOffset
 1152              		.loc 1 393 0
 1153 0556 FB68     		ldr	r3, [r7, #12]
 1154 0558 1B88     		ldrh	r3, [r3]
 392:build/openmote-cc2538_armgcc/openstack/02b-MAChigh/schedule.c ****       if (
 1155              		.loc 1 392 0
 1156 055a FA88     		ldrh	r2, [r7, #6]
 1157 055c 9A42     		cmp	r2, r3
 1158 055e 09D1     		bne	.L59
 394:build/openmote-cc2538_armgcc/openstack/02b-MAChigh/schedule.c ****             &&
 395:build/openmote-cc2538_armgcc/openstack/02b-MAChigh/schedule.c ****             packetfunctions_sameAddress(neighbor,&(slotContainer->neighbor))
 1159              		.loc 1 395 0
 1160 0560 FB68     		ldr	r3, [r7, #12]
 1161 0562 0533     		adds	r3, r3, #5
 1162 0564 3868     		ldr	r0, [r7]
 1163 0566 1946     		mov	r1, r3
 1164 0568 FFF7FEFF 		bl	packetfunctions_sameAddress
 1165 056c 0346     		mov	r3, r0
 394:build/openmote-cc2538_armgcc/openstack/02b-MAChigh/schedule.c ****             &&
 1166              		.loc 1 394 0
 1167 056e 002B     		cmp	r3, #0
 1168 0570 00D0     		beq	.L59
 396:build/openmote-cc2538_armgcc/openstack/02b-MAChigh/schedule.c ****             ){
 397:build/openmote-cc2538_armgcc/openstack/02b-MAChigh/schedule.c ****          break;
 1169              		.loc 1 397 0
 1170 0572 0FE0     		b	.L60
 1171              	.L59:
 398:build/openmote-cc2538_armgcc/openstack/02b-MAChigh/schedule.c ****       }
 399:build/openmote-cc2538_armgcc/openstack/02b-MAChigh/schedule.c ****       slotContainer++;
 1172              		.loc 1 399 0
 1173 0574 FB68     		ldr	r3, [r7, #12]
 1174 0576 2433     		adds	r3, r3, #36
 1175 0578 FB60     		str	r3, [r7, #12]
 1176              	.L58:
 391:build/openmote-cc2538_armgcc/openstack/02b-MAChigh/schedule.c ****       if (
 1177              		.loc 1 391 0
 1178 057a 2C4B     		ldr	r3, .L70
 1179 057c B3F8FE31 		ldrh	r3, [r3, #510]
 1180 0580 5A1E     		subs	r2, r3, #1
 1181 0582 1346     		mov	r3, r2
 1182 0584 DB00     		lsls	r3, r3, #3
 1183 0586 1344     		add	r3, r3, r2
 1184 0588 9B00     		lsls	r3, r3, #2
 1185 058a 284A     		ldr	r2, .L70
 1186 058c 1A44     		add	r2, r2, r3
 1187 058e FB68     		ldr	r3, [r7, #12]
 1188 0590 9A42     		cmp	r2, r3
 1189 0592 E0D2     		bcs	.L61
 1190              	.L60:
 400:build/openmote-cc2538_armgcc/openstack/02b-MAChigh/schedule.c ****    }
 401:build/openmote-cc2538_armgcc/openstack/02b-MAChigh/schedule.c ****    
 402:build/openmote-cc2538_armgcc/openstack/02b-MAChigh/schedule.c ****    // abort it could not find
 403:build/openmote-cc2538_armgcc/openstack/02b-MAChigh/schedule.c ****    if (slotContainer>&schedule_vars.scheduleBuf[schedule_vars.maxActiveSlots-1]) {
 1191              		.loc 1 403 0
 1192 0594 254B     		ldr	r3, .L70
 1193 0596 B3F8FE31 		ldrh	r3, [r3, #510]
 1194 059a 5A1E     		subs	r2, r3, #1
 1195 059c 1346     		mov	r3, r2
 1196 059e DB00     		lsls	r3, r3, #3
 1197 05a0 1344     		add	r3, r3, r2
 1198 05a2 9B00     		lsls	r3, r3, #2
 1199 05a4 214A     		ldr	r2, .L70
 1200 05a6 1A44     		add	r2, r2, r3
 1201 05a8 FB68     		ldr	r3, [r7, #12]
 1202 05aa 9A42     		cmp	r2, r3
 1203 05ac 09D2     		bcs	.L62
 404:build/openmote-cc2538_armgcc/openstack/02b-MAChigh/schedule.c ****       ENABLE_INTERRUPTS();
 1204              		.loc 1 404 0
 1205 05ae FFF7FEFF 		bl	IntMasterEnable
 405:build/openmote-cc2538_armgcc/openstack/02b-MAChigh/schedule.c ****       openserial_printCritical(
 1206              		.loc 1 405 0
 1207 05b2 0E20     		movs	r0, #14
 1208 05b4 2E21     		movs	r1, #46
 1209 05b6 0022     		movs	r2, #0
 1210 05b8 0023     		movs	r3, #0
 1211 05ba FFF7FEFF 		bl	openserial_printCritical
 406:build/openmote-cc2538_armgcc/openstack/02b-MAChigh/schedule.c ****          COMPONENT_SCHEDULE,ERR_FREEING_ERROR,
 407:build/openmote-cc2538_armgcc/openstack/02b-MAChigh/schedule.c ****          (errorparameter_t)0,
 408:build/openmote-cc2538_armgcc/openstack/02b-MAChigh/schedule.c ****          (errorparameter_t)0
 409:build/openmote-cc2538_armgcc/openstack/02b-MAChigh/schedule.c ****       );
 410:build/openmote-cc2538_armgcc/openstack/02b-MAChigh/schedule.c ****       return E_FAIL;
 1212              		.loc 1 410 0
 1213 05be 0123     		movs	r3, #1
 1214 05c0 30E0     		b	.L63
 1215              	.L62:
 411:build/openmote-cc2538_armgcc/openstack/02b-MAChigh/schedule.c ****    }
 412:build/openmote-cc2538_armgcc/openstack/02b-MAChigh/schedule.c ****    
 413:build/openmote-cc2538_armgcc/openstack/02b-MAChigh/schedule.c ****    // remove from linked list
 414:build/openmote-cc2538_armgcc/openstack/02b-MAChigh/schedule.c ****    if (slotContainer->next==slotContainer) {
 1216              		.loc 1 414 0
 1217 05c2 FB68     		ldr	r3, [r7, #12]
 1218 05c4 1A6A     		ldr	r2, [r3, #32]
 1219 05c6 FB68     		ldr	r3, [r7, #12]
 1220 05c8 9A42     		cmp	r2, r3
 1221 05ca 07D1     		bne	.L64
 415:build/openmote-cc2538_armgcc/openstack/02b-MAChigh/schedule.c ****       // this is the last active slot
 416:build/openmote-cc2538_armgcc/openstack/02b-MAChigh/schedule.c ****       
 417:build/openmote-cc2538_armgcc/openstack/02b-MAChigh/schedule.c ****       // the next slot of this slot is NULL
 418:build/openmote-cc2538_armgcc/openstack/02b-MAChigh/schedule.c ****       slotContainer->next                   = NULL;
 1222              		.loc 1 418 0
 1223 05cc FB68     		ldr	r3, [r7, #12]
 1224 05ce 0022     		movs	r2, #0
 1225 05d0 1A62     		str	r2, [r3, #32]
 419:build/openmote-cc2538_armgcc/openstack/02b-MAChigh/schedule.c ****       
 420:build/openmote-cc2538_armgcc/openstack/02b-MAChigh/schedule.c ****       // current slot points to this slot
 421:build/openmote-cc2538_armgcc/openstack/02b-MAChigh/schedule.c ****       schedule_vars.currentScheduleEntry    = NULL;
 1226              		.loc 1 421 0
 1227 05d2 164B     		ldr	r3, .L70
 1228 05d4 0022     		movs	r2, #0
 1229 05d6 C3F8F821 		str	r2, [r3, #504]
 1230 05da 1DE0     		b	.L65
 1231              	.L64:
 422:build/openmote-cc2538_armgcc/openstack/02b-MAChigh/schedule.c ****    } else  {
 423:build/openmote-cc2538_armgcc/openstack/02b-MAChigh/schedule.c ****       // this is NOT the last active slot
 424:build/openmote-cc2538_armgcc/openstack/02b-MAChigh/schedule.c ****       
 425:build/openmote-cc2538_armgcc/openstack/02b-MAChigh/schedule.c ****       // find the previous in the schedule
 426:build/openmote-cc2538_armgcc/openstack/02b-MAChigh/schedule.c ****       previousSlotWalker                    = schedule_vars.currentScheduleEntry;
 1232              		.loc 1 426 0
 1233 05dc 134B     		ldr	r3, .L70
 1234 05de D3F8F831 		ldr	r3, [r3, #504]
 1235 05e2 BB60     		str	r3, [r7, #8]
 1236              	.L68:
 427:build/openmote-cc2538_armgcc/openstack/02b-MAChigh/schedule.c ****       
 428:build/openmote-cc2538_armgcc/openstack/02b-MAChigh/schedule.c ****       while (1) {
 429:build/openmote-cc2538_armgcc/openstack/02b-MAChigh/schedule.c ****          if (previousSlotWalker->next==slotContainer){
 1237              		.loc 1 429 0
 1238 05e4 BB68     		ldr	r3, [r7, #8]
 1239 05e6 1A6A     		ldr	r2, [r3, #32]
 1240 05e8 FB68     		ldr	r3, [r7, #12]
 1241 05ea 9A42     		cmp	r2, r3
 1242 05ec 0BD1     		bne	.L66
 430:build/openmote-cc2538_armgcc/openstack/02b-MAChigh/schedule.c ****             break;
 1243              		.loc 1 430 0
 1244 05ee 00BF     		nop
 431:build/openmote-cc2538_armgcc/openstack/02b-MAChigh/schedule.c ****          }
 432:build/openmote-cc2538_armgcc/openstack/02b-MAChigh/schedule.c ****          previousSlotWalker                 = previousSlotWalker->next;
 433:build/openmote-cc2538_armgcc/openstack/02b-MAChigh/schedule.c ****       }
 434:build/openmote-cc2538_armgcc/openstack/02b-MAChigh/schedule.c ****       
 435:build/openmote-cc2538_armgcc/openstack/02b-MAChigh/schedule.c ****       // remove this element from the linked list, i.e. have the previous slot
 436:build/openmote-cc2538_armgcc/openstack/02b-MAChigh/schedule.c ****       // "jump" to slotContainer's next
 437:build/openmote-cc2538_armgcc/openstack/02b-MAChigh/schedule.c ****       previousSlotWalker->next              = slotContainer->next;
 1245              		.loc 1 437 0
 1246 05f0 FB68     		ldr	r3, [r7, #12]
 1247 05f2 1A6A     		ldr	r2, [r3, #32]
 1248 05f4 BB68     		ldr	r3, [r7, #8]
 1249 05f6 1A62     		str	r2, [r3, #32]
 438:build/openmote-cc2538_armgcc/openstack/02b-MAChigh/schedule.c ****       
 439:build/openmote-cc2538_armgcc/openstack/02b-MAChigh/schedule.c ****       // update current slot if points to slot I just removed
 440:build/openmote-cc2538_armgcc/openstack/02b-MAChigh/schedule.c ****       if (schedule_vars.currentScheduleEntry==slotContainer) {
 1250              		.loc 1 440 0
 1251 05f8 0C4B     		ldr	r3, .L70
 1252 05fa D3F8F821 		ldr	r2, [r3, #504]
 1253 05fe FB68     		ldr	r3, [r7, #12]
 1254 0600 9A42     		cmp	r2, r3
 1255 0602 09D1     		bne	.L65
 1256 0604 03E0     		b	.L69
 1257              	.L66:
 432:build/openmote-cc2538_armgcc/openstack/02b-MAChigh/schedule.c ****       }
 1258              		.loc 1 432 0
 1259 0606 BB68     		ldr	r3, [r7, #8]
 1260 0608 1B6A     		ldr	r3, [r3, #32]
 1261 060a BB60     		str	r3, [r7, #8]
 433:build/openmote-cc2538_armgcc/openstack/02b-MAChigh/schedule.c ****       
 1262              		.loc 1 433 0
 1263 060c EAE7     		b	.L68
 1264              	.L69:
 441:build/openmote-cc2538_armgcc/openstack/02b-MAChigh/schedule.c ****          schedule_vars.currentScheduleEntry = slotContainer->next;
 1265              		.loc 1 441 0
 1266 060e FB68     		ldr	r3, [r7, #12]
 1267 0610 1B6A     		ldr	r3, [r3, #32]
 1268 0612 064A     		ldr	r2, .L70
 1269 0614 C2F8F831 		str	r3, [r2, #504]
 1270              	.L65:
 442:build/openmote-cc2538_armgcc/openstack/02b-MAChigh/schedule.c ****       }
 443:build/openmote-cc2538_armgcc/openstack/02b-MAChigh/schedule.c ****    }
 444:build/openmote-cc2538_armgcc/openstack/02b-MAChigh/schedule.c ****    
 445:build/openmote-cc2538_armgcc/openstack/02b-MAChigh/schedule.c ****    // reset removed schedule entry
 446:build/openmote-cc2538_armgcc/openstack/02b-MAChigh/schedule.c ****    schedule_resetEntry(slotContainer);
 1271              		.loc 1 446 0
 1272 0618 F868     		ldr	r0, [r7, #12]
 1273 061a FFF7FEFF 		bl	schedule_resetEntry
 447:build/openmote-cc2538_armgcc/openstack/02b-MAChigh/schedule.c ****    
 448:build/openmote-cc2538_armgcc/openstack/02b-MAChigh/schedule.c ****    ENABLE_INTERRUPTS();
 1274              		.loc 1 448 0
 1275 061e FFF7FEFF 		bl	IntMasterEnable
 449:build/openmote-cc2538_armgcc/openstack/02b-MAChigh/schedule.c ****    
 450:build/openmote-cc2538_armgcc/openstack/02b-MAChigh/schedule.c ****    return E_SUCCESS;
 1276              		.loc 1 450 0
 1277 0622 0023     		movs	r3, #0
 1278              	.L63:
 451:build/openmote-cc2538_armgcc/openstack/02b-MAChigh/schedule.c **** }
 1279              		.loc 1 451 0
 1280 0624 1846     		mov	r0, r3
 1281 0626 1037     		adds	r7, r7, #16
 1282              		.cfi_def_cfa_offset 8
 1283 0628 BD46     		mov	sp, r7
 1284              		.cfi_def_cfa_register 13
 1285              		@ sp needed
 1286 062a 80BD     		pop	{r7, pc}
 1287              	.L71:
 1288              		.align	2
 1289              	.L70:
 1290 062c 00000000 		.word	schedule_vars
 1291              		.cfi_endproc
 1292              	.LFE9:
 1294              		.align	2
 1295              		.global	schedule_isSlotOffsetAvailable
 1296              		.thumb
 1297              		.thumb_func
 1299              	schedule_isSlotOffsetAvailable:
 1300              	.LFB10:
 452:build/openmote-cc2538_armgcc/openstack/02b-MAChigh/schedule.c **** 
 453:build/openmote-cc2538_armgcc/openstack/02b-MAChigh/schedule.c **** bool schedule_isSlotOffsetAvailable(uint16_t slotOffset){
 1301              		.loc 1 453 0
 1302              		.cfi_startproc
 1303              		@ args = 0, pretend = 0, frame = 16
 1304              		@ frame_needed = 1, uses_anonymous_args = 0
 1305 0630 80B5     		push	{r7, lr}
 1306              		.cfi_def_cfa_offset 8
 1307              		.cfi_offset 7, -8
 1308              		.cfi_offset 14, -4
 1309 0632 84B0     		sub	sp, sp, #16
 1310              		.cfi_def_cfa_offset 24
 1311 0634 00AF     		add	r7, sp, #0
 1312              		.cfi_def_cfa_register 7
 1313 0636 0346     		mov	r3, r0
 1314 0638 FB80     		strh	r3, [r7, #6]	@ movhi
 454:build/openmote-cc2538_armgcc/openstack/02b-MAChigh/schedule.c ****    
 455:build/openmote-cc2538_armgcc/openstack/02b-MAChigh/schedule.c ****    scheduleEntry_t* scheduleWalker;
 456:build/openmote-cc2538_armgcc/openstack/02b-MAChigh/schedule.c ****    
 457:build/openmote-cc2538_armgcc/openstack/02b-MAChigh/schedule.c ****    INTERRUPT_DECLARATION();
 458:build/openmote-cc2538_armgcc/openstack/02b-MAChigh/schedule.c ****    DISABLE_INTERRUPTS();
 1315              		.loc 1 458 0
 1316 063a FFF7FEFF 		bl	IntMasterDisable
 459:build/openmote-cc2538_armgcc/openstack/02b-MAChigh/schedule.c ****    
 460:build/openmote-cc2538_armgcc/openstack/02b-MAChigh/schedule.c ****    if (slotOffset>=schedule_vars.frameLength){
 1317              		.loc 1 460 0
 1318 063e 134B     		ldr	r3, .L77
 1319 0640 B3F8FC31 		ldrh	r3, [r3, #508]
 1320 0644 FA88     		ldrh	r2, [r7, #6]
 1321 0646 9A42     		cmp	r2, r3
 1322 0648 03D3     		bcc	.L73
 461:build/openmote-cc2538_armgcc/openstack/02b-MAChigh/schedule.c ****       ENABLE_INTERRUPTS();
 1323              		.loc 1 461 0
 1324 064a FFF7FEFF 		bl	IntMasterEnable
 462:build/openmote-cc2538_armgcc/openstack/02b-MAChigh/schedule.c ****       return FALSE;
 1325              		.loc 1 462 0
 1326 064e 0023     		movs	r3, #0
 1327 0650 18E0     		b	.L74
 1328              	.L73:
 463:build/openmote-cc2538_armgcc/openstack/02b-MAChigh/schedule.c ****    }
 464:build/openmote-cc2538_armgcc/openstack/02b-MAChigh/schedule.c ****    
 465:build/openmote-cc2538_armgcc/openstack/02b-MAChigh/schedule.c ****    scheduleWalker = schedule_vars.currentScheduleEntry;
 1329              		.loc 1 465 0
 1330 0652 0E4B     		ldr	r3, .L77
 1331 0654 D3F8F831 		ldr	r3, [r3, #504]
 1332 0658 FB60     		str	r3, [r7, #12]
 1333              	.L76:
 466:build/openmote-cc2538_armgcc/openstack/02b-MAChigh/schedule.c ****    do {
 467:build/openmote-cc2538_armgcc/openstack/02b-MAChigh/schedule.c ****       if(slotOffset == scheduleWalker->slotOffset){
 1334              		.loc 1 467 0
 1335 065a FB68     		ldr	r3, [r7, #12]
 1336 065c 1B88     		ldrh	r3, [r3]
 1337 065e FA88     		ldrh	r2, [r7, #6]
 1338 0660 9A42     		cmp	r2, r3
 1339 0662 03D1     		bne	.L75
 468:build/openmote-cc2538_armgcc/openstack/02b-MAChigh/schedule.c ****           ENABLE_INTERRUPTS();
 1340              		.loc 1 468 0
 1341 0664 FFF7FEFF 		bl	IntMasterEnable
 469:build/openmote-cc2538_armgcc/openstack/02b-MAChigh/schedule.c ****           return FALSE;
 1342              		.loc 1 469 0
 1343 0668 0023     		movs	r3, #0
 1344 066a 0BE0     		b	.L74
 1345              	.L75:
 470:build/openmote-cc2538_armgcc/openstack/02b-MAChigh/schedule.c ****       }
 471:build/openmote-cc2538_armgcc/openstack/02b-MAChigh/schedule.c ****       scheduleWalker = scheduleWalker->next;
 1346              		.loc 1 471 0
 1347 066c FB68     		ldr	r3, [r7, #12]
 1348 066e 1B6A     		ldr	r3, [r3, #32]
 1349 0670 FB60     		str	r3, [r7, #12]
 472:build/openmote-cc2538_armgcc/openstack/02b-MAChigh/schedule.c ****    }while(scheduleWalker!=schedule_vars.currentScheduleEntry);
 1350              		.loc 1 472 0
 1351 0672 064B     		ldr	r3, .L77
 1352 0674 D3F8F821 		ldr	r2, [r3, #504]
 1353 0678 FB68     		ldr	r3, [r7, #12]
 1354 067a 9A42     		cmp	r2, r3
 1355 067c EDD1     		bne	.L76
 473:build/openmote-cc2538_armgcc/openstack/02b-MAChigh/schedule.c ****    
 474:build/openmote-cc2538_armgcc/openstack/02b-MAChigh/schedule.c ****    ENABLE_INTERRUPTS();
 1356              		.loc 1 474 0
 1357 067e FFF7FEFF 		bl	IntMasterEnable
 475:build/openmote-cc2538_armgcc/openstack/02b-MAChigh/schedule.c ****    
 476:build/openmote-cc2538_armgcc/openstack/02b-MAChigh/schedule.c ****    return TRUE;
 1358              		.loc 1 476 0
 1359 0682 0123     		movs	r3, #1
 1360              	.L74:
 477:build/openmote-cc2538_armgcc/openstack/02b-MAChigh/schedule.c **** }
 1361              		.loc 1 477 0
 1362 0684 1846     		mov	r0, r3
 1363 0686 1037     		adds	r7, r7, #16
 1364              		.cfi_def_cfa_offset 8
 1365 0688 BD46     		mov	sp, r7
 1366              		.cfi_def_cfa_register 13
 1367              		@ sp needed
 1368 068a 80BD     		pop	{r7, pc}
 1369              	.L78:
 1370              		.align	2
 1371              	.L77:
 1372 068c 00000000 		.word	schedule_vars
 1373              		.cfi_endproc
 1374              	.LFE10:
 1376              		.align	2
 1377              		.global	schedule_removeAllCells
 1378              		.thumb
 1379              		.thumb_func
 1381              	schedule_removeAllCells:
 1382              	.LFB11:
 478:build/openmote-cc2538_armgcc/openstack/02b-MAChigh/schedule.c **** 
 479:build/openmote-cc2538_armgcc/openstack/02b-MAChigh/schedule.c **** void schedule_removeAllCells(
 480:build/openmote-cc2538_armgcc/openstack/02b-MAChigh/schedule.c ****     uint8_t        slotframeID,
 481:build/openmote-cc2538_armgcc/openstack/02b-MAChigh/schedule.c ****     open_addr_t*   previousHop
 482:build/openmote-cc2538_armgcc/openstack/02b-MAChigh/schedule.c ****     ){
 1383              		.loc 1 482 0
 1384              		.cfi_startproc
 1385              		@ args = 0, pretend = 0, frame = 16
 1386              		@ frame_needed = 1, uses_anonymous_args = 0
 1387 0690 80B5     		push	{r7, lr}
 1388              		.cfi_def_cfa_offset 8
 1389              		.cfi_offset 7, -8
 1390              		.cfi_offset 14, -4
 1391 0692 84B0     		sub	sp, sp, #16
 1392              		.cfi_def_cfa_offset 24
 1393 0694 00AF     		add	r7, sp, #0
 1394              		.cfi_def_cfa_register 7
 1395 0696 0346     		mov	r3, r0
 1396 0698 3960     		str	r1, [r7]
 1397 069a FB71     		strb	r3, [r7, #7]
 483:build/openmote-cc2538_armgcc/openstack/02b-MAChigh/schedule.c ****     uint8_t i;
 484:build/openmote-cc2538_armgcc/openstack/02b-MAChigh/schedule.c ****     
 485:build/openmote-cc2538_armgcc/openstack/02b-MAChigh/schedule.c ****     // remove all entries in schedule with previousHop address
 486:build/openmote-cc2538_armgcc/openstack/02b-MAChigh/schedule.c ****     for(i=0;i<MAXACTIVESLOTS;i++){
 1398              		.loc 1 486 0
 1399 069c 0023     		movs	r3, #0
 1400 069e FB73     		strb	r3, [r7, #15]
 1401 06a0 1DE0     		b	.L80
 1402              	.L82:
 487:build/openmote-cc2538_armgcc/openstack/02b-MAChigh/schedule.c ****         if (packetfunctions_sameAddress(&(schedule_vars.scheduleBuf[i].neighbor),previousHop)){
 1403              		.loc 1 487 0
 1404 06a2 FA7B     		ldrb	r2, [r7, #15]	@ zero_extendqisi2
 1405 06a4 1346     		mov	r3, r2
 1406 06a6 DB00     		lsls	r3, r3, #3
 1407 06a8 1344     		add	r3, r3, r2
 1408 06aa 9B00     		lsls	r3, r3, #2
 1409 06ac 0F4A     		ldr	r2, .L83
 1410 06ae 1344     		add	r3, r3, r2
 1411 06b0 0533     		adds	r3, r3, #5
 1412 06b2 1846     		mov	r0, r3
 1413 06b4 3968     		ldr	r1, [r7]
 1414 06b6 FFF7FEFF 		bl	packetfunctions_sameAddress
 1415 06ba 0346     		mov	r3, r0
 1416 06bc 002B     		cmp	r3, #0
 1417 06be 0BD0     		beq	.L81
 488:build/openmote-cc2538_armgcc/openstack/02b-MAChigh/schedule.c ****            schedule_removeActiveSlot(
 1418              		.loc 1 488 0
 1419 06c0 FA7B     		ldrb	r2, [r7, #15]	@ zero_extendqisi2
 1420 06c2 0A49     		ldr	r1, .L83
 1421 06c4 1346     		mov	r3, r2
 1422 06c6 DB00     		lsls	r3, r3, #3
 1423 06c8 1344     		add	r3, r3, r2
 1424 06ca 9B00     		lsls	r3, r3, #2
 1425 06cc 0B44     		add	r3, r3, r1
 1426 06ce 1B88     		ldrh	r3, [r3]
 1427 06d0 1846     		mov	r0, r3
 1428 06d2 3968     		ldr	r1, [r7]
 1429 06d4 FFF7FEFF 		bl	schedule_removeActiveSlot
 1430              	.L81:
 486:build/openmote-cc2538_armgcc/openstack/02b-MAChigh/schedule.c ****         if (packetfunctions_sameAddress(&(schedule_vars.scheduleBuf[i].neighbor),previousHop)){
 1431              		.loc 1 486 0 discriminator 2
 1432 06d8 FB7B     		ldrb	r3, [r7, #15]	@ zero_extendqisi2
 1433 06da 0133     		adds	r3, r3, #1
 1434 06dc FB73     		strb	r3, [r7, #15]
 1435              	.L80:
 486:build/openmote-cc2538_armgcc/openstack/02b-MAChigh/schedule.c ****         if (packetfunctions_sameAddress(&(schedule_vars.scheduleBuf[i].neighbor),previousHop)){
 1436              		.loc 1 486 0 is_stmt 0 discriminator 1
 1437 06de FB7B     		ldrb	r3, [r7, #15]	@ zero_extendqisi2
 1438 06e0 0D2B     		cmp	r3, #13
 1439 06e2 DED9     		bls	.L82
 489:build/openmote-cc2538_armgcc/openstack/02b-MAChigh/schedule.c ****               schedule_vars.scheduleBuf[i].slotOffset,
 490:build/openmote-cc2538_armgcc/openstack/02b-MAChigh/schedule.c ****               previousHop
 491:build/openmote-cc2538_armgcc/openstack/02b-MAChigh/schedule.c ****            );
 492:build/openmote-cc2538_armgcc/openstack/02b-MAChigh/schedule.c ****         }
 493:build/openmote-cc2538_armgcc/openstack/02b-MAChigh/schedule.c ****     }
 494:build/openmote-cc2538_armgcc/openstack/02b-MAChigh/schedule.c **** }
 1440              		.loc 1 494 0 is_stmt 1
 1441 06e4 1037     		adds	r7, r7, #16
 1442              		.cfi_def_cfa_offset 8
 1443 06e6 BD46     		mov	sp, r7
 1444              		.cfi_def_cfa_register 13
 1445              		@ sp needed
 1446 06e8 80BD     		pop	{r7, pc}
 1447              	.L84:
 1448 06ea 00BF     		.align	2
 1449              	.L83:
 1450 06ec 00000000 		.word	schedule_vars
 1451              		.cfi_endproc
 1452              	.LFE11:
 1454              		.align	2
 1455              		.global	schedule_getNumberOfFreeEntries
 1456              		.thumb
 1457              		.thumb_func
 1459              	schedule_getNumberOfFreeEntries:
 1460              	.LFB12:
 495:build/openmote-cc2538_armgcc/openstack/02b-MAChigh/schedule.c **** 
 496:build/openmote-cc2538_armgcc/openstack/02b-MAChigh/schedule.c **** uint8_t schedule_getNumberOfFreeEntries(){
 1461              		.loc 1 496 0
 1462              		.cfi_startproc
 1463              		@ args = 0, pretend = 0, frame = 8
 1464              		@ frame_needed = 1, uses_anonymous_args = 0
 1465 06f0 80B5     		push	{r7, lr}
 1466              		.cfi_def_cfa_offset 8
 1467              		.cfi_offset 7, -8
 1468              		.cfi_offset 14, -4
 1469 06f2 82B0     		sub	sp, sp, #8
 1470              		.cfi_def_cfa_offset 16
 1471 06f4 00AF     		add	r7, sp, #0
 1472              		.cfi_def_cfa_register 7
 497:build/openmote-cc2538_armgcc/openstack/02b-MAChigh/schedule.c ****    uint8_t i; 
 498:build/openmote-cc2538_armgcc/openstack/02b-MAChigh/schedule.c ****    uint8_t counter;
 499:build/openmote-cc2538_armgcc/openstack/02b-MAChigh/schedule.c ****    
 500:build/openmote-cc2538_armgcc/openstack/02b-MAChigh/schedule.c ****    INTERRUPT_DECLARATION();
 501:build/openmote-cc2538_armgcc/openstack/02b-MAChigh/schedule.c ****    DISABLE_INTERRUPTS();
 1473              		.loc 1 501 0
 1474 06f6 FFF7FEFF 		bl	IntMasterDisable
 502:build/openmote-cc2538_armgcc/openstack/02b-MAChigh/schedule.c ****    
 503:build/openmote-cc2538_armgcc/openstack/02b-MAChigh/schedule.c ****    counter = 0;
 1475              		.loc 1 503 0
 1476 06fa 0023     		movs	r3, #0
 1477 06fc BB71     		strb	r3, [r7, #6]
 504:build/openmote-cc2538_armgcc/openstack/02b-MAChigh/schedule.c ****    for(i=0;i<MAXACTIVESLOTS;i++) {
 1478              		.loc 1 504 0
 1479 06fe 0023     		movs	r3, #0
 1480 0700 FB71     		strb	r3, [r7, #7]
 1481 0702 0FE0     		b	.L86
 1482              	.L88:
 505:build/openmote-cc2538_armgcc/openstack/02b-MAChigh/schedule.c ****       if(schedule_vars.scheduleBuf[i].type == CELLTYPE_OFF){
 1483              		.loc 1 505 0
 1484 0704 FA79     		ldrb	r2, [r7, #7]	@ zero_extendqisi2
 1485 0706 0C49     		ldr	r1, .L90
 1486 0708 1346     		mov	r3, r2
 1487 070a DB00     		lsls	r3, r3, #3
 1488 070c 1344     		add	r3, r3, r2
 1489 070e 9B00     		lsls	r3, r3, #2
 1490 0710 0B44     		add	r3, r3, r1
 1491 0712 9B78     		ldrb	r3, [r3, #2]	@ zero_extendqisi2
 1492 0714 002B     		cmp	r3, #0
 1493 0716 02D1     		bne	.L87
 506:build/openmote-cc2538_armgcc/openstack/02b-MAChigh/schedule.c ****          counter++;
 1494              		.loc 1 506 0
 1495 0718 BB79     		ldrb	r3, [r7, #6]	@ zero_extendqisi2
 1496 071a 0133     		adds	r3, r3, #1
 1497 071c BB71     		strb	r3, [r7, #6]
 1498              	.L87:
 504:build/openmote-cc2538_armgcc/openstack/02b-MAChigh/schedule.c ****    for(i=0;i<MAXACTIVESLOTS;i++) {
 1499              		.loc 1 504 0 discriminator 2
 1500 071e FB79     		ldrb	r3, [r7, #7]	@ zero_extendqisi2
 1501 0720 0133     		adds	r3, r3, #1
 1502 0722 FB71     		strb	r3, [r7, #7]
 1503              	.L86:
 504:build/openmote-cc2538_armgcc/openstack/02b-MAChigh/schedule.c ****    for(i=0;i<MAXACTIVESLOTS;i++) {
 1504              		.loc 1 504 0 is_stmt 0 discriminator 1
 1505 0724 FB79     		ldrb	r3, [r7, #7]	@ zero_extendqisi2
 1506 0726 0D2B     		cmp	r3, #13
 1507 0728 ECD9     		bls	.L88
 507:build/openmote-cc2538_armgcc/openstack/02b-MAChigh/schedule.c ****       }
 508:build/openmote-cc2538_armgcc/openstack/02b-MAChigh/schedule.c ****    }
 509:build/openmote-cc2538_armgcc/openstack/02b-MAChigh/schedule.c ****    
 510:build/openmote-cc2538_armgcc/openstack/02b-MAChigh/schedule.c ****    ENABLE_INTERRUPTS();
 1508              		.loc 1 510 0 is_stmt 1
 1509 072a FFF7FEFF 		bl	IntMasterEnable
 511:build/openmote-cc2538_armgcc/openstack/02b-MAChigh/schedule.c ****    
 512:build/openmote-cc2538_armgcc/openstack/02b-MAChigh/schedule.c ****    return counter;
 1510              		.loc 1 512 0
 1511 072e BB79     		ldrb	r3, [r7, #6]	@ zero_extendqisi2
 513:build/openmote-cc2538_armgcc/openstack/02b-MAChigh/schedule.c **** }
 1512              		.loc 1 513 0
 1513 0730 1846     		mov	r0, r3
 1514 0732 0837     		adds	r7, r7, #8
 1515              		.cfi_def_cfa_offset 8
 1516 0734 BD46     		mov	sp, r7
 1517              		.cfi_def_cfa_register 13
 1518              		@ sp needed
 1519 0736 80BD     		pop	{r7, pc}
 1520              	.L91:
 1521              		.align	2
 1522              	.L90:
 1523 0738 00000000 		.word	schedule_vars
 1524              		.cfi_endproc
 1525              	.LFE12:
 1527              		.align	2
 1528              		.global	schedule_getNumberOfDedicatedCells
 1529              		.thumb
 1530              		.thumb_func
 1532              	schedule_getNumberOfDedicatedCells:
 1533              	.LFB13:
 514:build/openmote-cc2538_armgcc/openstack/02b-MAChigh/schedule.c **** 
 515:build/openmote-cc2538_armgcc/openstack/02b-MAChigh/schedule.c **** uint8_t schedule_getNumberOfDedicatedCells(open_addr_t* neighbor){
 1534              		.loc 1 515 0
 1535              		.cfi_startproc
 1536              		@ args = 0, pretend = 0, frame = 16
 1537              		@ frame_needed = 1, uses_anonymous_args = 0
 1538 073c 80B5     		push	{r7, lr}
 1539              		.cfi_def_cfa_offset 8
 1540              		.cfi_offset 7, -8
 1541              		.cfi_offset 14, -4
 1542 073e 84B0     		sub	sp, sp, #16
 1543              		.cfi_def_cfa_offset 24
 1544 0740 00AF     		add	r7, sp, #0
 1545              		.cfi_def_cfa_register 7
 1546 0742 7860     		str	r0, [r7, #4]
 516:build/openmote-cc2538_armgcc/openstack/02b-MAChigh/schedule.c ****    uint8_t i; 
 517:build/openmote-cc2538_armgcc/openstack/02b-MAChigh/schedule.c ****    uint8_t counter;
 518:build/openmote-cc2538_armgcc/openstack/02b-MAChigh/schedule.c ****    
 519:build/openmote-cc2538_armgcc/openstack/02b-MAChigh/schedule.c ****    INTERRUPT_DECLARATION();
 520:build/openmote-cc2538_armgcc/openstack/02b-MAChigh/schedule.c ****    DISABLE_INTERRUPTS();
 1547              		.loc 1 520 0
 1548 0744 FFF7FEFF 		bl	IntMasterDisable
 521:build/openmote-cc2538_armgcc/openstack/02b-MAChigh/schedule.c ****    
 522:build/openmote-cc2538_armgcc/openstack/02b-MAChigh/schedule.c ****    counter = 0;
 1549              		.loc 1 522 0
 1550 0748 0023     		movs	r3, #0
 1551 074a BB73     		strb	r3, [r7, #14]
 523:build/openmote-cc2538_armgcc/openstack/02b-MAChigh/schedule.c ****    for(i=0;i<MAXACTIVESLOTS;i++) {
 1552              		.loc 1 523 0
 1553 074c 0023     		movs	r3, #0
 1554 074e FB73     		strb	r3, [r7, #15]
 1555 0750 14E0     		b	.L93
 1556              	.L95:
 524:build/openmote-cc2538_armgcc/openstack/02b-MAChigh/schedule.c ****       if(
 525:build/openmote-cc2538_armgcc/openstack/02b-MAChigh/schedule.c ****          packetfunctions_sameAddress(&schedule_vars.scheduleBuf[i].neighbor, neighbor) == TRUE
 1557              		.loc 1 525 0
 1558 0752 FA7B     		ldrb	r2, [r7, #15]	@ zero_extendqisi2
 1559 0754 1346     		mov	r3, r2
 1560 0756 DB00     		lsls	r3, r3, #3
 1561 0758 1344     		add	r3, r3, r2
 1562 075a 9B00     		lsls	r3, r3, #2
 1563 075c 0C4A     		ldr	r2, .L97
 1564 075e 1344     		add	r3, r3, r2
 1565 0760 0533     		adds	r3, r3, #5
 1566 0762 1846     		mov	r0, r3
 1567 0764 7968     		ldr	r1, [r7, #4]
 1568 0766 FFF7FEFF 		bl	packetfunctions_sameAddress
 1569 076a 0346     		mov	r3, r0
 524:build/openmote-cc2538_armgcc/openstack/02b-MAChigh/schedule.c ****       if(
 1570              		.loc 1 524 0
 1571 076c 002B     		cmp	r3, #0
 1572 076e 02D0     		beq	.L94
 526:build/openmote-cc2538_armgcc/openstack/02b-MAChigh/schedule.c ****       ){
 527:build/openmote-cc2538_armgcc/openstack/02b-MAChigh/schedule.c ****          counter++;
 1573              		.loc 1 527 0
 1574 0770 BB7B     		ldrb	r3, [r7, #14]	@ zero_extendqisi2
 1575 0772 0133     		adds	r3, r3, #1
 1576 0774 BB73     		strb	r3, [r7, #14]
 1577              	.L94:
 523:build/openmote-cc2538_armgcc/openstack/02b-MAChigh/schedule.c ****       if(
 1578              		.loc 1 523 0 discriminator 2
 1579 0776 FB7B     		ldrb	r3, [r7, #15]	@ zero_extendqisi2
 1580 0778 0133     		adds	r3, r3, #1
 1581 077a FB73     		strb	r3, [r7, #15]
 1582              	.L93:
 523:build/openmote-cc2538_armgcc/openstack/02b-MAChigh/schedule.c ****       if(
 1583              		.loc 1 523 0 is_stmt 0 discriminator 1
 1584 077c FB7B     		ldrb	r3, [r7, #15]	@ zero_extendqisi2
 1585 077e 0D2B     		cmp	r3, #13
 1586 0780 E7D9     		bls	.L95
 528:build/openmote-cc2538_armgcc/openstack/02b-MAChigh/schedule.c ****       }
 529:build/openmote-cc2538_armgcc/openstack/02b-MAChigh/schedule.c ****    }
 530:build/openmote-cc2538_armgcc/openstack/02b-MAChigh/schedule.c ****    
 531:build/openmote-cc2538_armgcc/openstack/02b-MAChigh/schedule.c ****    ENABLE_INTERRUPTS();
 1587              		.loc 1 531 0 is_stmt 1
 1588 0782 FFF7FEFF 		bl	IntMasterEnable
 532:build/openmote-cc2538_armgcc/openstack/02b-MAChigh/schedule.c ****    
 533:build/openmote-cc2538_armgcc/openstack/02b-MAChigh/schedule.c ****    return counter;
 1589              		.loc 1 533 0
 1590 0786 BB7B     		ldrb	r3, [r7, #14]	@ zero_extendqisi2
 534:build/openmote-cc2538_armgcc/openstack/02b-MAChigh/schedule.c **** }
 1591              		.loc 1 534 0
 1592 0788 1846     		mov	r0, r3
 1593 078a 1037     		adds	r7, r7, #16
 1594              		.cfi_def_cfa_offset 8
 1595 078c BD46     		mov	sp, r7
 1596              		.cfi_def_cfa_register 13
 1597              		@ sp needed
 1598 078e 80BD     		pop	{r7, pc}
 1599              	.L98:
 1600              		.align	2
 1601              	.L97:
 1602 0790 00000000 		.word	schedule_vars
 1603              		.cfi_endproc
 1604              	.LFE13:
 1606              		.align	2
 1607              		.global	schedule_getNonParentNeighborWithDedicatedCells
 1608              		.thumb
 1609              		.thumb_func
 1611              	schedule_getNonParentNeighborWithDedicatedCells:
 1612              	.LFB14:
 535:build/openmote-cc2538_armgcc/openstack/02b-MAChigh/schedule.c **** 
 536:build/openmote-cc2538_armgcc/openstack/02b-MAChigh/schedule.c **** open_addr_t* schedule_getNonParentNeighborWithDedicatedCells(open_addr_t* neighbor){
 1613              		.loc 1 536 0
 1614              		.cfi_startproc
 1615              		@ args = 0, pretend = 0, frame = 16
 1616              		@ frame_needed = 1, uses_anonymous_args = 0
 1617 0794 80B5     		push	{r7, lr}
 1618              		.cfi_def_cfa_offset 8
 1619              		.cfi_offset 7, -8
 1620              		.cfi_offset 14, -4
 1621 0796 84B0     		sub	sp, sp, #16
 1622              		.cfi_def_cfa_offset 24
 1623 0798 00AF     		add	r7, sp, #0
 1624              		.cfi_def_cfa_register 7
 1625 079a 7860     		str	r0, [r7, #4]
 537:build/openmote-cc2538_armgcc/openstack/02b-MAChigh/schedule.c ****    uint8_t i; 
 538:build/openmote-cc2538_armgcc/openstack/02b-MAChigh/schedule.c ****    
 539:build/openmote-cc2538_armgcc/openstack/02b-MAChigh/schedule.c ****    INTERRUPT_DECLARATION();
 540:build/openmote-cc2538_armgcc/openstack/02b-MAChigh/schedule.c ****    DISABLE_INTERRUPTS();
 1626              		.loc 1 540 0
 1627 079c FFF7FEFF 		bl	IntMasterDisable
 541:build/openmote-cc2538_armgcc/openstack/02b-MAChigh/schedule.c **** 
 542:build/openmote-cc2538_armgcc/openstack/02b-MAChigh/schedule.c ****    for(i=0;i<MAXACTIVESLOTS;i++) {
 1628              		.loc 1 542 0
 1629 07a0 0023     		movs	r3, #0
 1630 07a2 FB73     		strb	r3, [r7, #15]
 1631 07a4 27E0     		b	.L100
 1632              	.L103:
 543:build/openmote-cc2538_armgcc/openstack/02b-MAChigh/schedule.c ****       if(
 544:build/openmote-cc2538_armgcc/openstack/02b-MAChigh/schedule.c ****          schedule_vars.scheduleBuf[i].neighbor.type == ADDR_64B &&
 1633              		.loc 1 544 0
 1634 07a6 FA7B     		ldrb	r2, [r7, #15]	@ zero_extendqisi2
 1635 07a8 1849     		ldr	r1, .L104
 1636 07aa 1346     		mov	r3, r2
 1637 07ac DB00     		lsls	r3, r3, #3
 1638 07ae 1344     		add	r3, r3, r2
 1639 07b0 9B00     		lsls	r3, r3, #2
 1640 07b2 0B44     		add	r3, r3, r1
 1641 07b4 5B79     		ldrb	r3, [r3, #5]	@ zero_extendqisi2
 543:build/openmote-cc2538_armgcc/openstack/02b-MAChigh/schedule.c ****       if(
 1642              		.loc 1 543 0
 1643 07b6 022B     		cmp	r3, #2
 1644 07b8 1AD1     		bne	.L101
 545:build/openmote-cc2538_armgcc/openstack/02b-MAChigh/schedule.c ****          packetfunctions_sameAddress(&schedule_vars.scheduleBuf[i].neighbor, neighbor) == FALSE
 1645              		.loc 1 545 0
 1646 07ba FA7B     		ldrb	r2, [r7, #15]	@ zero_extendqisi2
 1647 07bc 1346     		mov	r3, r2
 1648 07be DB00     		lsls	r3, r3, #3
 1649 07c0 1344     		add	r3, r3, r2
 1650 07c2 9B00     		lsls	r3, r3, #2
 1651 07c4 114A     		ldr	r2, .L104
 1652 07c6 1344     		add	r3, r3, r2
 1653 07c8 0533     		adds	r3, r3, #5
 1654 07ca 1846     		mov	r0, r3
 1655 07cc 7968     		ldr	r1, [r7, #4]
 1656 07ce FFF7FEFF 		bl	packetfunctions_sameAddress
 1657 07d2 0346     		mov	r3, r0
 1658 07d4 83F00103 		eor	r3, r3, #1
 1659 07d8 DBB2     		uxtb	r3, r3
 544:build/openmote-cc2538_armgcc/openstack/02b-MAChigh/schedule.c ****          packetfunctions_sameAddress(&schedule_vars.scheduleBuf[i].neighbor, neighbor) == FALSE
 1660              		.loc 1 544 0
 1661 07da 002B     		cmp	r3, #0
 1662 07dc 08D0     		beq	.L101
 546:build/openmote-cc2538_armgcc/openstack/02b-MAChigh/schedule.c ****       ){
 547:build/openmote-cc2538_armgcc/openstack/02b-MAChigh/schedule.c ****          return &schedule_vars.scheduleBuf[i].neighbor;
 1663              		.loc 1 547 0
 1664 07de FA7B     		ldrb	r2, [r7, #15]	@ zero_extendqisi2
 1665 07e0 1346     		mov	r3, r2
 1666 07e2 DB00     		lsls	r3, r3, #3
 1667 07e4 1344     		add	r3, r3, r2
 1668 07e6 9B00     		lsls	r3, r3, #2
 1669 07e8 084A     		ldr	r2, .L104
 1670 07ea 1344     		add	r3, r3, r2
 1671 07ec 0533     		adds	r3, r3, #5
 1672 07ee 08E0     		b	.L102
 1673              	.L101:
 542:build/openmote-cc2538_armgcc/openstack/02b-MAChigh/schedule.c ****       if(
 1674              		.loc 1 542 0 discriminator 2
 1675 07f0 FB7B     		ldrb	r3, [r7, #15]	@ zero_extendqisi2
 1676 07f2 0133     		adds	r3, r3, #1
 1677 07f4 FB73     		strb	r3, [r7, #15]
 1678              	.L100:
 542:build/openmote-cc2538_armgcc/openstack/02b-MAChigh/schedule.c ****       if(
 1679              		.loc 1 542 0 is_stmt 0 discriminator 1
 1680 07f6 FB7B     		ldrb	r3, [r7, #15]	@ zero_extendqisi2
 1681 07f8 0D2B     		cmp	r3, #13
 1682 07fa D4D9     		bls	.L103
 548:build/openmote-cc2538_armgcc/openstack/02b-MAChigh/schedule.c ****       }
 549:build/openmote-cc2538_armgcc/openstack/02b-MAChigh/schedule.c ****    }
 550:build/openmote-cc2538_armgcc/openstack/02b-MAChigh/schedule.c ****    
 551:build/openmote-cc2538_armgcc/openstack/02b-MAChigh/schedule.c ****    ENABLE_INTERRUPTS();
 1683              		.loc 1 551 0 is_stmt 1
 1684 07fc FFF7FEFF 		bl	IntMasterEnable
 552:build/openmote-cc2538_armgcc/openstack/02b-MAChigh/schedule.c ****    
 553:build/openmote-cc2538_armgcc/openstack/02b-MAChigh/schedule.c ****    return NULL;
 1685              		.loc 1 553 0
 1686 0800 0023     		movs	r3, #0
 1687              	.L102:
 554:build/openmote-cc2538_armgcc/openstack/02b-MAChigh/schedule.c **** }
 1688              		.loc 1 554 0
 1689 0802 1846     		mov	r0, r3
 1690 0804 1037     		adds	r7, r7, #16
 1691              		.cfi_def_cfa_offset 8
 1692 0806 BD46     		mov	sp, r7
 1693              		.cfi_def_cfa_register 13
 1694              		@ sp needed
 1695 0808 80BD     		pop	{r7, pc}
 1696              	.L105:
 1697 080a 00BF     		.align	2
 1698              	.L104:
 1699 080c 00000000 		.word	schedule_vars
 1700              		.cfi_endproc
 1701              	.LFE14:
 1703              		.align	2
 1704              		.global	schedule_isNumTxWrapped
 1705              		.thumb
 1706              		.thumb_func
 1708              	schedule_isNumTxWrapped:
 1709              	.LFB15:
 555:build/openmote-cc2538_armgcc/openstack/02b-MAChigh/schedule.c **** 
 556:build/openmote-cc2538_armgcc/openstack/02b-MAChigh/schedule.c **** bool schedule_isNumTxWrapped(open_addr_t* neighbor){
 1710              		.loc 1 556 0
 1711              		.cfi_startproc
 1712              		@ args = 0, pretend = 0, frame = 16
 1713              		@ frame_needed = 1, uses_anonymous_args = 0
 1714 0810 80B5     		push	{r7, lr}
 1715              		.cfi_def_cfa_offset 8
 1716              		.cfi_offset 7, -8
 1717              		.cfi_offset 14, -4
 1718 0812 84B0     		sub	sp, sp, #16
 1719              		.cfi_def_cfa_offset 24
 1720 0814 00AF     		add	r7, sp, #0
 1721              		.cfi_def_cfa_register 7
 1722 0816 7860     		str	r0, [r7, #4]
 557:build/openmote-cc2538_armgcc/openstack/02b-MAChigh/schedule.c ****     uint8_t i;
 558:build/openmote-cc2538_armgcc/openstack/02b-MAChigh/schedule.c ****     bool    returnVal;
 559:build/openmote-cc2538_armgcc/openstack/02b-MAChigh/schedule.c ****     
 560:build/openmote-cc2538_armgcc/openstack/02b-MAChigh/schedule.c ****     INTERRUPT_DECLARATION();
 561:build/openmote-cc2538_armgcc/openstack/02b-MAChigh/schedule.c ****     DISABLE_INTERRUPTS();
 1723              		.loc 1 561 0
 1724 0818 FFF7FEFF 		bl	IntMasterDisable
 562:build/openmote-cc2538_armgcc/openstack/02b-MAChigh/schedule.c ****     
 563:build/openmote-cc2538_armgcc/openstack/02b-MAChigh/schedule.c ****     returnVal = FALSE;
 1725              		.loc 1 563 0
 1726 081c 0023     		movs	r3, #0
 1727 081e BB73     		strb	r3, [r7, #14]
 564:build/openmote-cc2538_armgcc/openstack/02b-MAChigh/schedule.c ****     for(i=0;i<MAXACTIVESLOTS;i++) {
 1728              		.loc 1 564 0
 1729 0820 0023     		movs	r3, #0
 1730 0822 FB73     		strb	r3, [r7, #15]
 1731 0824 24E0     		b	.L107
 1732              	.L111:
 565:build/openmote-cc2538_armgcc/openstack/02b-MAChigh/schedule.c ****         if(
 566:build/openmote-cc2538_armgcc/openstack/02b-MAChigh/schedule.c ****             packetfunctions_sameAddress(&schedule_vars.scheduleBuf[i].neighbor, neighbor) == TRUE
 1733              		.loc 1 566 0
 1734 0826 FA7B     		ldrb	r2, [r7, #15]	@ zero_extendqisi2
 1735 0828 1346     		mov	r3, r2
 1736 082a DB00     		lsls	r3, r3, #3
 1737 082c 1344     		add	r3, r3, r2
 1738 082e 9B00     		lsls	r3, r3, #2
 1739 0830 144A     		ldr	r2, .L112
 1740 0832 1344     		add	r3, r3, r2
 1741 0834 0533     		adds	r3, r3, #5
 1742 0836 1846     		mov	r0, r3
 1743 0838 7968     		ldr	r1, [r7, #4]
 1744 083a FFF7FEFF 		bl	packetfunctions_sameAddress
 1745 083e 0346     		mov	r3, r0
 565:build/openmote-cc2538_armgcc/openstack/02b-MAChigh/schedule.c ****         if(
 1746              		.loc 1 565 0
 1747 0840 002B     		cmp	r3, #0
 1748 0842 12D0     		beq	.L108
 567:build/openmote-cc2538_armgcc/openstack/02b-MAChigh/schedule.c ****         ){
 568:build/openmote-cc2538_armgcc/openstack/02b-MAChigh/schedule.c ****             if (schedule_vars.scheduleBuf[i].numTx>0xFF/2){
 1749              		.loc 1 568 0
 1750 0844 FA7B     		ldrb	r2, [r7, #15]	@ zero_extendqisi2
 1751 0846 0F49     		ldr	r1, .L112
 1752 0848 1346     		mov	r3, r2
 1753 084a DB00     		lsls	r3, r3, #3
 1754 084c 1344     		add	r3, r3, r2
 1755 084e 9B00     		lsls	r3, r3, #2
 1756 0850 0B44     		add	r3, r3, r1
 1757 0852 1033     		adds	r3, r3, #16
 1758 0854 DB79     		ldrb	r3, [r3, #7]	@ zero_extendqisi2
 1759 0856 DBB2     		uxtb	r3, r3
 1760 0858 5BB2     		sxtb	r3, r3
 1761 085a 002B     		cmp	r3, #0
 1762 085c 01DA     		bge	.L109
 569:build/openmote-cc2538_armgcc/openstack/02b-MAChigh/schedule.c ****                 returnVal = TRUE;
 1763              		.loc 1 569 0
 1764 085e 0123     		movs	r3, #1
 1765 0860 BB73     		strb	r3, [r7, #14]
 1766              	.L109:
 570:build/openmote-cc2538_armgcc/openstack/02b-MAChigh/schedule.c ****             }
 571:build/openmote-cc2538_armgcc/openstack/02b-MAChigh/schedule.c ****             ENABLE_INTERRUPTS();
 1767              		.loc 1 571 0
 1768 0862 FFF7FEFF 		bl	IntMasterEnable
 572:build/openmote-cc2538_armgcc/openstack/02b-MAChigh/schedule.c ****             return returnVal;
 1769              		.loc 1 572 0
 1770 0866 BB7B     		ldrb	r3, [r7, #14]	@ zero_extendqisi2
 1771 0868 08E0     		b	.L110
 1772              	.L108:
 564:build/openmote-cc2538_armgcc/openstack/02b-MAChigh/schedule.c ****         if(
 1773              		.loc 1 564 0 discriminator 2
 1774 086a FB7B     		ldrb	r3, [r7, #15]	@ zero_extendqisi2
 1775 086c 0133     		adds	r3, r3, #1
 1776 086e FB73     		strb	r3, [r7, #15]
 1777              	.L107:
 564:build/openmote-cc2538_armgcc/openstack/02b-MAChigh/schedule.c ****         if(
 1778              		.loc 1 564 0 is_stmt 0 discriminator 1
 1779 0870 FB7B     		ldrb	r3, [r7, #15]	@ zero_extendqisi2
 1780 0872 0D2B     		cmp	r3, #13
 1781 0874 D7D9     		bls	.L111
 573:build/openmote-cc2538_armgcc/openstack/02b-MAChigh/schedule.c ****         }
 574:build/openmote-cc2538_armgcc/openstack/02b-MAChigh/schedule.c ****     }
 575:build/openmote-cc2538_armgcc/openstack/02b-MAChigh/schedule.c ****     ENABLE_INTERRUPTS();
 1782              		.loc 1 575 0 is_stmt 1
 1783 0876 FFF7FEFF 		bl	IntMasterEnable
 576:build/openmote-cc2538_armgcc/openstack/02b-MAChigh/schedule.c ****     return returnVal;
 1784              		.loc 1 576 0
 1785 087a BB7B     		ldrb	r3, [r7, #14]	@ zero_extendqisi2
 1786              	.L110:
 577:build/openmote-cc2538_armgcc/openstack/02b-MAChigh/schedule.c ****     
 578:build/openmote-cc2538_armgcc/openstack/02b-MAChigh/schedule.c **** }
 1787              		.loc 1 578 0
 1788 087c 1846     		mov	r0, r3
 1789 087e 1037     		adds	r7, r7, #16
 1790              		.cfi_def_cfa_offset 8
 1791 0880 BD46     		mov	sp, r7
 1792              		.cfi_def_cfa_register 13
 1793              		@ sp needed
 1794 0882 80BD     		pop	{r7, pc}
 1795              	.L113:
 1796              		.align	2
 1797              	.L112:
 1798 0884 00000000 		.word	schedule_vars
 1799              		.cfi_endproc
 1800              	.LFE15:
 1802              		.align	2
 1803              		.global	schedule_getCellsToBeRelocated
 1804              		.thumb
 1805              		.thumb_func
 1807              	schedule_getCellsToBeRelocated:
 1808              	.LFB16:
 579:build/openmote-cc2538_armgcc/openstack/02b-MAChigh/schedule.c **** bool schedule_getCellsToBeRelocated(open_addr_t* neighbor, cellInfo_ht* celllist){
 1809              		.loc 1 579 0
 1810              		.cfi_startproc
 1811              		@ args = 0, pretend = 0, frame = 16
 1812              		@ frame_needed = 1, uses_anonymous_args = 0
 1813 0888 80B5     		push	{r7, lr}
 1814              		.cfi_def_cfa_offset 8
 1815              		.cfi_offset 7, -8
 1816              		.cfi_offset 14, -4
 1817 088a 84B0     		sub	sp, sp, #16
 1818              		.cfi_def_cfa_offset 24
 1819 088c 00AF     		add	r7, sp, #0
 1820              		.cfi_def_cfa_register 7
 1821 088e 7860     		str	r0, [r7, #4]
 1822 0890 3960     		str	r1, [r7]
 580:build/openmote-cc2538_armgcc/openstack/02b-MAChigh/schedule.c ****     uint8_t     i;
 581:build/openmote-cc2538_armgcc/openstack/02b-MAChigh/schedule.c ****     
 582:build/openmote-cc2538_armgcc/openstack/02b-MAChigh/schedule.c ****     uint16_t    highestPDR;
 583:build/openmote-cc2538_armgcc/openstack/02b-MAChigh/schedule.c ****     uint16_t    cellPDR;
 584:build/openmote-cc2538_armgcc/openstack/02b-MAChigh/schedule.c ****     
 585:build/openmote-cc2538_armgcc/openstack/02b-MAChigh/schedule.c ****     INTERRUPT_DECLARATION();
 586:build/openmote-cc2538_armgcc/openstack/02b-MAChigh/schedule.c ****     DISABLE_INTERRUPTS();
 1823              		.loc 1 586 0
 1824 0892 FFF7FEFF 		bl	IntMasterDisable
 587:build/openmote-cc2538_armgcc/openstack/02b-MAChigh/schedule.c ****     
 588:build/openmote-cc2538_armgcc/openstack/02b-MAChigh/schedule.c ****     highestPDR = 0;
 1825              		.loc 1 588 0
 1826 0896 0023     		movs	r3, #0
 1827 0898 BB81     		strh	r3, [r7, #12]	@ movhi
 589:build/openmote-cc2538_armgcc/openstack/02b-MAChigh/schedule.c ****     // found the cell with higest PDR
 590:build/openmote-cc2538_armgcc/openstack/02b-MAChigh/schedule.c ****     for(i=0;i<MAXACTIVESLOTS;i++) {
 1828              		.loc 1 590 0
 1829 089a 0023     		movs	r3, #0
 1830 089c FB73     		strb	r3, [r7, #15]
 1831 089e 3BE0     		b	.L115
 1832              	.L117:
 591:build/openmote-cc2538_armgcc/openstack/02b-MAChigh/schedule.c ****         if(
 592:build/openmote-cc2538_armgcc/openstack/02b-MAChigh/schedule.c ****             packetfunctions_sameAddress(&schedule_vars.scheduleBuf[i].neighbor, neighbor) == TRUE
 1833              		.loc 1 592 0
 1834 08a0 FA7B     		ldrb	r2, [r7, #15]	@ zero_extendqisi2
 1835 08a2 1346     		mov	r3, r2
 1836 08a4 DB00     		lsls	r3, r3, #3
 1837 08a6 1344     		add	r3, r3, r2
 1838 08a8 9B00     		lsls	r3, r3, #2
 1839 08aa 514A     		ldr	r2, .L123
 1840 08ac 1344     		add	r3, r3, r2
 1841 08ae 0533     		adds	r3, r3, #5
 1842 08b0 1846     		mov	r0, r3
 1843 08b2 7968     		ldr	r1, [r7, #4]
 1844 08b4 FFF7FEFF 		bl	packetfunctions_sameAddress
 1845 08b8 0346     		mov	r3, r0
 591:build/openmote-cc2538_armgcc/openstack/02b-MAChigh/schedule.c ****         if(
 1846              		.loc 1 591 0
 1847 08ba 002B     		cmp	r3, #0
 1848 08bc 29D0     		beq	.L116
 593:build/openmote-cc2538_armgcc/openstack/02b-MAChigh/schedule.c ****         ){
 594:build/openmote-cc2538_armgcc/openstack/02b-MAChigh/schedule.c ****             if (schedule_vars.scheduleBuf[i].numTx>0){
 1849              		.loc 1 594 0
 1850 08be FA7B     		ldrb	r2, [r7, #15]	@ zero_extendqisi2
 1851 08c0 4B49     		ldr	r1, .L123
 1852 08c2 1346     		mov	r3, r2
 1853 08c4 DB00     		lsls	r3, r3, #3
 1854 08c6 1344     		add	r3, r3, r2
 1855 08c8 9B00     		lsls	r3, r3, #2
 1856 08ca 0B44     		add	r3, r3, r1
 1857 08cc 1033     		adds	r3, r3, #16
 1858 08ce DB79     		ldrb	r3, [r3, #7]	@ zero_extendqisi2
 1859 08d0 002B     		cmp	r3, #0
 1860 08d2 1ED0     		beq	.L116
 595:build/openmote-cc2538_armgcc/openstack/02b-MAChigh/schedule.c ****                 cellPDR = 100*schedule_vars.scheduleBuf[i].numTxACK/schedule_vars.scheduleBuf[i].nu
 1861              		.loc 1 595 0
 1862 08d4 FA7B     		ldrb	r2, [r7, #15]	@ zero_extendqisi2
 1863 08d6 4649     		ldr	r1, .L123
 1864 08d8 1346     		mov	r3, r2
 1865 08da DB00     		lsls	r3, r3, #3
 1866 08dc 1344     		add	r3, r3, r2
 1867 08de 9B00     		lsls	r3, r3, #2
 1868 08e0 0B44     		add	r3, r3, r1
 1869 08e2 1833     		adds	r3, r3, #24
 1870 08e4 1B78     		ldrb	r3, [r3]	@ zero_extendqisi2
 1871 08e6 1A46     		mov	r2, r3
 1872 08e8 6423     		movs	r3, #100
 1873 08ea 03FB02F1 		mul	r1, r3, r2
 1874 08ee FA7B     		ldrb	r2, [r7, #15]	@ zero_extendqisi2
 1875 08f0 3F48     		ldr	r0, .L123
 1876 08f2 1346     		mov	r3, r2
 1877 08f4 DB00     		lsls	r3, r3, #3
 1878 08f6 1344     		add	r3, r3, r2
 1879 08f8 9B00     		lsls	r3, r3, #2
 1880 08fa 0344     		add	r3, r3, r0
 1881 08fc 1033     		adds	r3, r3, #16
 1882 08fe DB79     		ldrb	r3, [r3, #7]	@ zero_extendqisi2
 1883 0900 91FBF3F3 		sdiv	r3, r1, r3
 1884 0904 7B81     		strh	r3, [r7, #10]	@ movhi
 596:build/openmote-cc2538_armgcc/openstack/02b-MAChigh/schedule.c ****                 if (cellPDR > highestPDR){
 1885              		.loc 1 596 0
 1886 0906 7A89     		ldrh	r2, [r7, #10]
 1887 0908 BB89     		ldrh	r3, [r7, #12]
 1888 090a 9A42     		cmp	r2, r3
 1889 090c 01D9     		bls	.L116
 597:build/openmote-cc2538_armgcc/openstack/02b-MAChigh/schedule.c ****                     highestPDR = cellPDR;
 1890              		.loc 1 597 0
 1891 090e 7B89     		ldrh	r3, [r7, #10]	@ movhi
 1892 0910 BB81     		strh	r3, [r7, #12]	@ movhi
 1893              	.L116:
 590:build/openmote-cc2538_armgcc/openstack/02b-MAChigh/schedule.c ****         if(
 1894              		.loc 1 590 0 discriminator 2
 1895 0912 FB7B     		ldrb	r3, [r7, #15]	@ zero_extendqisi2
 1896 0914 0133     		adds	r3, r3, #1
 1897 0916 FB73     		strb	r3, [r7, #15]
 1898              	.L115:
 590:build/openmote-cc2538_armgcc/openstack/02b-MAChigh/schedule.c ****         if(
 1899              		.loc 1 590 0 is_stmt 0 discriminator 1
 1900 0918 FB7B     		ldrb	r3, [r7, #15]	@ zero_extendqisi2
 1901 091a 0D2B     		cmp	r3, #13
 1902 091c C0D9     		bls	.L117
 598:build/openmote-cc2538_armgcc/openstack/02b-MAChigh/schedule.c ****                 }
 599:build/openmote-cc2538_armgcc/openstack/02b-MAChigh/schedule.c ****             }
 600:build/openmote-cc2538_armgcc/openstack/02b-MAChigh/schedule.c ****         }
 601:build/openmote-cc2538_armgcc/openstack/02b-MAChigh/schedule.c ****     }
 602:build/openmote-cc2538_armgcc/openstack/02b-MAChigh/schedule.c ****     
 603:build/openmote-cc2538_armgcc/openstack/02b-MAChigh/schedule.c ****     if (highestPDR==0){
 1903              		.loc 1 603 0 is_stmt 1
 1904 091e BB89     		ldrh	r3, [r7, #12]
 1905 0920 002B     		cmp	r3, #0
 1906 0922 01D1     		bne	.L118
 604:build/openmote-cc2538_armgcc/openstack/02b-MAChigh/schedule.c ****         // no cell to relocate
 605:build/openmote-cc2538_armgcc/openstack/02b-MAChigh/schedule.c ****         return FALSE;
 1907              		.loc 1 605 0
 1908 0924 0023     		movs	r3, #0
 1909 0926 5FE0     		b	.L119
 1910              	.L118:
 606:build/openmote-cc2538_armgcc/openstack/02b-MAChigh/schedule.c ****     }
 607:build/openmote-cc2538_armgcc/openstack/02b-MAChigh/schedule.c ****     
 608:build/openmote-cc2538_armgcc/openstack/02b-MAChigh/schedule.c ****     for(i=0;i<MAXACTIVESLOTS;i++) {
 1911              		.loc 1 608 0
 1912 0928 0023     		movs	r3, #0
 1913 092a FB73     		strb	r3, [r7, #15]
 1914 092c 56E0     		b	.L120
 1915              	.L122:
 609:build/openmote-cc2538_armgcc/openstack/02b-MAChigh/schedule.c ****         if(
 610:build/openmote-cc2538_armgcc/openstack/02b-MAChigh/schedule.c ****             packetfunctions_sameAddress(&schedule_vars.scheduleBuf[i].neighbor, neighbor) == TRUE
 1916              		.loc 1 610 0
 1917 092e FA7B     		ldrb	r2, [r7, #15]	@ zero_extendqisi2
 1918 0930 1346     		mov	r3, r2
 1919 0932 DB00     		lsls	r3, r3, #3
 1920 0934 1344     		add	r3, r3, r2
 1921 0936 9B00     		lsls	r3, r3, #2
 1922 0938 2D4A     		ldr	r2, .L123
 1923 093a 1344     		add	r3, r3, r2
 1924 093c 0533     		adds	r3, r3, #5
 1925 093e 1846     		mov	r0, r3
 1926 0940 7968     		ldr	r1, [r7, #4]
 1927 0942 FFF7FEFF 		bl	packetfunctions_sameAddress
 1928 0946 0346     		mov	r3, r0
 609:build/openmote-cc2538_armgcc/openstack/02b-MAChigh/schedule.c ****         if(
 1929              		.loc 1 609 0
 1930 0948 002B     		cmp	r3, #0
 1931 094a 44D0     		beq	.L121
 611:build/openmote-cc2538_armgcc/openstack/02b-MAChigh/schedule.c ****         ){
 612:build/openmote-cc2538_armgcc/openstack/02b-MAChigh/schedule.c ****             if (schedule_vars.scheduleBuf[i].numTx>0){
 1932              		.loc 1 612 0
 1933 094c FA7B     		ldrb	r2, [r7, #15]	@ zero_extendqisi2
 1934 094e 2849     		ldr	r1, .L123
 1935 0950 1346     		mov	r3, r2
 1936 0952 DB00     		lsls	r3, r3, #3
 1937 0954 1344     		add	r3, r3, r2
 1938 0956 9B00     		lsls	r3, r3, #2
 1939 0958 0B44     		add	r3, r3, r1
 1940 095a 1033     		adds	r3, r3, #16
 1941 095c DB79     		ldrb	r3, [r3, #7]	@ zero_extendqisi2
 1942 095e 002B     		cmp	r3, #0
 1943 0960 39D0     		beq	.L121
 613:build/openmote-cc2538_armgcc/openstack/02b-MAChigh/schedule.c ****                 cellPDR = 100*schedule_vars.scheduleBuf[i].numTxACK/schedule_vars.scheduleBuf[i].nu
 1944              		.loc 1 613 0
 1945 0962 FA7B     		ldrb	r2, [r7, #15]	@ zero_extendqisi2
 1946 0964 2249     		ldr	r1, .L123
 1947 0966 1346     		mov	r3, r2
 1948 0968 DB00     		lsls	r3, r3, #3
 1949 096a 1344     		add	r3, r3, r2
 1950 096c 9B00     		lsls	r3, r3, #2
 1951 096e 0B44     		add	r3, r3, r1
 1952 0970 1833     		adds	r3, r3, #24
 1953 0972 1B78     		ldrb	r3, [r3]	@ zero_extendqisi2
 1954 0974 1A46     		mov	r2, r3
 1955 0976 6423     		movs	r3, #100
 1956 0978 03FB02F1 		mul	r1, r3, r2
 1957 097c FA7B     		ldrb	r2, [r7, #15]	@ zero_extendqisi2
 1958 097e 1C48     		ldr	r0, .L123
 1959 0980 1346     		mov	r3, r2
 1960 0982 DB00     		lsls	r3, r3, #3
 1961 0984 1344     		add	r3, r3, r2
 1962 0986 9B00     		lsls	r3, r3, #2
 1963 0988 0344     		add	r3, r3, r0
 1964 098a 1033     		adds	r3, r3, #16
 1965 098c DB79     		ldrb	r3, [r3, #7]	@ zero_extendqisi2
 1966 098e 91FBF3F3 		sdiv	r3, r1, r3
 1967 0992 7B81     		strh	r3, [r7, #10]	@ movhi
 614:build/openmote-cc2538_armgcc/openstack/02b-MAChigh/schedule.c ****                 if (highestPDR-cellPDR > RELOCATE_PDRTHRES){
 1968              		.loc 1 614 0
 1969 0994 BA89     		ldrh	r2, [r7, #12]
 1970 0996 7B89     		ldrh	r3, [r7, #10]
 1971 0998 D31A     		subs	r3, r2, r3
 1972 099a 322B     		cmp	r3, #50
 1973 099c 1BDD     		ble	.L121
 615:build/openmote-cc2538_armgcc/openstack/02b-MAChigh/schedule.c ****                     celllist->isUsed            = TRUE;
 1974              		.loc 1 615 0
 1975 099e 3B68     		ldr	r3, [r7]
 1976 09a0 0122     		movs	r2, #1
 1977 09a2 1A70     		strb	r2, [r3]
 616:build/openmote-cc2538_armgcc/openstack/02b-MAChigh/schedule.c ****                     celllist->slotoffset        = schedule_vars.scheduleBuf[i].slotOffset;
 1978              		.loc 1 616 0
 1979 09a4 FA7B     		ldrb	r2, [r7, #15]	@ zero_extendqisi2
 1980 09a6 1249     		ldr	r1, .L123
 1981 09a8 1346     		mov	r3, r2
 1982 09aa DB00     		lsls	r3, r3, #3
 1983 09ac 1344     		add	r3, r3, r2
 1984 09ae 9B00     		lsls	r3, r3, #2
 1985 09b0 0B44     		add	r3, r3, r1
 1986 09b2 1A88     		ldrh	r2, [r3]
 1987 09b4 3B68     		ldr	r3, [r7]
 1988 09b6 A3F80120 		strh	r2, [r3, #1]	@ unaligned
 617:build/openmote-cc2538_armgcc/openstack/02b-MAChigh/schedule.c ****                     celllist->channeloffset     = schedule_vars.scheduleBuf[i].channelOffset;
 1989              		.loc 1 617 0
 1990 09ba FA7B     		ldrb	r2, [r7, #15]	@ zero_extendqisi2
 1991 09bc 0C49     		ldr	r1, .L123
 1992 09be 1346     		mov	r3, r2
 1993 09c0 DB00     		lsls	r3, r3, #3
 1994 09c2 1344     		add	r3, r3, r2
 1995 09c4 9B00     		lsls	r3, r3, #2
 1996 09c6 0B44     		add	r3, r3, r1
 1997 09c8 1B79     		ldrb	r3, [r3, #4]	@ zero_extendqisi2
 1998 09ca 9AB2     		uxth	r2, r3
 1999 09cc 3B68     		ldr	r3, [r7]
 2000 09ce A3F80320 		strh	r2, [r3, #3]	@ unaligned
 618:build/openmote-cc2538_armgcc/openstack/02b-MAChigh/schedule.c ****                     return TRUE;
 2001              		.loc 1 618 0
 2002 09d2 0123     		movs	r3, #1
 2003 09d4 08E0     		b	.L119
 2004              	.L121:
 608:build/openmote-cc2538_armgcc/openstack/02b-MAChigh/schedule.c ****         if(
 2005              		.loc 1 608 0 discriminator 2
 2006 09d6 FB7B     		ldrb	r3, [r7, #15]	@ zero_extendqisi2
 2007 09d8 0133     		adds	r3, r3, #1
 2008 09da FB73     		strb	r3, [r7, #15]
 2009              	.L120:
 608:build/openmote-cc2538_armgcc/openstack/02b-MAChigh/schedule.c ****         if(
 2010              		.loc 1 608 0 is_stmt 0 discriminator 1
 2011 09dc FB7B     		ldrb	r3, [r7, #15]	@ zero_extendqisi2
 2012 09de 0D2B     		cmp	r3, #13
 2013 09e0 A5D9     		bls	.L122
 619:build/openmote-cc2538_armgcc/openstack/02b-MAChigh/schedule.c ****                 }
 620:build/openmote-cc2538_armgcc/openstack/02b-MAChigh/schedule.c ****             }
 621:build/openmote-cc2538_armgcc/openstack/02b-MAChigh/schedule.c ****         }
 622:build/openmote-cc2538_armgcc/openstack/02b-MAChigh/schedule.c ****     }
 623:build/openmote-cc2538_armgcc/openstack/02b-MAChigh/schedule.c ****     
 624:build/openmote-cc2538_armgcc/openstack/02b-MAChigh/schedule.c ****     ENABLE_INTERRUPTS();
 2014              		.loc 1 624 0 is_stmt 1
 2015 09e2 FFF7FEFF 		bl	IntMasterEnable
 625:build/openmote-cc2538_armgcc/openstack/02b-MAChigh/schedule.c ****     
 626:build/openmote-cc2538_armgcc/openstack/02b-MAChigh/schedule.c ****     return FALSE;
 2016              		.loc 1 626 0
 2017 09e6 0023     		movs	r3, #0
 2018              	.L119:
 627:build/openmote-cc2538_armgcc/openstack/02b-MAChigh/schedule.c **** }
 2019              		.loc 1 627 0
 2020 09e8 1846     		mov	r0, r3
 2021 09ea 1037     		adds	r7, r7, #16
 2022              		.cfi_def_cfa_offset 8
 2023 09ec BD46     		mov	sp, r7
 2024              		.cfi_def_cfa_register 13
 2025              		@ sp needed
 2026 09ee 80BD     		pop	{r7, pc}
 2027              	.L124:
 2028              		.align	2
 2029              	.L123:
 2030 09f0 00000000 		.word	schedule_vars
 2031              		.cfi_endproc
 2032              	.LFE16:
 2034              		.align	2
 2035              		.global	schedule_hasDedicatedCellToNeighbor
 2036              		.thumb
 2037              		.thumb_func
 2039              	schedule_hasDedicatedCellToNeighbor:
 2040              	.LFB17:
 628:build/openmote-cc2538_armgcc/openstack/02b-MAChigh/schedule.c **** 
 629:build/openmote-cc2538_armgcc/openstack/02b-MAChigh/schedule.c **** bool schedule_hasDedicatedCellToNeighbor(open_addr_t* neighbor){
 2041              		.loc 1 629 0
 2042              		.cfi_startproc
 2043              		@ args = 0, pretend = 0, frame = 16
 2044              		@ frame_needed = 1, uses_anonymous_args = 0
 2045 09f4 80B5     		push	{r7, lr}
 2046              		.cfi_def_cfa_offset 8
 2047              		.cfi_offset 7, -8
 2048              		.cfi_offset 14, -4
 2049 09f6 84B0     		sub	sp, sp, #16
 2050              		.cfi_def_cfa_offset 24
 2051 09f8 00AF     		add	r7, sp, #0
 2052              		.cfi_def_cfa_register 7
 2053 09fa 7860     		str	r0, [r7, #4]
 630:build/openmote-cc2538_armgcc/openstack/02b-MAChigh/schedule.c ****     uint8_t i;
 631:build/openmote-cc2538_armgcc/openstack/02b-MAChigh/schedule.c ****     
 632:build/openmote-cc2538_armgcc/openstack/02b-MAChigh/schedule.c ****     INTERRUPT_DECLARATION();
 633:build/openmote-cc2538_armgcc/openstack/02b-MAChigh/schedule.c ****     DISABLE_INTERRUPTS();
 2054              		.loc 1 633 0
 2055 09fc FFF7FEFF 		bl	IntMasterDisable
 634:build/openmote-cc2538_armgcc/openstack/02b-MAChigh/schedule.c ****     
 635:build/openmote-cc2538_armgcc/openstack/02b-MAChigh/schedule.c ****     for(i=0;i<MAXACTIVESLOTS;i++) {
 2056              		.loc 1 635 0
 2057 0a00 0023     		movs	r3, #0
 2058 0a02 FB73     		strb	r3, [r7, #15]
 2059 0a04 1DE0     		b	.L126
 2060              	.L129:
 636:build/openmote-cc2538_armgcc/openstack/02b-MAChigh/schedule.c ****         if(
 637:build/openmote-cc2538_armgcc/openstack/02b-MAChigh/schedule.c ****             schedule_vars.scheduleBuf[i].neighbor.type == ADDR_64B &&
 2061              		.loc 1 637 0
 2062 0a06 FA7B     		ldrb	r2, [r7, #15]	@ zero_extendqisi2
 2063 0a08 1349     		ldr	r1, .L130
 2064 0a0a 1346     		mov	r3, r2
 2065 0a0c DB00     		lsls	r3, r3, #3
 2066 0a0e 1344     		add	r3, r3, r2
 2067 0a10 9B00     		lsls	r3, r3, #2
 2068 0a12 0B44     		add	r3, r3, r1
 2069 0a14 5B79     		ldrb	r3, [r3, #5]	@ zero_extendqisi2
 636:build/openmote-cc2538_armgcc/openstack/02b-MAChigh/schedule.c ****         if(
 2070              		.loc 1 636 0
 2071 0a16 022B     		cmp	r3, #2
 2072 0a18 10D1     		bne	.L127
 638:build/openmote-cc2538_armgcc/openstack/02b-MAChigh/schedule.c ****             packetfunctions_sameAddress(neighbor,&schedule_vars.scheduleBuf[i].neighbor)
 2073              		.loc 1 638 0
 2074 0a1a FA7B     		ldrb	r2, [r7, #15]	@ zero_extendqisi2
 2075 0a1c 1346     		mov	r3, r2
 2076 0a1e DB00     		lsls	r3, r3, #3
 2077 0a20 1344     		add	r3, r3, r2
 2078 0a22 9B00     		lsls	r3, r3, #2
 2079 0a24 0C4A     		ldr	r2, .L130
 2080 0a26 1344     		add	r3, r3, r2
 2081 0a28 0533     		adds	r3, r3, #5
 2082 0a2a 7868     		ldr	r0, [r7, #4]
 2083 0a2c 1946     		mov	r1, r3
 2084 0a2e FFF7FEFF 		bl	packetfunctions_sameAddress
 2085 0a32 0346     		mov	r3, r0
 637:build/openmote-cc2538_armgcc/openstack/02b-MAChigh/schedule.c ****             packetfunctions_sameAddress(neighbor,&schedule_vars.scheduleBuf[i].neighbor)
 2086              		.loc 1 637 0
 2087 0a34 002B     		cmp	r3, #0
 2088 0a36 01D0     		beq	.L127
 639:build/openmote-cc2538_armgcc/openstack/02b-MAChigh/schedule.c ****         ){
 640:build/openmote-cc2538_armgcc/openstack/02b-MAChigh/schedule.c ****             return TRUE;
 2089              		.loc 1 640 0
 2090 0a38 0123     		movs	r3, #1
 2091 0a3a 08E0     		b	.L128
 2092              	.L127:
 635:build/openmote-cc2538_armgcc/openstack/02b-MAChigh/schedule.c ****         if(
 2093              		.loc 1 635 0 discriminator 2
 2094 0a3c FB7B     		ldrb	r3, [r7, #15]	@ zero_extendqisi2
 2095 0a3e 0133     		adds	r3, r3, #1
 2096 0a40 FB73     		strb	r3, [r7, #15]
 2097              	.L126:
 635:build/openmote-cc2538_armgcc/openstack/02b-MAChigh/schedule.c ****         if(
 2098              		.loc 1 635 0 is_stmt 0 discriminator 1
 2099 0a42 FB7B     		ldrb	r3, [r7, #15]	@ zero_extendqisi2
 2100 0a44 0D2B     		cmp	r3, #13
 2101 0a46 DED9     		bls	.L129
 641:build/openmote-cc2538_armgcc/openstack/02b-MAChigh/schedule.c ****         }
 642:build/openmote-cc2538_armgcc/openstack/02b-MAChigh/schedule.c ****     }
 643:build/openmote-cc2538_armgcc/openstack/02b-MAChigh/schedule.c ****     
 644:build/openmote-cc2538_armgcc/openstack/02b-MAChigh/schedule.c ****     ENABLE_INTERRUPTS();
 2102              		.loc 1 644 0 is_stmt 1
 2103 0a48 FFF7FEFF 		bl	IntMasterEnable
 645:build/openmote-cc2538_armgcc/openstack/02b-MAChigh/schedule.c ****     return FALSE;
 2104              		.loc 1 645 0
 2105 0a4c 0023     		movs	r3, #0
 2106              	.L128:
 646:build/openmote-cc2538_armgcc/openstack/02b-MAChigh/schedule.c **** }
 2107              		.loc 1 646 0
 2108 0a4e 1846     		mov	r0, r3
 2109 0a50 1037     		adds	r7, r7, #16
 2110              		.cfi_def_cfa_offset 8
 2111 0a52 BD46     		mov	sp, r7
 2112              		.cfi_def_cfa_register 13
 2113              		@ sp needed
 2114 0a54 80BD     		pop	{r7, pc}
 2115              	.L131:
 2116 0a56 00BF     		.align	2
 2117              	.L130:
 2118 0a58 00000000 		.word	schedule_vars
 2119              		.cfi_endproc
 2120              	.LFE17:
 2122              		.align	2
 2123              		.global	schedule_syncSlotOffset
 2124              		.thumb
 2125              		.thumb_func
 2127              	schedule_syncSlotOffset:
 2128              	.LFB18:
 647:build/openmote-cc2538_armgcc/openstack/02b-MAChigh/schedule.c **** 
 648:build/openmote-cc2538_armgcc/openstack/02b-MAChigh/schedule.c **** //=== from IEEE802154E: reading the schedule and updating statistics
 649:build/openmote-cc2538_armgcc/openstack/02b-MAChigh/schedule.c **** 
 650:build/openmote-cc2538_armgcc/openstack/02b-MAChigh/schedule.c **** void schedule_syncSlotOffset(slotOffset_t targetSlotOffset) {
 2129              		.loc 1 650 0
 2130              		.cfi_startproc
 2131              		@ args = 0, pretend = 0, frame = 8
 2132              		@ frame_needed = 1, uses_anonymous_args = 0
 2133 0a5c 80B5     		push	{r7, lr}
 2134              		.cfi_def_cfa_offset 8
 2135              		.cfi_offset 7, -8
 2136              		.cfi_offset 14, -4
 2137 0a5e 82B0     		sub	sp, sp, #8
 2138              		.cfi_def_cfa_offset 16
 2139 0a60 00AF     		add	r7, sp, #0
 2140              		.cfi_def_cfa_register 7
 2141 0a62 0346     		mov	r3, r0
 2142 0a64 FB80     		strh	r3, [r7, #6]	@ movhi
 651:build/openmote-cc2538_armgcc/openstack/02b-MAChigh/schedule.c ****    
 652:build/openmote-cc2538_armgcc/openstack/02b-MAChigh/schedule.c ****     INTERRUPT_DECLARATION();
 653:build/openmote-cc2538_armgcc/openstack/02b-MAChigh/schedule.c ****     DISABLE_INTERRUPTS();
 2143              		.loc 1 653 0
 2144 0a66 FFF7FEFF 		bl	IntMasterDisable
 654:build/openmote-cc2538_armgcc/openstack/02b-MAChigh/schedule.c ****     
 655:build/openmote-cc2538_armgcc/openstack/02b-MAChigh/schedule.c ****     while (schedule_vars.currentScheduleEntry->slotOffset!=targetSlotOffset) {
 2145              		.loc 1 655 0
 2146 0a6a 01E0     		b	.L133
 2147              	.L134:
 656:build/openmote-cc2538_armgcc/openstack/02b-MAChigh/schedule.c ****         schedule_advanceSlot();
 2148              		.loc 1 656 0
 2149 0a6c FFF7FEFF 		bl	schedule_advanceSlot
 2150              	.L133:
 655:build/openmote-cc2538_armgcc/openstack/02b-MAChigh/schedule.c ****         schedule_advanceSlot();
 2151              		.loc 1 655 0
 2152 0a70 054B     		ldr	r3, .L135
 2153 0a72 D3F8F831 		ldr	r3, [r3, #504]
 2154 0a76 1B88     		ldrh	r3, [r3]
 2155 0a78 FA88     		ldrh	r2, [r7, #6]
 2156 0a7a 9A42     		cmp	r2, r3
 2157 0a7c F6D1     		bne	.L134
 657:build/openmote-cc2538_armgcc/openstack/02b-MAChigh/schedule.c ****     }
 658:build/openmote-cc2538_armgcc/openstack/02b-MAChigh/schedule.c ****     
 659:build/openmote-cc2538_armgcc/openstack/02b-MAChigh/schedule.c ****     ENABLE_INTERRUPTS();
 2158              		.loc 1 659 0
 2159 0a7e FFF7FEFF 		bl	IntMasterEnable
 660:build/openmote-cc2538_armgcc/openstack/02b-MAChigh/schedule.c **** }
 2160              		.loc 1 660 0
 2161 0a82 0837     		adds	r7, r7, #8
 2162              		.cfi_def_cfa_offset 8
 2163 0a84 BD46     		mov	sp, r7
 2164              		.cfi_def_cfa_register 13
 2165              		@ sp needed
 2166 0a86 80BD     		pop	{r7, pc}
 2167              	.L136:
 2168              		.align	2
 2169              	.L135:
 2170 0a88 00000000 		.word	schedule_vars
 2171              		.cfi_endproc
 2172              	.LFE18:
 2174              		.align	2
 2175              		.global	schedule_advanceSlot
 2176              		.thumb
 2177              		.thumb_func
 2179              	schedule_advanceSlot:
 2180              	.LFB19:
 661:build/openmote-cc2538_armgcc/openstack/02b-MAChigh/schedule.c **** 
 662:build/openmote-cc2538_armgcc/openstack/02b-MAChigh/schedule.c **** /**
 663:build/openmote-cc2538_armgcc/openstack/02b-MAChigh/schedule.c **** \brief advance to next active slot
 664:build/openmote-cc2538_armgcc/openstack/02b-MAChigh/schedule.c **** */
 665:build/openmote-cc2538_armgcc/openstack/02b-MAChigh/schedule.c **** void schedule_advanceSlot(void) {
 2181              		.loc 1 665 0
 2182              		.cfi_startproc
 2183              		@ args = 0, pretend = 0, frame = 0
 2184              		@ frame_needed = 1, uses_anonymous_args = 0
 2185 0a8c 80B5     		push	{r7, lr}
 2186              		.cfi_def_cfa_offset 8
 2187              		.cfi_offset 7, -8
 2188              		.cfi_offset 14, -4
 2189 0a8e 00AF     		add	r7, sp, #0
 2190              		.cfi_def_cfa_register 7
 666:build/openmote-cc2538_armgcc/openstack/02b-MAChigh/schedule.c **** 
 667:build/openmote-cc2538_armgcc/openstack/02b-MAChigh/schedule.c ****     INTERRUPT_DECLARATION();
 668:build/openmote-cc2538_armgcc/openstack/02b-MAChigh/schedule.c ****     DISABLE_INTERRUPTS();
 2191              		.loc 1 668 0
 2192 0a90 FFF7FEFF 		bl	IntMasterDisable
 669:build/openmote-cc2538_armgcc/openstack/02b-MAChigh/schedule.c ****     schedule_vars.currentScheduleEntry = schedule_vars.currentScheduleEntry->next;
 2193              		.loc 1 669 0
 2194 0a94 044B     		ldr	r3, .L138
 2195 0a96 D3F8F831 		ldr	r3, [r3, #504]
 2196 0a9a 1B6A     		ldr	r3, [r3, #32]
 2197 0a9c 024A     		ldr	r2, .L138
 2198 0a9e C2F8F831 		str	r3, [r2, #504]
 670:build/openmote-cc2538_armgcc/openstack/02b-MAChigh/schedule.c **** 
 671:build/openmote-cc2538_armgcc/openstack/02b-MAChigh/schedule.c ****     ENABLE_INTERRUPTS();
 2199              		.loc 1 671 0
 2200 0aa2 FFF7FEFF 		bl	IntMasterEnable
 672:build/openmote-cc2538_armgcc/openstack/02b-MAChigh/schedule.c **** }
 2201              		.loc 1 672 0
 2202 0aa6 80BD     		pop	{r7, pc}
 2203              	.L139:
 2204              		.align	2
 2205              	.L138:
 2206 0aa8 00000000 		.word	schedule_vars
 2207              		.cfi_endproc
 2208              	.LFE19:
 2210              		.align	2
 2211              		.global	schedule_getNextActiveSlotOffset
 2212              		.thumb
 2213              		.thumb_func
 2215              	schedule_getNextActiveSlotOffset:
 2216              	.LFB20:
 673:build/openmote-cc2538_armgcc/openstack/02b-MAChigh/schedule.c **** 
 674:build/openmote-cc2538_armgcc/openstack/02b-MAChigh/schedule.c **** /**
 675:build/openmote-cc2538_armgcc/openstack/02b-MAChigh/schedule.c **** \brief return slotOffset of next active slot
 676:build/openmote-cc2538_armgcc/openstack/02b-MAChigh/schedule.c **** */
 677:build/openmote-cc2538_armgcc/openstack/02b-MAChigh/schedule.c **** slotOffset_t schedule_getNextActiveSlotOffset(void) {
 2217              		.loc 1 677 0
 2218              		.cfi_startproc
 2219              		@ args = 0, pretend = 0, frame = 8
 2220              		@ frame_needed = 1, uses_anonymous_args = 0
 2221 0aac 80B5     		push	{r7, lr}
 2222              		.cfi_def_cfa_offset 8
 2223              		.cfi_offset 7, -8
 2224              		.cfi_offset 14, -4
 2225 0aae 82B0     		sub	sp, sp, #8
 2226              		.cfi_def_cfa_offset 16
 2227 0ab0 00AF     		add	r7, sp, #0
 2228              		.cfi_def_cfa_register 7
 678:build/openmote-cc2538_armgcc/openstack/02b-MAChigh/schedule.c ****     slotOffset_t res;   
 679:build/openmote-cc2538_armgcc/openstack/02b-MAChigh/schedule.c ****     
 680:build/openmote-cc2538_armgcc/openstack/02b-MAChigh/schedule.c ****     INTERRUPT_DECLARATION();
 681:build/openmote-cc2538_armgcc/openstack/02b-MAChigh/schedule.c ****     DISABLE_INTERRUPTS();
 2229              		.loc 1 681 0
 2230 0ab2 FFF7FEFF 		bl	IntMasterDisable
 682:build/openmote-cc2538_armgcc/openstack/02b-MAChigh/schedule.c ****     
 683:build/openmote-cc2538_armgcc/openstack/02b-MAChigh/schedule.c ****     res = ((scheduleEntry_t*)(schedule_vars.currentScheduleEntry->next))->slotOffset;
 2231              		.loc 1 683 0
 2232 0ab6 064B     		ldr	r3, .L142
 2233 0ab8 D3F8F831 		ldr	r3, [r3, #504]
 2234 0abc 1B6A     		ldr	r3, [r3, #32]
 2235 0abe 1B88     		ldrh	r3, [r3]	@ movhi
 2236 0ac0 FB80     		strh	r3, [r7, #6]	@ movhi
 684:build/openmote-cc2538_armgcc/openstack/02b-MAChigh/schedule.c ****     
 685:build/openmote-cc2538_armgcc/openstack/02b-MAChigh/schedule.c ****     ENABLE_INTERRUPTS();
 2237              		.loc 1 685 0
 2238 0ac2 FFF7FEFF 		bl	IntMasterEnable
 686:build/openmote-cc2538_armgcc/openstack/02b-MAChigh/schedule.c ****     
 687:build/openmote-cc2538_armgcc/openstack/02b-MAChigh/schedule.c ****     return res;
 2239              		.loc 1 687 0
 2240 0ac6 FB88     		ldrh	r3, [r7, #6]
 688:build/openmote-cc2538_armgcc/openstack/02b-MAChigh/schedule.c **** }
 2241              		.loc 1 688 0
 2242 0ac8 1846     		mov	r0, r3
 2243 0aca 0837     		adds	r7, r7, #8
 2244              		.cfi_def_cfa_offset 8
 2245 0acc BD46     		mov	sp, r7
 2246              		.cfi_def_cfa_register 13
 2247              		@ sp needed
 2248 0ace 80BD     		pop	{r7, pc}
 2249              	.L143:
 2250              		.align	2
 2251              	.L142:
 2252 0ad0 00000000 		.word	schedule_vars
 2253              		.cfi_endproc
 2254              	.LFE20:
 2256              		.align	2
 2257              		.global	schedule_getFrameLength
 2258              		.thumb
 2259              		.thumb_func
 2261              	schedule_getFrameLength:
 2262              	.LFB21:
 689:build/openmote-cc2538_armgcc/openstack/02b-MAChigh/schedule.c **** 
 690:build/openmote-cc2538_armgcc/openstack/02b-MAChigh/schedule.c **** /**
 691:build/openmote-cc2538_armgcc/openstack/02b-MAChigh/schedule.c **** \brief Get the frame length.
 692:build/openmote-cc2538_armgcc/openstack/02b-MAChigh/schedule.c **** 
 693:build/openmote-cc2538_armgcc/openstack/02b-MAChigh/schedule.c **** \returns The frame length.
 694:build/openmote-cc2538_armgcc/openstack/02b-MAChigh/schedule.c **** */
 695:build/openmote-cc2538_armgcc/openstack/02b-MAChigh/schedule.c **** frameLength_t schedule_getFrameLength(void) {
 2263              		.loc 1 695 0
 2264              		.cfi_startproc
 2265              		@ args = 0, pretend = 0, frame = 8
 2266              		@ frame_needed = 1, uses_anonymous_args = 0
 2267 0ad4 80B5     		push	{r7, lr}
 2268              		.cfi_def_cfa_offset 8
 2269              		.cfi_offset 7, -8
 2270              		.cfi_offset 14, -4
 2271 0ad6 82B0     		sub	sp, sp, #8
 2272              		.cfi_def_cfa_offset 16
 2273 0ad8 00AF     		add	r7, sp, #0
 2274              		.cfi_def_cfa_register 7
 696:build/openmote-cc2538_armgcc/openstack/02b-MAChigh/schedule.c ****     frameLength_t returnVal;
 697:build/openmote-cc2538_armgcc/openstack/02b-MAChigh/schedule.c ****     
 698:build/openmote-cc2538_armgcc/openstack/02b-MAChigh/schedule.c ****     INTERRUPT_DECLARATION();
 699:build/openmote-cc2538_armgcc/openstack/02b-MAChigh/schedule.c ****     DISABLE_INTERRUPTS();
 2275              		.loc 1 699 0
 2276 0ada FFF7FEFF 		bl	IntMasterDisable
 700:build/openmote-cc2538_armgcc/openstack/02b-MAChigh/schedule.c ****     
 701:build/openmote-cc2538_armgcc/openstack/02b-MAChigh/schedule.c ****     returnVal = schedule_vars.frameLength;
 2277              		.loc 1 701 0
 2278 0ade 054B     		ldr	r3, .L146
 2279 0ae0 B3F8FC31 		ldrh	r3, [r3, #508]	@ movhi
 2280 0ae4 FB80     		strh	r3, [r7, #6]	@ movhi
 702:build/openmote-cc2538_armgcc/openstack/02b-MAChigh/schedule.c ****     
 703:build/openmote-cc2538_armgcc/openstack/02b-MAChigh/schedule.c ****     ENABLE_INTERRUPTS();
 2281              		.loc 1 703 0
 2282 0ae6 FFF7FEFF 		bl	IntMasterEnable
 704:build/openmote-cc2538_armgcc/openstack/02b-MAChigh/schedule.c ****     
 705:build/openmote-cc2538_armgcc/openstack/02b-MAChigh/schedule.c ****     return returnVal;
 2283              		.loc 1 705 0
 2284 0aea FB88     		ldrh	r3, [r7, #6]
 706:build/openmote-cc2538_armgcc/openstack/02b-MAChigh/schedule.c **** }
 2285              		.loc 1 706 0
 2286 0aec 1846     		mov	r0, r3
 2287 0aee 0837     		adds	r7, r7, #8
 2288              		.cfi_def_cfa_offset 8
 2289 0af0 BD46     		mov	sp, r7
 2290              		.cfi_def_cfa_register 13
 2291              		@ sp needed
 2292 0af2 80BD     		pop	{r7, pc}
 2293              	.L147:
 2294              		.align	2
 2295              	.L146:
 2296 0af4 00000000 		.word	schedule_vars
 2297              		.cfi_endproc
 2298              	.LFE21:
 2300              		.align	2
 2301              		.global	schedule_getType
 2302              		.thumb
 2303              		.thumb_func
 2305              	schedule_getType:
 2306              	.LFB22:
 707:build/openmote-cc2538_armgcc/openstack/02b-MAChigh/schedule.c **** 
 708:build/openmote-cc2538_armgcc/openstack/02b-MAChigh/schedule.c **** /**
 709:build/openmote-cc2538_armgcc/openstack/02b-MAChigh/schedule.c **** \brief Get the type of the current schedule entry.
 710:build/openmote-cc2538_armgcc/openstack/02b-MAChigh/schedule.c **** 
 711:build/openmote-cc2538_armgcc/openstack/02b-MAChigh/schedule.c **** \returns The type of the current schedule entry.
 712:build/openmote-cc2538_armgcc/openstack/02b-MAChigh/schedule.c **** */
 713:build/openmote-cc2538_armgcc/openstack/02b-MAChigh/schedule.c **** cellType_t schedule_getType(void) {
 2307              		.loc 1 713 0
 2308              		.cfi_startproc
 2309              		@ args = 0, pretend = 0, frame = 8
 2310              		@ frame_needed = 1, uses_anonymous_args = 0
 2311 0af8 80B5     		push	{r7, lr}
 2312              		.cfi_def_cfa_offset 8
 2313              		.cfi_offset 7, -8
 2314              		.cfi_offset 14, -4
 2315 0afa 82B0     		sub	sp, sp, #8
 2316              		.cfi_def_cfa_offset 16
 2317 0afc 00AF     		add	r7, sp, #0
 2318              		.cfi_def_cfa_register 7
 714:build/openmote-cc2538_armgcc/openstack/02b-MAChigh/schedule.c ****    cellType_t returnVal;
 715:build/openmote-cc2538_armgcc/openstack/02b-MAChigh/schedule.c ****    
 716:build/openmote-cc2538_armgcc/openstack/02b-MAChigh/schedule.c ****    INTERRUPT_DECLARATION();
 717:build/openmote-cc2538_armgcc/openstack/02b-MAChigh/schedule.c ****    DISABLE_INTERRUPTS();
 2319              		.loc 1 717 0
 2320 0afe FFF7FEFF 		bl	IntMasterDisable
 718:build/openmote-cc2538_armgcc/openstack/02b-MAChigh/schedule.c ****    
 719:build/openmote-cc2538_armgcc/openstack/02b-MAChigh/schedule.c ****    returnVal = schedule_vars.currentScheduleEntry->type;
 2321              		.loc 1 719 0
 2322 0b02 064B     		ldr	r3, .L150
 2323 0b04 D3F8F831 		ldr	r3, [r3, #504]
 2324 0b08 9B78     		ldrb	r3, [r3, #2]
 2325 0b0a FB71     		strb	r3, [r7, #7]
 720:build/openmote-cc2538_armgcc/openstack/02b-MAChigh/schedule.c ****    
 721:build/openmote-cc2538_armgcc/openstack/02b-MAChigh/schedule.c ****    ENABLE_INTERRUPTS();
 2326              		.loc 1 721 0
 2327 0b0c FFF7FEFF 		bl	IntMasterEnable
 722:build/openmote-cc2538_armgcc/openstack/02b-MAChigh/schedule.c ****    
 723:build/openmote-cc2538_armgcc/openstack/02b-MAChigh/schedule.c ****    return returnVal;
 2328              		.loc 1 723 0
 2329 0b10 FB79     		ldrb	r3, [r7, #7]	@ zero_extendqisi2
 724:build/openmote-cc2538_armgcc/openstack/02b-MAChigh/schedule.c **** }
 2330              		.loc 1 724 0
 2331 0b12 1846     		mov	r0, r3
 2332 0b14 0837     		adds	r7, r7, #8
 2333              		.cfi_def_cfa_offset 8
 2334 0b16 BD46     		mov	sp, r7
 2335              		.cfi_def_cfa_register 13
 2336              		@ sp needed
 2337 0b18 80BD     		pop	{r7, pc}
 2338              	.L151:
 2339 0b1a 00BF     		.align	2
 2340              	.L150:
 2341 0b1c 00000000 		.word	schedule_vars
 2342              		.cfi_endproc
 2343              	.LFE22:
 2345              		.align	2
 2346              		.global	schedule_getNeighbor
 2347              		.thumb
 2348              		.thumb_func
 2350              	schedule_getNeighbor:
 2351              	.LFB23:
 725:build/openmote-cc2538_armgcc/openstack/02b-MAChigh/schedule.c **** 
 726:build/openmote-cc2538_armgcc/openstack/02b-MAChigh/schedule.c **** /**
 727:build/openmote-cc2538_armgcc/openstack/02b-MAChigh/schedule.c **** \brief Get the neighbor associated wit the current schedule entry.
 728:build/openmote-cc2538_armgcc/openstack/02b-MAChigh/schedule.c **** 
 729:build/openmote-cc2538_armgcc/openstack/02b-MAChigh/schedule.c **** \returns The neighbor associated wit the current schedule entry.
 730:build/openmote-cc2538_armgcc/openstack/02b-MAChigh/schedule.c **** */
 731:build/openmote-cc2538_armgcc/openstack/02b-MAChigh/schedule.c **** void schedule_getNeighbor(open_addr_t* addrToWrite) {
 2352              		.loc 1 731 0
 2353              		.cfi_startproc
 2354              		@ args = 0, pretend = 0, frame = 8
 2355              		@ frame_needed = 1, uses_anonymous_args = 0
 2356 0b20 80B5     		push	{r7, lr}
 2357              		.cfi_def_cfa_offset 8
 2358              		.cfi_offset 7, -8
 2359              		.cfi_offset 14, -4
 2360 0b22 82B0     		sub	sp, sp, #8
 2361              		.cfi_def_cfa_offset 16
 2362 0b24 00AF     		add	r7, sp, #0
 2363              		.cfi_def_cfa_register 7
 2364 0b26 7860     		str	r0, [r7, #4]
 732:build/openmote-cc2538_armgcc/openstack/02b-MAChigh/schedule.c ****    
 733:build/openmote-cc2538_armgcc/openstack/02b-MAChigh/schedule.c ****    INTERRUPT_DECLARATION();
 734:build/openmote-cc2538_armgcc/openstack/02b-MAChigh/schedule.c ****    DISABLE_INTERRUPTS();
 2365              		.loc 1 734 0
 2366 0b28 FFF7FEFF 		bl	IntMasterDisable
 735:build/openmote-cc2538_armgcc/openstack/02b-MAChigh/schedule.c ****    
 736:build/openmote-cc2538_armgcc/openstack/02b-MAChigh/schedule.c ****    memcpy(addrToWrite,&(schedule_vars.currentScheduleEntry->neighbor),sizeof(open_addr_t));
 2367              		.loc 1 736 0
 2368 0b2c 064B     		ldr	r3, .L153
 2369 0b2e D3F8F831 		ldr	r3, [r3, #504]
 2370 0b32 0533     		adds	r3, r3, #5
 2371 0b34 7868     		ldr	r0, [r7, #4]
 2372 0b36 1946     		mov	r1, r3
 2373 0b38 1122     		movs	r2, #17
 2374 0b3a FFF7FEFF 		bl	memcpy
 737:build/openmote-cc2538_armgcc/openstack/02b-MAChigh/schedule.c ****    
 738:build/openmote-cc2538_armgcc/openstack/02b-MAChigh/schedule.c ****    ENABLE_INTERRUPTS();
 2375              		.loc 1 738 0
 2376 0b3e FFF7FEFF 		bl	IntMasterEnable
 739:build/openmote-cc2538_armgcc/openstack/02b-MAChigh/schedule.c **** }
 2377              		.loc 1 739 0
 2378 0b42 0837     		adds	r7, r7, #8
 2379              		.cfi_def_cfa_offset 8
 2380 0b44 BD46     		mov	sp, r7
 2381              		.cfi_def_cfa_register 13
 2382              		@ sp needed
 2383 0b46 80BD     		pop	{r7, pc}
 2384              	.L154:
 2385              		.align	2
 2386              	.L153:
 2387 0b48 00000000 		.word	schedule_vars
 2388              		.cfi_endproc
 2389              	.LFE23:
 2391              		.align	2
 2392              		.global	schedule_getChannelOffset
 2393              		.thumb
 2394              		.thumb_func
 2396              	schedule_getChannelOffset:
 2397              	.LFB24:
 740:build/openmote-cc2538_armgcc/openstack/02b-MAChigh/schedule.c **** 
 741:build/openmote-cc2538_armgcc/openstack/02b-MAChigh/schedule.c **** /**
 742:build/openmote-cc2538_armgcc/openstack/02b-MAChigh/schedule.c **** \brief Get the channel offset of the current schedule entry.
 743:build/openmote-cc2538_armgcc/openstack/02b-MAChigh/schedule.c **** 
 744:build/openmote-cc2538_armgcc/openstack/02b-MAChigh/schedule.c **** \returns The channel offset of the current schedule entry.
 745:build/openmote-cc2538_armgcc/openstack/02b-MAChigh/schedule.c **** */
 746:build/openmote-cc2538_armgcc/openstack/02b-MAChigh/schedule.c **** channelOffset_t schedule_getChannelOffset(void) {
 2398              		.loc 1 746 0
 2399              		.cfi_startproc
 2400              		@ args = 0, pretend = 0, frame = 8
 2401              		@ frame_needed = 1, uses_anonymous_args = 0
 2402 0b4c 80B5     		push	{r7, lr}
 2403              		.cfi_def_cfa_offset 8
 2404              		.cfi_offset 7, -8
 2405              		.cfi_offset 14, -4
 2406 0b4e 82B0     		sub	sp, sp, #8
 2407              		.cfi_def_cfa_offset 16
 2408 0b50 00AF     		add	r7, sp, #0
 2409              		.cfi_def_cfa_register 7
 747:build/openmote-cc2538_armgcc/openstack/02b-MAChigh/schedule.c ****    channelOffset_t returnVal;
 748:build/openmote-cc2538_armgcc/openstack/02b-MAChigh/schedule.c ****    
 749:build/openmote-cc2538_armgcc/openstack/02b-MAChigh/schedule.c ****    INTERRUPT_DECLARATION();
 750:build/openmote-cc2538_armgcc/openstack/02b-MAChigh/schedule.c ****    DISABLE_INTERRUPTS();
 2410              		.loc 1 750 0
 2411 0b52 FFF7FEFF 		bl	IntMasterDisable
 751:build/openmote-cc2538_armgcc/openstack/02b-MAChigh/schedule.c ****    
 752:build/openmote-cc2538_armgcc/openstack/02b-MAChigh/schedule.c ****    returnVal = schedule_vars.currentScheduleEntry->channelOffset;
 2412              		.loc 1 752 0
 2413 0b56 064B     		ldr	r3, .L157
 2414 0b58 D3F8F831 		ldr	r3, [r3, #504]
 2415 0b5c 1B79     		ldrb	r3, [r3, #4]
 2416 0b5e FB71     		strb	r3, [r7, #7]
 753:build/openmote-cc2538_armgcc/openstack/02b-MAChigh/schedule.c ****    
 754:build/openmote-cc2538_armgcc/openstack/02b-MAChigh/schedule.c ****    ENABLE_INTERRUPTS();
 2417              		.loc 1 754 0
 2418 0b60 FFF7FEFF 		bl	IntMasterEnable
 755:build/openmote-cc2538_armgcc/openstack/02b-MAChigh/schedule.c ****    
 756:build/openmote-cc2538_armgcc/openstack/02b-MAChigh/schedule.c ****    return returnVal;
 2419              		.loc 1 756 0
 2420 0b64 FB79     		ldrb	r3, [r7, #7]	@ zero_extendqisi2
 757:build/openmote-cc2538_armgcc/openstack/02b-MAChigh/schedule.c **** }
 2421              		.loc 1 757 0
 2422 0b66 1846     		mov	r0, r3
 2423 0b68 0837     		adds	r7, r7, #8
 2424              		.cfi_def_cfa_offset 8
 2425 0b6a BD46     		mov	sp, r7
 2426              		.cfi_def_cfa_register 13
 2427              		@ sp needed
 2428 0b6c 80BD     		pop	{r7, pc}
 2429              	.L158:
 2430 0b6e 00BF     		.align	2
 2431              	.L157:
 2432 0b70 00000000 		.word	schedule_vars
 2433              		.cfi_endproc
 2434              	.LFE24:
 2436              		.align	2
 2437              		.global	schedule_getOkToSend
 2438              		.thumb
 2439              		.thumb_func
 2441              	schedule_getOkToSend:
 2442              	.LFB25:
 758:build/openmote-cc2538_armgcc/openstack/02b-MAChigh/schedule.c **** 
 759:build/openmote-cc2538_armgcc/openstack/02b-MAChigh/schedule.c **** /**
 760:build/openmote-cc2538_armgcc/openstack/02b-MAChigh/schedule.c **** \brief Check whether I can send on this slot.
 761:build/openmote-cc2538_armgcc/openstack/02b-MAChigh/schedule.c **** 
 762:build/openmote-cc2538_armgcc/openstack/02b-MAChigh/schedule.c **** This function is called at the beginning of every TX slot.
 763:build/openmote-cc2538_armgcc/openstack/02b-MAChigh/schedule.c **** If the slot is *not* a shared slot, it always return TRUE.
 764:build/openmote-cc2538_armgcc/openstack/02b-MAChigh/schedule.c **** If the slot is a shared slot, it decrements the backoff counter and returns 
 765:build/openmote-cc2538_armgcc/openstack/02b-MAChigh/schedule.c **** TRUE only if it hits 0.
 766:build/openmote-cc2538_armgcc/openstack/02b-MAChigh/schedule.c **** 
 767:build/openmote-cc2538_armgcc/openstack/02b-MAChigh/schedule.c **** Note that the backoff counter is global, not per slot.
 768:build/openmote-cc2538_armgcc/openstack/02b-MAChigh/schedule.c **** 
 769:build/openmote-cc2538_armgcc/openstack/02b-MAChigh/schedule.c **** \returns TRUE if it is OK to send on this slot, FALSE otherwise.
 770:build/openmote-cc2538_armgcc/openstack/02b-MAChigh/schedule.c **** */
 771:build/openmote-cc2538_armgcc/openstack/02b-MAChigh/schedule.c **** bool schedule_getOkToSend(void) {
 2443              		.loc 1 771 0
 2444              		.cfi_startproc
 2445              		@ args = 0, pretend = 0, frame = 8
 2446              		@ frame_needed = 1, uses_anonymous_args = 0
 2447 0b74 80B5     		push	{r7, lr}
 2448              		.cfi_def_cfa_offset 8
 2449              		.cfi_offset 7, -8
 2450              		.cfi_offset 14, -4
 2451 0b76 82B0     		sub	sp, sp, #8
 2452              		.cfi_def_cfa_offset 16
 2453 0b78 00AF     		add	r7, sp, #0
 2454              		.cfi_def_cfa_register 7
 772:build/openmote-cc2538_armgcc/openstack/02b-MAChigh/schedule.c ****     bool returnVal;
 773:build/openmote-cc2538_armgcc/openstack/02b-MAChigh/schedule.c ****     
 774:build/openmote-cc2538_armgcc/openstack/02b-MAChigh/schedule.c ****     INTERRUPT_DECLARATION();
 775:build/openmote-cc2538_armgcc/openstack/02b-MAChigh/schedule.c ****     DISABLE_INTERRUPTS();
 2455              		.loc 1 775 0
 2456 0b7a FFF7FEFF 		bl	IntMasterDisable
 776:build/openmote-cc2538_armgcc/openstack/02b-MAChigh/schedule.c ****     
 777:build/openmote-cc2538_armgcc/openstack/02b-MAChigh/schedule.c ****     if (schedule_vars.currentScheduleEntry->shared==FALSE) {
 2457              		.loc 1 777 0
 2458 0b7e 204B     		ldr	r3, .L167
 2459 0b80 D3F8F831 		ldr	r3, [r3, #504]
 2460 0b84 DB78     		ldrb	r3, [r3, #3]	@ zero_extendqisi2
 2461 0b86 83F00103 		eor	r3, r3, #1
 2462 0b8a DBB2     		uxtb	r3, r3
 2463 0b8c 002B     		cmp	r3, #0
 2464 0b8e 02D0     		beq	.L160
 778:build/openmote-cc2538_armgcc/openstack/02b-MAChigh/schedule.c ****         // non-shared slot: backoff does not apply
 779:build/openmote-cc2538_armgcc/openstack/02b-MAChigh/schedule.c ****         
 780:build/openmote-cc2538_armgcc/openstack/02b-MAChigh/schedule.c ****         returnVal = TRUE;
 2465              		.loc 1 780 0
 2466 0b90 0123     		movs	r3, #1
 2467 0b92 FB71     		strb	r3, [r7, #7]
 2468 0b94 2DE0     		b	.L161
 2469              	.L160:
 781:build/openmote-cc2538_armgcc/openstack/02b-MAChigh/schedule.c ****     } else {
 782:build/openmote-cc2538_armgcc/openstack/02b-MAChigh/schedule.c ****         // shared slot: check backoff before answering
 783:build/openmote-cc2538_armgcc/openstack/02b-MAChigh/schedule.c ****       
 784:build/openmote-cc2538_armgcc/openstack/02b-MAChigh/schedule.c ****         if (schedule_vars.currentScheduleEntry->neighbor.type == ADDR_ANYCAST){
 2470              		.loc 1 784 0
 2471 0b96 1A4B     		ldr	r3, .L167
 2472 0b98 D3F8F831 		ldr	r3, [r3, #504]
 2473 0b9c 5B79     		ldrb	r3, [r3, #5]	@ zero_extendqisi2
 2474 0b9e 062B     		cmp	r3, #6
 2475 0ba0 17D1     		bne	.L162
 785:build/openmote-cc2538_armgcc/openstack/02b-MAChigh/schedule.c ****             // this is a minimal cell
 786:build/openmote-cc2538_armgcc/openstack/02b-MAChigh/schedule.c ****             if (schedule_vars.backoff>0) {
 2476              		.loc 1 786 0
 2477 0ba2 174B     		ldr	r3, .L167
 2478 0ba4 93F80332 		ldrb	r3, [r3, #515]	@ zero_extendqisi2
 2479 0ba8 002B     		cmp	r3, #0
 2480 0baa 07D0     		beq	.L163
 787:build/openmote-cc2538_armgcc/openstack/02b-MAChigh/schedule.c ****                 schedule_vars.backoff--;
 2481              		.loc 1 787 0
 2482 0bac 144B     		ldr	r3, .L167
 2483 0bae 93F80332 		ldrb	r3, [r3, #515]	@ zero_extendqisi2
 2484 0bb2 013B     		subs	r3, r3, #1
 2485 0bb4 DAB2     		uxtb	r2, r3
 2486 0bb6 124B     		ldr	r3, .L167
 2487 0bb8 83F80322 		strb	r2, [r3, #515]
 2488              	.L163:
 788:build/openmote-cc2538_armgcc/openstack/02b-MAChigh/schedule.c ****             }
 789:build/openmote-cc2538_armgcc/openstack/02b-MAChigh/schedule.c ****             
 790:build/openmote-cc2538_armgcc/openstack/02b-MAChigh/schedule.c ****             // only return TRUE if backoff hit 0
 791:build/openmote-cc2538_armgcc/openstack/02b-MAChigh/schedule.c ****             if (schedule_vars.backoff==0) {
 2489              		.loc 1 791 0
 2490 0bbc 104B     		ldr	r3, .L167
 2491 0bbe 93F80332 		ldrb	r3, [r3, #515]	@ zero_extendqisi2
 2492 0bc2 002B     		cmp	r3, #0
 2493 0bc4 02D1     		bne	.L164
 792:build/openmote-cc2538_armgcc/openstack/02b-MAChigh/schedule.c ****                 returnVal = TRUE;
 2494              		.loc 1 792 0
 2495 0bc6 0123     		movs	r3, #1
 2496 0bc8 FB71     		strb	r3, [r7, #7]
 2497 0bca 12E0     		b	.L161
 2498              	.L164:
 793:build/openmote-cc2538_armgcc/openstack/02b-MAChigh/schedule.c ****             } else {
 794:build/openmote-cc2538_armgcc/openstack/02b-MAChigh/schedule.c ****                 returnVal = FALSE;
 2499              		.loc 1 794 0
 2500 0bcc 0023     		movs	r3, #0
 2501 0bce FB71     		strb	r3, [r7, #7]
 2502 0bd0 0FE0     		b	.L161
 2503              	.L162:
 795:build/openmote-cc2538_armgcc/openstack/02b-MAChigh/schedule.c ****             }
 796:build/openmote-cc2538_armgcc/openstack/02b-MAChigh/schedule.c ****         } else {
 797:build/openmote-cc2538_armgcc/openstack/02b-MAChigh/schedule.c ****             // this is a dedicated cell
 798:build/openmote-cc2538_armgcc/openstack/02b-MAChigh/schedule.c ****             neighbors_decreaseBackoff(&schedule_vars.currentScheduleEntry->neighbor);
 2504              		.loc 1 798 0
 2505 0bd2 0B4B     		ldr	r3, .L167
 2506 0bd4 D3F8F831 		ldr	r3, [r3, #504]
 2507 0bd8 0533     		adds	r3, r3, #5
 2508 0bda 1846     		mov	r0, r3
 2509 0bdc FFF7FEFF 		bl	neighbors_decreaseBackoff
 799:build/openmote-cc2538_armgcc/openstack/02b-MAChigh/schedule.c ****             
 800:build/openmote-cc2538_armgcc/openstack/02b-MAChigh/schedule.c ****             returnVal = neighbors_backoffHitZero(&schedule_vars.currentScheduleEntry->neighbor);
 2510              		.loc 1 800 0
 2511 0be0 074B     		ldr	r3, .L167
 2512 0be2 D3F8F831 		ldr	r3, [r3, #504]
 2513 0be6 0533     		adds	r3, r3, #5
 2514 0be8 1846     		mov	r0, r3
 2515 0bea FFF7FEFF 		bl	neighbors_backoffHitZero
 2516 0bee 0346     		mov	r3, r0
 2517 0bf0 FB71     		strb	r3, [r7, #7]
 2518              	.L161:
 801:build/openmote-cc2538_armgcc/openstack/02b-MAChigh/schedule.c ****         }
 802:build/openmote-cc2538_armgcc/openstack/02b-MAChigh/schedule.c ****     }
 803:build/openmote-cc2538_armgcc/openstack/02b-MAChigh/schedule.c ****     
 804:build/openmote-cc2538_armgcc/openstack/02b-MAChigh/schedule.c ****     ENABLE_INTERRUPTS();
 2519              		.loc 1 804 0
 2520 0bf2 FFF7FEFF 		bl	IntMasterEnable
 805:build/openmote-cc2538_armgcc/openstack/02b-MAChigh/schedule.c ****     
 806:build/openmote-cc2538_armgcc/openstack/02b-MAChigh/schedule.c ****     return returnVal;
 2521              		.loc 1 806 0
 2522 0bf6 FB79     		ldrb	r3, [r7, #7]	@ zero_extendqisi2
 807:build/openmote-cc2538_armgcc/openstack/02b-MAChigh/schedule.c **** }
 2523              		.loc 1 807 0
 2524 0bf8 1846     		mov	r0, r3
 2525 0bfa 0837     		adds	r7, r7, #8
 2526              		.cfi_def_cfa_offset 8
 2527 0bfc BD46     		mov	sp, r7
 2528              		.cfi_def_cfa_register 13
 2529              		@ sp needed
 2530 0bfe 80BD     		pop	{r7, pc}
 2531              	.L168:
 2532              		.align	2
 2533              	.L167:
 2534 0c00 00000000 		.word	schedule_vars
 2535              		.cfi_endproc
 2536              	.LFE25:
 2538              		.align	2
 2539              		.global	schedule_resetBackoff
 2540              		.thumb
 2541              		.thumb_func
 2543              	schedule_resetBackoff:
 2544              	.LFB26:
 808:build/openmote-cc2538_armgcc/openstack/02b-MAChigh/schedule.c **** 
 809:build/openmote-cc2538_armgcc/openstack/02b-MAChigh/schedule.c **** /**
 810:build/openmote-cc2538_armgcc/openstack/02b-MAChigh/schedule.c **** \brief Reset the backoff and backoffExponent.
 811:build/openmote-cc2538_armgcc/openstack/02b-MAChigh/schedule.c **** */
 812:build/openmote-cc2538_armgcc/openstack/02b-MAChigh/schedule.c **** void schedule_resetBackoff(void) {
 2545              		.loc 1 812 0
 2546              		.cfi_startproc
 2547              		@ args = 0, pretend = 0, frame = 0
 2548              		@ frame_needed = 1, uses_anonymous_args = 0
 2549 0c04 80B5     		push	{r7, lr}
 2550              		.cfi_def_cfa_offset 8
 2551              		.cfi_offset 7, -8
 2552              		.cfi_offset 14, -4
 2553 0c06 00AF     		add	r7, sp, #0
 2554              		.cfi_def_cfa_register 7
 813:build/openmote-cc2538_armgcc/openstack/02b-MAChigh/schedule.c ****    
 814:build/openmote-cc2538_armgcc/openstack/02b-MAChigh/schedule.c ****     INTERRUPT_DECLARATION();
 815:build/openmote-cc2538_armgcc/openstack/02b-MAChigh/schedule.c ****     DISABLE_INTERRUPTS();
 2555              		.loc 1 815 0
 2556 0c08 FFF7FEFF 		bl	IntMasterDisable
 816:build/openmote-cc2538_armgcc/openstack/02b-MAChigh/schedule.c ****     
 817:build/openmote-cc2538_armgcc/openstack/02b-MAChigh/schedule.c ****     // reset backoffExponent
 818:build/openmote-cc2538_armgcc/openstack/02b-MAChigh/schedule.c ****     schedule_vars.backoffExponenton   = MINBE-1;
 2557              		.loc 1 818 0
 2558 0c0c 054B     		ldr	r3, .L170
 2559 0c0e 0122     		movs	r2, #1
 2560 0c10 83F80222 		strb	r2, [r3, #514]
 819:build/openmote-cc2538_armgcc/openstack/02b-MAChigh/schedule.c ****     // reset backoff
 820:build/openmote-cc2538_armgcc/openstack/02b-MAChigh/schedule.c ****     schedule_vars.backoff             = 0;
 2561              		.loc 1 820 0
 2562 0c14 034B     		ldr	r3, .L170
 2563 0c16 0022     		movs	r2, #0
 2564 0c18 83F80322 		strb	r2, [r3, #515]
 821:build/openmote-cc2538_armgcc/openstack/02b-MAChigh/schedule.c ****     
 822:build/openmote-cc2538_armgcc/openstack/02b-MAChigh/schedule.c ****     ENABLE_INTERRUPTS();
 2565              		.loc 1 822 0
 2566 0c1c FFF7FEFF 		bl	IntMasterEnable
 823:build/openmote-cc2538_armgcc/openstack/02b-MAChigh/schedule.c **** }
 2567              		.loc 1 823 0
 2568 0c20 80BD     		pop	{r7, pc}
 2569              	.L171:
 2570 0c22 00BF     		.align	2
 2571              	.L170:
 2572 0c24 00000000 		.word	schedule_vars
 2573              		.cfi_endproc
 2574              	.LFE26:
 2576              		.align	2
 2577              		.global	schedule_indicateRx
 2578              		.thumb
 2579              		.thumb_func
 2581              	schedule_indicateRx:
 2582              	.LFB27:
 824:build/openmote-cc2538_armgcc/openstack/02b-MAChigh/schedule.c **** 
 825:build/openmote-cc2538_armgcc/openstack/02b-MAChigh/schedule.c **** /**
 826:build/openmote-cc2538_armgcc/openstack/02b-MAChigh/schedule.c **** \brief Indicate the reception of a packet.
 827:build/openmote-cc2538_armgcc/openstack/02b-MAChigh/schedule.c **** */
 828:build/openmote-cc2538_armgcc/openstack/02b-MAChigh/schedule.c **** void schedule_indicateRx(asn_t* asnTimestamp) {
 2583              		.loc 1 828 0
 2584              		.cfi_startproc
 2585              		@ args = 0, pretend = 0, frame = 8
 2586              		@ frame_needed = 1, uses_anonymous_args = 0
 2587 0c28 80B5     		push	{r7, lr}
 2588              		.cfi_def_cfa_offset 8
 2589              		.cfi_offset 7, -8
 2590              		.cfi_offset 14, -4
 2591 0c2a 82B0     		sub	sp, sp, #8
 2592              		.cfi_def_cfa_offset 16
 2593 0c2c 00AF     		add	r7, sp, #0
 2594              		.cfi_def_cfa_register 7
 2595 0c2e 7860     		str	r0, [r7, #4]
 829:build/openmote-cc2538_armgcc/openstack/02b-MAChigh/schedule.c ****    
 830:build/openmote-cc2538_armgcc/openstack/02b-MAChigh/schedule.c ****    INTERRUPT_DECLARATION();
 831:build/openmote-cc2538_armgcc/openstack/02b-MAChigh/schedule.c ****    DISABLE_INTERRUPTS();
 2596              		.loc 1 831 0
 2597 0c30 FFF7FEFF 		bl	IntMasterDisable
 832:build/openmote-cc2538_armgcc/openstack/02b-MAChigh/schedule.c ****    
 833:build/openmote-cc2538_armgcc/openstack/02b-MAChigh/schedule.c ****    // increment usage statistics
 834:build/openmote-cc2538_armgcc/openstack/02b-MAChigh/schedule.c ****    schedule_vars.currentScheduleEntry->numRx++;
 2598              		.loc 1 834 0
 2599 0c34 0A4B     		ldr	r3, .L173
 2600 0c36 D3F8F831 		ldr	r3, [r3, #504]
 2601 0c3a 9A7D     		ldrb	r2, [r3, #22]	@ zero_extendqisi2
 2602 0c3c 0132     		adds	r2, r2, #1
 2603 0c3e D2B2     		uxtb	r2, r2
 2604 0c40 9A75     		strb	r2, [r3, #22]
 835:build/openmote-cc2538_armgcc/openstack/02b-MAChigh/schedule.c **** 
 836:build/openmote-cc2538_armgcc/openstack/02b-MAChigh/schedule.c ****    // update last used timestamp
 837:build/openmote-cc2538_armgcc/openstack/02b-MAChigh/schedule.c ****    memcpy(&(schedule_vars.currentScheduleEntry->lastUsedAsn), asnTimestamp, sizeof(asn_t));
 2605              		.loc 1 837 0
 2606 0c42 074B     		ldr	r3, .L173
 2607 0c44 D3F8F831 		ldr	r3, [r3, #504]
 2608 0c48 1933     		adds	r3, r3, #25
 2609 0c4a 1846     		mov	r0, r3
 2610 0c4c 7968     		ldr	r1, [r7, #4]
 2611 0c4e 0522     		movs	r2, #5
 2612 0c50 FFF7FEFF 		bl	memcpy
 838:build/openmote-cc2538_armgcc/openstack/02b-MAChigh/schedule.c ****    
 839:build/openmote-cc2538_armgcc/openstack/02b-MAChigh/schedule.c ****    ENABLE_INTERRUPTS();
 2613              		.loc 1 839 0
 2614 0c54 FFF7FEFF 		bl	IntMasterEnable
 840:build/openmote-cc2538_armgcc/openstack/02b-MAChigh/schedule.c **** }
 2615              		.loc 1 840 0
 2616 0c58 0837     		adds	r7, r7, #8
 2617              		.cfi_def_cfa_offset 8
 2618 0c5a BD46     		mov	sp, r7
 2619              		.cfi_def_cfa_register 13
 2620              		@ sp needed
 2621 0c5c 80BD     		pop	{r7, pc}
 2622              	.L174:
 2623 0c5e 00BF     		.align	2
 2624              	.L173:
 2625 0c60 00000000 		.word	schedule_vars
 2626              		.cfi_endproc
 2627              	.LFE27:
 2629              		.align	2
 2630              		.global	schedule_indicateTx
 2631              		.thumb
 2632              		.thumb_func
 2634              	schedule_indicateTx:
 2635              	.LFB28:
 841:build/openmote-cc2538_armgcc/openstack/02b-MAChigh/schedule.c **** 
 842:build/openmote-cc2538_armgcc/openstack/02b-MAChigh/schedule.c **** /**
 843:build/openmote-cc2538_armgcc/openstack/02b-MAChigh/schedule.c **** \brief Indicate the transmission of a packet.
 844:build/openmote-cc2538_armgcc/openstack/02b-MAChigh/schedule.c **** */
 845:build/openmote-cc2538_armgcc/openstack/02b-MAChigh/schedule.c **** void schedule_indicateTx(asn_t* asnTimestamp, bool succesfullTx) {
 2636              		.loc 1 845 0
 2637              		.cfi_startproc
 2638              		@ args = 0, pretend = 0, frame = 8
 2639              		@ frame_needed = 1, uses_anonymous_args = 0
 2640 0c64 80B5     		push	{r7, lr}
 2641              		.cfi_def_cfa_offset 8
 2642              		.cfi_offset 7, -8
 2643              		.cfi_offset 14, -4
 2644 0c66 82B0     		sub	sp, sp, #8
 2645              		.cfi_def_cfa_offset 16
 2646 0c68 00AF     		add	r7, sp, #0
 2647              		.cfi_def_cfa_register 7
 2648 0c6a 7860     		str	r0, [r7, #4]
 2649 0c6c 0B46     		mov	r3, r1
 2650 0c6e FB70     		strb	r3, [r7, #3]
 846:build/openmote-cc2538_armgcc/openstack/02b-MAChigh/schedule.c ****    
 847:build/openmote-cc2538_armgcc/openstack/02b-MAChigh/schedule.c ****     INTERRUPT_DECLARATION();
 848:build/openmote-cc2538_armgcc/openstack/02b-MAChigh/schedule.c ****     DISABLE_INTERRUPTS();
 2651              		.loc 1 848 0
 2652 0c70 FFF7FEFF 		bl	IntMasterDisable
 849:build/openmote-cc2538_armgcc/openstack/02b-MAChigh/schedule.c ****     
 850:build/openmote-cc2538_armgcc/openstack/02b-MAChigh/schedule.c ****     // increment usage statistics
 851:build/openmote-cc2538_armgcc/openstack/02b-MAChigh/schedule.c ****     if (schedule_vars.currentScheduleEntry->numTx==0xFF) {
 2653              		.loc 1 851 0
 2654 0c74 434B     		ldr	r3, .L184
 2655 0c76 D3F8F831 		ldr	r3, [r3, #504]
 2656 0c7a DB7D     		ldrb	r3, [r3, #23]	@ zero_extendqisi2
 2657 0c7c FF2B     		cmp	r3, #255
 2658 0c7e 13D1     		bne	.L176
 852:build/openmote-cc2538_armgcc/openstack/02b-MAChigh/schedule.c ****         schedule_vars.currentScheduleEntry->numTx/=2;
 2659              		.loc 1 852 0
 2660 0c80 404B     		ldr	r3, .L184
 2661 0c82 D3F8F831 		ldr	r3, [r3, #504]
 2662 0c86 3F4A     		ldr	r2, .L184
 2663 0c88 D2F8F821 		ldr	r2, [r2, #504]
 2664 0c8c D27D     		ldrb	r2, [r2, #23]	@ zero_extendqisi2
 2665 0c8e 5208     		lsrs	r2, r2, #1
 2666 0c90 D2B2     		uxtb	r2, r2
 2667 0c92 DA75     		strb	r2, [r3, #23]
 853:build/openmote-cc2538_armgcc/openstack/02b-MAChigh/schedule.c ****         schedule_vars.currentScheduleEntry->numTxACK/=2;
 2668              		.loc 1 853 0
 2669 0c94 3B4B     		ldr	r3, .L184
 2670 0c96 D3F8F831 		ldr	r3, [r3, #504]
 2671 0c9a 3A4A     		ldr	r2, .L184
 2672 0c9c D2F8F821 		ldr	r2, [r2, #504]
 2673 0ca0 127E     		ldrb	r2, [r2, #24]	@ zero_extendqisi2
 2674 0ca2 5208     		lsrs	r2, r2, #1
 2675 0ca4 D2B2     		uxtb	r2, r2
 2676 0ca6 1A76     		strb	r2, [r3, #24]
 2677              	.L176:
 854:build/openmote-cc2538_armgcc/openstack/02b-MAChigh/schedule.c ****     }
 855:build/openmote-cc2538_armgcc/openstack/02b-MAChigh/schedule.c ****     schedule_vars.currentScheduleEntry->numTx++;
 2678              		.loc 1 855 0
 2679 0ca8 364B     		ldr	r3, .L184
 2680 0caa D3F8F831 		ldr	r3, [r3, #504]
 2681 0cae DA7D     		ldrb	r2, [r3, #23]	@ zero_extendqisi2
 2682 0cb0 0132     		adds	r2, r2, #1
 2683 0cb2 D2B2     		uxtb	r2, r2
 2684 0cb4 DA75     		strb	r2, [r3, #23]
 856:build/openmote-cc2538_armgcc/openstack/02b-MAChigh/schedule.c ****     if (succesfullTx==TRUE) {
 2685              		.loc 1 856 0
 2686 0cb6 FB78     		ldrb	r3, [r7, #3]	@ zero_extendqisi2
 2687 0cb8 002B     		cmp	r3, #0
 2688 0cba 06D0     		beq	.L177
 857:build/openmote-cc2538_armgcc/openstack/02b-MAChigh/schedule.c ****         schedule_vars.currentScheduleEntry->numTxACK++;
 2689              		.loc 1 857 0
 2690 0cbc 314B     		ldr	r3, .L184
 2691 0cbe D3F8F831 		ldr	r3, [r3, #504]
 2692 0cc2 1A7E     		ldrb	r2, [r3, #24]	@ zero_extendqisi2
 2693 0cc4 0132     		adds	r2, r2, #1
 2694 0cc6 D2B2     		uxtb	r2, r2
 2695 0cc8 1A76     		strb	r2, [r3, #24]
 2696              	.L177:
 858:build/openmote-cc2538_armgcc/openstack/02b-MAChigh/schedule.c ****     }
 859:build/openmote-cc2538_armgcc/openstack/02b-MAChigh/schedule.c **** 
 860:build/openmote-cc2538_armgcc/openstack/02b-MAChigh/schedule.c ****     // update last used timestamp
 861:build/openmote-cc2538_armgcc/openstack/02b-MAChigh/schedule.c ****     memcpy(&schedule_vars.currentScheduleEntry->lastUsedAsn, asnTimestamp, sizeof(asn_t));
 2697              		.loc 1 861 0
 2698 0cca 2E4B     		ldr	r3, .L184
 2699 0ccc D3F8F831 		ldr	r3, [r3, #504]
 2700 0cd0 1933     		adds	r3, r3, #25
 2701 0cd2 1846     		mov	r0, r3
 2702 0cd4 7968     		ldr	r1, [r7, #4]
 2703 0cd6 0522     		movs	r2, #5
 2704 0cd8 FFF7FEFF 		bl	memcpy
 862:build/openmote-cc2538_armgcc/openstack/02b-MAChigh/schedule.c **** 
 863:build/openmote-cc2538_armgcc/openstack/02b-MAChigh/schedule.c ****     // update this backoff parameters for shared slots
 864:build/openmote-cc2538_armgcc/openstack/02b-MAChigh/schedule.c ****     if (schedule_vars.currentScheduleEntry->shared==TRUE) {
 2705              		.loc 1 864 0
 2706 0cdc 294B     		ldr	r3, .L184
 2707 0cde D3F8F831 		ldr	r3, [r3, #504]
 2708 0ce2 DB78     		ldrb	r3, [r3, #3]	@ zero_extendqisi2
 2709 0ce4 002B     		cmp	r3, #0
 2710 0ce6 48D0     		beq	.L178
 865:build/openmote-cc2538_armgcc/openstack/02b-MAChigh/schedule.c ****         if (succesfullTx==TRUE) {
 2711              		.loc 1 865 0
 2712 0ce8 FB78     		ldrb	r3, [r7, #3]	@ zero_extendqisi2
 2713 0cea 002B     		cmp	r3, #0
 2714 0cec 16D0     		beq	.L179
 866:build/openmote-cc2538_armgcc/openstack/02b-MAChigh/schedule.c ****             if (schedule_vars.currentScheduleEntry->neighbor.type==ADDR_ANYCAST){
 2715              		.loc 1 866 0
 2716 0cee 254B     		ldr	r3, .L184
 2717 0cf0 D3F8F831 		ldr	r3, [r3, #504]
 2718 0cf4 5B79     		ldrb	r3, [r3, #5]	@ zero_extendqisi2
 2719 0cf6 062B     		cmp	r3, #6
 2720 0cf8 08D1     		bne	.L180
 867:build/openmote-cc2538_armgcc/openstack/02b-MAChigh/schedule.c ****                 // reset backoffExponent
 868:build/openmote-cc2538_armgcc/openstack/02b-MAChigh/schedule.c ****                 schedule_vars.backoffExponenton     = MINBE-1;
 2721              		.loc 1 868 0
 2722 0cfa 224B     		ldr	r3, .L184
 2723 0cfc 0122     		movs	r2, #1
 2724 0cfe 83F80222 		strb	r2, [r3, #514]
 869:build/openmote-cc2538_armgcc/openstack/02b-MAChigh/schedule.c ****                 // reset backoff
 870:build/openmote-cc2538_armgcc/openstack/02b-MAChigh/schedule.c ****                 schedule_vars.backoff               = 0;
 2725              		.loc 1 870 0
 2726 0d02 204B     		ldr	r3, .L184
 2727 0d04 0022     		movs	r2, #0
 2728 0d06 83F80322 		strb	r2, [r3, #515]
 2729 0d0a 36E0     		b	.L178
 2730              	.L180:
 871:build/openmote-cc2538_armgcc/openstack/02b-MAChigh/schedule.c ****             } else {
 872:build/openmote-cc2538_armgcc/openstack/02b-MAChigh/schedule.c ****                 neighbors_resetBackoff(&schedule_vars.currentScheduleEntry->neighbor);
 2731              		.loc 1 872 0
 2732 0d0c 1D4B     		ldr	r3, .L184
 2733 0d0e D3F8F831 		ldr	r3, [r3, #504]
 2734 0d12 0533     		adds	r3, r3, #5
 2735 0d14 1846     		mov	r0, r3
 2736 0d16 FFF7FEFF 		bl	neighbors_resetBackoff
 2737 0d1a 2EE0     		b	.L178
 2738              	.L179:
 873:build/openmote-cc2538_armgcc/openstack/02b-MAChigh/schedule.c ****             }
 874:build/openmote-cc2538_armgcc/openstack/02b-MAChigh/schedule.c ****         } else {
 875:build/openmote-cc2538_armgcc/openstack/02b-MAChigh/schedule.c ****             if (schedule_vars.currentScheduleEntry->neighbor.type==ADDR_ANYCAST){
 2739              		.loc 1 875 0
 2740 0d1c 194B     		ldr	r3, .L184
 2741 0d1e D3F8F831 		ldr	r3, [r3, #504]
 2742 0d22 5B79     		ldrb	r3, [r3, #5]	@ zero_extendqisi2
 2743 0d24 062B     		cmp	r3, #6
 2744 0d26 21D1     		bne	.L182
 876:build/openmote-cc2538_armgcc/openstack/02b-MAChigh/schedule.c ****                 // increase the backoffExponent
 877:build/openmote-cc2538_armgcc/openstack/02b-MAChigh/schedule.c ****                 if (schedule_vars.backoffExponenton<MAXBE) {
 2745              		.loc 1 877 0
 2746 0d28 164B     		ldr	r3, .L184
 2747 0d2a 93F80232 		ldrb	r3, [r3, #514]	@ zero_extendqisi2
 2748 0d2e 032B     		cmp	r3, #3
 2749 0d30 07D8     		bhi	.L183
 878:build/openmote-cc2538_armgcc/openstack/02b-MAChigh/schedule.c ****                     schedule_vars.backoffExponenton++;
 2750              		.loc 1 878 0
 2751 0d32 144B     		ldr	r3, .L184
 2752 0d34 93F80232 		ldrb	r3, [r3, #514]	@ zero_extendqisi2
 2753 0d38 0133     		adds	r3, r3, #1
 2754 0d3a DAB2     		uxtb	r2, r3
 2755 0d3c 114B     		ldr	r3, .L184
 2756 0d3e 83F80222 		strb	r2, [r3, #514]
 2757              	.L183:
 879:build/openmote-cc2538_armgcc/openstack/02b-MAChigh/schedule.c ****                 }
 880:build/openmote-cc2538_armgcc/openstack/02b-MAChigh/schedule.c ****                 // set the backoff to a random value in [0..2^BE]
 881:build/openmote-cc2538_armgcc/openstack/02b-MAChigh/schedule.c ****                 schedule_vars.backoff       = openrandom_get16b()%(1<<schedule_vars.backoffExponent
 2758              		.loc 1 881 0
 2759 0d42 FFF7FEFF 		bl	openrandom_get16b
 2760 0d46 0346     		mov	r3, r0
 2761 0d48 DAB2     		uxtb	r2, r3
 2762 0d4a 0E4B     		ldr	r3, .L184
 2763 0d4c 93F80232 		ldrb	r3, [r3, #514]	@ zero_extendqisi2
 2764 0d50 1946     		mov	r1, r3
 2765 0d52 0123     		movs	r3, #1
 2766 0d54 8B40     		lsls	r3, r3, r1
 2767 0d56 DBB2     		uxtb	r3, r3
 2768 0d58 013B     		subs	r3, r3, #1
 2769 0d5a DBB2     		uxtb	r3, r3
 2770 0d5c DBB2     		uxtb	r3, r3
 2771 0d5e 1340     		ands	r3, r3, r2
 2772 0d60 DBB2     		uxtb	r3, r3
 2773 0d62 DAB2     		uxtb	r2, r3
 2774 0d64 074B     		ldr	r3, .L184
 2775 0d66 83F80322 		strb	r2, [r3, #515]
 2776 0d6a 06E0     		b	.L178
 2777              	.L182:
 882:build/openmote-cc2538_armgcc/openstack/02b-MAChigh/schedule.c ****             } else {
 883:build/openmote-cc2538_armgcc/openstack/02b-MAChigh/schedule.c ****                 neighbors_updateBackoff(&schedule_vars.currentScheduleEntry->neighbor);
 2778              		.loc 1 883 0
 2779 0d6c 054B     		ldr	r3, .L184
 2780 0d6e D3F8F831 		ldr	r3, [r3, #504]
 2781 0d72 0533     		adds	r3, r3, #5
 2782 0d74 1846     		mov	r0, r3
 2783 0d76 FFF7FEFF 		bl	neighbors_updateBackoff
 2784              	.L178:
 884:build/openmote-cc2538_armgcc/openstack/02b-MAChigh/schedule.c ****             }
 885:build/openmote-cc2538_armgcc/openstack/02b-MAChigh/schedule.c ****         }
 886:build/openmote-cc2538_armgcc/openstack/02b-MAChigh/schedule.c ****     }
 887:build/openmote-cc2538_armgcc/openstack/02b-MAChigh/schedule.c ****     
 888:build/openmote-cc2538_armgcc/openstack/02b-MAChigh/schedule.c ****     ENABLE_INTERRUPTS();
 2785              		.loc 1 888 0
 2786 0d7a FFF7FEFF 		bl	IntMasterEnable
 889:build/openmote-cc2538_armgcc/openstack/02b-MAChigh/schedule.c **** }
 2787              		.loc 1 889 0
 2788 0d7e 0837     		adds	r7, r7, #8
 2789              		.cfi_def_cfa_offset 8
 2790 0d80 BD46     		mov	sp, r7
 2791              		.cfi_def_cfa_register 13
 2792              		@ sp needed
 2793 0d82 80BD     		pop	{r7, pc}
 2794              	.L185:
 2795              		.align	2
 2796              	.L184:
 2797 0d84 00000000 		.word	schedule_vars
 2798              		.cfi_endproc
 2799              	.LFE28:
 2801              		.align	2
 2802              		.global	schedule_getOneCellAfterOffset
 2803              		.thumb
 2804              		.thumb_func
 2806              	schedule_getOneCellAfterOffset:
 2807              	.LFB29:
 890:build/openmote-cc2538_armgcc/openstack/02b-MAChigh/schedule.c **** 
 891:build/openmote-cc2538_armgcc/openstack/02b-MAChigh/schedule.c **** bool schedule_getOneCellAfterOffset(uint8_t metadata,uint8_t offset,open_addr_t* neighbor, uint8_t 
 2808              		.loc 1 891 0
 2809              		.cfi_startproc
 2810              		@ args = 8, pretend = 0, frame = 24
 2811              		@ frame_needed = 1, uses_anonymous_args = 0
 2812 0d88 80B5     		push	{r7, lr}
 2813              		.cfi_def_cfa_offset 8
 2814              		.cfi_offset 7, -8
 2815              		.cfi_offset 14, -4
 2816 0d8a 86B0     		sub	sp, sp, #24
 2817              		.cfi_def_cfa_offset 32
 2818 0d8c 00AF     		add	r7, sp, #0
 2819              		.cfi_def_cfa_register 7
 2820 0d8e 3A60     		str	r2, [r7]
 2821 0d90 1A46     		mov	r2, r3
 2822 0d92 0346     		mov	r3, r0
 2823 0d94 FB71     		strb	r3, [r7, #7]
 2824 0d96 0B46     		mov	r3, r1
 2825 0d98 BB71     		strb	r3, [r7, #6]
 2826 0d9a 1346     		mov	r3, r2
 2827 0d9c 7B71     		strb	r3, [r7, #5]
 892:build/openmote-cc2538_armgcc/openstack/02b-MAChigh/schedule.c ****     bool returnVal;
 893:build/openmote-cc2538_armgcc/openstack/02b-MAChigh/schedule.c ****     scheduleEntry_t* scheduleWalker;
 894:build/openmote-cc2538_armgcc/openstack/02b-MAChigh/schedule.c ****     cellType_t type;
 895:build/openmote-cc2538_armgcc/openstack/02b-MAChigh/schedule.c ****     INTERRUPT_DECLARATION();
 896:build/openmote-cc2538_armgcc/openstack/02b-MAChigh/schedule.c ****     DISABLE_INTERRUPTS();
 2828              		.loc 1 896 0
 2829 0d9e FFF7FEFF 		bl	IntMasterDisable
 897:build/openmote-cc2538_armgcc/openstack/02b-MAChigh/schedule.c **** 
 898:build/openmote-cc2538_armgcc/openstack/02b-MAChigh/schedule.c ****     // translate cellOptions to cell type 
 899:build/openmote-cc2538_armgcc/openstack/02b-MAChigh/schedule.c ****     if (cellOptions == CELLOPTIONS_TX){
 2830              		.loc 1 899 0
 2831 0da2 7B79     		ldrb	r3, [r7, #5]	@ zero_extendqisi2
 2832 0da4 012B     		cmp	r3, #1
 2833 0da6 01D1     		bne	.L187
 900:build/openmote-cc2538_armgcc/openstack/02b-MAChigh/schedule.c ****         type = CELLTYPE_TX;
 2834              		.loc 1 900 0
 2835 0da8 0123     		movs	r3, #1
 2836 0daa FB73     		strb	r3, [r7, #15]
 2837              	.L187:
 901:build/openmote-cc2538_armgcc/openstack/02b-MAChigh/schedule.c ****     }
 902:build/openmote-cc2538_armgcc/openstack/02b-MAChigh/schedule.c ****     if (cellOptions == CELLOPTIONS_RX){
 2838              		.loc 1 902 0
 2839 0dac 7B79     		ldrb	r3, [r7, #5]	@ zero_extendqisi2
 2840 0dae 022B     		cmp	r3, #2
 2841 0db0 01D1     		bne	.L188
 903:build/openmote-cc2538_armgcc/openstack/02b-MAChigh/schedule.c ****         type = CELLTYPE_RX;
 2842              		.loc 1 903 0
 2843 0db2 0223     		movs	r3, #2
 2844 0db4 FB73     		strb	r3, [r7, #15]
 2845              	.L188:
 904:build/openmote-cc2538_armgcc/openstack/02b-MAChigh/schedule.c ****     }
 905:build/openmote-cc2538_armgcc/openstack/02b-MAChigh/schedule.c ****     if (cellOptions == (CELLOPTIONS_TX | CELLOPTIONS_RX | CELLOPTIONS_SHARED)){
 2846              		.loc 1 905 0
 2847 0db6 7B79     		ldrb	r3, [r7, #5]	@ zero_extendqisi2
 2848 0db8 072B     		cmp	r3, #7
 2849 0dba 01D1     		bne	.L189
 906:build/openmote-cc2538_armgcc/openstack/02b-MAChigh/schedule.c ****         type = CELLTYPE_TXRX;
 2850              		.loc 1 906 0
 2851 0dbc 0323     		movs	r3, #3
 2852 0dbe FB73     		strb	r3, [r7, #15]
 2853              	.L189:
 907:build/openmote-cc2538_armgcc/openstack/02b-MAChigh/schedule.c ****     }
 908:build/openmote-cc2538_armgcc/openstack/02b-MAChigh/schedule.c ****     
 909:build/openmote-cc2538_armgcc/openstack/02b-MAChigh/schedule.c ****     returnVal      = FALSE;
 2854              		.loc 1 909 0
 2855 0dc0 0023     		movs	r3, #0
 2856 0dc2 FB75     		strb	r3, [r7, #23]
 910:build/openmote-cc2538_armgcc/openstack/02b-MAChigh/schedule.c ****     scheduleWalker = &schedule_vars.scheduleBuf[0]; // fisrt entry record slotoffset 0
 2857              		.loc 1 910 0
 2858 0dc4 134B     		ldr	r3, .L194
 2859 0dc6 3B61     		str	r3, [r7, #16]
 2860              	.L192:
 911:build/openmote-cc2538_armgcc/openstack/02b-MAChigh/schedule.c ****     do {
 912:build/openmote-cc2538_armgcc/openstack/02b-MAChigh/schedule.c ****         if(type == scheduleWalker->type && scheduleWalker->slotOffset >= offset){
 2861              		.loc 1 912 0
 2862 0dc8 3B69     		ldr	r3, [r7, #16]
 2863 0dca 9B78     		ldrb	r3, [r3, #2]	@ zero_extendqisi2
 2864 0dcc FA7B     		ldrb	r2, [r7, #15]	@ zero_extendqisi2
 2865 0dce 9A42     		cmp	r2, r3
 2866 0dd0 11D1     		bne	.L190
 2867              		.loc 1 912 0 is_stmt 0 discriminator 1
 2868 0dd2 3B69     		ldr	r3, [r7, #16]
 2869 0dd4 1A88     		ldrh	r2, [r3]
 2870 0dd6 BB79     		ldrb	r3, [r7, #6]	@ zero_extendqisi2
 2871 0dd8 9BB2     		uxth	r3, r3
 2872 0dda 9A42     		cmp	r2, r3
 2873 0ddc 0BD3     		bcc	.L190
 913:build/openmote-cc2538_armgcc/openstack/02b-MAChigh/schedule.c ****             *slotoffset    = scheduleWalker->slotOffset;
 2874              		.loc 1 913 0 is_stmt 1
 2875 0dde 3B69     		ldr	r3, [r7, #16]
 2876 0de0 1A88     		ldrh	r2, [r3]
 2877 0de2 3B6A     		ldr	r3, [r7, #32]
 2878 0de4 1A80     		strh	r2, [r3]	@ movhi
 914:build/openmote-cc2538_armgcc/openstack/02b-MAChigh/schedule.c ****             *channeloffset = scheduleWalker->channelOffset;
 2879              		.loc 1 914 0
 2880 0de6 3B69     		ldr	r3, [r7, #16]
 2881 0de8 1B79     		ldrb	r3, [r3, #4]	@ zero_extendqisi2
 2882 0dea 9AB2     		uxth	r2, r3
 2883 0dec 7B6A     		ldr	r3, [r7, #36]
 2884 0dee 1A80     		strh	r2, [r3]	@ movhi
 915:build/openmote-cc2538_armgcc/openstack/02b-MAChigh/schedule.c ****             returnVal      = TRUE;
 2885              		.loc 1 915 0
 2886 0df0 0123     		movs	r3, #1
 2887 0df2 FB75     		strb	r3, [r7, #23]
 916:build/openmote-cc2538_armgcc/openstack/02b-MAChigh/schedule.c ****             break;
 2888              		.loc 1 916 0
 2889 0df4 06E0     		b	.L191
 2890              	.L190:
 917:build/openmote-cc2538_armgcc/openstack/02b-MAChigh/schedule.c ****         }
 918:build/openmote-cc2538_armgcc/openstack/02b-MAChigh/schedule.c ****         scheduleWalker = scheduleWalker->next;
 2891              		.loc 1 918 0
 2892 0df6 3B69     		ldr	r3, [r7, #16]
 2893 0df8 1B6A     		ldr	r3, [r3, #32]
 2894 0dfa 3B61     		str	r3, [r7, #16]
 919:build/openmote-cc2538_armgcc/openstack/02b-MAChigh/schedule.c ****    }while(scheduleWalker!=&schedule_vars.scheduleBuf[0]);
 2895              		.loc 1 919 0
 2896 0dfc 3B69     		ldr	r3, [r7, #16]
 2897 0dfe 054A     		ldr	r2, .L194
 2898 0e00 9342     		cmp	r3, r2
 2899 0e02 E1D1     		bne	.L192
 2900              	.L191:
 920:build/openmote-cc2538_armgcc/openstack/02b-MAChigh/schedule.c ****    
 921:build/openmote-cc2538_armgcc/openstack/02b-MAChigh/schedule.c ****     ENABLE_INTERRUPTS();
 2901              		.loc 1 921 0
 2902 0e04 FFF7FEFF 		bl	IntMasterEnable
 922:build/openmote-cc2538_armgcc/openstack/02b-MAChigh/schedule.c ****    
 923:build/openmote-cc2538_armgcc/openstack/02b-MAChigh/schedule.c ****    return returnVal;
 2903              		.loc 1 923 0
 2904 0e08 FB7D     		ldrb	r3, [r7, #23]	@ zero_extendqisi2
 924:build/openmote-cc2538_armgcc/openstack/02b-MAChigh/schedule.c **** }
 2905              		.loc 1 924 0
 2906 0e0a 1846     		mov	r0, r3
 2907 0e0c 1837     		adds	r7, r7, #24
 2908              		.cfi_def_cfa_offset 8
 2909 0e0e BD46     		mov	sp, r7
 2910              		.cfi_def_cfa_register 13
 2911              		@ sp needed
 2912 0e10 80BD     		pop	{r7, pc}
 2913              	.L195:
 2914 0e12 00BF     		.align	2
 2915              	.L194:
 2916 0e14 00000000 		.word	schedule_vars
 2917              		.cfi_endproc
 2918              	.LFE29:
 2920              		.align	2
 2921              		.global	schedule_resetEntry
 2922              		.thumb
 2923              		.thumb_func
 2925              	schedule_resetEntry:
 2926              	.LFB30:
 925:build/openmote-cc2538_armgcc/openstack/02b-MAChigh/schedule.c **** 
 926:build/openmote-cc2538_armgcc/openstack/02b-MAChigh/schedule.c **** //=========================== private =========================================
 927:build/openmote-cc2538_armgcc/openstack/02b-MAChigh/schedule.c **** 
 928:build/openmote-cc2538_armgcc/openstack/02b-MAChigh/schedule.c **** /**
 929:build/openmote-cc2538_armgcc/openstack/02b-MAChigh/schedule.c **** \pre This function assumes interrupts are already disabled.
 930:build/openmote-cc2538_armgcc/openstack/02b-MAChigh/schedule.c **** */
 931:build/openmote-cc2538_armgcc/openstack/02b-MAChigh/schedule.c **** void schedule_resetEntry(scheduleEntry_t* e) {
 2927              		.loc 1 931 0
 2928              		.cfi_startproc
 2929              		@ args = 0, pretend = 0, frame = 8
 2930              		@ frame_needed = 1, uses_anonymous_args = 0
 2931 0e18 80B5     		push	{r7, lr}
 2932              		.cfi_def_cfa_offset 8
 2933              		.cfi_offset 7, -8
 2934              		.cfi_offset 14, -4
 2935 0e1a 82B0     		sub	sp, sp, #8
 2936              		.cfi_def_cfa_offset 16
 2937 0e1c 00AF     		add	r7, sp, #0
 2938              		.cfi_def_cfa_register 7
 2939 0e1e 7860     		str	r0, [r7, #4]
 932:build/openmote-cc2538_armgcc/openstack/02b-MAChigh/schedule.c ****    e->slotOffset             = 0;
 2940              		.loc 1 932 0
 2941 0e20 7B68     		ldr	r3, [r7, #4]
 2942 0e22 0022     		movs	r2, #0
 2943 0e24 1A80     		strh	r2, [r3]	@ movhi
 933:build/openmote-cc2538_armgcc/openstack/02b-MAChigh/schedule.c ****    e->type                   = CELLTYPE_OFF;
 2944              		.loc 1 933 0
 2945 0e26 7B68     		ldr	r3, [r7, #4]
 2946 0e28 0022     		movs	r2, #0
 2947 0e2a 9A70     		strb	r2, [r3, #2]
 934:build/openmote-cc2538_armgcc/openstack/02b-MAChigh/schedule.c ****    e->shared                 = FALSE;
 2948              		.loc 1 934 0
 2949 0e2c 7B68     		ldr	r3, [r7, #4]
 2950 0e2e 0022     		movs	r2, #0
 2951 0e30 DA70     		strb	r2, [r3, #3]
 935:build/openmote-cc2538_armgcc/openstack/02b-MAChigh/schedule.c ****    e->channelOffset          = 0;
 2952              		.loc 1 935 0
 2953 0e32 7B68     		ldr	r3, [r7, #4]
 2954 0e34 0022     		movs	r2, #0
 2955 0e36 1A71     		strb	r2, [r3, #4]
 936:build/openmote-cc2538_armgcc/openstack/02b-MAChigh/schedule.c **** 
 937:build/openmote-cc2538_armgcc/openstack/02b-MAChigh/schedule.c ****    e->neighbor.type          = ADDR_NONE;
 2956              		.loc 1 937 0
 2957 0e38 7B68     		ldr	r3, [r7, #4]
 2958 0e3a 0022     		movs	r2, #0
 2959 0e3c 5A71     		strb	r2, [r3, #5]
 938:build/openmote-cc2538_armgcc/openstack/02b-MAChigh/schedule.c ****    memset(&e->neighbor.addr_64b[0], 0x00, sizeof(e->neighbor.addr_64b));
 2960              		.loc 1 938 0
 2961 0e3e 7B68     		ldr	r3, [r7, #4]
 2962 0e40 0633     		adds	r3, r3, #6
 2963 0e42 1846     		mov	r0, r3
 2964 0e44 0021     		movs	r1, #0
 2965 0e46 0822     		movs	r2, #8
 2966 0e48 FFF7FEFF 		bl	memset
 939:build/openmote-cc2538_armgcc/openstack/02b-MAChigh/schedule.c **** 
 940:build/openmote-cc2538_armgcc/openstack/02b-MAChigh/schedule.c ****    e->numRx                  = 0;
 2967              		.loc 1 940 0
 2968 0e4c 7B68     		ldr	r3, [r7, #4]
 2969 0e4e 0022     		movs	r2, #0
 2970 0e50 9A75     		strb	r2, [r3, #22]
 941:build/openmote-cc2538_armgcc/openstack/02b-MAChigh/schedule.c ****    e->numTx                  = 0;
 2971              		.loc 1 941 0
 2972 0e52 7B68     		ldr	r3, [r7, #4]
 2973 0e54 0022     		movs	r2, #0
 2974 0e56 DA75     		strb	r2, [r3, #23]
 942:build/openmote-cc2538_armgcc/openstack/02b-MAChigh/schedule.c ****    e->numTxACK               = 0;
 2975              		.loc 1 942 0
 2976 0e58 7B68     		ldr	r3, [r7, #4]
 2977 0e5a 0022     		movs	r2, #0
 2978 0e5c 1A76     		strb	r2, [r3, #24]
 943:build/openmote-cc2538_armgcc/openstack/02b-MAChigh/schedule.c ****    e->lastUsedAsn.bytes0and1 = 0;
 2979              		.loc 1 943 0
 2980 0e5e 7B68     		ldr	r3, [r7, #4]
 2981 0e60 0022     		movs	r2, #0
 2982 0e62 9A83     		strh	r2, [r3, #28]	@ movhi
 944:build/openmote-cc2538_armgcc/openstack/02b-MAChigh/schedule.c ****    e->lastUsedAsn.bytes2and3 = 0;
 2983              		.loc 1 944 0
 2984 0e64 7B68     		ldr	r3, [r7, #4]
 2985 0e66 0022     		movs	r2, #0
 2986 0e68 5A83     		strh	r2, [r3, #26]	@ movhi
 945:build/openmote-cc2538_armgcc/openstack/02b-MAChigh/schedule.c ****    e->lastUsedAsn.byte4      = 0;
 2987              		.loc 1 945 0
 2988 0e6a 7B68     		ldr	r3, [r7, #4]
 2989 0e6c 0022     		movs	r2, #0
 2990 0e6e 5A76     		strb	r2, [r3, #25]
 946:build/openmote-cc2538_armgcc/openstack/02b-MAChigh/schedule.c ****    
 947:build/openmote-cc2538_armgcc/openstack/02b-MAChigh/schedule.c ****    e->next                   = NULL;
 2991              		.loc 1 947 0
 2992 0e70 7B68     		ldr	r3, [r7, #4]
 2993 0e72 0022     		movs	r2, #0
 2994 0e74 1A62     		str	r2, [r3, #32]
 948:build/openmote-cc2538_armgcc/openstack/02b-MAChigh/schedule.c **** }
 2995              		.loc 1 948 0
 2996 0e76 0837     		adds	r7, r7, #8
 2997              		.cfi_def_cfa_offset 8
 2998 0e78 BD46     		mov	sp, r7
 2999              		.cfi_def_cfa_register 13
 3000              		@ sp needed
 3001 0e7a 80BD     		pop	{r7, pc}
 3002              		.cfi_endproc
 3003              	.LFE30:
 3005              	.Letext0:
 3006              		.file 2 "/usr/include/newlib/machine/_default_types.h"
 3007              		.file 3 "/usr/include/newlib/sys/_stdint.h"
 3008              		.file 4 "inc/opendefs.h"
 3009              		.file 5 "build/openmote-cc2538_armgcc/openstack/02b-MAChigh/schedule.h"
 3010              		.file 6 "bsp/boards/openmote-cc2538/board_info.h"
 3011              		.file 7 "openstack/cross-layers/idmanager.h"
 3012              		.file 8 "openstack/02a-MAClow/IEEE802154E.h"
 3013              		.file 9 "openstack/03b-IPv6/icmpv6rpl.h"