   1              		.syntax unified
   2              		.cpu cortex-m3
   3              		.fpu softvfp
   4              		.eabi_attribute 20, 1
   5              		.eabi_attribute 21, 1
   6              		.eabi_attribute 23, 3
   7              		.eabi_attribute 24, 1
   8              		.eabi_attribute 25, 1
   9              		.eabi_attribute 26, 1
  10              		.eabi_attribute 30, 6
  11              		.eabi_attribute 34, 1
  12              		.eabi_attribute 18, 4
  13              		.thumb
  14              		.file	"sixtop.c"
  15              		.text
  16              	.Ltext0:
  17              		.cfi_sections	.debug_frame
  18              		.section	.rodata
  19              		.align	2
  22              	rreg_uriquery:
  23 0000 683D7563 		.ascii	"h=ucb\000"
  23      6200
  24 0006 0000     		.align	2
  27              	infoBoardname:
  28 0008 43433235 		.ascii	"CC2538\000"
  28      333800
  29 000f 00       		.align	2
  32              	infouCName:
  33 0010 43433235 		.ascii	"CC2538\000"
  33      333800
  34 0017 00       		.align	2
  37              	infoRadioName:
  38 0018 43433235 		.ascii	"CC2538 SoC\000"
  38      33382053 
  38      6F4300
  39 0023 00       		.align	2
  42              	infoStackName:
  43 0024 4F70656E 		.ascii	"OpenWSN \000"
  43      57534E20 
  43      00
  44 002d 000000   		.align	2
  47              	all_routers_multicast:
  48 0030 FF       		.byte	-1
  49 0031 02       		.byte	2
  50 0032 00       		.byte	0
  51 0033 00       		.byte	0
  52 0034 00       		.byte	0
  53 0035 00       		.byte	0
  54 0036 00       		.byte	0
  55 0037 00       		.byte	0
  56 0038 00       		.byte	0
  57 0039 00       		.byte	0
  58 003a 00       		.byte	0
  59 003b 00       		.byte	0
  60 003c 00       		.byte	0
  61 003d 00       		.byte	0
  62 003e 00       		.byte	0
  63 003f 1A       		.byte	26
  64              		.align	2
  67              	chTemplate_default:
  68 0040 05       		.byte	5
  69 0041 06       		.byte	6
  70 0042 0C       		.byte	12
  71 0043 07       		.byte	7
  72 0044 0F       		.byte	15
  73 0045 04       		.byte	4
  74 0046 0E       		.byte	14
  75 0047 0B       		.byte	11
  76 0048 08       		.byte	8
  77 0049 00       		.byte	0
  78 004a 01       		.byte	1
  79 004b 02       		.byte	2
  80 004c 0D       		.byte	13
  81 004d 03       		.byte	3
  82 004e 09       		.byte	9
  83 004f 0A       		.byte	10
  84              		.align	2
  87              	ebIEsBytestream:
  88 0050 1A       		.byte	26
  89 0051 88       		.byte	-120
  90 0052 06       		.byte	6
  91 0053 1A       		.byte	26
  92 0054 00       		.byte	0
  93 0055 00       		.byte	0
  94 0056 00       		.byte	0
  95 0057 00       		.byte	0
  96 0058 00       		.byte	0
  97 0059 00       		.byte	0
  98 005a 01       		.byte	1
  99 005b 1C       		.byte	28
 100 005c 00       		.byte	0
 101 005d 01       		.byte	1
 102 005e C8       		.byte	-56
 103 005f 00       		.byte	0
 104 0060 0A       		.byte	10
 105 0061 1B       		.byte	27
 106 0062 01       		.byte	1
 107 0063 00       		.byte	0
 108 0064 65       		.byte	101
 109 0065 00       		.byte	0
 110 0066 01       		.byte	1
 111 0067 00       		.byte	0
 112 0068 00       		.byte	0
 113 0069 00       		.byte	0
 114 006a 00       		.byte	0
 115 006b 0F       		.byte	15
 116              		.align	2
 119              	linklocalprefix:
 120 006c FE       		.byte	-2
 121 006d 80       		.byte	-128
 122 006e 00       		.byte	0
 123 006f 00       		.byte	0
 124 0070 00       		.byte	0
 125 0071 00       		.byte	0
 126 0072 00       		.byte	0
 127 0073 00       		.byte	0
 128              		.comm	sixtop_vars,80,4
 129              		.text
 130              		.align	2
 131              		.global	sixtop_init
 132              		.thumb
 133              		.thumb_func
 135              	sixtop_init:
 136              	.LFB0:
 137              		.file 1 "build/openmote-cc2538_armgcc/openstack/02b-MAChigh/sixtop.c"
   1:build/openmote-cc2538_armgcc/openstack/02b-MAChigh/sixtop.c **** #include "opendefs.h"
   2:build/openmote-cc2538_armgcc/openstack/02b-MAChigh/sixtop.c **** #include "sixtop.h"
   3:build/openmote-cc2538_armgcc/openstack/02b-MAChigh/sixtop.c **** #include "openserial.h"
   4:build/openmote-cc2538_armgcc/openstack/02b-MAChigh/sixtop.c **** #include "openqueue.h"
   5:build/openmote-cc2538_armgcc/openstack/02b-MAChigh/sixtop.c **** #include "neighbors.h"
   6:build/openmote-cc2538_armgcc/openstack/02b-MAChigh/sixtop.c **** #include "IEEE802154E.h"
   7:build/openmote-cc2538_armgcc/openstack/02b-MAChigh/sixtop.c **** #include "iphc.h"
   8:build/openmote-cc2538_armgcc/openstack/02b-MAChigh/sixtop.c **** #include "packetfunctions.h"
   9:build/openmote-cc2538_armgcc/openstack/02b-MAChigh/sixtop.c **** #include "openrandom.h"
  10:build/openmote-cc2538_armgcc/openstack/02b-MAChigh/sixtop.c **** #include "scheduler.h"
  11:build/openmote-cc2538_armgcc/openstack/02b-MAChigh/sixtop.c **** #include "opentimers.h"
  12:build/openmote-cc2538_armgcc/openstack/02b-MAChigh/sixtop.c **** #include "debugpins.h"
  13:build/openmote-cc2538_armgcc/openstack/02b-MAChigh/sixtop.c **** #include "leds.h"
  14:build/openmote-cc2538_armgcc/openstack/02b-MAChigh/sixtop.c **** #include "IEEE802154.h"
  15:build/openmote-cc2538_armgcc/openstack/02b-MAChigh/sixtop.c **** #include "IEEE802154_security.h"
  16:build/openmote-cc2538_armgcc/openstack/02b-MAChigh/sixtop.c **** #include "idmanager.h"
  17:build/openmote-cc2538_armgcc/openstack/02b-MAChigh/sixtop.c **** #include "schedule.h"
  18:build/openmote-cc2538_armgcc/openstack/02b-MAChigh/sixtop.c **** 
  19:build/openmote-cc2538_armgcc/openstack/02b-MAChigh/sixtop.c **** //=========================== define ==========================================
  20:build/openmote-cc2538_armgcc/openstack/02b-MAChigh/sixtop.c **** 
  21:build/openmote-cc2538_armgcc/openstack/02b-MAChigh/sixtop.c **** // in seconds: sixtop maintaince is called every 30 seconds
  22:build/openmote-cc2538_armgcc/openstack/02b-MAChigh/sixtop.c **** #define MAINTENANCE_PERIOD        30
  23:build/openmote-cc2538_armgcc/openstack/02b-MAChigh/sixtop.c **** 
  24:build/openmote-cc2538_armgcc/openstack/02b-MAChigh/sixtop.c **** //=========================== variables =======================================
  25:build/openmote-cc2538_armgcc/openstack/02b-MAChigh/sixtop.c **** 
  26:build/openmote-cc2538_armgcc/openstack/02b-MAChigh/sixtop.c **** sixtop_vars_t sixtop_vars;
  27:build/openmote-cc2538_armgcc/openstack/02b-MAChigh/sixtop.c **** 
  28:build/openmote-cc2538_armgcc/openstack/02b-MAChigh/sixtop.c **** //=========================== prototypes ======================================
  29:build/openmote-cc2538_armgcc/openstack/02b-MAChigh/sixtop.c **** 
  30:build/openmote-cc2538_armgcc/openstack/02b-MAChigh/sixtop.c **** // send internal
  31:build/openmote-cc2538_armgcc/openstack/02b-MAChigh/sixtop.c **** owerror_t     sixtop_send_internal(
  32:build/openmote-cc2538_armgcc/openstack/02b-MAChigh/sixtop.c ****    OpenQueueEntry_t*    msg,
  33:build/openmote-cc2538_armgcc/openstack/02b-MAChigh/sixtop.c ****    bool                 payloadIEPresent
  34:build/openmote-cc2538_armgcc/openstack/02b-MAChigh/sixtop.c **** );
  35:build/openmote-cc2538_armgcc/openstack/02b-MAChigh/sixtop.c **** 
  36:build/openmote-cc2538_armgcc/openstack/02b-MAChigh/sixtop.c **** // timer interrupt callbacks
  37:build/openmote-cc2538_armgcc/openstack/02b-MAChigh/sixtop.c **** void          sixtop_maintenance_timer_cb(opentimers_id_t id);
  38:build/openmote-cc2538_armgcc/openstack/02b-MAChigh/sixtop.c **** void          sixtop_timeout_timer_cb(opentimers_id_t id);
  39:build/openmote-cc2538_armgcc/openstack/02b-MAChigh/sixtop.c **** void          sixtop_sendingEb_timer_cb(opentimers_id_t id);
  40:build/openmote-cc2538_armgcc/openstack/02b-MAChigh/sixtop.c **** 
  41:build/openmote-cc2538_armgcc/openstack/02b-MAChigh/sixtop.c **** //=== EB/KA task
  42:build/openmote-cc2538_armgcc/openstack/02b-MAChigh/sixtop.c **** 
  43:build/openmote-cc2538_armgcc/openstack/02b-MAChigh/sixtop.c **** void          timer_sixtop_sendEb_fired(void);
  44:build/openmote-cc2538_armgcc/openstack/02b-MAChigh/sixtop.c **** void          timer_sixtop_management_fired(void);
  45:build/openmote-cc2538_armgcc/openstack/02b-MAChigh/sixtop.c **** void          sixtop_sendEB(void);
  46:build/openmote-cc2538_armgcc/openstack/02b-MAChigh/sixtop.c **** void          sixtop_sendKA(void);
  47:build/openmote-cc2538_armgcc/openstack/02b-MAChigh/sixtop.c **** 
  48:build/openmote-cc2538_armgcc/openstack/02b-MAChigh/sixtop.c **** //=== six2six task
  49:build/openmote-cc2538_armgcc/openstack/02b-MAChigh/sixtop.c **** 
  50:build/openmote-cc2538_armgcc/openstack/02b-MAChigh/sixtop.c **** void          timer_sixtop_six2six_timeout_fired(void);
  51:build/openmote-cc2538_armgcc/openstack/02b-MAChigh/sixtop.c **** void          sixtop_six2six_sendDone(
  52:build/openmote-cc2538_armgcc/openstack/02b-MAChigh/sixtop.c ****    OpenQueueEntry_t*    msg,
  53:build/openmote-cc2538_armgcc/openstack/02b-MAChigh/sixtop.c ****    owerror_t            error
  54:build/openmote-cc2538_armgcc/openstack/02b-MAChigh/sixtop.c **** );
  55:build/openmote-cc2538_armgcc/openstack/02b-MAChigh/sixtop.c **** bool          sixtop_processIEs(
  56:build/openmote-cc2538_armgcc/openstack/02b-MAChigh/sixtop.c ****    OpenQueueEntry_t*    pkt,
  57:build/openmote-cc2538_armgcc/openstack/02b-MAChigh/sixtop.c ****    uint16_t*            lenIE
  58:build/openmote-cc2538_armgcc/openstack/02b-MAChigh/sixtop.c **** );
  59:build/openmote-cc2538_armgcc/openstack/02b-MAChigh/sixtop.c **** void sixtop_six2six_notifyReceive(
  60:build/openmote-cc2538_armgcc/openstack/02b-MAChigh/sixtop.c ****    uint8_t              version,
  61:build/openmote-cc2538_armgcc/openstack/02b-MAChigh/sixtop.c ****    uint8_t              type,
  62:build/openmote-cc2538_armgcc/openstack/02b-MAChigh/sixtop.c ****    uint8_t              code,
  63:build/openmote-cc2538_armgcc/openstack/02b-MAChigh/sixtop.c ****    uint8_t              sfId,
  64:build/openmote-cc2538_armgcc/openstack/02b-MAChigh/sixtop.c ****    uint8_t              seqNum,
  65:build/openmote-cc2538_armgcc/openstack/02b-MAChigh/sixtop.c ****    uint8_t              ptr,
  66:build/openmote-cc2538_armgcc/openstack/02b-MAChigh/sixtop.c ****    uint8_t              length,
  67:build/openmote-cc2538_armgcc/openstack/02b-MAChigh/sixtop.c ****    OpenQueueEntry_t*    pkt
  68:build/openmote-cc2538_armgcc/openstack/02b-MAChigh/sixtop.c **** );
  69:build/openmote-cc2538_armgcc/openstack/02b-MAChigh/sixtop.c **** 
  70:build/openmote-cc2538_armgcc/openstack/02b-MAChigh/sixtop.c **** //=== helper functions
  71:build/openmote-cc2538_armgcc/openstack/02b-MAChigh/sixtop.c **** 
  72:build/openmote-cc2538_armgcc/openstack/02b-MAChigh/sixtop.c **** bool          sixtop_addCells(
  73:build/openmote-cc2538_armgcc/openstack/02b-MAChigh/sixtop.c ****    uint8_t              slotframeID,
  74:build/openmote-cc2538_armgcc/openstack/02b-MAChigh/sixtop.c ****    cellInfo_ht*         cellList,
  75:build/openmote-cc2538_armgcc/openstack/02b-MAChigh/sixtop.c ****    open_addr_t*         previousHop,
  76:build/openmote-cc2538_armgcc/openstack/02b-MAChigh/sixtop.c ****    uint8_t              cellOptions
  77:build/openmote-cc2538_armgcc/openstack/02b-MAChigh/sixtop.c **** );
  78:build/openmote-cc2538_armgcc/openstack/02b-MAChigh/sixtop.c **** bool          sixtop_removeCells(
  79:build/openmote-cc2538_armgcc/openstack/02b-MAChigh/sixtop.c ****    uint8_t              slotframeID,
  80:build/openmote-cc2538_armgcc/openstack/02b-MAChigh/sixtop.c ****    cellInfo_ht*         cellList,
  81:build/openmote-cc2538_armgcc/openstack/02b-MAChigh/sixtop.c ****    open_addr_t*         previousHop,
  82:build/openmote-cc2538_armgcc/openstack/02b-MAChigh/sixtop.c ****    uint8_t              cellOptions
  83:build/openmote-cc2538_armgcc/openstack/02b-MAChigh/sixtop.c **** );
  84:build/openmote-cc2538_armgcc/openstack/02b-MAChigh/sixtop.c **** bool          sixtop_areAvailableCellsToBeScheduled(
  85:build/openmote-cc2538_armgcc/openstack/02b-MAChigh/sixtop.c ****     uint8_t              frameID,
  86:build/openmote-cc2538_armgcc/openstack/02b-MAChigh/sixtop.c ****     uint8_t              numOfCells,
  87:build/openmote-cc2538_armgcc/openstack/02b-MAChigh/sixtop.c ****     cellInfo_ht*         cellList
  88:build/openmote-cc2538_armgcc/openstack/02b-MAChigh/sixtop.c **** );
  89:build/openmote-cc2538_armgcc/openstack/02b-MAChigh/sixtop.c **** bool sixtop_areAvailableCellsToBeRemoved(
  90:build/openmote-cc2538_armgcc/openstack/02b-MAChigh/sixtop.c ****     uint8_t      frameID,
  91:build/openmote-cc2538_armgcc/openstack/02b-MAChigh/sixtop.c ****     uint8_t      numOfCells,
  92:build/openmote-cc2538_armgcc/openstack/02b-MAChigh/sixtop.c ****     cellInfo_ht* cellList,
  93:build/openmote-cc2538_armgcc/openstack/02b-MAChigh/sixtop.c ****     open_addr_t* neighbor,
  94:build/openmote-cc2538_armgcc/openstack/02b-MAChigh/sixtop.c ****     uint8_t      cellOptions
  95:build/openmote-cc2538_armgcc/openstack/02b-MAChigh/sixtop.c **** );
  96:build/openmote-cc2538_armgcc/openstack/02b-MAChigh/sixtop.c **** 
  97:build/openmote-cc2538_armgcc/openstack/02b-MAChigh/sixtop.c **** //=========================== public ==========================================
  98:build/openmote-cc2538_armgcc/openstack/02b-MAChigh/sixtop.c **** 
  99:build/openmote-cc2538_armgcc/openstack/02b-MAChigh/sixtop.c **** void sixtop_init(void) {
 138              		.loc 1 99 0
 139              		.cfi_startproc
 140              		@ args = 0, pretend = 0, frame = 0
 141              		@ frame_needed = 1, uses_anonymous_args = 0
 142 0000 80B5     		push	{r7, lr}
 143              		.cfi_def_cfa_offset 8
 144              		.cfi_offset 7, -8
 145              		.cfi_offset 14, -4
 146 0002 82B0     		sub	sp, sp, #8
 147              		.cfi_def_cfa_offset 16
 148 0004 02AF     		add	r7, sp, #8
 149              		.cfi_def_cfa 7, 8
 100:build/openmote-cc2538_armgcc/openstack/02b-MAChigh/sixtop.c **** 
 101:build/openmote-cc2538_armgcc/openstack/02b-MAChigh/sixtop.c ****     sixtop_vars.periodMaintenance  = 872 +(openrandom_get16b()&0xff);
 150              		.loc 1 101 0
 151 0006 FFF7FEFF 		bl	openrandom_get16b
 152 000a 0346     		mov	r3, r0
 153 000c DBB2     		uxtb	r3, r3
 154 000e 9BB2     		uxth	r3, r3
 155 0010 03F55A73 		add	r3, r3, #872
 156 0014 9AB2     		uxth	r2, r3
 157 0016 214B     		ldr	r3, .L2
 158 0018 1A80     		strh	r2, [r3]	@ movhi
 102:build/openmote-cc2538_armgcc/openstack/02b-MAChigh/sixtop.c ****     sixtop_vars.busySendingKA      = FALSE;
 159              		.loc 1 102 0
 160 001a 204B     		ldr	r3, .L2
 161 001c 0022     		movs	r2, #0
 162 001e 9A70     		strb	r2, [r3, #2]
 103:build/openmote-cc2538_armgcc/openstack/02b-MAChigh/sixtop.c ****     sixtop_vars.busySendingEB      = FALSE;
 163              		.loc 1 103 0
 164 0020 1E4B     		ldr	r3, .L2
 165 0022 0022     		movs	r2, #0
 166 0024 DA70     		strb	r2, [r3, #3]
 104:build/openmote-cc2538_armgcc/openstack/02b-MAChigh/sixtop.c ****     sixtop_vars.dsn                = 0;
 167              		.loc 1 104 0
 168 0026 1D4B     		ldr	r3, .L2
 169 0028 0022     		movs	r2, #0
 170 002a 1A71     		strb	r2, [r3, #4]
 105:build/openmote-cc2538_armgcc/openstack/02b-MAChigh/sixtop.c ****     sixtop_vars.mgtTaskCounter     = 0;
 171              		.loc 1 105 0
 172 002c 1B4B     		ldr	r3, .L2
 173 002e 0022     		movs	r2, #0
 174 0030 5A71     		strb	r2, [r3, #5]
 106:build/openmote-cc2538_armgcc/openstack/02b-MAChigh/sixtop.c ****     sixtop_vars.kaPeriod           = MAXKAPERIOD;
 175              		.loc 1 106 0
 176 0032 1A4B     		ldr	r3, .L2
 177 0034 4FF47A72 		mov	r2, #1000
 178 0038 5A81     		strh	r2, [r3, #10]	@ movhi
 107:build/openmote-cc2538_armgcc/openstack/02b-MAChigh/sixtop.c ****     sixtop_vars.isResponseEnabled  = TRUE;
 179              		.loc 1 107 0
 180 003a 184B     		ldr	r3, .L2
 181 003c 0122     		movs	r2, #1
 182 003e 1A74     		strb	r2, [r3, #16]
 108:build/openmote-cc2538_armgcc/openstack/02b-MAChigh/sixtop.c ****     sixtop_vars.six2six_state      = SIX_STATE_IDLE;
 183              		.loc 1 108 0
 184 0040 164B     		ldr	r3, .L2
 185 0042 0022     		movs	r2, #0
 186 0044 9A73     		strb	r2, [r3, #14]
 109:build/openmote-cc2538_armgcc/openstack/02b-MAChigh/sixtop.c **** 
 110:build/openmote-cc2538_armgcc/openstack/02b-MAChigh/sixtop.c ****     sixtop_vars.ebSendingTimerId   = opentimers_create();
 187              		.loc 1 110 0
 188 0046 FFF7FEFF 		bl	opentimers_create
 189 004a 0346     		mov	r3, r0
 190 004c 1A46     		mov	r2, r3
 191 004e 134B     		ldr	r3, .L2
 192 0050 DA71     		strb	r2, [r3, #7]
 111:build/openmote-cc2538_armgcc/openstack/02b-MAChigh/sixtop.c ****     opentimers_scheduleIn(
 193              		.loc 1 111 0
 194 0052 124B     		ldr	r3, .L2
 195 0054 DA79     		ldrb	r2, [r3, #7]	@ zero_extendqisi2
 196 0056 124B     		ldr	r3, .L2+4
 197 0058 0093     		str	r3, [sp]
 198 005a 1046     		mov	r0, r2
 199 005c 40F2F231 		movw	r1, #1010
 200 0060 0022     		movs	r2, #0
 201 0062 0023     		movs	r3, #0
 202 0064 FFF7FEFF 		bl	opentimers_scheduleIn
 112:build/openmote-cc2538_armgcc/openstack/02b-MAChigh/sixtop.c ****         sixtop_vars.ebSendingTimerId,
 113:build/openmote-cc2538_armgcc/openstack/02b-MAChigh/sixtop.c ****         SLOTFRAME_LENGTH*SLOTDURATION,
 114:build/openmote-cc2538_armgcc/openstack/02b-MAChigh/sixtop.c ****         TIME_MS,
 115:build/openmote-cc2538_armgcc/openstack/02b-MAChigh/sixtop.c ****         TIMER_PERIODIC,
 116:build/openmote-cc2538_armgcc/openstack/02b-MAChigh/sixtop.c ****         sixtop_sendingEb_timer_cb
 117:build/openmote-cc2538_armgcc/openstack/02b-MAChigh/sixtop.c ****     );
 118:build/openmote-cc2538_armgcc/openstack/02b-MAChigh/sixtop.c **** 
 119:build/openmote-cc2538_armgcc/openstack/02b-MAChigh/sixtop.c ****     sixtop_vars.maintenanceTimerId   = opentimers_create();
 203              		.loc 1 119 0
 204 0068 FFF7FEFF 		bl	opentimers_create
 205 006c 0346     		mov	r3, r0
 206 006e 1A46     		mov	r2, r3
 207 0070 0A4B     		ldr	r3, .L2
 208 0072 1A72     		strb	r2, [r3, #8]
 120:build/openmote-cc2538_armgcc/openstack/02b-MAChigh/sixtop.c ****     opentimers_scheduleIn(
 209              		.loc 1 120 0
 210 0074 094B     		ldr	r3, .L2
 211 0076 1A7A     		ldrb	r2, [r3, #8]	@ zero_extendqisi2
 121:build/openmote-cc2538_armgcc/openstack/02b-MAChigh/sixtop.c ****         sixtop_vars.maintenanceTimerId,
 122:build/openmote-cc2538_armgcc/openstack/02b-MAChigh/sixtop.c ****         sixtop_vars.periodMaintenance,
 212              		.loc 1 122 0
 213 0078 084B     		ldr	r3, .L2
 214 007a 1B88     		ldrh	r3, [r3]
 120:build/openmote-cc2538_armgcc/openstack/02b-MAChigh/sixtop.c ****     opentimers_scheduleIn(
 215              		.loc 1 120 0
 216 007c 1946     		mov	r1, r3
 217 007e 094B     		ldr	r3, .L2+8
 218 0080 0093     		str	r3, [sp]
 219 0082 1046     		mov	r0, r2
 220 0084 0022     		movs	r2, #0
 221 0086 0023     		movs	r3, #0
 222 0088 FFF7FEFF 		bl	opentimers_scheduleIn
 123:build/openmote-cc2538_armgcc/openstack/02b-MAChigh/sixtop.c ****         TIME_MS,
 124:build/openmote-cc2538_armgcc/openstack/02b-MAChigh/sixtop.c ****         TIMER_PERIODIC,
 125:build/openmote-cc2538_armgcc/openstack/02b-MAChigh/sixtop.c ****         sixtop_maintenance_timer_cb
 126:build/openmote-cc2538_armgcc/openstack/02b-MAChigh/sixtop.c ****     );
 127:build/openmote-cc2538_armgcc/openstack/02b-MAChigh/sixtop.c **** 
 128:build/openmote-cc2538_armgcc/openstack/02b-MAChigh/sixtop.c ****     sixtop_vars.timeoutTimerId      =  opentimers_create();
 223              		.loc 1 128 0
 224 008c FFF7FEFF 		bl	opentimers_create
 225 0090 0346     		mov	r3, r0
 226 0092 1A46     		mov	r2, r3
 227 0094 014B     		ldr	r3, .L2
 228 0096 5A72     		strb	r2, [r3, #9]
 129:build/openmote-cc2538_armgcc/openstack/02b-MAChigh/sixtop.c **** }
 229              		.loc 1 129 0
 230 0098 BD46     		mov	sp, r7
 231              		.cfi_def_cfa_register 13
 232              		@ sp needed
 233 009a 80BD     		pop	{r7, pc}
 234              	.L3:
 235              		.align	2
 236              	.L2:
 237 009c 00000000 		.word	sixtop_vars
 238 00a0 00000000 		.word	sixtop_sendingEb_timer_cb
 239 00a4 00000000 		.word	sixtop_maintenance_timer_cb
 240              		.cfi_endproc
 241              	.LFE0:
 243              		.align	2
 244              		.global	sixtop_setKaPeriod
 245              		.thumb
 246              		.thumb_func
 248              	sixtop_setKaPeriod:
 249              	.LFB1:
 130:build/openmote-cc2538_armgcc/openstack/02b-MAChigh/sixtop.c **** 
 131:build/openmote-cc2538_armgcc/openstack/02b-MAChigh/sixtop.c **** void sixtop_setKaPeriod(uint16_t kaPeriod) {
 250              		.loc 1 131 0
 251              		.cfi_startproc
 252              		@ args = 0, pretend = 0, frame = 8
 253              		@ frame_needed = 1, uses_anonymous_args = 0
 254              		@ link register save eliminated.
 255 00a8 80B4     		push	{r7}
 256              		.cfi_def_cfa_offset 4
 257              		.cfi_offset 7, -4
 258 00aa 83B0     		sub	sp, sp, #12
 259              		.cfi_def_cfa_offset 16
 260 00ac 00AF     		add	r7, sp, #0
 261              		.cfi_def_cfa_register 7
 262 00ae 0346     		mov	r3, r0
 263 00b0 FB80     		strh	r3, [r7, #6]	@ movhi
 132:build/openmote-cc2538_armgcc/openstack/02b-MAChigh/sixtop.c ****     if(kaPeriod > MAXKAPERIOD) {
 264              		.loc 1 132 0
 265 00b2 FB88     		ldrh	r3, [r7, #6]
 266 00b4 B3F57A7F 		cmp	r3, #1000
 267 00b8 04D9     		bls	.L5
 133:build/openmote-cc2538_armgcc/openstack/02b-MAChigh/sixtop.c ****         sixtop_vars.kaPeriod = MAXKAPERIOD;
 268              		.loc 1 133 0
 269 00ba 064B     		ldr	r3, .L7
 270 00bc 4FF47A72 		mov	r2, #1000
 271 00c0 5A81     		strh	r2, [r3, #10]	@ movhi
 272 00c2 02E0     		b	.L4
 273              	.L5:
 134:build/openmote-cc2538_armgcc/openstack/02b-MAChigh/sixtop.c ****     } else {
 135:build/openmote-cc2538_armgcc/openstack/02b-MAChigh/sixtop.c ****         sixtop_vars.kaPeriod = kaPeriod;
 274              		.loc 1 135 0
 275 00c4 034A     		ldr	r2, .L7
 276 00c6 FB88     		ldrh	r3, [r7, #6]	@ movhi
 277 00c8 5381     		strh	r3, [r2, #10]	@ movhi
 278              	.L4:
 136:build/openmote-cc2538_armgcc/openstack/02b-MAChigh/sixtop.c ****     }
 137:build/openmote-cc2538_armgcc/openstack/02b-MAChigh/sixtop.c **** }
 279              		.loc 1 137 0
 280 00ca 0C37     		adds	r7, r7, #12
 281              		.cfi_def_cfa_offset 4
 282 00cc BD46     		mov	sp, r7
 283              		.cfi_def_cfa_register 13
 284              		@ sp needed
 285 00ce 5DF8047B 		ldr	r7, [sp], #4
 286              		.cfi_restore 7
 287              		.cfi_def_cfa_offset 0
 288 00d2 7047     		bx	lr
 289              	.L8:
 290              		.align	2
 291              	.L7:
 292 00d4 00000000 		.word	sixtop_vars
 293              		.cfi_endproc
 294              	.LFE1:
 296              		.align	2
 297              		.global	sixtop_setEBPeriod
 298              		.thumb
 299              		.thumb_func
 301              	sixtop_setEBPeriod:
 302              	.LFB2:
 138:build/openmote-cc2538_armgcc/openstack/02b-MAChigh/sixtop.c **** 
 139:build/openmote-cc2538_armgcc/openstack/02b-MAChigh/sixtop.c **** void sixtop_setEBPeriod(uint8_t ebPeriod) {
 303              		.loc 1 139 0
 304              		.cfi_startproc
 305              		@ args = 0, pretend = 0, frame = 8
 306              		@ frame_needed = 1, uses_anonymous_args = 0
 307              		@ link register save eliminated.
 308 00d8 80B4     		push	{r7}
 309              		.cfi_def_cfa_offset 4
 310              		.cfi_offset 7, -4
 311 00da 83B0     		sub	sp, sp, #12
 312              		.cfi_def_cfa_offset 16
 313 00dc 00AF     		add	r7, sp, #0
 314              		.cfi_def_cfa_register 7
 315 00de 0346     		mov	r3, r0
 316 00e0 FB71     		strb	r3, [r7, #7]
 140:build/openmote-cc2538_armgcc/openstack/02b-MAChigh/sixtop.c ****     if(ebPeriod != 0) {
 317              		.loc 1 140 0
 318 00e2 FB79     		ldrb	r3, [r7, #7]	@ zero_extendqisi2
 319 00e4 002B     		cmp	r3, #0
 320 00e6 03D0     		beq	.L9
 141:build/openmote-cc2538_armgcc/openstack/02b-MAChigh/sixtop.c ****         // convert parameter to miliseconds
 142:build/openmote-cc2538_armgcc/openstack/02b-MAChigh/sixtop.c ****         sixtop_vars.ebPeriod = ebPeriod;
 321              		.loc 1 142 0
 322 00e8 FB79     		ldrb	r3, [r7, #7]	@ zero_extendqisi2
 323 00ea 9AB2     		uxth	r2, r3
 324 00ec 034B     		ldr	r3, .L11
 325 00ee 9A81     		strh	r2, [r3, #12]	@ movhi
 326              	.L9:
 143:build/openmote-cc2538_armgcc/openstack/02b-MAChigh/sixtop.c ****     }
 144:build/openmote-cc2538_armgcc/openstack/02b-MAChigh/sixtop.c **** }
 327              		.loc 1 144 0
 328 00f0 0C37     		adds	r7, r7, #12
 329              		.cfi_def_cfa_offset 4
 330 00f2 BD46     		mov	sp, r7
 331              		.cfi_def_cfa_register 13
 332              		@ sp needed
 333 00f4 5DF8047B 		ldr	r7, [sp], #4
 334              		.cfi_restore 7
 335              		.cfi_def_cfa_offset 0
 336 00f8 7047     		bx	lr
 337              	.L12:
 338 00fa 00BF     		.align	2
 339              	.L11:
 340 00fc 00000000 		.word	sixtop_vars
 341              		.cfi_endproc
 342              	.LFE2:
 344              		.align	2
 345              		.global	sixtop_setSFcallback
 346              		.thumb
 347              		.thumb_func
 349              	sixtop_setSFcallback:
 350              	.LFB3:
 145:build/openmote-cc2538_armgcc/openstack/02b-MAChigh/sixtop.c **** 
 146:build/openmote-cc2538_armgcc/openstack/02b-MAChigh/sixtop.c **** void  sixtop_setSFcallback(
 147:build/openmote-cc2538_armgcc/openstack/02b-MAChigh/sixtop.c ****     sixtop_sf_getsfid           cb0,
 148:build/openmote-cc2538_armgcc/openstack/02b-MAChigh/sixtop.c ****     sixtop_sf_getmetadata       cb1,
 149:build/openmote-cc2538_armgcc/openstack/02b-MAChigh/sixtop.c ****     sixtop_sf_translatemetadata cb2,
 150:build/openmote-cc2538_armgcc/openstack/02b-MAChigh/sixtop.c ****     sixtop_sf_handle_callback   cb3
 151:build/openmote-cc2538_armgcc/openstack/02b-MAChigh/sixtop.c **** ){
 351              		.loc 1 151 0
 352              		.cfi_startproc
 353              		@ args = 0, pretend = 0, frame = 16
 354              		@ frame_needed = 1, uses_anonymous_args = 0
 355              		@ link register save eliminated.
 356 0100 80B4     		push	{r7}
 357              		.cfi_def_cfa_offset 4
 358              		.cfi_offset 7, -4
 359 0102 85B0     		sub	sp, sp, #20
 360              		.cfi_def_cfa_offset 24
 361 0104 00AF     		add	r7, sp, #0
 362              		.cfi_def_cfa_register 7
 363 0106 F860     		str	r0, [r7, #12]
 364 0108 B960     		str	r1, [r7, #8]
 365 010a 7A60     		str	r2, [r7, #4]
 366 010c 3B60     		str	r3, [r7]
 152:build/openmote-cc2538_armgcc/openstack/02b-MAChigh/sixtop.c ****    sixtop_vars.cb_sf_getsfid            = cb0;
 367              		.loc 1 152 0
 368 010e 084A     		ldr	r2, .L14
 369 0110 FB68     		ldr	r3, [r7, #12]
 370 0112 D362     		str	r3, [r2, #44]
 153:build/openmote-cc2538_armgcc/openstack/02b-MAChigh/sixtop.c ****    sixtop_vars.cb_sf_getMetadata        = cb1;
 371              		.loc 1 153 0
 372 0114 064A     		ldr	r2, .L14
 373 0116 BB68     		ldr	r3, [r7, #8]
 374 0118 1363     		str	r3, [r2, #48]
 154:build/openmote-cc2538_armgcc/openstack/02b-MAChigh/sixtop.c ****    sixtop_vars.cb_sf_translateMetadata  = cb2;
 375              		.loc 1 154 0
 376 011a 054A     		ldr	r2, .L14
 377 011c 7B68     		ldr	r3, [r7, #4]
 378 011e 5363     		str	r3, [r2, #52]
 155:build/openmote-cc2538_armgcc/openstack/02b-MAChigh/sixtop.c ****    sixtop_vars.cb_sf_handleRCError      = cb3;
 379              		.loc 1 155 0
 380 0120 034A     		ldr	r2, .L14
 381 0122 3B68     		ldr	r3, [r7]
 382 0124 9363     		str	r3, [r2, #56]
 156:build/openmote-cc2538_armgcc/openstack/02b-MAChigh/sixtop.c **** }
 383              		.loc 1 156 0
 384 0126 1437     		adds	r7, r7, #20
 385              		.cfi_def_cfa_offset 4
 386 0128 BD46     		mov	sp, r7
 387              		.cfi_def_cfa_register 13
 388              		@ sp needed
 389 012a 5DF8047B 		ldr	r7, [sp], #4
 390              		.cfi_restore 7
 391              		.cfi_def_cfa_offset 0
 392 012e 7047     		bx	lr
 393              	.L15:
 394              		.align	2
 395              	.L14:
 396 0130 00000000 		.word	sixtop_vars
 397              		.cfi_endproc
 398              	.LFE3:
 400              		.align	2
 401              		.global	sixtop_request
 402              		.thumb
 403              		.thumb_func
 405              	sixtop_request:
 406              	.LFB4:
 157:build/openmote-cc2538_armgcc/openstack/02b-MAChigh/sixtop.c **** 
 158:build/openmote-cc2538_armgcc/openstack/02b-MAChigh/sixtop.c **** //======= scheduling
 159:build/openmote-cc2538_armgcc/openstack/02b-MAChigh/sixtop.c **** 
 160:build/openmote-cc2538_armgcc/openstack/02b-MAChigh/sixtop.c **** owerror_t sixtop_request(
 161:build/openmote-cc2538_armgcc/openstack/02b-MAChigh/sixtop.c ****     uint8_t      code,
 162:build/openmote-cc2538_armgcc/openstack/02b-MAChigh/sixtop.c ****     open_addr_t* neighbor,
 163:build/openmote-cc2538_armgcc/openstack/02b-MAChigh/sixtop.c ****     uint8_t      numCells,
 164:build/openmote-cc2538_armgcc/openstack/02b-MAChigh/sixtop.c ****     uint8_t      cellOptions,
 165:build/openmote-cc2538_armgcc/openstack/02b-MAChigh/sixtop.c ****     cellInfo_ht* celllist_toBeAdded,
 166:build/openmote-cc2538_armgcc/openstack/02b-MAChigh/sixtop.c ****     cellInfo_ht* celllist_toBeDeleted,
 167:build/openmote-cc2538_armgcc/openstack/02b-MAChigh/sixtop.c ****     uint8_t      sfid,
 168:build/openmote-cc2538_armgcc/openstack/02b-MAChigh/sixtop.c ****     uint16_t     listingOffset,
 169:build/openmote-cc2538_armgcc/openstack/02b-MAChigh/sixtop.c ****     uint16_t     listingMaxNumCells
 170:build/openmote-cc2538_armgcc/openstack/02b-MAChigh/sixtop.c ****     ){
 407              		.loc 1 170 0
 408              		.cfi_startproc
 409              		@ args = 20, pretend = 0, frame = 24
 410              		@ frame_needed = 1, uses_anonymous_args = 0
 411 0134 B0B5     		push	{r4, r5, r7, lr}
 412              		.cfi_def_cfa_offset 16
 413              		.cfi_offset 4, -16
 414              		.cfi_offset 5, -12
 415              		.cfi_offset 7, -8
 416              		.cfi_offset 14, -4
 417 0136 86B0     		sub	sp, sp, #24
 418              		.cfi_def_cfa_offset 40
 419 0138 00AF     		add	r7, sp, #0
 420              		.cfi_def_cfa_register 7
 421 013a 3960     		str	r1, [r7]
 422 013c 1146     		mov	r1, r2
 423 013e 1A46     		mov	r2, r3
 424 0140 0346     		mov	r3, r0
 425 0142 FB71     		strb	r3, [r7, #7]
 426 0144 0B46     		mov	r3, r1
 427 0146 BB71     		strb	r3, [r7, #6]
 428 0148 1346     		mov	r3, r2
 429 014a 7B71     		strb	r3, [r7, #5]
 171:build/openmote-cc2538_armgcc/openstack/02b-MAChigh/sixtop.c ****     OpenQueueEntry_t* pkt;
 172:build/openmote-cc2538_armgcc/openstack/02b-MAChigh/sixtop.c ****     uint8_t           i;
 173:build/openmote-cc2538_armgcc/openstack/02b-MAChigh/sixtop.c ****     uint8_t           len;
 174:build/openmote-cc2538_armgcc/openstack/02b-MAChigh/sixtop.c ****     uint16_t          length_groupid_type;
 175:build/openmote-cc2538_armgcc/openstack/02b-MAChigh/sixtop.c ****     uint8_t           sequenceNumber;
 176:build/openmote-cc2538_armgcc/openstack/02b-MAChigh/sixtop.c ****     owerror_t         outcome;
 177:build/openmote-cc2538_armgcc/openstack/02b-MAChigh/sixtop.c **** 
 178:build/openmote-cc2538_armgcc/openstack/02b-MAChigh/sixtop.c ****     // filter parameters: handler, status and neighbor
 179:build/openmote-cc2538_armgcc/openstack/02b-MAChigh/sixtop.c ****     if(
 180:build/openmote-cc2538_armgcc/openstack/02b-MAChigh/sixtop.c ****         sixtop_vars.six2six_state != SIX_STATE_IDLE   ||
 430              		.loc 1 180 0
 431 014c A24B     		ldr	r3, .L47
 432 014e 9B7B     		ldrb	r3, [r3, #14]	@ zero_extendqisi2
 179:build/openmote-cc2538_armgcc/openstack/02b-MAChigh/sixtop.c ****         sixtop_vars.six2six_state != SIX_STATE_IDLE   ||
 433              		.loc 1 179 0
 434 0150 002B     		cmp	r3, #0
 435 0152 02D1     		bne	.L17
 436              		.loc 1 180 0
 437 0154 3B68     		ldr	r3, [r7]
 438 0156 002B     		cmp	r3, #0
 439 0158 01D1     		bne	.L18
 440              	.L17:
 181:build/openmote-cc2538_armgcc/openstack/02b-MAChigh/sixtop.c ****         neighbor                  == NULL
 182:build/openmote-cc2538_armgcc/openstack/02b-MAChigh/sixtop.c ****     ){
 183:build/openmote-cc2538_armgcc/openstack/02b-MAChigh/sixtop.c ****         // neighbor can't be none or previous transcation doesn't finishe yet
 184:build/openmote-cc2538_armgcc/openstack/02b-MAChigh/sixtop.c ****         return E_FAIL;
 441              		.loc 1 184 0
 442 015a 0123     		movs	r3, #1
 443 015c 03E2     		b	.L19
 444              	.L18:
 185:build/openmote-cc2538_armgcc/openstack/02b-MAChigh/sixtop.c ****     }
 186:build/openmote-cc2538_armgcc/openstack/02b-MAChigh/sixtop.c **** 
 187:build/openmote-cc2538_armgcc/openstack/02b-MAChigh/sixtop.c ****     // get a free packet buffer
 188:build/openmote-cc2538_armgcc/openstack/02b-MAChigh/sixtop.c ****     pkt = openqueue_getFreePacketBuffer(COMPONENT_SIXTOP_RES);
 445              		.loc 1 188 0
 446 015e 0F20     		movs	r0, #15
 447 0160 FFF7FEFF 		bl	openqueue_getFreePacketBuffer
 448 0164 3861     		str	r0, [r7, #16]
 189:build/openmote-cc2538_armgcc/openstack/02b-MAChigh/sixtop.c ****     if (pkt==NULL) {
 449              		.loc 1 189 0
 450 0166 3B69     		ldr	r3, [r7, #16]
 451 0168 002B     		cmp	r3, #0
 452 016a 07D1     		bne	.L20
 190:build/openmote-cc2538_armgcc/openstack/02b-MAChigh/sixtop.c ****         openserial_printError(
 453              		.loc 1 190 0
 454 016c 0F20     		movs	r0, #15
 455 016e 2C21     		movs	r1, #44
 456 0170 0022     		movs	r2, #0
 457 0172 0023     		movs	r3, #0
 458 0174 FFF7FEFF 		bl	openserial_printError
 191:build/openmote-cc2538_armgcc/openstack/02b-MAChigh/sixtop.c ****             COMPONENT_SIXTOP_RES,
 192:build/openmote-cc2538_armgcc/openstack/02b-MAChigh/sixtop.c ****             ERR_NO_FREE_PACKET_BUFFER,
 193:build/openmote-cc2538_armgcc/openstack/02b-MAChigh/sixtop.c ****             (errorparameter_t)0,
 194:build/openmote-cc2538_armgcc/openstack/02b-MAChigh/sixtop.c ****             (errorparameter_t)0
 195:build/openmote-cc2538_armgcc/openstack/02b-MAChigh/sixtop.c ****         );
 196:build/openmote-cc2538_armgcc/openstack/02b-MAChigh/sixtop.c ****         return E_FAIL;
 459              		.loc 1 196 0
 460 0178 0123     		movs	r3, #1
 461 017a F4E1     		b	.L19
 462              	.L20:
 197:build/openmote-cc2538_armgcc/openstack/02b-MAChigh/sixtop.c ****     }
 198:build/openmote-cc2538_armgcc/openstack/02b-MAChigh/sixtop.c **** 
 199:build/openmote-cc2538_armgcc/openstack/02b-MAChigh/sixtop.c ****     // take ownership
 200:build/openmote-cc2538_armgcc/openstack/02b-MAChigh/sixtop.c ****     pkt->creator = COMPONENT_SIXTOP_RES;
 463              		.loc 1 200 0
 464 017c 3B69     		ldr	r3, [r7, #16]
 465 017e 0F22     		movs	r2, #15
 466 0180 1A70     		strb	r2, [r3]
 201:build/openmote-cc2538_armgcc/openstack/02b-MAChigh/sixtop.c ****     pkt->owner   = COMPONENT_SIXTOP_RES;
 467              		.loc 1 201 0
 468 0182 3B69     		ldr	r3, [r7, #16]
 469 0184 0F22     		movs	r2, #15
 470 0186 5A70     		strb	r2, [r3, #1]
 202:build/openmote-cc2538_armgcc/openstack/02b-MAChigh/sixtop.c **** 
 203:build/openmote-cc2538_armgcc/openstack/02b-MAChigh/sixtop.c ****     memcpy(&(pkt->l2_nextORpreviousHop),neighbor,sizeof(open_addr_t));
 471              		.loc 1 203 0
 472 0188 3B69     		ldr	r3, [r7, #16]
 473 018a 3C33     		adds	r3, r3, #60
 474 018c 1846     		mov	r0, r3
 475 018e 3968     		ldr	r1, [r7]
 476 0190 1122     		movs	r2, #17
 477 0192 FFF7FEFF 		bl	memcpy
 204:build/openmote-cc2538_armgcc/openstack/02b-MAChigh/sixtop.c ****     if (celllist_toBeDeleted != NULL){
 478              		.loc 1 204 0
 479 0196 FB6A     		ldr	r3, [r7, #44]
 480 0198 002B     		cmp	r3, #0
 481 019a 10D0     		beq	.L21
 205:build/openmote-cc2538_armgcc/openstack/02b-MAChigh/sixtop.c ****         memcpy(sixtop_vars.celllist_toDelete,celllist_toBeDeleted,CELLLIST_MAX_LEN*sizeof(cellInfo_
 482              		.loc 1 205 0
 483 019c 8E4B     		ldr	r3, .L47
 484 019e FA6A     		ldr	r2, [r7, #44]
 485 01a0 1233     		adds	r3, r3, #18
 486 01a2 1068     		ldr	r0, [r2]	@ unaligned
 487 01a4 5168     		ldr	r1, [r2, #4]	@ unaligned
 488 01a6 9568     		ldr	r5, [r2, #8]	@ unaligned
 489 01a8 D468     		ldr	r4, [r2, #12]	@ unaligned
 490 01aa 1860     		str	r0, [r3]	@ unaligned
 491 01ac 5960     		str	r1, [r3, #4]	@ unaligned
 492 01ae 9D60     		str	r5, [r3, #8]	@ unaligned
 493 01b0 DC60     		str	r4, [r3, #12]	@ unaligned
 494 01b2 1069     		ldr	r0, [r2, #16]	@ unaligned
 495 01b4 5169     		ldr	r1, [r2, #20]	@ unaligned
 496 01b6 1861     		str	r0, [r3, #16]	@ unaligned
 497 01b8 5961     		str	r1, [r3, #20]	@ unaligned
 498 01ba 127E     		ldrb	r2, [r2, #24]
 499 01bc 1A76     		strb	r2, [r3, #24]
 500              	.L21:
 206:build/openmote-cc2538_armgcc/openstack/02b-MAChigh/sixtop.c ****     }
 207:build/openmote-cc2538_armgcc/openstack/02b-MAChigh/sixtop.c ****     sixtop_vars.cellOptions = cellOptions;
 501              		.loc 1 207 0
 502 01be 864A     		ldr	r2, .L47
 503 01c0 7B79     		ldrb	r3, [r7, #5]
 504 01c2 5374     		strb	r3, [r2, #17]
 208:build/openmote-cc2538_armgcc/openstack/02b-MAChigh/sixtop.c **** 
 209:build/openmote-cc2538_armgcc/openstack/02b-MAChigh/sixtop.c ****     len  = 0;
 505              		.loc 1 209 0
 506 01c4 0023     		movs	r3, #0
 507 01c6 BB75     		strb	r3, [r7, #22]
 210:build/openmote-cc2538_armgcc/openstack/02b-MAChigh/sixtop.c ****     if (
 508              		.loc 1 210 0
 509 01c8 FB79     		ldrb	r3, [r7, #7]	@ zero_extendqisi2
 510 01ca 012B     		cmp	r3, #1
 511 01cc 06D0     		beq	.L22
 211:build/openmote-cc2538_armgcc/openstack/02b-MAChigh/sixtop.c ****         code == IANA_6TOP_CMD_ADD      ||
 512              		.loc 1 211 0
 513 01ce FB79     		ldrb	r3, [r7, #7]	@ zero_extendqisi2
 514 01d0 022B     		cmp	r3, #2
 515 01d2 03D0     		beq	.L22
 212:build/openmote-cc2538_armgcc/openstack/02b-MAChigh/sixtop.c ****         code == IANA_6TOP_CMD_DELETE   ||
 516              		.loc 1 212 0
 517 01d4 FB79     		ldrb	r3, [r7, #7]	@ zero_extendqisi2
 518 01d6 032B     		cmp	r3, #3
 519 01d8 40F0BF80 		bne	.L23
 520              	.L22:
 213:build/openmote-cc2538_armgcc/openstack/02b-MAChigh/sixtop.c ****         code == IANA_6TOP_CMD_RELOCATE
 214:build/openmote-cc2538_armgcc/openstack/02b-MAChigh/sixtop.c ****     ){
 215:build/openmote-cc2538_armgcc/openstack/02b-MAChigh/sixtop.c ****         // append 6p celllists
 216:build/openmote-cc2538_armgcc/openstack/02b-MAChigh/sixtop.c ****         if (code == IANA_6TOP_CMD_ADD || code == IANA_6TOP_CMD_RELOCATE){
 521              		.loc 1 216 0
 522 01dc FB79     		ldrb	r3, [r7, #7]	@ zero_extendqisi2
 523 01de 012B     		cmp	r3, #1
 524 01e0 02D0     		beq	.L24
 525              		.loc 1 216 0 is_stmt 0 discriminator 1
 526 01e2 FB79     		ldrb	r3, [r7, #7]	@ zero_extendqisi2
 527 01e4 032B     		cmp	r3, #3
 528 01e6 53D1     		bne	.L25
 529              	.L24:
 217:build/openmote-cc2538_armgcc/openstack/02b-MAChigh/sixtop.c ****             for(i=0;i<CELLLIST_MAX_LEN;i++) {
 530              		.loc 1 217 0 is_stmt 1
 531 01e8 0023     		movs	r3, #0
 532 01ea FB75     		strb	r3, [r7, #23]
 533 01ec 4DE0     		b	.L26
 534              	.L28:
 218:build/openmote-cc2538_armgcc/openstack/02b-MAChigh/sixtop.c ****                 if(celllist_toBeAdded[i].isUsed){
 535              		.loc 1 218 0
 536 01ee FA7D     		ldrb	r2, [r7, #23]	@ zero_extendqisi2
 537 01f0 1346     		mov	r3, r2
 538 01f2 9B00     		lsls	r3, r3, #2
 539 01f4 1344     		add	r3, r3, r2
 540 01f6 BA6A     		ldr	r2, [r7, #40]
 541 01f8 1344     		add	r3, r3, r2
 542 01fa 1B78     		ldrb	r3, [r3]	@ zero_extendqisi2
 543 01fc 002B     		cmp	r3, #0
 544 01fe 41D0     		beq	.L27
 219:build/openmote-cc2538_armgcc/openstack/02b-MAChigh/sixtop.c ****                     packetfunctions_reserveHeaderSize(pkt,4);
 545              		.loc 1 219 0
 546 0200 3869     		ldr	r0, [r7, #16]
 547 0202 0421     		movs	r1, #4
 548 0204 FFF7FEFF 		bl	packetfunctions_reserveHeaderSize
 220:build/openmote-cc2538_armgcc/openstack/02b-MAChigh/sixtop.c ****                     pkt->payload[0] = (uint8_t)(celllist_toBeAdded[i].slotoffset         & 0x00FF);
 549              		.loc 1 220 0
 550 0208 3B69     		ldr	r3, [r7, #16]
 551 020a 5968     		ldr	r1, [r3, #4]
 552 020c FA7D     		ldrb	r2, [r7, #23]	@ zero_extendqisi2
 553 020e 1346     		mov	r3, r2
 554 0210 9B00     		lsls	r3, r3, #2
 555 0212 1344     		add	r3, r3, r2
 556 0214 BA6A     		ldr	r2, [r7, #40]
 557 0216 1344     		add	r3, r3, r2
 558 0218 B3F80130 		ldrh	r3, [r3, #1]	@ unaligned
 559 021c 9BB2     		uxth	r3, r3
 560 021e DBB2     		uxtb	r3, r3
 561 0220 0B70     		strb	r3, [r1]
 221:build/openmote-cc2538_armgcc/openstack/02b-MAChigh/sixtop.c ****                     pkt->payload[1] = (uint8_t)((celllist_toBeAdded[i].slotoffset        & 0xFF00)>
 562              		.loc 1 221 0
 563 0222 3B69     		ldr	r3, [r7, #16]
 564 0224 5B68     		ldr	r3, [r3, #4]
 565 0226 591C     		adds	r1, r3, #1
 566 0228 FA7D     		ldrb	r2, [r7, #23]	@ zero_extendqisi2
 567 022a 1346     		mov	r3, r2
 568 022c 9B00     		lsls	r3, r3, #2
 569 022e 1344     		add	r3, r3, r2
 570 0230 BA6A     		ldr	r2, [r7, #40]
 571 0232 1344     		add	r3, r3, r2
 572 0234 B3F80130 		ldrh	r3, [r3, #1]	@ unaligned
 573 0238 9BB2     		uxth	r3, r3
 574 023a 1B0A     		lsrs	r3, r3, #8
 575 023c 9BB2     		uxth	r3, r3
 576 023e DBB2     		uxtb	r3, r3
 577 0240 0B70     		strb	r3, [r1]
 222:build/openmote-cc2538_armgcc/openstack/02b-MAChigh/sixtop.c ****                     pkt->payload[2] = (uint8_t)(celllist_toBeAdded[i].channeloffset      & 0x00FF);
 578              		.loc 1 222 0
 579 0242 3B69     		ldr	r3, [r7, #16]
 580 0244 5B68     		ldr	r3, [r3, #4]
 581 0246 991C     		adds	r1, r3, #2
 582 0248 FA7D     		ldrb	r2, [r7, #23]	@ zero_extendqisi2
 583 024a 1346     		mov	r3, r2
 584 024c 9B00     		lsls	r3, r3, #2
 585 024e 1344     		add	r3, r3, r2
 586 0250 BA6A     		ldr	r2, [r7, #40]
 587 0252 1344     		add	r3, r3, r2
 588 0254 B3F80330 		ldrh	r3, [r3, #3]	@ unaligned
 589 0258 9BB2     		uxth	r3, r3
 590 025a DBB2     		uxtb	r3, r3
 591 025c 0B70     		strb	r3, [r1]
 223:build/openmote-cc2538_armgcc/openstack/02b-MAChigh/sixtop.c ****                     pkt->payload[3] = (uint8_t)((celllist_toBeAdded[i].channeloffset     & 0xFF00)>
 592              		.loc 1 223 0
 593 025e 3B69     		ldr	r3, [r7, #16]
 594 0260 5B68     		ldr	r3, [r3, #4]
 595 0262 D91C     		adds	r1, r3, #3
 596 0264 FA7D     		ldrb	r2, [r7, #23]	@ zero_extendqisi2
 597 0266 1346     		mov	r3, r2
 598 0268 9B00     		lsls	r3, r3, #2
 599 026a 1344     		add	r3, r3, r2
 600 026c BA6A     		ldr	r2, [r7, #40]
 601 026e 1344     		add	r3, r3, r2
 602 0270 B3F80330 		ldrh	r3, [r3, #3]	@ unaligned
 603 0274 9BB2     		uxth	r3, r3
 604 0276 1B0A     		lsrs	r3, r3, #8
 605 0278 9BB2     		uxth	r3, r3
 606 027a DBB2     		uxtb	r3, r3
 607 027c 0B70     		strb	r3, [r1]
 224:build/openmote-cc2538_armgcc/openstack/02b-MAChigh/sixtop.c ****                     len += 4;
 608              		.loc 1 224 0
 609 027e BB7D     		ldrb	r3, [r7, #22]
 610 0280 0433     		adds	r3, r3, #4
 611 0282 BB75     		strb	r3, [r7, #22]
 612              	.L27:
 217:build/openmote-cc2538_armgcc/openstack/02b-MAChigh/sixtop.c ****                 if(celllist_toBeAdded[i].isUsed){
 613              		.loc 1 217 0 discriminator 2
 614 0284 FB7D     		ldrb	r3, [r7, #23]	@ zero_extendqisi2
 615 0286 0133     		adds	r3, r3, #1
 616 0288 FB75     		strb	r3, [r7, #23]
 617              	.L26:
 217:build/openmote-cc2538_armgcc/openstack/02b-MAChigh/sixtop.c ****                 if(celllist_toBeAdded[i].isUsed){
 618              		.loc 1 217 0 is_stmt 0 discriminator 1
 619 028a FB7D     		ldrb	r3, [r7, #23]	@ zero_extendqisi2
 620 028c 042B     		cmp	r3, #4
 621 028e AED9     		bls	.L28
 622              	.L25:
 225:build/openmote-cc2538_armgcc/openstack/02b-MAChigh/sixtop.c ****                 }
 226:build/openmote-cc2538_armgcc/openstack/02b-MAChigh/sixtop.c ****             }
 227:build/openmote-cc2538_armgcc/openstack/02b-MAChigh/sixtop.c ****         }
 228:build/openmote-cc2538_armgcc/openstack/02b-MAChigh/sixtop.c ****         if (code == IANA_6TOP_CMD_DELETE || code == IANA_6TOP_CMD_RELOCATE){
 623              		.loc 1 228 0 is_stmt 1
 624 0290 FB79     		ldrb	r3, [r7, #7]	@ zero_extendqisi2
 625 0292 022B     		cmp	r3, #2
 626 0294 02D0     		beq	.L29
 627              		.loc 1 228 0 is_stmt 0 discriminator 1
 628 0296 FB79     		ldrb	r3, [r7, #7]	@ zero_extendqisi2
 629 0298 032B     		cmp	r3, #3
 630 029a 53D1     		bne	.L30
 631              	.L29:
 229:build/openmote-cc2538_armgcc/openstack/02b-MAChigh/sixtop.c ****             for(i=0;i<CELLLIST_MAX_LEN;i++) {
 632              		.loc 1 229 0 is_stmt 1
 633 029c 0023     		movs	r3, #0
 634 029e FB75     		strb	r3, [r7, #23]
 635 02a0 4DE0     		b	.L31
 636              	.L33:
 230:build/openmote-cc2538_armgcc/openstack/02b-MAChigh/sixtop.c ****                 if(celllist_toBeDeleted[i].isUsed){
 637              		.loc 1 230 0
 638 02a2 FA7D     		ldrb	r2, [r7, #23]	@ zero_extendqisi2
 639 02a4 1346     		mov	r3, r2
 640 02a6 9B00     		lsls	r3, r3, #2
 641 02a8 1344     		add	r3, r3, r2
 642 02aa FA6A     		ldr	r2, [r7, #44]
 643 02ac 1344     		add	r3, r3, r2
 644 02ae 1B78     		ldrb	r3, [r3]	@ zero_extendqisi2
 645 02b0 002B     		cmp	r3, #0
 646 02b2 41D0     		beq	.L32
 231:build/openmote-cc2538_armgcc/openstack/02b-MAChigh/sixtop.c ****                     packetfunctions_reserveHeaderSize(pkt,4);
 647              		.loc 1 231 0
 648 02b4 3869     		ldr	r0, [r7, #16]
 649 02b6 0421     		movs	r1, #4
 650 02b8 FFF7FEFF 		bl	packetfunctions_reserveHeaderSize
 232:build/openmote-cc2538_armgcc/openstack/02b-MAChigh/sixtop.c ****                     pkt->payload[0] = (uint8_t)(celllist_toBeDeleted[i].slotoffset       & 0x00FF);
 651              		.loc 1 232 0
 652 02bc 3B69     		ldr	r3, [r7, #16]
 653 02be 5968     		ldr	r1, [r3, #4]
 654 02c0 FA7D     		ldrb	r2, [r7, #23]	@ zero_extendqisi2
 655 02c2 1346     		mov	r3, r2
 656 02c4 9B00     		lsls	r3, r3, #2
 657 02c6 1344     		add	r3, r3, r2
 658 02c8 FA6A     		ldr	r2, [r7, #44]
 659 02ca 1344     		add	r3, r3, r2
 660 02cc B3F80130 		ldrh	r3, [r3, #1]	@ unaligned
 661 02d0 9BB2     		uxth	r3, r3
 662 02d2 DBB2     		uxtb	r3, r3
 663 02d4 0B70     		strb	r3, [r1]
 233:build/openmote-cc2538_armgcc/openstack/02b-MAChigh/sixtop.c ****                     pkt->payload[1] = (uint8_t)((celllist_toBeDeleted[i].slotoffset      & 0xFF00)>
 664              		.loc 1 233 0
 665 02d6 3B69     		ldr	r3, [r7, #16]
 666 02d8 5B68     		ldr	r3, [r3, #4]
 667 02da 591C     		adds	r1, r3, #1
 668 02dc FA7D     		ldrb	r2, [r7, #23]	@ zero_extendqisi2
 669 02de 1346     		mov	r3, r2
 670 02e0 9B00     		lsls	r3, r3, #2
 671 02e2 1344     		add	r3, r3, r2
 672 02e4 FA6A     		ldr	r2, [r7, #44]
 673 02e6 1344     		add	r3, r3, r2
 674 02e8 B3F80130 		ldrh	r3, [r3, #1]	@ unaligned
 675 02ec 9BB2     		uxth	r3, r3
 676 02ee 1B0A     		lsrs	r3, r3, #8
 677 02f0 9BB2     		uxth	r3, r3
 678 02f2 DBB2     		uxtb	r3, r3
 679 02f4 0B70     		strb	r3, [r1]
 234:build/openmote-cc2538_armgcc/openstack/02b-MAChigh/sixtop.c ****                     pkt->payload[2] = (uint8_t)(celllist_toBeDeleted[i].channeloffset    & 0x00FF);
 680              		.loc 1 234 0
 681 02f6 3B69     		ldr	r3, [r7, #16]
 682 02f8 5B68     		ldr	r3, [r3, #4]
 683 02fa 991C     		adds	r1, r3, #2
 684 02fc FA7D     		ldrb	r2, [r7, #23]	@ zero_extendqisi2
 685 02fe 1346     		mov	r3, r2
 686 0300 9B00     		lsls	r3, r3, #2
 687 0302 1344     		add	r3, r3, r2
 688 0304 FA6A     		ldr	r2, [r7, #44]
 689 0306 1344     		add	r3, r3, r2
 690 0308 B3F80330 		ldrh	r3, [r3, #3]	@ unaligned
 691 030c 9BB2     		uxth	r3, r3
 692 030e DBB2     		uxtb	r3, r3
 693 0310 0B70     		strb	r3, [r1]
 235:build/openmote-cc2538_armgcc/openstack/02b-MAChigh/sixtop.c ****                     pkt->payload[3] = (uint8_t)((celllist_toBeDeleted[i].channeloffset   & 0xFF00)>
 694              		.loc 1 235 0
 695 0312 3B69     		ldr	r3, [r7, #16]
 696 0314 5B68     		ldr	r3, [r3, #4]
 697 0316 D91C     		adds	r1, r3, #3
 698 0318 FA7D     		ldrb	r2, [r7, #23]	@ zero_extendqisi2
 699 031a 1346     		mov	r3, r2
 700 031c 9B00     		lsls	r3, r3, #2
 701 031e 1344     		add	r3, r3, r2
 702 0320 FA6A     		ldr	r2, [r7, #44]
 703 0322 1344     		add	r3, r3, r2
 704 0324 B3F80330 		ldrh	r3, [r3, #3]	@ unaligned
 705 0328 9BB2     		uxth	r3, r3
 706 032a 1B0A     		lsrs	r3, r3, #8
 707 032c 9BB2     		uxth	r3, r3
 708 032e DBB2     		uxtb	r3, r3
 709 0330 0B70     		strb	r3, [r1]
 236:build/openmote-cc2538_armgcc/openstack/02b-MAChigh/sixtop.c ****                     len += 4;
 710              		.loc 1 236 0
 711 0332 BB7D     		ldrb	r3, [r7, #22]
 712 0334 0433     		adds	r3, r3, #4
 713 0336 BB75     		strb	r3, [r7, #22]
 714              	.L32:
 229:build/openmote-cc2538_armgcc/openstack/02b-MAChigh/sixtop.c ****                 if(celllist_toBeDeleted[i].isUsed){
 715              		.loc 1 229 0 discriminator 2
 716 0338 FB7D     		ldrb	r3, [r7, #23]	@ zero_extendqisi2
 717 033a 0133     		adds	r3, r3, #1
 718 033c FB75     		strb	r3, [r7, #23]
 719              	.L31:
 229:build/openmote-cc2538_armgcc/openstack/02b-MAChigh/sixtop.c ****                 if(celllist_toBeDeleted[i].isUsed){
 720              		.loc 1 229 0 is_stmt 0 discriminator 1
 721 033e FB7D     		ldrb	r3, [r7, #23]	@ zero_extendqisi2
 722 0340 042B     		cmp	r3, #4
 723 0342 AED9     		bls	.L33
 724              	.L30:
 237:build/openmote-cc2538_armgcc/openstack/02b-MAChigh/sixtop.c ****                 }
 238:build/openmote-cc2538_armgcc/openstack/02b-MAChigh/sixtop.c ****             }
 239:build/openmote-cc2538_armgcc/openstack/02b-MAChigh/sixtop.c ****         }
 240:build/openmote-cc2538_armgcc/openstack/02b-MAChigh/sixtop.c ****         // append 6p numberCells
 241:build/openmote-cc2538_armgcc/openstack/02b-MAChigh/sixtop.c ****         packetfunctions_reserveHeaderSize(pkt,sizeof(uint8_t));
 725              		.loc 1 241 0 is_stmt 1
 726 0344 3869     		ldr	r0, [r7, #16]
 727 0346 0121     		movs	r1, #1
 728 0348 FFF7FEFF 		bl	packetfunctions_reserveHeaderSize
 242:build/openmote-cc2538_armgcc/openstack/02b-MAChigh/sixtop.c ****         *((uint8_t*)(pkt->payload)) = numCells;
 729              		.loc 1 242 0
 730 034c 3B69     		ldr	r3, [r7, #16]
 731 034e 5B68     		ldr	r3, [r3, #4]
 732 0350 BA79     		ldrb	r2, [r7, #6]
 733 0352 1A70     		strb	r2, [r3]
 243:build/openmote-cc2538_armgcc/openstack/02b-MAChigh/sixtop.c ****         len += 1;
 734              		.loc 1 243 0
 735 0354 BB7D     		ldrb	r3, [r7, #22]
 736 0356 0133     		adds	r3, r3, #1
 737 0358 BB75     		strb	r3, [r7, #22]
 738              	.L23:
 244:build/openmote-cc2538_armgcc/openstack/02b-MAChigh/sixtop.c ****     }
 245:build/openmote-cc2538_armgcc/openstack/02b-MAChigh/sixtop.c **** 
 246:build/openmote-cc2538_armgcc/openstack/02b-MAChigh/sixtop.c ****     if (code == IANA_6TOP_CMD_LIST){
 739              		.loc 1 246 0
 740 035a FB79     		ldrb	r3, [r7, #7]	@ zero_extendqisi2
 741 035c 052B     		cmp	r3, #5
 742 035e 2CD1     		bne	.L34
 247:build/openmote-cc2538_armgcc/openstack/02b-MAChigh/sixtop.c ****         // append 6p max number of cells
 248:build/openmote-cc2538_armgcc/openstack/02b-MAChigh/sixtop.c ****         packetfunctions_reserveHeaderSize(pkt,sizeof(uint16_t));
 743              		.loc 1 248 0
 744 0360 3869     		ldr	r0, [r7, #16]
 745 0362 0221     		movs	r1, #2
 746 0364 FFF7FEFF 		bl	packetfunctions_reserveHeaderSize
 249:build/openmote-cc2538_armgcc/openstack/02b-MAChigh/sixtop.c ****         *((uint8_t*)(pkt->payload))   = (uint8_t)(listingMaxNumCells & 0x00FF);
 747              		.loc 1 249 0
 748 0368 3B69     		ldr	r3, [r7, #16]
 749 036a 5B68     		ldr	r3, [r3, #4]
 750 036c 3A8F     		ldrh	r2, [r7, #56]	@ movhi
 751 036e D2B2     		uxtb	r2, r2
 752 0370 1A70     		strb	r2, [r3]
 250:build/openmote-cc2538_armgcc/openstack/02b-MAChigh/sixtop.c ****         *((uint8_t*)(pkt->payload+1)) = (uint8_t)(listingMaxNumCells & 0xFF00)>>8;
 753              		.loc 1 250 0
 754 0372 3B69     		ldr	r3, [r7, #16]
 755 0374 5B68     		ldr	r3, [r3, #4]
 756 0376 0133     		adds	r3, r3, #1
 757 0378 0022     		movs	r2, #0
 758 037a 1A70     		strb	r2, [r3]
 251:build/openmote-cc2538_armgcc/openstack/02b-MAChigh/sixtop.c ****         len +=2;
 759              		.loc 1 251 0
 760 037c BB7D     		ldrb	r3, [r7, #22]
 761 037e 0233     		adds	r3, r3, #2
 762 0380 BB75     		strb	r3, [r7, #22]
 252:build/openmote-cc2538_armgcc/openstack/02b-MAChigh/sixtop.c ****         // append 6p listing offset
 253:build/openmote-cc2538_armgcc/openstack/02b-MAChigh/sixtop.c ****         packetfunctions_reserveHeaderSize(pkt,sizeof(uint16_t));
 763              		.loc 1 253 0
 764 0382 3869     		ldr	r0, [r7, #16]
 765 0384 0221     		movs	r1, #2
 766 0386 FFF7FEFF 		bl	packetfunctions_reserveHeaderSize
 254:build/openmote-cc2538_armgcc/openstack/02b-MAChigh/sixtop.c ****         *((uint8_t*)(pkt->payload))   = (uint8_t)(listingOffset & 0x00FF);
 767              		.loc 1 254 0
 768 038a 3B69     		ldr	r3, [r7, #16]
 769 038c 5B68     		ldr	r3, [r3, #4]
 770 038e BA8E     		ldrh	r2, [r7, #52]	@ movhi
 771 0390 D2B2     		uxtb	r2, r2
 772 0392 1A70     		strb	r2, [r3]
 255:build/openmote-cc2538_armgcc/openstack/02b-MAChigh/sixtop.c ****         *((uint8_t*)(pkt->payload+1)) = (uint8_t)(listingOffset & 0xFF00)>>8;
 773              		.loc 1 255 0
 774 0394 3B69     		ldr	r3, [r7, #16]
 775 0396 5B68     		ldr	r3, [r3, #4]
 776 0398 0133     		adds	r3, r3, #1
 777 039a 0022     		movs	r2, #0
 778 039c 1A70     		strb	r2, [r3]
 256:build/openmote-cc2538_armgcc/openstack/02b-MAChigh/sixtop.c ****         len += 2;
 779              		.loc 1 256 0
 780 039e BB7D     		ldrb	r3, [r7, #22]
 781 03a0 0233     		adds	r3, r3, #2
 782 03a2 BB75     		strb	r3, [r7, #22]
 257:build/openmote-cc2538_armgcc/openstack/02b-MAChigh/sixtop.c ****         // append 6p Reserved field
 258:build/openmote-cc2538_armgcc/openstack/02b-MAChigh/sixtop.c ****         packetfunctions_reserveHeaderSize(pkt,sizeof(uint8_t));
 783              		.loc 1 258 0
 784 03a4 3869     		ldr	r0, [r7, #16]
 785 03a6 0121     		movs	r1, #1
 786 03a8 FFF7FEFF 		bl	packetfunctions_reserveHeaderSize
 259:build/openmote-cc2538_armgcc/openstack/02b-MAChigh/sixtop.c ****         *((uint8_t*)(pkt->payload)) = 0;
 787              		.loc 1 259 0
 788 03ac 3B69     		ldr	r3, [r7, #16]
 789 03ae 5B68     		ldr	r3, [r3, #4]
 790 03b0 0022     		movs	r2, #0
 791 03b2 1A70     		strb	r2, [r3]
 260:build/openmote-cc2538_armgcc/openstack/02b-MAChigh/sixtop.c ****         len += 1;
 792              		.loc 1 260 0
 793 03b4 BB7D     		ldrb	r3, [r7, #22]
 794 03b6 0133     		adds	r3, r3, #1
 795 03b8 BB75     		strb	r3, [r7, #22]
 796              	.L34:
 261:build/openmote-cc2538_armgcc/openstack/02b-MAChigh/sixtop.c ****     }
 262:build/openmote-cc2538_armgcc/openstack/02b-MAChigh/sixtop.c **** 
 263:build/openmote-cc2538_armgcc/openstack/02b-MAChigh/sixtop.c ****     if (code != IANA_6TOP_CMD_CLEAR){
 797              		.loc 1 263 0
 798 03ba FB79     		ldrb	r3, [r7, #7]	@ zero_extendqisi2
 799 03bc 072B     		cmp	r3, #7
 800 03be 0DD0     		beq	.L35
 264:build/openmote-cc2538_armgcc/openstack/02b-MAChigh/sixtop.c ****         // append 6p celloptions
 265:build/openmote-cc2538_armgcc/openstack/02b-MAChigh/sixtop.c ****         packetfunctions_reserveHeaderSize(pkt,sizeof(uint8_t));
 801              		.loc 1 265 0
 802 03c0 3869     		ldr	r0, [r7, #16]
 803 03c2 0121     		movs	r1, #1
 804 03c4 FFF7FEFF 		bl	packetfunctions_reserveHeaderSize
 266:build/openmote-cc2538_armgcc/openstack/02b-MAChigh/sixtop.c ****         *((uint8_t*)(pkt->payload)) = cellOptions;
 805              		.loc 1 266 0
 806 03c8 3B69     		ldr	r3, [r7, #16]
 807 03ca 5B68     		ldr	r3, [r3, #4]
 808 03cc 7A79     		ldrb	r2, [r7, #5]
 809 03ce 1A70     		strb	r2, [r3]
 267:build/openmote-cc2538_armgcc/openstack/02b-MAChigh/sixtop.c ****         len+=1;
 810              		.loc 1 267 0
 811 03d0 BB7D     		ldrb	r3, [r7, #22]
 812 03d2 0133     		adds	r3, r3, #1
 813 03d4 BB75     		strb	r3, [r7, #22]
 814 03d6 0DE0     		b	.L36
 815              	.L48:
 816              		.align	2
 817              	.L47:
 818 03d8 00000000 		.word	sixtop_vars
 819              	.L35:
 268:build/openmote-cc2538_armgcc/openstack/02b-MAChigh/sixtop.c ****     } else {
 269:build/openmote-cc2538_armgcc/openstack/02b-MAChigh/sixtop.c ****         // record the neighbor in case no response  for clear
 270:build/openmote-cc2538_armgcc/openstack/02b-MAChigh/sixtop.c ****         memcpy(&sixtop_vars.neighborToClearCells,neighbor,sizeof(open_addr_t));
 820              		.loc 1 270 0
 821 03dc 644B     		ldr	r3, .L49
 822 03de 3A68     		ldr	r2, [r7]
 823 03e0 03F13C04 		add	r4, r3, #60
 824 03e4 1546     		mov	r5, r2
 825 03e6 2868     		ldr	r0, [r5]	@ unaligned
 826 03e8 6968     		ldr	r1, [r5, #4]	@ unaligned
 827 03ea AA68     		ldr	r2, [r5, #8]	@ unaligned
 828 03ec EB68     		ldr	r3, [r5, #12]	@ unaligned
 829 03ee 0FC4     		stmia	r4!, {r0, r1, r2, r3}
 830 03f0 2B7C     		ldrb	r3, [r5, #16]
 831 03f2 2370     		strb	r3, [r4]
 832              	.L36:
 271:build/openmote-cc2538_armgcc/openstack/02b-MAChigh/sixtop.c ****     }
 272:build/openmote-cc2538_armgcc/openstack/02b-MAChigh/sixtop.c **** 
 273:build/openmote-cc2538_armgcc/openstack/02b-MAChigh/sixtop.c ****     // append 6p metadata
 274:build/openmote-cc2538_armgcc/openstack/02b-MAChigh/sixtop.c ****     packetfunctions_reserveHeaderSize(pkt,sizeof(uint16_t));
 833              		.loc 1 274 0
 834 03f4 3869     		ldr	r0, [r7, #16]
 835 03f6 0221     		movs	r1, #2
 836 03f8 FFF7FEFF 		bl	packetfunctions_reserveHeaderSize
 275:build/openmote-cc2538_armgcc/openstack/02b-MAChigh/sixtop.c ****     pkt->payload[0] = (uint8_t)( sixtop_vars.cb_sf_getMetadata() & 0x00FF);
 837              		.loc 1 275 0
 838 03fc 3B69     		ldr	r3, [r7, #16]
 839 03fe 5C68     		ldr	r4, [r3, #4]
 840 0400 5B4B     		ldr	r3, .L49
 841 0402 1B6B     		ldr	r3, [r3, #48]
 842 0404 9847     		blx	r3
 843 0406 0346     		mov	r3, r0
 844 0408 DBB2     		uxtb	r3, r3
 845 040a 2370     		strb	r3, [r4]
 276:build/openmote-cc2538_armgcc/openstack/02b-MAChigh/sixtop.c ****     pkt->payload[1] = (uint8_t)((sixtop_vars.cb_sf_getMetadata() & 0xFF00)>>8);
 846              		.loc 1 276 0
 847 040c 3B69     		ldr	r3, [r7, #16]
 848 040e 5B68     		ldr	r3, [r3, #4]
 849 0410 5C1C     		adds	r4, r3, #1
 850 0412 574B     		ldr	r3, .L49
 851 0414 1B6B     		ldr	r3, [r3, #48]
 852 0416 9847     		blx	r3
 853 0418 0346     		mov	r3, r0
 854 041a 1B0A     		lsrs	r3, r3, #8
 855 041c 9BB2     		uxth	r3, r3
 856 041e DBB2     		uxtb	r3, r3
 857 0420 2370     		strb	r3, [r4]
 277:build/openmote-cc2538_armgcc/openstack/02b-MAChigh/sixtop.c ****     len += 2;
 858              		.loc 1 277 0
 859 0422 BB7D     		ldrb	r3, [r7, #22]
 860 0424 0233     		adds	r3, r3, #2
 861 0426 BB75     		strb	r3, [r7, #22]
 278:build/openmote-cc2538_armgcc/openstack/02b-MAChigh/sixtop.c **** 
 279:build/openmote-cc2538_armgcc/openstack/02b-MAChigh/sixtop.c ****     // append 6p Seqnum and schedule Generation
 280:build/openmote-cc2538_armgcc/openstack/02b-MAChigh/sixtop.c ****     packetfunctions_reserveHeaderSize(pkt,sizeof(uint8_t));
 862              		.loc 1 280 0
 863 0428 3869     		ldr	r0, [r7, #16]
 864 042a 0121     		movs	r1, #1
 865 042c FFF7FEFF 		bl	packetfunctions_reserveHeaderSize
 281:build/openmote-cc2538_armgcc/openstack/02b-MAChigh/sixtop.c ****     sequenceNumber              = neighbors_getSequenceNumber(neighbor);
 866              		.loc 1 281 0
 867 0430 3868     		ldr	r0, [r7]
 868 0432 FFF7FEFF 		bl	neighbors_getSequenceNumber
 869 0436 0346     		mov	r3, r0
 870 0438 FB73     		strb	r3, [r7, #15]
 282:build/openmote-cc2538_armgcc/openstack/02b-MAChigh/sixtop.c ****     *((uint8_t*)(pkt->payload)) = sequenceNumber;
 871              		.loc 1 282 0
 872 043a 3B69     		ldr	r3, [r7, #16]
 873 043c 5B68     		ldr	r3, [r3, #4]
 874 043e FA7B     		ldrb	r2, [r7, #15]
 875 0440 1A70     		strb	r2, [r3]
 283:build/openmote-cc2538_armgcc/openstack/02b-MAChigh/sixtop.c ****     len += 1;
 876              		.loc 1 283 0
 877 0442 BB7D     		ldrb	r3, [r7, #22]
 878 0444 0133     		adds	r3, r3, #1
 879 0446 BB75     		strb	r3, [r7, #22]
 284:build/openmote-cc2538_armgcc/openstack/02b-MAChigh/sixtop.c **** 
 285:build/openmote-cc2538_armgcc/openstack/02b-MAChigh/sixtop.c ****     // append 6p sfid
 286:build/openmote-cc2538_armgcc/openstack/02b-MAChigh/sixtop.c ****     packetfunctions_reserveHeaderSize(pkt,sizeof(uint8_t));
 880              		.loc 1 286 0
 881 0448 3869     		ldr	r0, [r7, #16]
 882 044a 0121     		movs	r1, #1
 883 044c FFF7FEFF 		bl	packetfunctions_reserveHeaderSize
 287:build/openmote-cc2538_armgcc/openstack/02b-MAChigh/sixtop.c ****     *((uint8_t*)(pkt->payload)) = sfid;
 884              		.loc 1 287 0
 885 0450 3B69     		ldr	r3, [r7, #16]
 886 0452 5B68     		ldr	r3, [r3, #4]
 887 0454 97F83020 		ldrb	r2, [r7, #48]
 888 0458 1A70     		strb	r2, [r3]
 288:build/openmote-cc2538_armgcc/openstack/02b-MAChigh/sixtop.c ****     len += 1;
 889              		.loc 1 288 0
 890 045a BB7D     		ldrb	r3, [r7, #22]
 891 045c 0133     		adds	r3, r3, #1
 892 045e BB75     		strb	r3, [r7, #22]
 289:build/openmote-cc2538_armgcc/openstack/02b-MAChigh/sixtop.c **** 
 290:build/openmote-cc2538_armgcc/openstack/02b-MAChigh/sixtop.c ****     // append 6p code
 291:build/openmote-cc2538_armgcc/openstack/02b-MAChigh/sixtop.c ****     packetfunctions_reserveHeaderSize(pkt,sizeof(uint8_t));
 893              		.loc 1 291 0
 894 0460 3869     		ldr	r0, [r7, #16]
 895 0462 0121     		movs	r1, #1
 896 0464 FFF7FEFF 		bl	packetfunctions_reserveHeaderSize
 292:build/openmote-cc2538_armgcc/openstack/02b-MAChigh/sixtop.c ****     *((uint8_t*)(pkt->payload)) = code;
 897              		.loc 1 292 0
 898 0468 3B69     		ldr	r3, [r7, #16]
 899 046a 5B68     		ldr	r3, [r3, #4]
 900 046c FA79     		ldrb	r2, [r7, #7]
 901 046e 1A70     		strb	r2, [r3]
 293:build/openmote-cc2538_armgcc/openstack/02b-MAChigh/sixtop.c ****     // record the code to determine the action after 6p senddone
 294:build/openmote-cc2538_armgcc/openstack/02b-MAChigh/sixtop.c ****     pkt->l2_sixtop_command      = code;
 902              		.loc 1 294 0
 903 0470 3B69     		ldr	r3, [r7, #16]
 904 0472 FA79     		ldrb	r2, [r7, #7]
 905 0474 83F89120 		strb	r2, [r3, #145]
 295:build/openmote-cc2538_armgcc/openstack/02b-MAChigh/sixtop.c ****     len += 1;
 906              		.loc 1 295 0
 907 0478 BB7D     		ldrb	r3, [r7, #22]
 908 047a 0133     		adds	r3, r3, #1
 909 047c BB75     		strb	r3, [r7, #22]
 296:build/openmote-cc2538_armgcc/openstack/02b-MAChigh/sixtop.c **** 
 297:build/openmote-cc2538_armgcc/openstack/02b-MAChigh/sixtop.c ****     // append 6p version, T(type) and  R(reserved)
 298:build/openmote-cc2538_armgcc/openstack/02b-MAChigh/sixtop.c ****     packetfunctions_reserveHeaderSize(pkt,sizeof(uint8_t));
 910              		.loc 1 298 0
 911 047e 3869     		ldr	r0, [r7, #16]
 912 0480 0121     		movs	r1, #1
 913 0482 FFF7FEFF 		bl	packetfunctions_reserveHeaderSize
 299:build/openmote-cc2538_armgcc/openstack/02b-MAChigh/sixtop.c ****     *((uint8_t*)(pkt->payload)) = IANA_6TOP_6P_VERSION | IANA_6TOP_TYPE_REQUEST;
 914              		.loc 1 299 0
 915 0486 3B69     		ldr	r3, [r7, #16]
 916 0488 5B68     		ldr	r3, [r3, #4]
 917 048a 0022     		movs	r2, #0
 918 048c 1A70     		strb	r2, [r3]
 300:build/openmote-cc2538_armgcc/openstack/02b-MAChigh/sixtop.c ****     len += 1;
 919              		.loc 1 300 0
 920 048e BB7D     		ldrb	r3, [r7, #22]
 921 0490 0133     		adds	r3, r3, #1
 922 0492 BB75     		strb	r3, [r7, #22]
 301:build/openmote-cc2538_armgcc/openstack/02b-MAChigh/sixtop.c **** 
 302:build/openmote-cc2538_armgcc/openstack/02b-MAChigh/sixtop.c ****     // append 6p subtype id
 303:build/openmote-cc2538_armgcc/openstack/02b-MAChigh/sixtop.c ****     packetfunctions_reserveHeaderSize(pkt,sizeof(uint8_t));
 923              		.loc 1 303 0
 924 0494 3869     		ldr	r0, [r7, #16]
 925 0496 0121     		movs	r1, #1
 926 0498 FFF7FEFF 		bl	packetfunctions_reserveHeaderSize
 304:build/openmote-cc2538_armgcc/openstack/02b-MAChigh/sixtop.c ****     *((uint8_t*)(pkt->payload)) = IANA_6TOP_SUBIE_ID;
 927              		.loc 1 304 0
 928 049c 3B69     		ldr	r3, [r7, #16]
 929 049e 5B68     		ldr	r3, [r3, #4]
 930 04a0 C922     		movs	r2, #201
 931 04a2 1A70     		strb	r2, [r3]
 305:build/openmote-cc2538_armgcc/openstack/02b-MAChigh/sixtop.c ****     len += 1;
 932              		.loc 1 305 0
 933 04a4 BB7D     		ldrb	r3, [r7, #22]
 934 04a6 0133     		adds	r3, r3, #1
 935 04a8 BB75     		strb	r3, [r7, #22]
 306:build/openmote-cc2538_armgcc/openstack/02b-MAChigh/sixtop.c **** 
 307:build/openmote-cc2538_armgcc/openstack/02b-MAChigh/sixtop.c ****     // append IETF IE header (length_groupid_type)
 308:build/openmote-cc2538_armgcc/openstack/02b-MAChigh/sixtop.c ****     packetfunctions_reserveHeaderSize(pkt, sizeof(uint16_t));
 936              		.loc 1 308 0
 937 04aa 3869     		ldr	r0, [r7, #16]
 938 04ac 0221     		movs	r1, #2
 939 04ae FFF7FEFF 		bl	packetfunctions_reserveHeaderSize
 309:build/openmote-cc2538_armgcc/openstack/02b-MAChigh/sixtop.c ****     length_groupid_type  = len;
 940              		.loc 1 309 0
 941 04b2 BB7D     		ldrb	r3, [r7, #22]	@ zero_extendqisi2
 942 04b4 BB81     		strh	r3, [r7, #12]	@ movhi
 310:build/openmote-cc2538_armgcc/openstack/02b-MAChigh/sixtop.c ****     length_groupid_type |= (IANA_IETF_IE_GROUP_ID  | IANA_IETF_IE_TYPE);
 943              		.loc 1 310 0
 944 04b6 BB89     		ldrh	r3, [r7, #12]	@ movhi
 945 04b8 43F07F43 		orr	r3, r3, #-16777216
 946 04bc 43F47F03 		orr	r3, r3, #16711680
 947 04c0 43F42843 		orr	r3, r3, #43008
 948 04c4 BB81     		strh	r3, [r7, #12]	@ movhi
 311:build/openmote-cc2538_armgcc/openstack/02b-MAChigh/sixtop.c ****     pkt->payload[0]      = length_groupid_type        & 0xFF;
 949              		.loc 1 311 0
 950 04c6 3B69     		ldr	r3, [r7, #16]
 951 04c8 5B68     		ldr	r3, [r3, #4]
 952 04ca BA89     		ldrh	r2, [r7, #12]	@ movhi
 953 04cc D2B2     		uxtb	r2, r2
 954 04ce 1A70     		strb	r2, [r3]
 312:build/openmote-cc2538_armgcc/openstack/02b-MAChigh/sixtop.c ****     pkt->payload[1]      = (length_groupid_type >> 8) & 0xFF;
 955              		.loc 1 312 0
 956 04d0 3B69     		ldr	r3, [r7, #16]
 957 04d2 5B68     		ldr	r3, [r3, #4]
 958 04d4 0133     		adds	r3, r3, #1
 959 04d6 BA89     		ldrh	r2, [r7, #12]
 960 04d8 120A     		lsrs	r2, r2, #8
 961 04da 92B2     		uxth	r2, r2
 962 04dc D2B2     		uxtb	r2, r2
 963 04de 1A70     		strb	r2, [r3]
 313:build/openmote-cc2538_armgcc/openstack/02b-MAChigh/sixtop.c **** 
 314:build/openmote-cc2538_armgcc/openstack/02b-MAChigh/sixtop.c ****     // indicate IEs present
 315:build/openmote-cc2538_armgcc/openstack/02b-MAChigh/sixtop.c ****     pkt->l2_payloadIEpresent = TRUE;
 964              		.loc 1 315 0
 965 04e0 3B69     		ldr	r3, [r7, #16]
 966 04e2 0122     		movs	r2, #1
 967 04e4 83F89A20 		strb	r2, [r3, #154]
 316:build/openmote-cc2538_armgcc/openstack/02b-MAChigh/sixtop.c ****     // record this packet as sixtop request message
 317:build/openmote-cc2538_armgcc/openstack/02b-MAChigh/sixtop.c ****     pkt->l2_sixtop_messageType    = SIXTOP_CELL_REQUEST;
 968              		.loc 1 317 0
 969 04e8 3B69     		ldr	r3, [r7, #16]
 970 04ea 0022     		movs	r2, #0
 971 04ec 83F89020 		strb	r2, [r3, #144]
 318:build/openmote-cc2538_armgcc/openstack/02b-MAChigh/sixtop.c **** 
 319:build/openmote-cc2538_armgcc/openstack/02b-MAChigh/sixtop.c ****     // send packet
 320:build/openmote-cc2538_armgcc/openstack/02b-MAChigh/sixtop.c ****     outcome = sixtop_send(pkt);
 972              		.loc 1 320 0
 973 04f0 3869     		ldr	r0, [r7, #16]
 974 04f2 FFF7FEFF 		bl	sixtop_send
 975 04f6 0346     		mov	r3, r0
 976 04f8 FB72     		strb	r3, [r7, #11]
 321:build/openmote-cc2538_armgcc/openstack/02b-MAChigh/sixtop.c **** 
 322:build/openmote-cc2538_armgcc/openstack/02b-MAChigh/sixtop.c ****     if (outcome == E_SUCCESS){
 977              		.loc 1 322 0
 978 04fa FB7A     		ldrb	r3, [r7, #11]	@ zero_extendqisi2
 979 04fc 002B     		cmp	r3, #0
 980 04fe 2ED1     		bne	.L37
 323:build/openmote-cc2538_armgcc/openstack/02b-MAChigh/sixtop.c ****         //update states
 324:build/openmote-cc2538_armgcc/openstack/02b-MAChigh/sixtop.c ****         switch(code){
 981              		.loc 1 324 0
 982 0500 FB79     		ldrb	r3, [r7, #7]	@ zero_extendqisi2
 983 0502 013B     		subs	r3, r3, #1
 984 0504 062B     		cmp	r3, #6
 985 0506 2DD8     		bhi	.L46
 986 0508 01A2     		adr	r2, .L40
 987 050a 52F823F0 		ldr	pc, [r2, r3, lsl #2]
 988 050e 00BF     		.p2align 2
 989              	.L40:
 990 0510 2D050000 		.word	.L39+1
 991 0514 35050000 		.word	.L41+1
 992 0518 3D050000 		.word	.L42+1
 993 051c 45050000 		.word	.L43+1
 994 0520 4D050000 		.word	.L44+1
 995 0524 65050000 		.word	.L46+1
 996 0528 55050000 		.word	.L45+1
 997              		.p2align 1
 998              	.L39:
 325:build/openmote-cc2538_armgcc/openstack/02b-MAChigh/sixtop.c ****         case IANA_6TOP_CMD_ADD:
 326:build/openmote-cc2538_armgcc/openstack/02b-MAChigh/sixtop.c ****             sixtop_vars.six2six_state = SIX_STATE_WAIT_ADDREQUEST_SENDDONE;
 999              		.loc 1 326 0
 1000 052c 104B     		ldr	r3, .L49
 1001 052e 0122     		movs	r2, #1
 1002 0530 9A73     		strb	r2, [r3, #14]
 327:build/openmote-cc2538_armgcc/openstack/02b-MAChigh/sixtop.c ****             break;
 1003              		.loc 1 327 0
 1004 0532 13E0     		b	.L38
 1005              	.L41:
 328:build/openmote-cc2538_armgcc/openstack/02b-MAChigh/sixtop.c ****         case IANA_6TOP_CMD_DELETE:
 329:build/openmote-cc2538_armgcc/openstack/02b-MAChigh/sixtop.c ****             sixtop_vars.six2six_state = SIX_STATE_WAIT_DELETEREQUEST_SENDDONE;
 1006              		.loc 1 329 0
 1007 0534 0E4B     		ldr	r3, .L49
 1008 0536 0222     		movs	r2, #2
 1009 0538 9A73     		strb	r2, [r3, #14]
 330:build/openmote-cc2538_armgcc/openstack/02b-MAChigh/sixtop.c ****             break;
 1010              		.loc 1 330 0
 1011 053a 0FE0     		b	.L38
 1012              	.L42:
 331:build/openmote-cc2538_armgcc/openstack/02b-MAChigh/sixtop.c ****         case IANA_6TOP_CMD_RELOCATE:
 332:build/openmote-cc2538_armgcc/openstack/02b-MAChigh/sixtop.c ****             sixtop_vars.six2six_state = SIX_STATE_WAIT_RELOCATEREQUEST_SENDDONE;
 1013              		.loc 1 332 0
 1014 053c 0C4B     		ldr	r3, .L49
 1015 053e 0322     		movs	r2, #3
 1016 0540 9A73     		strb	r2, [r3, #14]
 333:build/openmote-cc2538_armgcc/openstack/02b-MAChigh/sixtop.c ****             break;
 1017              		.loc 1 333 0
 1018 0542 0BE0     		b	.L38
 1019              	.L43:
 334:build/openmote-cc2538_armgcc/openstack/02b-MAChigh/sixtop.c ****         case IANA_6TOP_CMD_COUNT:
 335:build/openmote-cc2538_armgcc/openstack/02b-MAChigh/sixtop.c ****             sixtop_vars.six2six_state = SIX_STATE_WAIT_COUNTREQUEST_SENDDONE;
 1020              		.loc 1 335 0
 1021 0544 0A4B     		ldr	r3, .L49
 1022 0546 0422     		movs	r2, #4
 1023 0548 9A73     		strb	r2, [r3, #14]
 336:build/openmote-cc2538_armgcc/openstack/02b-MAChigh/sixtop.c ****             break;
 1024              		.loc 1 336 0
 1025 054a 07E0     		b	.L38
 1026              	.L44:
 337:build/openmote-cc2538_armgcc/openstack/02b-MAChigh/sixtop.c ****         case IANA_6TOP_CMD_LIST:
 338:build/openmote-cc2538_armgcc/openstack/02b-MAChigh/sixtop.c ****             sixtop_vars.six2six_state = SIX_STATE_WAIT_LISTREQUEST_SENDDONE;
 1027              		.loc 1 338 0
 1028 054c 084B     		ldr	r3, .L49
 1029 054e 0522     		movs	r2, #5
 1030 0550 9A73     		strb	r2, [r3, #14]
 339:build/openmote-cc2538_armgcc/openstack/02b-MAChigh/sixtop.c ****             break;
 1031              		.loc 1 339 0
 1032 0552 03E0     		b	.L38
 1033              	.L45:
 340:build/openmote-cc2538_armgcc/openstack/02b-MAChigh/sixtop.c ****         case IANA_6TOP_CMD_CLEAR:
 341:build/openmote-cc2538_armgcc/openstack/02b-MAChigh/sixtop.c ****             sixtop_vars.six2six_state = SIX_STATE_WAIT_CLEARREQUEST_SENDDONE;
 1034              		.loc 1 341 0
 1035 0554 064B     		ldr	r3, .L49
 1036 0556 0622     		movs	r2, #6
 1037 0558 9A73     		strb	r2, [r3, #14]
 342:build/openmote-cc2538_armgcc/openstack/02b-MAChigh/sixtop.c ****             break;
 1038              		.loc 1 342 0
 1039 055a 00BF     		nop
 1040              	.L38:
 1041 055c 02E0     		b	.L46
 1042              	.L37:
 343:build/openmote-cc2538_armgcc/openstack/02b-MAChigh/sixtop.c ****         }
 344:build/openmote-cc2538_armgcc/openstack/02b-MAChigh/sixtop.c ****     } else {
 345:build/openmote-cc2538_armgcc/openstack/02b-MAChigh/sixtop.c ****         openqueue_freePacketBuffer(pkt);
 1043              		.loc 1 345 0
 1044 055e 3869     		ldr	r0, [r7, #16]
 1045 0560 FFF7FEFF 		bl	openqueue_freePacketBuffer
 1046              	.L46:
 346:build/openmote-cc2538_armgcc/openstack/02b-MAChigh/sixtop.c ****     }
 347:build/openmote-cc2538_armgcc/openstack/02b-MAChigh/sixtop.c ****     return outcome;
 1047              		.loc 1 347 0
 1048 0564 FB7A     		ldrb	r3, [r7, #11]	@ zero_extendqisi2
 1049              	.L19:
 348:build/openmote-cc2538_armgcc/openstack/02b-MAChigh/sixtop.c **** }
 1050              		.loc 1 348 0
 1051 0566 1846     		mov	r0, r3
 1052 0568 1837     		adds	r7, r7, #24
 1053              		.cfi_def_cfa_offset 16
 1054 056a BD46     		mov	sp, r7
 1055              		.cfi_def_cfa_register 13
 1056              		@ sp needed
 1057 056c B0BD     		pop	{r4, r5, r7, pc}
 1058              	.L50:
 1059 056e 00BF     		.align	2
 1060              	.L49:
 1061 0570 00000000 		.word	sixtop_vars
 1062              		.cfi_endproc
 1063              	.LFE4:
 1065              		.align	2
 1066              		.global	sixtop_send
 1067              		.thumb
 1068              		.thumb_func
 1070              	sixtop_send:
 1071              	.LFB5:
 349:build/openmote-cc2538_armgcc/openstack/02b-MAChigh/sixtop.c **** 
 350:build/openmote-cc2538_armgcc/openstack/02b-MAChigh/sixtop.c **** //======= from upper layer
 351:build/openmote-cc2538_armgcc/openstack/02b-MAChigh/sixtop.c **** 
 352:build/openmote-cc2538_armgcc/openstack/02b-MAChigh/sixtop.c **** owerror_t sixtop_send(OpenQueueEntry_t *msg) {
 1072              		.loc 1 352 0
 1073              		.cfi_startproc
 1074              		@ args = 0, pretend = 0, frame = 32
 1075              		@ frame_needed = 1, uses_anonymous_args = 0
 1076 0574 80B5     		push	{r7, lr}
 1077              		.cfi_def_cfa_offset 8
 1078              		.cfi_offset 7, -8
 1079              		.cfi_offset 14, -4
 1080 0576 88B0     		sub	sp, sp, #32
 1081              		.cfi_def_cfa_offset 40
 1082 0578 00AF     		add	r7, sp, #0
 1083              		.cfi_def_cfa_register 7
 1084 057a 7860     		str	r0, [r7, #4]
 353:build/openmote-cc2538_armgcc/openstack/02b-MAChigh/sixtop.c **** 
 354:build/openmote-cc2538_armgcc/openstack/02b-MAChigh/sixtop.c ****     open_addr_t addressToWrite;
 355:build/openmote-cc2538_armgcc/openstack/02b-MAChigh/sixtop.c **** 
 356:build/openmote-cc2538_armgcc/openstack/02b-MAChigh/sixtop.c ****     if (
 357:build/openmote-cc2538_armgcc/openstack/02b-MAChigh/sixtop.c ****         idmanager_getIsDAGroot() == FALSE               &&
 1085              		.loc 1 357 0
 1086 057c FFF7FEFF 		bl	idmanager_getIsDAGroot
 1087 0580 0346     		mov	r3, r0
 1088 0582 83F00103 		eor	r3, r3, #1
 1089 0586 DBB2     		uxtb	r3, r3
 356:build/openmote-cc2538_armgcc/openstack/02b-MAChigh/sixtop.c ****         idmanager_getIsDAGroot() == FALSE               &&
 1090              		.loc 1 356 0
 1091 0588 002B     		cmp	r3, #0
 1092 058a 27D0     		beq	.L52
 358:build/openmote-cc2538_armgcc/openstack/02b-MAChigh/sixtop.c ****         (
 359:build/openmote-cc2538_armgcc/openstack/02b-MAChigh/sixtop.c ****             msg->creator != COMPONENT_SIXTOP_RES        &&
 1093              		.loc 1 359 0
 1094 058c 7B68     		ldr	r3, [r7, #4]
 1095 058e 1B78     		ldrb	r3, [r3]	@ zero_extendqisi2
 357:build/openmote-cc2538_armgcc/openstack/02b-MAChigh/sixtop.c ****         (
 1096              		.loc 1 357 0
 1097 0590 0F2B     		cmp	r3, #15
 1098 0592 23D0     		beq	.L52
 360:build/openmote-cc2538_armgcc/openstack/02b-MAChigh/sixtop.c ****             msg->creator != COMPONENT_CJOIN             &&
 1099              		.loc 1 360 0
 1100 0594 7B68     		ldr	r3, [r7, #4]
 1101 0596 1B78     		ldrb	r3, [r3]	@ zero_extendqisi2
 359:build/openmote-cc2538_armgcc/openstack/02b-MAChigh/sixtop.c ****             msg->creator != COMPONENT_CJOIN             &&
 1102              		.loc 1 359 0
 1103 0598 272B     		cmp	r3, #39
 1104 059a 1FD0     		beq	.L52
 361:build/openmote-cc2538_armgcc/openstack/02b-MAChigh/sixtop.c ****             (
 362:build/openmote-cc2538_armgcc/openstack/02b-MAChigh/sixtop.c ****                 icmpv6rpl_getPreferredParentEui64(&addressToWrite) == FALSE      ||
 1105              		.loc 1 362 0
 1106 059c 07F10C03 		add	r3, r7, #12
 1107 05a0 1846     		mov	r0, r3
 1108 05a2 FFF7FEFF 		bl	icmpv6rpl_getPreferredParentEui64
 1109 05a6 0346     		mov	r3, r0
 1110 05a8 83F00103 		eor	r3, r3, #1
 1111 05ac DBB2     		uxtb	r3, r3
 360:build/openmote-cc2538_armgcc/openstack/02b-MAChigh/sixtop.c ****             (
 1112              		.loc 1 360 0
 1113 05ae 002B     		cmp	r3, #0
 1114 05b0 12D1     		bne	.L53
 363:build/openmote-cc2538_armgcc/openstack/02b-MAChigh/sixtop.c ****                 (
 364:build/openmote-cc2538_armgcc/openstack/02b-MAChigh/sixtop.c ****                     icmpv6rpl_getPreferredParentEui64(&addressToWrite)           &&
 1115              		.loc 1 364 0
 1116 05b2 07F10C03 		add	r3, r7, #12
 1117 05b6 1846     		mov	r0, r3
 1118 05b8 FFF7FEFF 		bl	icmpv6rpl_getPreferredParentEui64
 1119 05bc 0346     		mov	r3, r0
 362:build/openmote-cc2538_armgcc/openstack/02b-MAChigh/sixtop.c ****                 (
 1120              		.loc 1 362 0
 1121 05be 002B     		cmp	r3, #0
 1122 05c0 0CD0     		beq	.L52
 365:build/openmote-cc2538_armgcc/openstack/02b-MAChigh/sixtop.c ****                     schedule_hasDedicatedCellToNeighbor(&addressToWrite)== FALSE
 1123              		.loc 1 365 0
 1124 05c2 07F10C03 		add	r3, r7, #12
 1125 05c6 1846     		mov	r0, r3
 1126 05c8 FFF7FEFF 		bl	schedule_hasDedicatedCellToNeighbor
 1127 05cc 0346     		mov	r3, r0
 1128 05ce 83F00103 		eor	r3, r3, #1
 1129 05d2 DBB2     		uxtb	r3, r3
 364:build/openmote-cc2538_armgcc/openstack/02b-MAChigh/sixtop.c ****                     schedule_hasDedicatedCellToNeighbor(&addressToWrite)== FALSE
 1130              		.loc 1 364 0
 1131 05d4 002B     		cmp	r3, #0
 1132 05d6 01D0     		beq	.L52
 1133              	.L53:
 366:build/openmote-cc2538_armgcc/openstack/02b-MAChigh/sixtop.c ****                 )
 367:build/openmote-cc2538_armgcc/openstack/02b-MAChigh/sixtop.c ****             )
 368:build/openmote-cc2538_armgcc/openstack/02b-MAChigh/sixtop.c ****         )
 369:build/openmote-cc2538_armgcc/openstack/02b-MAChigh/sixtop.c ****     ){
 370:build/openmote-cc2538_armgcc/openstack/02b-MAChigh/sixtop.c ****         return E_FAIL;
 1134              		.loc 1 370 0
 1135 05d8 0123     		movs	r3, #1
 1136 05da 2CE0     		b	.L56
 1137              	.L52:
 371:build/openmote-cc2538_armgcc/openstack/02b-MAChigh/sixtop.c ****     }
 372:build/openmote-cc2538_armgcc/openstack/02b-MAChigh/sixtop.c **** 
 373:build/openmote-cc2538_armgcc/openstack/02b-MAChigh/sixtop.c ****     // set metadata
 374:build/openmote-cc2538_armgcc/openstack/02b-MAChigh/sixtop.c ****     msg->owner        = COMPONENT_SIXTOP;
 1138              		.loc 1 374 0
 1139 05dc 7B68     		ldr	r3, [r7, #4]
 1140 05de 0C22     		movs	r2, #12
 1141 05e0 5A70     		strb	r2, [r3, #1]
 375:build/openmote-cc2538_armgcc/openstack/02b-MAChigh/sixtop.c ****     msg->l2_frameType = IEEE154_TYPE_DATA;
 1142              		.loc 1 375 0
 1143 05e2 7B68     		ldr	r3, [r7, #4]
 1144 05e4 0122     		movs	r2, #1
 1145 05e6 83F84D20 		strb	r2, [r3, #77]
 376:build/openmote-cc2538_armgcc/openstack/02b-MAChigh/sixtop.c **** 
 377:build/openmote-cc2538_armgcc/openstack/02b-MAChigh/sixtop.c ****     // set l2-security attributes
 378:build/openmote-cc2538_armgcc/openstack/02b-MAChigh/sixtop.c ****     msg->l2_securityLevel   = IEEE802154_security_getSecurityLevel(msg);
 1146              		.loc 1 378 0
 1147 05ea 7868     		ldr	r0, [r7, #4]
 1148 05ec FFF7FEFF 		bl	IEEE802154_security_getSecurityLevel
 1149 05f0 0346     		mov	r3, r0
 1150 05f2 1A46     		mov	r2, r3
 1151 05f4 7B68     		ldr	r3, [r7, #4]
 1152 05f6 83F8A020 		strb	r2, [r3, #160]
 379:build/openmote-cc2538_armgcc/openstack/02b-MAChigh/sixtop.c ****     msg->l2_keyIdMode       = IEEE802154_SECURITY_KEYIDMODE;
 1153              		.loc 1 379 0
 1154 05fa 7B68     		ldr	r3, [r7, #4]
 1155 05fc 0022     		movs	r2, #0
 1156 05fe 83F8A120 		strb	r2, [r3, #161]
 380:build/openmote-cc2538_armgcc/openstack/02b-MAChigh/sixtop.c ****     msg->l2_keyIndex        = IEEE802154_security_getDataKeyIndex();
 1157              		.loc 1 380 0
 1158 0602 FFF7FEFF 		bl	IEEE802154_security_getDataKeyIndex
 1159 0606 0346     		mov	r3, r0
 1160 0608 1A46     		mov	r2, r3
 1161 060a 7B68     		ldr	r3, [r7, #4]
 1162 060c 83F8A220 		strb	r2, [r3, #162]
 381:build/openmote-cc2538_armgcc/openstack/02b-MAChigh/sixtop.c **** 
 382:build/openmote-cc2538_armgcc/openstack/02b-MAChigh/sixtop.c ****     if (msg->l2_payloadIEpresent == FALSE) {
 1163              		.loc 1 382 0
 1164 0610 7B68     		ldr	r3, [r7, #4]
 1165 0612 93F89A30 		ldrb	r3, [r3, #154]	@ zero_extendqisi2
 1166 0616 83F00103 		eor	r3, r3, #1
 1167 061a DBB2     		uxtb	r3, r3
 1168 061c 002B     		cmp	r3, #0
 1169 061e 05D0     		beq	.L55
 383:build/openmote-cc2538_armgcc/openstack/02b-MAChigh/sixtop.c ****         return sixtop_send_internal(
 1170              		.loc 1 383 0
 1171 0620 7868     		ldr	r0, [r7, #4]
 1172 0622 0021     		movs	r1, #0
 1173 0624 FFF7FEFF 		bl	sixtop_send_internal
 1174 0628 0346     		mov	r3, r0
 1175 062a 04E0     		b	.L56
 1176              	.L55:
 384:build/openmote-cc2538_armgcc/openstack/02b-MAChigh/sixtop.c ****             msg,
 385:build/openmote-cc2538_armgcc/openstack/02b-MAChigh/sixtop.c ****             FALSE
 386:build/openmote-cc2538_armgcc/openstack/02b-MAChigh/sixtop.c ****         );
 387:build/openmote-cc2538_armgcc/openstack/02b-MAChigh/sixtop.c ****     } else {
 388:build/openmote-cc2538_armgcc/openstack/02b-MAChigh/sixtop.c ****         return sixtop_send_internal(
 1177              		.loc 1 388 0
 1178 062c 7868     		ldr	r0, [r7, #4]
 1179 062e 0121     		movs	r1, #1
 1180 0630 FFF7FEFF 		bl	sixtop_send_internal
 1181 0634 0346     		mov	r3, r0
 1182              	.L56:
 389:build/openmote-cc2538_armgcc/openstack/02b-MAChigh/sixtop.c ****             msg,
 390:build/openmote-cc2538_armgcc/openstack/02b-MAChigh/sixtop.c ****             TRUE
 391:build/openmote-cc2538_armgcc/openstack/02b-MAChigh/sixtop.c ****         );
 392:build/openmote-cc2538_armgcc/openstack/02b-MAChigh/sixtop.c ****     }
 393:build/openmote-cc2538_armgcc/openstack/02b-MAChigh/sixtop.c **** }
 1183              		.loc 1 393 0 discriminator 1
 1184 0636 1846     		mov	r0, r3
 1185 0638 2037     		adds	r7, r7, #32
 1186              		.cfi_def_cfa_offset 8
 1187 063a BD46     		mov	sp, r7
 1188              		.cfi_def_cfa_register 13
 1189              		@ sp needed
 1190 063c 80BD     		pop	{r7, pc}
 1191              		.cfi_endproc
 1192              	.LFE5:
 1194 063e 00BF     		.align	2
 1195              		.global	task_sixtopNotifSendDone
 1196              		.thumb
 1197              		.thumb_func
 1199              	task_sixtopNotifSendDone:
 1200              	.LFB6:
 394:build/openmote-cc2538_armgcc/openstack/02b-MAChigh/sixtop.c **** 
 395:build/openmote-cc2538_armgcc/openstack/02b-MAChigh/sixtop.c **** //======= from lower layer
 396:build/openmote-cc2538_armgcc/openstack/02b-MAChigh/sixtop.c **** 
 397:build/openmote-cc2538_armgcc/openstack/02b-MAChigh/sixtop.c **** void task_sixtopNotifSendDone(void) {
 1201              		.loc 1 397 0
 1202              		.cfi_startproc
 1203              		@ args = 0, pretend = 0, frame = 8
 1204              		@ frame_needed = 1, uses_anonymous_args = 0
 1205 0640 80B5     		push	{r7, lr}
 1206              		.cfi_def_cfa_offset 8
 1207              		.cfi_offset 7, -8
 1208              		.cfi_offset 14, -4
 1209 0642 82B0     		sub	sp, sp, #8
 1210              		.cfi_def_cfa_offset 16
 1211 0644 00AF     		add	r7, sp, #0
 1212              		.cfi_def_cfa_register 7
 398:build/openmote-cc2538_armgcc/openstack/02b-MAChigh/sixtop.c ****     OpenQueueEntry_t* msg;
 399:build/openmote-cc2538_armgcc/openstack/02b-MAChigh/sixtop.c **** 
 400:build/openmote-cc2538_armgcc/openstack/02b-MAChigh/sixtop.c ****     // get recently-sent packet from openqueue
 401:build/openmote-cc2538_armgcc/openstack/02b-MAChigh/sixtop.c ****     msg = openqueue_sixtopGetSentPacket();
 1213              		.loc 1 401 0
 1214 0646 FFF7FEFF 		bl	openqueue_sixtopGetSentPacket
 1215 064a 7860     		str	r0, [r7, #4]
 402:build/openmote-cc2538_armgcc/openstack/02b-MAChigh/sixtop.c ****     if (msg==NULL) {
 1216              		.loc 1 402 0
 1217 064c 7B68     		ldr	r3, [r7, #4]
 1218 064e 002B     		cmp	r3, #0
 1219 0650 06D1     		bne	.L58
 403:build/openmote-cc2538_armgcc/openstack/02b-MAChigh/sixtop.c ****         openserial_printCritical(
 1220              		.loc 1 403 0
 1221 0652 0C20     		movs	r0, #12
 1222 0654 1521     		movs	r1, #21
 1223 0656 0022     		movs	r2, #0
 1224 0658 0023     		movs	r3, #0
 1225 065a FFF7FEFF 		bl	openserial_printCritical
 404:build/openmote-cc2538_armgcc/openstack/02b-MAChigh/sixtop.c ****             COMPONENT_SIXTOP,
 405:build/openmote-cc2538_armgcc/openstack/02b-MAChigh/sixtop.c ****             ERR_NO_SENT_PACKET,
 406:build/openmote-cc2538_armgcc/openstack/02b-MAChigh/sixtop.c ****             (errorparameter_t)0,
 407:build/openmote-cc2538_armgcc/openstack/02b-MAChigh/sixtop.c ****             (errorparameter_t)0
 408:build/openmote-cc2538_armgcc/openstack/02b-MAChigh/sixtop.c ****         );
 409:build/openmote-cc2538_armgcc/openstack/02b-MAChigh/sixtop.c ****         return;
 1226              		.loc 1 409 0
 1227 065e 49E0     		b	.L57
 1228              	.L58:
 410:build/openmote-cc2538_armgcc/openstack/02b-MAChigh/sixtop.c ****     }
 411:build/openmote-cc2538_armgcc/openstack/02b-MAChigh/sixtop.c **** 
 412:build/openmote-cc2538_armgcc/openstack/02b-MAChigh/sixtop.c ****     // take ownership
 413:build/openmote-cc2538_armgcc/openstack/02b-MAChigh/sixtop.c ****     msg->owner = COMPONENT_SIXTOP;
 1229              		.loc 1 413 0
 1230 0660 7B68     		ldr	r3, [r7, #4]
 1231 0662 0C22     		movs	r2, #12
 1232 0664 5A70     		strb	r2, [r3, #1]
 414:build/openmote-cc2538_armgcc/openstack/02b-MAChigh/sixtop.c **** 
 415:build/openmote-cc2538_armgcc/openstack/02b-MAChigh/sixtop.c ****     // update neighbor statistics
 416:build/openmote-cc2538_armgcc/openstack/02b-MAChigh/sixtop.c ****     if (msg->l2_sendDoneError==E_SUCCESS) {
 1233              		.loc 1 416 0
 1234 0666 7B68     		ldr	r3, [r7, #4]
 1235 0668 93F83B30 		ldrb	r3, [r3, #59]	@ zero_extendqisi2
 1236 066c 002B     		cmp	r3, #0
 1237 066e 0DD1     		bne	.L60
 417:build/openmote-cc2538_armgcc/openstack/02b-MAChigh/sixtop.c ****         neighbors_indicateTx(
 1238              		.loc 1 417 0
 1239 0670 7B68     		ldr	r3, [r7, #4]
 1240 0672 03F13C01 		add	r1, r3, #60
 1241 0676 7B68     		ldr	r3, [r7, #4]
 1242 0678 93F85020 		ldrb	r2, [r3, #80]	@ zero_extendqisi2
 1243 067c 7B68     		ldr	r3, [r7, #4]
 1244 067e 5133     		adds	r3, r3, #81
 1245 0680 0846     		mov	r0, r1
 1246 0682 1146     		mov	r1, r2
 1247 0684 0122     		movs	r2, #1
 1248 0686 FFF7FEFF 		bl	neighbors_indicateTx
 1249 068a 0CE0     		b	.L61
 1250              	.L60:
 418:build/openmote-cc2538_armgcc/openstack/02b-MAChigh/sixtop.c ****             &(msg->l2_nextORpreviousHop),
 419:build/openmote-cc2538_armgcc/openstack/02b-MAChigh/sixtop.c ****             msg->l2_numTxAttempts,
 420:build/openmote-cc2538_armgcc/openstack/02b-MAChigh/sixtop.c ****             TRUE,
 421:build/openmote-cc2538_armgcc/openstack/02b-MAChigh/sixtop.c ****             &msg->l2_asn
 422:build/openmote-cc2538_armgcc/openstack/02b-MAChigh/sixtop.c ****         );
 423:build/openmote-cc2538_armgcc/openstack/02b-MAChigh/sixtop.c ****     } else {
 424:build/openmote-cc2538_armgcc/openstack/02b-MAChigh/sixtop.c ****         neighbors_indicateTx(
 1251              		.loc 1 424 0
 1252 068c 7B68     		ldr	r3, [r7, #4]
 1253 068e 03F13C01 		add	r1, r3, #60
 1254 0692 7B68     		ldr	r3, [r7, #4]
 1255 0694 93F85020 		ldrb	r2, [r3, #80]	@ zero_extendqisi2
 1256 0698 7B68     		ldr	r3, [r7, #4]
 1257 069a 5133     		adds	r3, r3, #81
 1258 069c 0846     		mov	r0, r1
 1259 069e 1146     		mov	r1, r2
 1260 06a0 0022     		movs	r2, #0
 1261 06a2 FFF7FEFF 		bl	neighbors_indicateTx
 1262              	.L61:
 425:build/openmote-cc2538_armgcc/openstack/02b-MAChigh/sixtop.c ****              &(msg->l2_nextORpreviousHop),
 426:build/openmote-cc2538_armgcc/openstack/02b-MAChigh/sixtop.c ****              msg->l2_numTxAttempts,
 427:build/openmote-cc2538_armgcc/openstack/02b-MAChigh/sixtop.c ****              FALSE,
 428:build/openmote-cc2538_armgcc/openstack/02b-MAChigh/sixtop.c ****              &msg->l2_asn
 429:build/openmote-cc2538_armgcc/openstack/02b-MAChigh/sixtop.c ****         );
 430:build/openmote-cc2538_armgcc/openstack/02b-MAChigh/sixtop.c ****     }
 431:build/openmote-cc2538_armgcc/openstack/02b-MAChigh/sixtop.c **** 
 432:build/openmote-cc2538_armgcc/openstack/02b-MAChigh/sixtop.c ****     // send the packet to where it belongs
 433:build/openmote-cc2538_armgcc/openstack/02b-MAChigh/sixtop.c ****     switch (msg->creator) {
 1263              		.loc 1 433 0
 1264 06a6 7B68     		ldr	r3, [r7, #4]
 1265 06a8 1B78     		ldrb	r3, [r3]	@ zero_extendqisi2
 1266 06aa 0C2B     		cmp	r3, #12
 1267 06ac 02D0     		beq	.L63
 1268 06ae 0F2B     		cmp	r3, #15
 1269 06b0 10D0     		beq	.L64
 1270 06b2 17E0     		b	.L67
 1271              	.L63:
 434:build/openmote-cc2538_armgcc/openstack/02b-MAChigh/sixtop.c ****         case COMPONENT_SIXTOP:
 435:build/openmote-cc2538_armgcc/openstack/02b-MAChigh/sixtop.c ****             if (msg->l2_frameType==IEEE154_TYPE_BEACON) {
 1272              		.loc 1 435 0
 1273 06b4 7B68     		ldr	r3, [r7, #4]
 1274 06b6 93F84D30 		ldrb	r3, [r3, #77]	@ zero_extendqisi2
 1275 06ba 002B     		cmp	r3, #0
 1276 06bc 03D1     		bne	.L65
 436:build/openmote-cc2538_armgcc/openstack/02b-MAChigh/sixtop.c ****                 // this is a EB
 437:build/openmote-cc2538_armgcc/openstack/02b-MAChigh/sixtop.c **** 
 438:build/openmote-cc2538_armgcc/openstack/02b-MAChigh/sixtop.c ****                 // not busy sending EB anymore
 439:build/openmote-cc2538_armgcc/openstack/02b-MAChigh/sixtop.c ****                 sixtop_vars.busySendingEB = FALSE;
 1277              		.loc 1 439 0
 1278 06be 0F4B     		ldr	r3, .L68
 1279 06c0 0022     		movs	r2, #0
 1280 06c2 DA70     		strb	r2, [r3, #3]
 1281 06c4 02E0     		b	.L66
 1282              	.L65:
 440:build/openmote-cc2538_armgcc/openstack/02b-MAChigh/sixtop.c ****             } else {
 441:build/openmote-cc2538_armgcc/openstack/02b-MAChigh/sixtop.c ****                 // this is a KA
 442:build/openmote-cc2538_armgcc/openstack/02b-MAChigh/sixtop.c **** 
 443:build/openmote-cc2538_armgcc/openstack/02b-MAChigh/sixtop.c ****                 // not busy sending KA anymore
 444:build/openmote-cc2538_armgcc/openstack/02b-MAChigh/sixtop.c ****                 sixtop_vars.busySendingKA = FALSE;
 1283              		.loc 1 444 0
 1284 06c6 0D4B     		ldr	r3, .L68
 1285 06c8 0022     		movs	r2, #0
 1286 06ca 9A70     		strb	r2, [r3, #2]
 1287              	.L66:
 445:build/openmote-cc2538_armgcc/openstack/02b-MAChigh/sixtop.c ****             }
 446:build/openmote-cc2538_armgcc/openstack/02b-MAChigh/sixtop.c ****             // discard packets
 447:build/openmote-cc2538_armgcc/openstack/02b-MAChigh/sixtop.c ****             openqueue_freePacketBuffer(msg);
 1288              		.loc 1 447 0
 1289 06cc 7868     		ldr	r0, [r7, #4]
 1290 06ce FFF7FEFF 		bl	openqueue_freePacketBuffer
 448:build/openmote-cc2538_armgcc/openstack/02b-MAChigh/sixtop.c ****             break;
 1291              		.loc 1 448 0
 1292 06d2 0FE0     		b	.L57
 1293              	.L64:
 449:build/openmote-cc2538_armgcc/openstack/02b-MAChigh/sixtop.c ****         case COMPONENT_SIXTOP_RES:
 450:build/openmote-cc2538_armgcc/openstack/02b-MAChigh/sixtop.c ****             sixtop_six2six_sendDone(msg,msg->l2_sendDoneError);
 1294              		.loc 1 450 0
 1295 06d4 7B68     		ldr	r3, [r7, #4]
 1296 06d6 93F83B30 		ldrb	r3, [r3, #59]	@ zero_extendqisi2
 1297 06da 7868     		ldr	r0, [r7, #4]
 1298 06dc 1946     		mov	r1, r3
 1299 06de FFF7FEFF 		bl	sixtop_six2six_sendDone
 451:build/openmote-cc2538_armgcc/openstack/02b-MAChigh/sixtop.c ****             break;
 1300              		.loc 1 451 0
 1301 06e2 07E0     		b	.L57
 1302              	.L67:
 452:build/openmote-cc2538_armgcc/openstack/02b-MAChigh/sixtop.c ****         default:
 453:build/openmote-cc2538_armgcc/openstack/02b-MAChigh/sixtop.c ****             // send the rest up the stack
 454:build/openmote-cc2538_armgcc/openstack/02b-MAChigh/sixtop.c ****             iphc_sendDone(msg,msg->l2_sendDoneError);
 1303              		.loc 1 454 0
 1304 06e4 7B68     		ldr	r3, [r7, #4]
 1305 06e6 93F83B30 		ldrb	r3, [r3, #59]	@ zero_extendqisi2
 1306 06ea 7868     		ldr	r0, [r7, #4]
 1307 06ec 1946     		mov	r1, r3
 1308 06ee FFF7FEFF 		bl	iphc_sendDone
 455:build/openmote-cc2538_armgcc/openstack/02b-MAChigh/sixtop.c ****             break;
 1309              		.loc 1 455 0
 1310 06f2 00BF     		nop
 1311              	.L57:
 456:build/openmote-cc2538_armgcc/openstack/02b-MAChigh/sixtop.c ****     }
 457:build/openmote-cc2538_armgcc/openstack/02b-MAChigh/sixtop.c **** }
 1312              		.loc 1 457 0
 1313 06f4 0837     		adds	r7, r7, #8
 1314              		.cfi_def_cfa_offset 8
 1315 06f6 BD46     		mov	sp, r7
 1316              		.cfi_def_cfa_register 13
 1317              		@ sp needed
 1318 06f8 80BD     		pop	{r7, pc}
 1319              	.L69:
 1320 06fa 00BF     		.align	2
 1321              	.L68:
 1322 06fc 00000000 		.word	sixtop_vars
 1323              		.cfi_endproc
 1324              	.LFE6:
 1326              		.align	2
 1327              		.global	task_sixtopNotifReceive
 1328              		.thumb
 1329              		.thumb_func
 1331              	task_sixtopNotifReceive:
 1332              	.LFB7:
 458:build/openmote-cc2538_armgcc/openstack/02b-MAChigh/sixtop.c **** 
 459:build/openmote-cc2538_armgcc/openstack/02b-MAChigh/sixtop.c **** void task_sixtopNotifReceive(void) {
 1333              		.loc 1 459 0
 1334              		.cfi_startproc
 1335              		@ args = 0, pretend = 0, frame = 8
 1336              		@ frame_needed = 1, uses_anonymous_args = 0
 1337 0700 B0B5     		push	{r4, r5, r7, lr}
 1338              		.cfi_def_cfa_offset 16
 1339              		.cfi_offset 4, -16
 1340              		.cfi_offset 5, -12
 1341              		.cfi_offset 7, -8
 1342              		.cfi_offset 14, -4
 1343 0702 84B0     		sub	sp, sp, #16
 1344              		.cfi_def_cfa_offset 32
 1345 0704 02AF     		add	r7, sp, #8
 1346              		.cfi_def_cfa 7, 24
 460:build/openmote-cc2538_armgcc/openstack/02b-MAChigh/sixtop.c ****     OpenQueueEntry_t* msg;
 461:build/openmote-cc2538_armgcc/openstack/02b-MAChigh/sixtop.c ****     uint16_t          lenIE;
 462:build/openmote-cc2538_armgcc/openstack/02b-MAChigh/sixtop.c ****     // get received packet from openqueue
 463:build/openmote-cc2538_armgcc/openstack/02b-MAChigh/sixtop.c ****     msg = openqueue_sixtopGetReceivedPacket();
 1347              		.loc 1 463 0
 1348 0706 FFF7FEFF 		bl	openqueue_sixtopGetReceivedPacket
 1349 070a 7860     		str	r0, [r7, #4]
 464:build/openmote-cc2538_armgcc/openstack/02b-MAChigh/sixtop.c ****     if (msg==NULL) {
 1350              		.loc 1 464 0
 1351 070c 7B68     		ldr	r3, [r7, #4]
 1352 070e 002B     		cmp	r3, #0
 1353 0710 06D1     		bne	.L71
 465:build/openmote-cc2538_armgcc/openstack/02b-MAChigh/sixtop.c ****         openserial_printCritical(
 1354              		.loc 1 465 0
 1355 0712 0C20     		movs	r0, #12
 1356 0714 1621     		movs	r1, #22
 1357 0716 0022     		movs	r2, #0
 1358 0718 0023     		movs	r3, #0
 1359 071a FFF7FEFF 		bl	openserial_printCritical
 466:build/openmote-cc2538_armgcc/openstack/02b-MAChigh/sixtop.c ****             COMPONENT_SIXTOP,
 467:build/openmote-cc2538_armgcc/openstack/02b-MAChigh/sixtop.c ****             ERR_NO_RECEIVED_PACKET,
 468:build/openmote-cc2538_armgcc/openstack/02b-MAChigh/sixtop.c ****             (errorparameter_t)0,
 469:build/openmote-cc2538_armgcc/openstack/02b-MAChigh/sixtop.c ****             (errorparameter_t)0
 470:build/openmote-cc2538_armgcc/openstack/02b-MAChigh/sixtop.c ****         );
 471:build/openmote-cc2538_armgcc/openstack/02b-MAChigh/sixtop.c ****         return;
 1360              		.loc 1 471 0
 1361 071e 71E0     		b	.L70
 1362              	.L71:
 472:build/openmote-cc2538_armgcc/openstack/02b-MAChigh/sixtop.c ****     }
 473:build/openmote-cc2538_armgcc/openstack/02b-MAChigh/sixtop.c **** 
 474:build/openmote-cc2538_armgcc/openstack/02b-MAChigh/sixtop.c ****     // take ownership
 475:build/openmote-cc2538_armgcc/openstack/02b-MAChigh/sixtop.c ****     msg->owner = COMPONENT_SIXTOP;
 1363              		.loc 1 475 0
 1364 0720 7B68     		ldr	r3, [r7, #4]
 1365 0722 0C22     		movs	r2, #12
 1366 0724 5A70     		strb	r2, [r3, #1]
 476:build/openmote-cc2538_armgcc/openstack/02b-MAChigh/sixtop.c **** 
 477:build/openmote-cc2538_armgcc/openstack/02b-MAChigh/sixtop.c ****     // update neighbor statistics
 478:build/openmote-cc2538_armgcc/openstack/02b-MAChigh/sixtop.c ****     neighbors_indicateRx(
 1367              		.loc 1 478 0
 1368 0726 7B68     		ldr	r3, [r7, #4]
 1369 0728 03F13C00 		add	r0, r3, #60
 1370 072c 7B68     		ldr	r3, [r7, #4]
 1371 072e 93F8BD10 		ldrb	r1, [r3, #189]	@ zero_extendqisi2
 1372 0732 7B68     		ldr	r3, [r7, #4]
 1373 0734 03F15105 		add	r5, r3, #81
 1374 0738 7B68     		ldr	r3, [r7, #4]
 1375 073a 93F89B40 		ldrb	r4, [r3, #155]	@ zero_extendqisi2
 1376 073e 7B68     		ldr	r3, [r7, #4]
 1377 0740 93F89820 		ldrb	r2, [r3, #152]	@ zero_extendqisi2
 479:build/openmote-cc2538_armgcc/openstack/02b-MAChigh/sixtop.c ****         &(msg->l2_nextORpreviousHop),
 480:build/openmote-cc2538_armgcc/openstack/02b-MAChigh/sixtop.c ****         msg->l1_rssi,
 481:build/openmote-cc2538_armgcc/openstack/02b-MAChigh/sixtop.c ****         &msg->l2_asn,
 482:build/openmote-cc2538_armgcc/openstack/02b-MAChigh/sixtop.c ****         msg->l2_joinPriorityPresent,
 483:build/openmote-cc2538_armgcc/openstack/02b-MAChigh/sixtop.c ****         msg->l2_joinPriority,
 484:build/openmote-cc2538_armgcc/openstack/02b-MAChigh/sixtop.c ****         msg->l2_securityLevel == IEEE154_ASH_SLF_TYPE_NOSEC ? TRUE : FALSE
 1378              		.loc 1 484 0
 1379 0744 7B68     		ldr	r3, [r7, #4]
 1380 0746 93F8A030 		ldrb	r3, [r3, #160]	@ zero_extendqisi2
 478:build/openmote-cc2538_armgcc/openstack/02b-MAChigh/sixtop.c ****         &(msg->l2_nextORpreviousHop),
 1381              		.loc 1 478 0
 1382 074a 002B     		cmp	r3, #0
 1383 074c 0CBF     		ite	eq
 1384 074e 0123     		moveq	r3, #1
 1385 0750 0023     		movne	r3, #0
 1386 0752 DBB2     		uxtb	r3, r3
 1387 0754 49B2     		sxtb	r1, r1
 1388 0756 0092     		str	r2, [sp]
 1389 0758 0193     		str	r3, [sp, #4]
 1390 075a 2A46     		mov	r2, r5
 1391 075c 2346     		mov	r3, r4
 1392 075e FFF7FEFF 		bl	neighbors_indicateRx
 485:build/openmote-cc2538_armgcc/openstack/02b-MAChigh/sixtop.c ****     );
 486:build/openmote-cc2538_armgcc/openstack/02b-MAChigh/sixtop.c **** 
 487:build/openmote-cc2538_armgcc/openstack/02b-MAChigh/sixtop.c ****     // process the header IEs
 488:build/openmote-cc2538_armgcc/openstack/02b-MAChigh/sixtop.c ****     lenIE=0;
 1393              		.loc 1 488 0
 1394 0762 0023     		movs	r3, #0
 1395 0764 7B80     		strh	r3, [r7, #2]	@ movhi
 489:build/openmote-cc2538_armgcc/openstack/02b-MAChigh/sixtop.c ****     if(
 490:build/openmote-cc2538_armgcc/openstack/02b-MAChigh/sixtop.c ****         msg->l2_frameType              == IEEE154_TYPE_DATA  &&
 1396              		.loc 1 490 0
 1397 0766 7B68     		ldr	r3, [r7, #4]
 1398 0768 93F84D30 		ldrb	r3, [r3, #77]	@ zero_extendqisi2
 489:build/openmote-cc2538_armgcc/openstack/02b-MAChigh/sixtop.c ****     if(
 1399              		.loc 1 489 0
 1400 076c 012B     		cmp	r3, #1
 1401 076e 13D1     		bne	.L73
 491:build/openmote-cc2538_armgcc/openstack/02b-MAChigh/sixtop.c ****         msg->l2_payloadIEpresent       == TRUE               &&
 1402              		.loc 1 491 0
 1403 0770 7B68     		ldr	r3, [r7, #4]
 1404 0772 93F89A30 		ldrb	r3, [r3, #154]	@ zero_extendqisi2
 490:build/openmote-cc2538_armgcc/openstack/02b-MAChigh/sixtop.c ****         msg->l2_payloadIEpresent       == TRUE               &&
 1405              		.loc 1 490 0
 1406 0776 002B     		cmp	r3, #0
 1407 0778 0ED0     		beq	.L73
 492:build/openmote-cc2538_armgcc/openstack/02b-MAChigh/sixtop.c ****         sixtop_processIEs(msg, &lenIE) == FALSE
 1408              		.loc 1 492 0
 1409 077a BB1C     		adds	r3, r7, #2
 1410 077c 7868     		ldr	r0, [r7, #4]
 1411 077e 1946     		mov	r1, r3
 1412 0780 FFF7FEFF 		bl	sixtop_processIEs
 1413 0784 0346     		mov	r3, r0
 1414 0786 83F00103 		eor	r3, r3, #1
 1415 078a DBB2     		uxtb	r3, r3
 491:build/openmote-cc2538_armgcc/openstack/02b-MAChigh/sixtop.c ****         msg->l2_payloadIEpresent       == TRUE               &&
 1416              		.loc 1 491 0
 1417 078c 002B     		cmp	r3, #0
 1418 078e 03D0     		beq	.L73
 493:build/openmote-cc2538_armgcc/openstack/02b-MAChigh/sixtop.c ****     ) {
 494:build/openmote-cc2538_armgcc/openstack/02b-MAChigh/sixtop.c ****         // free the packet's RAM memory
 495:build/openmote-cc2538_armgcc/openstack/02b-MAChigh/sixtop.c ****         openqueue_freePacketBuffer(msg);
 1419              		.loc 1 495 0
 1420 0790 7868     		ldr	r0, [r7, #4]
 1421 0792 FFF7FEFF 		bl	openqueue_freePacketBuffer
 496:build/openmote-cc2538_armgcc/openstack/02b-MAChigh/sixtop.c ****         //log error
 497:build/openmote-cc2538_armgcc/openstack/02b-MAChigh/sixtop.c ****         return;
 1422              		.loc 1 497 0
 1423 0796 35E0     		b	.L70
 1424              	.L73:
 498:build/openmote-cc2538_armgcc/openstack/02b-MAChigh/sixtop.c ****     }
 499:build/openmote-cc2538_armgcc/openstack/02b-MAChigh/sixtop.c **** 
 500:build/openmote-cc2538_armgcc/openstack/02b-MAChigh/sixtop.c ****     // toss the header IEs
 501:build/openmote-cc2538_armgcc/openstack/02b-MAChigh/sixtop.c ****     packetfunctions_tossHeader(msg,lenIE);
 1425              		.loc 1 501 0
 1426 0798 7B88     		ldrh	r3, [r7, #2]
 1427 079a DBB2     		uxtb	r3, r3
 1428 079c 7868     		ldr	r0, [r7, #4]
 1429 079e 1946     		mov	r1, r3
 1430 07a0 FFF7FEFF 		bl	packetfunctions_tossHeader
 502:build/openmote-cc2538_armgcc/openstack/02b-MAChigh/sixtop.c **** 
 503:build/openmote-cc2538_armgcc/openstack/02b-MAChigh/sixtop.c ****     // reset it to avoid race conditions with this var.
 504:build/openmote-cc2538_armgcc/openstack/02b-MAChigh/sixtop.c ****     msg->l2_joinPriorityPresent = FALSE;
 1431              		.loc 1 504 0
 1432 07a4 7B68     		ldr	r3, [r7, #4]
 1433 07a6 0022     		movs	r2, #0
 1434 07a8 83F89B20 		strb	r2, [r3, #155]
 505:build/openmote-cc2538_armgcc/openstack/02b-MAChigh/sixtop.c **** 
 506:build/openmote-cc2538_armgcc/openstack/02b-MAChigh/sixtop.c ****     // send the packet up the stack, if it qualifies
 507:build/openmote-cc2538_armgcc/openstack/02b-MAChigh/sixtop.c ****     switch (msg->l2_frameType) {
 1435              		.loc 1 507 0
 1436 07ac 7B68     		ldr	r3, [r7, #4]
 1437 07ae 93F84D30 		ldrb	r3, [r3, #77]	@ zero_extendqisi2
 1438 07b2 002B     		cmp	r3, #0
 1439 07b4 18DB     		blt	.L74
 1440 07b6 012B     		cmp	r3, #1
 1441 07b8 01DD     		ble	.L75
 1442 07ba 032B     		cmp	r3, #3
 1443 07bc 14D1     		bne	.L74
 1444              	.L75:
 508:build/openmote-cc2538_armgcc/openstack/02b-MAChigh/sixtop.c ****     case IEEE154_TYPE_BEACON:
 509:build/openmote-cc2538_armgcc/openstack/02b-MAChigh/sixtop.c ****     case IEEE154_TYPE_DATA:
 510:build/openmote-cc2538_armgcc/openstack/02b-MAChigh/sixtop.c ****     case IEEE154_TYPE_CMD:
 511:build/openmote-cc2538_armgcc/openstack/02b-MAChigh/sixtop.c ****         if (msg->length>0) {
 1445              		.loc 1 511 0
 1446 07be 7B68     		ldr	r3, [r7, #4]
 1447 07c0 1B7A     		ldrb	r3, [r3, #8]	@ zero_extendqisi2
 1448 07c2 002B     		cmp	r3, #0
 1449 07c4 0CD0     		beq	.L76
 512:build/openmote-cc2538_armgcc/openstack/02b-MAChigh/sixtop.c ****             if (msg->l2_frameType == IEEE154_TYPE_BEACON){
 1450              		.loc 1 512 0
 1451 07c6 7B68     		ldr	r3, [r7, #4]
 1452 07c8 93F84D30 		ldrb	r3, [r3, #77]	@ zero_extendqisi2
 1453 07cc 002B     		cmp	r3, #0
 1454 07ce 03D1     		bne	.L77
 513:build/openmote-cc2538_armgcc/openstack/02b-MAChigh/sixtop.c ****                 // I have one byte frequence field, no useful for upper layer
 514:build/openmote-cc2538_armgcc/openstack/02b-MAChigh/sixtop.c ****                 // free up the RAM
 515:build/openmote-cc2538_armgcc/openstack/02b-MAChigh/sixtop.c ****                 openqueue_freePacketBuffer(msg);
 1455              		.loc 1 515 0
 1456 07d0 7868     		ldr	r0, [r7, #4]
 1457 07d2 FFF7FEFF 		bl	openqueue_freePacketBuffer
 516:build/openmote-cc2538_armgcc/openstack/02b-MAChigh/sixtop.c ****                 break;
 1458              		.loc 1 516 0
 1459 07d6 15E0     		b	.L78
 1460              	.L77:
 517:build/openmote-cc2538_armgcc/openstack/02b-MAChigh/sixtop.c ****             }
 518:build/openmote-cc2538_armgcc/openstack/02b-MAChigh/sixtop.c ****             // send to upper layer
 519:build/openmote-cc2538_armgcc/openstack/02b-MAChigh/sixtop.c ****             iphc_receive(msg);
 1461              		.loc 1 519 0
 1462 07d8 7868     		ldr	r0, [r7, #4]
 1463 07da FFF7FEFF 		bl	iphc_receive
 520:build/openmote-cc2538_armgcc/openstack/02b-MAChigh/sixtop.c ****         } else {
 521:build/openmote-cc2538_armgcc/openstack/02b-MAChigh/sixtop.c ****             // free up the RAM
 522:build/openmote-cc2538_armgcc/openstack/02b-MAChigh/sixtop.c ****             openqueue_freePacketBuffer(msg);
 523:build/openmote-cc2538_armgcc/openstack/02b-MAChigh/sixtop.c ****         }
 524:build/openmote-cc2538_armgcc/openstack/02b-MAChigh/sixtop.c ****         break;
 1464              		.loc 1 524 0
 1465 07de 11E0     		b	.L78
 1466              	.L76:
 522:build/openmote-cc2538_armgcc/openstack/02b-MAChigh/sixtop.c ****         }
 1467              		.loc 1 522 0
 1468 07e0 7868     		ldr	r0, [r7, #4]
 1469 07e2 FFF7FEFF 		bl	openqueue_freePacketBuffer
 1470              		.loc 1 524 0
 1471 07e6 0DE0     		b	.L78
 1472              	.L74:
 525:build/openmote-cc2538_armgcc/openstack/02b-MAChigh/sixtop.c ****     case IEEE154_TYPE_ACK:
 526:build/openmote-cc2538_armgcc/openstack/02b-MAChigh/sixtop.c ****     default:
 527:build/openmote-cc2538_armgcc/openstack/02b-MAChigh/sixtop.c ****         // free the packet's RAM memory
 528:build/openmote-cc2538_armgcc/openstack/02b-MAChigh/sixtop.c ****         openqueue_freePacketBuffer(msg);
 1473              		.loc 1 528 0
 1474 07e8 7868     		ldr	r0, [r7, #4]
 1475 07ea FFF7FEFF 		bl	openqueue_freePacketBuffer
 529:build/openmote-cc2538_armgcc/openstack/02b-MAChigh/sixtop.c ****         // log the error
 530:build/openmote-cc2538_armgcc/openstack/02b-MAChigh/sixtop.c ****         openserial_printError(
 531:build/openmote-cc2538_armgcc/openstack/02b-MAChigh/sixtop.c ****             COMPONENT_SIXTOP,
 532:build/openmote-cc2538_armgcc/openstack/02b-MAChigh/sixtop.c ****             ERR_MSG_UNKNOWN_TYPE,
 533:build/openmote-cc2538_armgcc/openstack/02b-MAChigh/sixtop.c ****             (errorparameter_t)msg->l2_frameType,
 1476              		.loc 1 533 0
 1477 07ee 7B68     		ldr	r3, [r7, #4]
 1478 07f0 93F84D30 		ldrb	r3, [r3, #77]	@ zero_extendqisi2
 530:build/openmote-cc2538_armgcc/openstack/02b-MAChigh/sixtop.c ****             COMPONENT_SIXTOP,
 1479              		.loc 1 530 0
 1480 07f4 9BB2     		uxth	r3, r3
 1481 07f6 0C20     		movs	r0, #12
 1482 07f8 3021     		movs	r1, #48
 1483 07fa 1A46     		mov	r2, r3
 1484 07fc 0023     		movs	r3, #0
 1485 07fe FFF7FEFF 		bl	openserial_printError
 534:build/openmote-cc2538_armgcc/openstack/02b-MAChigh/sixtop.c ****             (errorparameter_t)0
 535:build/openmote-cc2538_armgcc/openstack/02b-MAChigh/sixtop.c ****         );
 536:build/openmote-cc2538_armgcc/openstack/02b-MAChigh/sixtop.c ****         break;
 1486              		.loc 1 536 0
 1487 0802 00BF     		nop
 1488              	.L78:
 1489              	.L70:
 537:build/openmote-cc2538_armgcc/openstack/02b-MAChigh/sixtop.c ****     }
 538:build/openmote-cc2538_armgcc/openstack/02b-MAChigh/sixtop.c **** }
 1490              		.loc 1 538 0
 1491 0804 0837     		adds	r7, r7, #8
 1492              		.cfi_def_cfa_offset 16
 1493 0806 BD46     		mov	sp, r7
 1494              		.cfi_def_cfa_register 13
 1495              		@ sp needed
 1496 0808 B0BD     		pop	{r4, r5, r7, pc}
 1497              		.cfi_endproc
 1498              	.LFE7:
 1500 080a 00BF     		.align	2
 1501              		.global	debugPrint_myDAGrank
 1502              		.thumb
 1503              		.thumb_func
 1505              	debugPrint_myDAGrank:
 1506              	.LFB8:
 539:build/openmote-cc2538_armgcc/openstack/02b-MAChigh/sixtop.c **** 
 540:build/openmote-cc2538_armgcc/openstack/02b-MAChigh/sixtop.c **** //======= debugging
 541:build/openmote-cc2538_armgcc/openstack/02b-MAChigh/sixtop.c **** 
 542:build/openmote-cc2538_armgcc/openstack/02b-MAChigh/sixtop.c **** /**
 543:build/openmote-cc2538_armgcc/openstack/02b-MAChigh/sixtop.c **** \brief Trigger this module to print status information, over serial.
 544:build/openmote-cc2538_armgcc/openstack/02b-MAChigh/sixtop.c **** 
 545:build/openmote-cc2538_armgcc/openstack/02b-MAChigh/sixtop.c **** debugPrint_* functions are used by the openserial module to continuously print
 546:build/openmote-cc2538_armgcc/openstack/02b-MAChigh/sixtop.c **** status information about several modules in the OpenWSN stack.
 547:build/openmote-cc2538_armgcc/openstack/02b-MAChigh/sixtop.c **** 
 548:build/openmote-cc2538_armgcc/openstack/02b-MAChigh/sixtop.c **** \returns TRUE if this function printed something, FALSE otherwise.
 549:build/openmote-cc2538_armgcc/openstack/02b-MAChigh/sixtop.c **** */
 550:build/openmote-cc2538_armgcc/openstack/02b-MAChigh/sixtop.c **** bool debugPrint_myDAGrank(void) {
 1507              		.loc 1 550 0
 1508              		.cfi_startproc
 1509              		@ args = 0, pretend = 0, frame = 8
 1510              		@ frame_needed = 1, uses_anonymous_args = 0
 1511 080c 80B5     		push	{r7, lr}
 1512              		.cfi_def_cfa_offset 8
 1513              		.cfi_offset 7, -8
 1514              		.cfi_offset 14, -4
 1515 080e 82B0     		sub	sp, sp, #8
 1516              		.cfi_def_cfa_offset 16
 1517 0810 00AF     		add	r7, sp, #0
 1518              		.cfi_def_cfa_register 7
 551:build/openmote-cc2538_armgcc/openstack/02b-MAChigh/sixtop.c ****     uint16_t output;
 552:build/openmote-cc2538_armgcc/openstack/02b-MAChigh/sixtop.c **** 
 553:build/openmote-cc2538_armgcc/openstack/02b-MAChigh/sixtop.c ****     output = 0;
 1519              		.loc 1 553 0
 1520 0812 0023     		movs	r3, #0
 1521 0814 FB80     		strh	r3, [r7, #6]	@ movhi
 554:build/openmote-cc2538_armgcc/openstack/02b-MAChigh/sixtop.c ****     output = icmpv6rpl_getMyDAGrank();
 1522              		.loc 1 554 0
 1523 0816 FFF7FEFF 		bl	icmpv6rpl_getMyDAGrank
 1524 081a 0346     		mov	r3, r0
 1525 081c FB80     		strh	r3, [r7, #6]	@ movhi
 555:build/openmote-cc2538_armgcc/openstack/02b-MAChigh/sixtop.c ****     openserial_printStatus(STATUS_DAGRANK,(uint8_t*)&output,sizeof(uint16_t));
 1526              		.loc 1 555 0
 1527 081e BB1D     		adds	r3, r7, #6
 1528 0820 0220     		movs	r0, #2
 1529 0822 1946     		mov	r1, r3
 1530 0824 0222     		movs	r2, #2
 1531 0826 FFF7FEFF 		bl	openserial_printStatus
 556:build/openmote-cc2538_armgcc/openstack/02b-MAChigh/sixtop.c ****     return TRUE;
 1532              		.loc 1 556 0
 1533 082a 0123     		movs	r3, #1
 557:build/openmote-cc2538_armgcc/openstack/02b-MAChigh/sixtop.c **** }
 1534              		.loc 1 557 0
 1535 082c 1846     		mov	r0, r3
 1536 082e 0837     		adds	r7, r7, #8
 1537              		.cfi_def_cfa_offset 8
 1538 0830 BD46     		mov	sp, r7
 1539              		.cfi_def_cfa_register 13
 1540              		@ sp needed
 1541 0832 80BD     		pop	{r7, pc}
 1542              		.cfi_endproc
 1543              	.LFE8:
 1545              		.align	2
 1546              		.global	debugPrint_kaPeriod
 1547              		.thumb
 1548              		.thumb_func
 1550              	debugPrint_kaPeriod:
 1551              	.LFB9:
 558:build/openmote-cc2538_armgcc/openstack/02b-MAChigh/sixtop.c **** 
 559:build/openmote-cc2538_armgcc/openstack/02b-MAChigh/sixtop.c **** /**
 560:build/openmote-cc2538_armgcc/openstack/02b-MAChigh/sixtop.c **** \brief Trigger this module to print status information, over serial.
 561:build/openmote-cc2538_armgcc/openstack/02b-MAChigh/sixtop.c **** 
 562:build/openmote-cc2538_armgcc/openstack/02b-MAChigh/sixtop.c **** debugPrint_* functions are used by the openserial module to continuously print
 563:build/openmote-cc2538_armgcc/openstack/02b-MAChigh/sixtop.c **** status information about several modules in the OpenWSN stack.
 564:build/openmote-cc2538_armgcc/openstack/02b-MAChigh/sixtop.c **** 
 565:build/openmote-cc2538_armgcc/openstack/02b-MAChigh/sixtop.c **** \returns TRUE if this function printed something, FALSE otherwise.
 566:build/openmote-cc2538_armgcc/openstack/02b-MAChigh/sixtop.c **** */
 567:build/openmote-cc2538_armgcc/openstack/02b-MAChigh/sixtop.c **** bool debugPrint_kaPeriod(void) {
 1552              		.loc 1 567 0
 1553              		.cfi_startproc
 1554              		@ args = 0, pretend = 0, frame = 8
 1555              		@ frame_needed = 1, uses_anonymous_args = 0
 1556 0834 80B5     		push	{r7, lr}
 1557              		.cfi_def_cfa_offset 8
 1558              		.cfi_offset 7, -8
 1559              		.cfi_offset 14, -4
 1560 0836 82B0     		sub	sp, sp, #8
 1561              		.cfi_def_cfa_offset 16
 1562 0838 00AF     		add	r7, sp, #0
 1563              		.cfi_def_cfa_register 7
 568:build/openmote-cc2538_armgcc/openstack/02b-MAChigh/sixtop.c ****     uint16_t output;
 569:build/openmote-cc2538_armgcc/openstack/02b-MAChigh/sixtop.c **** 
 570:build/openmote-cc2538_armgcc/openstack/02b-MAChigh/sixtop.c ****     output = sixtop_vars.kaPeriod;
 1564              		.loc 1 570 0
 1565 083a 074B     		ldr	r3, .L85
 1566 083c 5B89     		ldrh	r3, [r3, #10]
 1567 083e FB80     		strh	r3, [r7, #6]	@ movhi
 571:build/openmote-cc2538_armgcc/openstack/02b-MAChigh/sixtop.c ****     openserial_printStatus(
 1568              		.loc 1 571 0
 1569 0840 BB1D     		adds	r3, r7, #6
 1570 0842 0A20     		movs	r0, #10
 1571 0844 1946     		mov	r1, r3
 1572 0846 0222     		movs	r2, #2
 1573 0848 FFF7FEFF 		bl	openserial_printStatus
 572:build/openmote-cc2538_armgcc/openstack/02b-MAChigh/sixtop.c ****         STATUS_KAPERIOD,
 573:build/openmote-cc2538_armgcc/openstack/02b-MAChigh/sixtop.c ****         (uint8_t*)&output,
 574:build/openmote-cc2538_armgcc/openstack/02b-MAChigh/sixtop.c ****         sizeof(output)
 575:build/openmote-cc2538_armgcc/openstack/02b-MAChigh/sixtop.c ****     );
 576:build/openmote-cc2538_armgcc/openstack/02b-MAChigh/sixtop.c ****     return TRUE;
 1574              		.loc 1 576 0
 1575 084c 0123     		movs	r3, #1
 577:build/openmote-cc2538_armgcc/openstack/02b-MAChigh/sixtop.c **** }
 1576              		.loc 1 577 0
 1577 084e 1846     		mov	r0, r3
 1578 0850 0837     		adds	r7, r7, #8
 1579              		.cfi_def_cfa_offset 8
 1580 0852 BD46     		mov	sp, r7
 1581              		.cfi_def_cfa_register 13
 1582              		@ sp needed
 1583 0854 80BD     		pop	{r7, pc}
 1584              	.L86:
 1585 0856 00BF     		.align	2
 1586              	.L85:
 1587 0858 00000000 		.word	sixtop_vars
 1588              		.cfi_endproc
 1589              	.LFE9:
 1591              		.align	2
 1592              		.global	sixtop_setIsResponseEnabled
 1593              		.thumb
 1594              		.thumb_func
 1596              	sixtop_setIsResponseEnabled:
 1597              	.LFB10:
 578:build/openmote-cc2538_armgcc/openstack/02b-MAChigh/sixtop.c **** 
 579:build/openmote-cc2538_armgcc/openstack/02b-MAChigh/sixtop.c **** void sixtop_setIsResponseEnabled(bool isEnabled){
 1598              		.loc 1 579 0
 1599              		.cfi_startproc
 1600              		@ args = 0, pretend = 0, frame = 8
 1601              		@ frame_needed = 1, uses_anonymous_args = 0
 1602              		@ link register save eliminated.
 1603 085c 80B4     		push	{r7}
 1604              		.cfi_def_cfa_offset 4
 1605              		.cfi_offset 7, -4
 1606 085e 83B0     		sub	sp, sp, #12
 1607              		.cfi_def_cfa_offset 16
 1608 0860 00AF     		add	r7, sp, #0
 1609              		.cfi_def_cfa_register 7
 1610 0862 0346     		mov	r3, r0
 1611 0864 FB71     		strb	r3, [r7, #7]
 580:build/openmote-cc2538_armgcc/openstack/02b-MAChigh/sixtop.c ****     sixtop_vars.isResponseEnabled = isEnabled;
 1612              		.loc 1 580 0
 1613 0866 044A     		ldr	r2, .L88
 1614 0868 FB79     		ldrb	r3, [r7, #7]
 1615 086a 1374     		strb	r3, [r2, #16]
 581:build/openmote-cc2538_armgcc/openstack/02b-MAChigh/sixtop.c **** }
 1616              		.loc 1 581 0
 1617 086c 0C37     		adds	r7, r7, #12
 1618              		.cfi_def_cfa_offset 4
 1619 086e BD46     		mov	sp, r7
 1620              		.cfi_def_cfa_register 13
 1621              		@ sp needed
 1622 0870 5DF8047B 		ldr	r7, [sp], #4
 1623              		.cfi_restore 7
 1624              		.cfi_def_cfa_offset 0
 1625 0874 7047     		bx	lr
 1626              	.L89:
 1627 0876 00BF     		.align	2
 1628              	.L88:
 1629 0878 00000000 		.word	sixtop_vars
 1630              		.cfi_endproc
 1631              	.LFE10:
 1633              		.align	2
 1634              		.global	sixtop_send_internal
 1635              		.thumb
 1636              		.thumb_func
 1638              	sixtop_send_internal:
 1639              	.LFB11:
 582:build/openmote-cc2538_armgcc/openstack/02b-MAChigh/sixtop.c **** 
 583:build/openmote-cc2538_armgcc/openstack/02b-MAChigh/sixtop.c **** //=========================== private =========================================
 584:build/openmote-cc2538_armgcc/openstack/02b-MAChigh/sixtop.c **** 
 585:build/openmote-cc2538_armgcc/openstack/02b-MAChigh/sixtop.c **** /**
 586:build/openmote-cc2538_armgcc/openstack/02b-MAChigh/sixtop.c **** \brief Transfer packet to MAC.
 587:build/openmote-cc2538_armgcc/openstack/02b-MAChigh/sixtop.c **** 
 588:build/openmote-cc2538_armgcc/openstack/02b-MAChigh/sixtop.c **** This function adds a IEEE802.15.4 header to the packet and leaves it the
 589:build/openmote-cc2538_armgcc/openstack/02b-MAChigh/sixtop.c **** OpenQueue buffer. The very last thing it does is assigning this packet to the
 590:build/openmote-cc2538_armgcc/openstack/02b-MAChigh/sixtop.c **** virtual component COMPONENT_SIXTOP_TO_IEEE802154E. Whenever it gets a change,
 591:build/openmote-cc2538_armgcc/openstack/02b-MAChigh/sixtop.c **** IEEE802154E will handle the packet.
 592:build/openmote-cc2538_armgcc/openstack/02b-MAChigh/sixtop.c **** 
 593:build/openmote-cc2538_armgcc/openstack/02b-MAChigh/sixtop.c **** \param[in] msg The packet to the transmitted
 594:build/openmote-cc2538_armgcc/openstack/02b-MAChigh/sixtop.c **** \param[in] payloadIEPresent Indicates wheter an Information Element is present in the
 595:build/openmote-cc2538_armgcc/openstack/02b-MAChigh/sixtop.c ****    packet.
 596:build/openmote-cc2538_armgcc/openstack/02b-MAChigh/sixtop.c **** 
 597:build/openmote-cc2538_armgcc/openstack/02b-MAChigh/sixtop.c **** \returns E_SUCCESS iff successful.
 598:build/openmote-cc2538_armgcc/openstack/02b-MAChigh/sixtop.c **** */
 599:build/openmote-cc2538_armgcc/openstack/02b-MAChigh/sixtop.c **** owerror_t sixtop_send_internal(
 600:build/openmote-cc2538_armgcc/openstack/02b-MAChigh/sixtop.c ****     OpenQueueEntry_t* msg,
 601:build/openmote-cc2538_armgcc/openstack/02b-MAChigh/sixtop.c ****     bool    payloadIEPresent) {
 1640              		.loc 1 601 0
 1641              		.cfi_startproc
 1642              		@ args = 0, pretend = 0, frame = 8
 1643              		@ frame_needed = 1, uses_anonymous_args = 0
 1644 087c 90B5     		push	{r4, r7, lr}
 1645              		.cfi_def_cfa_offset 12
 1646              		.cfi_offset 4, -12
 1647              		.cfi_offset 7, -8
 1648              		.cfi_offset 14, -4
 1649 087e 85B0     		sub	sp, sp, #20
 1650              		.cfi_def_cfa_offset 32
 1651 0880 02AF     		add	r7, sp, #8
 1652              		.cfi_def_cfa 7, 24
 1653 0882 7860     		str	r0, [r7, #4]
 1654 0884 0B46     		mov	r3, r1
 1655 0886 FB70     		strb	r3, [r7, #3]
 602:build/openmote-cc2538_armgcc/openstack/02b-MAChigh/sixtop.c **** 
 603:build/openmote-cc2538_armgcc/openstack/02b-MAChigh/sixtop.c ****     // assign a number of retries
 604:build/openmote-cc2538_armgcc/openstack/02b-MAChigh/sixtop.c ****     if (
 605:build/openmote-cc2538_armgcc/openstack/02b-MAChigh/sixtop.c ****         packetfunctions_isBroadcastMulticast(&(msg->l2_nextORpreviousHop))==TRUE
 1656              		.loc 1 605 0
 1657 0888 7B68     		ldr	r3, [r7, #4]
 1658 088a 3C33     		adds	r3, r3, #60
 1659 088c 1846     		mov	r0, r3
 1660 088e FFF7FEFF 		bl	packetfunctions_isBroadcastMulticast
 1661 0892 0346     		mov	r3, r0
 604:build/openmote-cc2538_armgcc/openstack/02b-MAChigh/sixtop.c ****         packetfunctions_isBroadcastMulticast(&(msg->l2_nextORpreviousHop))==TRUE
 1662              		.loc 1 604 0
 1663 0894 002B     		cmp	r3, #0
 1664 0896 04D0     		beq	.L91
 606:build/openmote-cc2538_armgcc/openstack/02b-MAChigh/sixtop.c ****     ) {
 607:build/openmote-cc2538_armgcc/openstack/02b-MAChigh/sixtop.c ****         msg->l2_retriesLeft = 1;
 1665              		.loc 1 607 0
 1666 0898 7B68     		ldr	r3, [r7, #4]
 1667 089a 0122     		movs	r2, #1
 1668 089c 83F84F20 		strb	r2, [r3, #79]
 1669 08a0 03E0     		b	.L92
 1670              	.L91:
 608:build/openmote-cc2538_armgcc/openstack/02b-MAChigh/sixtop.c ****     } else {
 609:build/openmote-cc2538_armgcc/openstack/02b-MAChigh/sixtop.c ****         msg->l2_retriesLeft = TXRETRIES + 1;
 1671              		.loc 1 609 0
 1672 08a2 7B68     		ldr	r3, [r7, #4]
 1673 08a4 0422     		movs	r2, #4
 1674 08a6 83F84F20 		strb	r2, [r3, #79]
 1675              	.L92:
 610:build/openmote-cc2538_armgcc/openstack/02b-MAChigh/sixtop.c ****     }
 611:build/openmote-cc2538_armgcc/openstack/02b-MAChigh/sixtop.c ****     // record this packet's dsn (for matching the ACK)
 612:build/openmote-cc2538_armgcc/openstack/02b-MAChigh/sixtop.c ****     msg->l2_dsn = sixtop_vars.dsn++;
 1676              		.loc 1 612 0
 1677 08aa 134B     		ldr	r3, .L94
 1678 08ac 1B79     		ldrb	r3, [r3, #4]	@ zero_extendqisi2
 1679 08ae 5A1C     		adds	r2, r3, #1
 1680 08b0 D1B2     		uxtb	r1, r2
 1681 08b2 114A     		ldr	r2, .L94
 1682 08b4 1171     		strb	r1, [r2, #4]
 1683 08b6 7A68     		ldr	r2, [r7, #4]
 1684 08b8 82F84E30 		strb	r3, [r2, #78]
 613:build/openmote-cc2538_armgcc/openstack/02b-MAChigh/sixtop.c ****     // this is a new packet which I never attempted to send
 614:build/openmote-cc2538_armgcc/openstack/02b-MAChigh/sixtop.c ****     msg->l2_numTxAttempts = 0;
 1685              		.loc 1 614 0
 1686 08bc 7B68     		ldr	r3, [r7, #4]
 1687 08be 0022     		movs	r2, #0
 1688 08c0 83F85020 		strb	r2, [r3, #80]
 615:build/openmote-cc2538_armgcc/openstack/02b-MAChigh/sixtop.c ****     // transmit with the default TX power
 616:build/openmote-cc2538_armgcc/openstack/02b-MAChigh/sixtop.c ****     msg->l1_txPower = TX_POWER;
 1689              		.loc 1 616 0
 1690 08c4 7B68     		ldr	r3, [r7, #4]
 1691 08c6 1F22     		movs	r2, #31
 1692 08c8 83F8BC20 		strb	r2, [r3, #188]
 617:build/openmote-cc2538_armgcc/openstack/02b-MAChigh/sixtop.c ****     // add a IEEE802.15.4 header
 618:build/openmote-cc2538_armgcc/openstack/02b-MAChigh/sixtop.c ****     ieee802154_prependHeader(
 1693              		.loc 1 618 0
 1694 08cc 7B68     		ldr	r3, [r7, #4]
 1695 08ce 93F84D10 		ldrb	r1, [r3, #77]	@ zero_extendqisi2
 1696 08d2 7B68     		ldr	r3, [r7, #4]
 1697 08d4 93F84E40 		ldrb	r4, [r3, #78]	@ zero_extendqisi2
 1698 08d8 7B68     		ldr	r3, [r7, #4]
 1699 08da 3C33     		adds	r3, r3, #60
 1700 08dc FA78     		ldrb	r2, [r7, #3]	@ zero_extendqisi2
 1701 08de 0093     		str	r3, [sp]
 1702 08e0 7868     		ldr	r0, [r7, #4]
 1703 08e2 2346     		mov	r3, r4
 1704 08e4 FFF7FEFF 		bl	ieee802154_prependHeader
 619:build/openmote-cc2538_armgcc/openstack/02b-MAChigh/sixtop.c ****         msg,
 620:build/openmote-cc2538_armgcc/openstack/02b-MAChigh/sixtop.c ****         msg->l2_frameType,
 621:build/openmote-cc2538_armgcc/openstack/02b-MAChigh/sixtop.c ****         payloadIEPresent,
 622:build/openmote-cc2538_armgcc/openstack/02b-MAChigh/sixtop.c ****         msg->l2_dsn,
 623:build/openmote-cc2538_armgcc/openstack/02b-MAChigh/sixtop.c ****         &(msg->l2_nextORpreviousHop)
 624:build/openmote-cc2538_armgcc/openstack/02b-MAChigh/sixtop.c ****     );
 625:build/openmote-cc2538_armgcc/openstack/02b-MAChigh/sixtop.c ****     // change owner to IEEE802154E fetches it from queue
 626:build/openmote-cc2538_armgcc/openstack/02b-MAChigh/sixtop.c ****     msg->owner  = COMPONENT_SIXTOP_TO_IEEE802154E;
 1705              		.loc 1 626 0
 1706 08e8 7B68     		ldr	r3, [r7, #4]
 1707 08ea 0A22     		movs	r2, #10
 1708 08ec 5A70     		strb	r2, [r3, #1]
 627:build/openmote-cc2538_armgcc/openstack/02b-MAChigh/sixtop.c ****     return E_SUCCESS;
 1709              		.loc 1 627 0
 1710 08ee 0023     		movs	r3, #0
 628:build/openmote-cc2538_armgcc/openstack/02b-MAChigh/sixtop.c **** }
 1711              		.loc 1 628 0
 1712 08f0 1846     		mov	r0, r3
 1713 08f2 0C37     		adds	r7, r7, #12
 1714              		.cfi_def_cfa_offset 12
 1715 08f4 BD46     		mov	sp, r7
 1716              		.cfi_def_cfa_register 13
 1717              		@ sp needed
 1718 08f6 90BD     		pop	{r4, r7, pc}
 1719              	.L95:
 1720              		.align	2
 1721              	.L94:
 1722 08f8 00000000 		.word	sixtop_vars
 1723              		.cfi_endproc
 1724              	.LFE11:
 1726              		.align	2
 1727              		.global	sixtop_sendingEb_timer_cb
 1728              		.thumb
 1729              		.thumb_func
 1731              	sixtop_sendingEb_timer_cb:
 1732              	.LFB12:
 629:build/openmote-cc2538_armgcc/openstack/02b-MAChigh/sixtop.c **** 
 630:build/openmote-cc2538_armgcc/openstack/02b-MAChigh/sixtop.c **** // timer interrupt callbacks
 631:build/openmote-cc2538_armgcc/openstack/02b-MAChigh/sixtop.c **** void sixtop_sendingEb_timer_cb(opentimers_id_t id){
 1733              		.loc 1 631 0
 1734              		.cfi_startproc
 1735              		@ args = 0, pretend = 0, frame = 8
 1736              		@ frame_needed = 1, uses_anonymous_args = 0
 1737 08fc 80B5     		push	{r7, lr}
 1738              		.cfi_def_cfa_offset 8
 1739              		.cfi_offset 7, -8
 1740              		.cfi_offset 14, -4
 1741 08fe 82B0     		sub	sp, sp, #8
 1742              		.cfi_def_cfa_offset 16
 1743 0900 00AF     		add	r7, sp, #0
 1744              		.cfi_def_cfa_register 7
 1745 0902 0346     		mov	r3, r0
 1746 0904 FB71     		strb	r3, [r7, #7]
 632:build/openmote-cc2538_armgcc/openstack/02b-MAChigh/sixtop.c ****     scheduler_push_task(timer_sixtop_sendEb_fired,TASKPRIO_SIXTOP);
 1747              		.loc 1 632 0
 1748 0906 0348     		ldr	r0, .L97
 1749 0908 0321     		movs	r1, #3
 1750 090a FFF7FEFF 		bl	scheduler_push_task
 633:build/openmote-cc2538_armgcc/openstack/02b-MAChigh/sixtop.c **** }
 1751              		.loc 1 633 0
 1752 090e 0837     		adds	r7, r7, #8
 1753              		.cfi_def_cfa_offset 8
 1754 0910 BD46     		mov	sp, r7
 1755              		.cfi_def_cfa_register 13
 1756              		@ sp needed
 1757 0912 80BD     		pop	{r7, pc}
 1758              	.L98:
 1759              		.align	2
 1760              	.L97:
 1761 0914 00000000 		.word	timer_sixtop_sendEb_fired
 1762              		.cfi_endproc
 1763              	.LFE12:
 1765              		.align	2
 1766              		.global	sixtop_maintenance_timer_cb
 1767              		.thumb
 1768              		.thumb_func
 1770              	sixtop_maintenance_timer_cb:
 1771              	.LFB13:
 634:build/openmote-cc2538_armgcc/openstack/02b-MAChigh/sixtop.c **** 
 635:build/openmote-cc2538_armgcc/openstack/02b-MAChigh/sixtop.c **** void sixtop_maintenance_timer_cb(opentimers_id_t id) {
 1772              		.loc 1 635 0
 1773              		.cfi_startproc
 1774              		@ args = 0, pretend = 0, frame = 8
 1775              		@ frame_needed = 1, uses_anonymous_args = 0
 1776 0918 80B5     		push	{r7, lr}
 1777              		.cfi_def_cfa_offset 8
 1778              		.cfi_offset 7, -8
 1779              		.cfi_offset 14, -4
 1780 091a 82B0     		sub	sp, sp, #8
 1781              		.cfi_def_cfa_offset 16
 1782 091c 00AF     		add	r7, sp, #0
 1783              		.cfi_def_cfa_register 7
 1784 091e 0346     		mov	r3, r0
 1785 0920 FB71     		strb	r3, [r7, #7]
 636:build/openmote-cc2538_armgcc/openstack/02b-MAChigh/sixtop.c ****     scheduler_push_task(timer_sixtop_management_fired,TASKPRIO_SIXTOP);
 1786              		.loc 1 636 0
 1787 0922 0348     		ldr	r0, .L100
 1788 0924 0321     		movs	r1, #3
 1789 0926 FFF7FEFF 		bl	scheduler_push_task
 637:build/openmote-cc2538_armgcc/openstack/02b-MAChigh/sixtop.c **** }
 1790              		.loc 1 637 0
 1791 092a 0837     		adds	r7, r7, #8
 1792              		.cfi_def_cfa_offset 8
 1793 092c BD46     		mov	sp, r7
 1794              		.cfi_def_cfa_register 13
 1795              		@ sp needed
 1796 092e 80BD     		pop	{r7, pc}
 1797              	.L101:
 1798              		.align	2
 1799              	.L100:
 1800 0930 00000000 		.word	timer_sixtop_management_fired
 1801              		.cfi_endproc
 1802              	.LFE13:
 1804              		.align	2
 1805              		.global	sixtop_timeout_timer_cb
 1806              		.thumb
 1807              		.thumb_func
 1809              	sixtop_timeout_timer_cb:
 1810              	.LFB14:
 638:build/openmote-cc2538_armgcc/openstack/02b-MAChigh/sixtop.c **** 
 639:build/openmote-cc2538_armgcc/openstack/02b-MAChigh/sixtop.c **** void sixtop_timeout_timer_cb(opentimers_id_t id) {
 1811              		.loc 1 639 0
 1812              		.cfi_startproc
 1813              		@ args = 0, pretend = 0, frame = 8
 1814              		@ frame_needed = 1, uses_anonymous_args = 0
 1815 0934 80B5     		push	{r7, lr}
 1816              		.cfi_def_cfa_offset 8
 1817              		.cfi_offset 7, -8
 1818              		.cfi_offset 14, -4
 1819 0936 82B0     		sub	sp, sp, #8
 1820              		.cfi_def_cfa_offset 16
 1821 0938 00AF     		add	r7, sp, #0
 1822              		.cfi_def_cfa_register 7
 1823 093a 0346     		mov	r3, r0
 1824 093c FB71     		strb	r3, [r7, #7]
 640:build/openmote-cc2538_armgcc/openstack/02b-MAChigh/sixtop.c ****     scheduler_push_task(timer_sixtop_six2six_timeout_fired,TASKPRIO_SIXTOP_TIMEOUT);
 1825              		.loc 1 640 0
 1826 093e 0348     		ldr	r0, .L103
 1827 0940 0A21     		movs	r1, #10
 1828 0942 FFF7FEFF 		bl	scheduler_push_task
 641:build/openmote-cc2538_armgcc/openstack/02b-MAChigh/sixtop.c **** }
 1829              		.loc 1 641 0
 1830 0946 0837     		adds	r7, r7, #8
 1831              		.cfi_def_cfa_offset 8
 1832 0948 BD46     		mov	sp, r7
 1833              		.cfi_def_cfa_register 13
 1834              		@ sp needed
 1835 094a 80BD     		pop	{r7, pc}
 1836              	.L104:
 1837              		.align	2
 1838              	.L103:
 1839 094c 00000000 		.word	timer_sixtop_six2six_timeout_fired
 1840              		.cfi_endproc
 1841              	.LFE14:
 1843              		.align	2
 1844              		.global	timer_sixtop_sendEb_fired
 1845              		.thumb
 1846              		.thumb_func
 1848              	timer_sixtop_sendEb_fired:
 1849              	.LFB15:
 642:build/openmote-cc2538_armgcc/openstack/02b-MAChigh/sixtop.c **** 
 643:build/openmote-cc2538_armgcc/openstack/02b-MAChigh/sixtop.c **** //======= EB/KA task
 644:build/openmote-cc2538_armgcc/openstack/02b-MAChigh/sixtop.c **** 
 645:build/openmote-cc2538_armgcc/openstack/02b-MAChigh/sixtop.c **** void timer_sixtop_sendEb_fired(void) {
 1850              		.loc 1 645 0
 1851              		.cfi_startproc
 1852              		@ args = 0, pretend = 0, frame = 0
 1853              		@ frame_needed = 1, uses_anonymous_args = 0
 1854 0950 98B5     		push	{r3, r4, r7, lr}
 1855              		.cfi_def_cfa_offset 16
 1856              		.cfi_offset 3, -16
 1857              		.cfi_offset 4, -12
 1858              		.cfi_offset 7, -8
 1859              		.cfi_offset 14, -4
 1860 0952 00AF     		add	r7, sp, #0
 1861              		.cfi_def_cfa_register 7
 646:build/openmote-cc2538_armgcc/openstack/02b-MAChigh/sixtop.c ****     // send EBs on a portion of the minimal cells not exceeding 1/(3(N+1))
 647:build/openmote-cc2538_armgcc/openstack/02b-MAChigh/sixtop.c ****     // https://tools.ietf.org/html/draft-chang-6tisch-msf-01#section-2
 648:build/openmote-cc2538_armgcc/openstack/02b-MAChigh/sixtop.c ****     if(openrandom_get16b()<0xffff/(3*(neighbors_getNumNeighbors()+1))){
 1862              		.loc 1 648 0
 1863 0954 FFF7FEFF 		bl	openrandom_get16b
 1864 0958 0346     		mov	r3, r0
 1865 095a 1C46     		mov	r4, r3
 1866 095c FFF7FEFF 		bl	neighbors_getNumNeighbors
 1867 0960 0346     		mov	r3, r0
 1868 0962 5A1C     		adds	r2, r3, #1
 1869 0964 1346     		mov	r3, r2
 1870 0966 5B00     		lsls	r3, r3, #1
 1871 0968 1344     		add	r3, r3, r2
 1872 096a 4FF6FF72 		movw	r2, #65535
 1873 096e 92FBF3F3 		sdiv	r3, r2, r3
 1874 0972 9C42     		cmp	r4, r3
 1875 0974 01DA     		bge	.L105
 649:build/openmote-cc2538_armgcc/openstack/02b-MAChigh/sixtop.c ****         sixtop_sendEB();
 1876              		.loc 1 649 0
 1877 0976 FFF7FEFF 		bl	sixtop_sendEB
 1878              	.L105:
 650:build/openmote-cc2538_armgcc/openstack/02b-MAChigh/sixtop.c ****     }
 651:build/openmote-cc2538_armgcc/openstack/02b-MAChigh/sixtop.c **** }
 1879              		.loc 1 651 0
 1880 097a 98BD     		pop	{r3, r4, r7, pc}
 1881              		.cfi_endproc
 1882              	.LFE15:
 1884              		.align	2
 1885              		.global	timer_sixtop_management_fired
 1886              		.thumb
 1887              		.thumb_func
 1889              	timer_sixtop_management_fired:
 1890              	.LFB16:
 652:build/openmote-cc2538_armgcc/openstack/02b-MAChigh/sixtop.c **** 
 653:build/openmote-cc2538_armgcc/openstack/02b-MAChigh/sixtop.c **** /**
 654:build/openmote-cc2538_armgcc/openstack/02b-MAChigh/sixtop.c **** \brief Timer handlers which triggers MAC management task.
 655:build/openmote-cc2538_armgcc/openstack/02b-MAChigh/sixtop.c **** 
 656:build/openmote-cc2538_armgcc/openstack/02b-MAChigh/sixtop.c **** This function is called in task context by the scheduler after the RES timer
 657:build/openmote-cc2538_armgcc/openstack/02b-MAChigh/sixtop.c **** has fired. This timer is set to fire every second, on average.
 658:build/openmote-cc2538_armgcc/openstack/02b-MAChigh/sixtop.c **** 
 659:build/openmote-cc2538_armgcc/openstack/02b-MAChigh/sixtop.c **** The body of this function executes one of the MAC management task.
 660:build/openmote-cc2538_armgcc/openstack/02b-MAChigh/sixtop.c **** */
 661:build/openmote-cc2538_armgcc/openstack/02b-MAChigh/sixtop.c **** void timer_sixtop_management_fired(void) {
 1891              		.loc 1 661 0
 1892              		.cfi_startproc
 1893              		@ args = 0, pretend = 0, frame = 0
 1894              		@ frame_needed = 1, uses_anonymous_args = 0
 1895 097c 80B5     		push	{r7, lr}
 1896              		.cfi_def_cfa_offset 8
 1897              		.cfi_offset 7, -8
 1898              		.cfi_offset 14, -4
 1899 097e 00AF     		add	r7, sp, #0
 1900              		.cfi_def_cfa_register 7
 662:build/openmote-cc2538_armgcc/openstack/02b-MAChigh/sixtop.c **** 
 663:build/openmote-cc2538_armgcc/openstack/02b-MAChigh/sixtop.c ****     sixtop_vars.mgtTaskCounter = (sixtop_vars.mgtTaskCounter+1)%MAINTENANCE_PERIOD;
 1901              		.loc 1 663 0
 1902 0980 0E4B     		ldr	r3, .L112
 1903 0982 5B79     		ldrb	r3, [r3, #5]	@ zero_extendqisi2
 1904 0984 5A1C     		adds	r2, r3, #1
 1905 0986 0E4B     		ldr	r3, .L112+4
 1906 0988 82FB0301 		smull	r0, r1, r2, r3
 1907 098c 5318     		adds	r3, r2, r1
 1908 098e 1911     		asrs	r1, r3, #4
 1909 0990 D317     		asrs	r3, r2, #31
 1910 0992 C91A     		subs	r1, r1, r3
 1911 0994 0B46     		mov	r3, r1
 1912 0996 1B01     		lsls	r3, r3, #4
 1913 0998 5B1A     		subs	r3, r3, r1
 1914 099a 5B00     		lsls	r3, r3, #1
 1915 099c D11A     		subs	r1, r2, r3
 1916 099e CAB2     		uxtb	r2, r1
 1917 09a0 064B     		ldr	r3, .L112
 1918 09a2 5A71     		strb	r2, [r3, #5]
 664:build/openmote-cc2538_armgcc/openstack/02b-MAChigh/sixtop.c **** 
 665:build/openmote-cc2538_armgcc/openstack/02b-MAChigh/sixtop.c ****     switch (sixtop_vars.mgtTaskCounter) {
 1919              		.loc 1 665 0
 1920 09a4 054B     		ldr	r3, .L112
 1921 09a6 5B79     		ldrb	r3, [r3, #5]	@ zero_extendqisi2
 1922 09a8 002B     		cmp	r3, #0
 1923 09aa 02D1     		bne	.L111
 666:build/openmote-cc2538_armgcc/openstack/02b-MAChigh/sixtop.c ****         case 0:
 667:build/openmote-cc2538_armgcc/openstack/02b-MAChigh/sixtop.c ****             // called every MAINTENANCE_PERIOD seconds
 668:build/openmote-cc2538_armgcc/openstack/02b-MAChigh/sixtop.c ****             neighbors_removeOld();
 1924              		.loc 1 668 0
 1925 09ac FFF7FEFF 		bl	neighbors_removeOld
 669:build/openmote-cc2538_armgcc/openstack/02b-MAChigh/sixtop.c ****             break;
 1926              		.loc 1 669 0
 1927 09b0 02E0     		b	.L107
 1928              	.L111:
 670:build/openmote-cc2538_armgcc/openstack/02b-MAChigh/sixtop.c ****         default:
 671:build/openmote-cc2538_armgcc/openstack/02b-MAChigh/sixtop.c ****             // called every second, except once every MAINTENANCE_PERIOD seconds
 672:build/openmote-cc2538_armgcc/openstack/02b-MAChigh/sixtop.c ****             sixtop_sendKA();
 1929              		.loc 1 672 0
 1930 09b2 FFF7FEFF 		bl	sixtop_sendKA
 673:build/openmote-cc2538_armgcc/openstack/02b-MAChigh/sixtop.c ****             break;
 1931              		.loc 1 673 0
 1932 09b6 00BF     		nop
 1933              	.L107:
 674:build/openmote-cc2538_armgcc/openstack/02b-MAChigh/sixtop.c ****     }
 675:build/openmote-cc2538_armgcc/openstack/02b-MAChigh/sixtop.c **** }
 1934              		.loc 1 675 0
 1935 09b8 80BD     		pop	{r7, pc}
 1936              	.L113:
 1937 09ba 00BF     		.align	2
 1938              	.L112:
 1939 09bc 00000000 		.word	sixtop_vars
 1940 09c0 89888888 		.word	-2004318071
 1941              		.cfi_endproc
 1942              	.LFE16:
 1944              		.align	2
 1945              		.global	sixtop_sendEB
 1946              		.thumb
 1947              		.thumb_func
 1949              	sixtop_sendEB:
 1950              	.LFB17:
 676:build/openmote-cc2538_armgcc/openstack/02b-MAChigh/sixtop.c **** 
 677:build/openmote-cc2538_armgcc/openstack/02b-MAChigh/sixtop.c **** /**
 678:build/openmote-cc2538_armgcc/openstack/02b-MAChigh/sixtop.c **** \brief Send an EB.
 679:build/openmote-cc2538_armgcc/openstack/02b-MAChigh/sixtop.c **** 
 680:build/openmote-cc2538_armgcc/openstack/02b-MAChigh/sixtop.c **** This is one of the MAC management tasks. This function inlines in the
 681:build/openmote-cc2538_armgcc/openstack/02b-MAChigh/sixtop.c **** timers_res_fired() function, but is declared as a separate function for better
 682:build/openmote-cc2538_armgcc/openstack/02b-MAChigh/sixtop.c **** readability of the code.
 683:build/openmote-cc2538_armgcc/openstack/02b-MAChigh/sixtop.c **** */
 684:build/openmote-cc2538_armgcc/openstack/02b-MAChigh/sixtop.c **** port_INLINE void sixtop_sendEB(void) {
 1951              		.loc 1 684 0
 1952              		.cfi_startproc
 1953              		@ args = 0, pretend = 0, frame = 32
 1954              		@ frame_needed = 1, uses_anonymous_args = 0
 1955 09c4 90B5     		push	{r4, r7, lr}
 1956              		.cfi_def_cfa_offset 12
 1957              		.cfi_offset 4, -12
 1958              		.cfi_offset 7, -8
 1959              		.cfi_offset 14, -4
 1960 09c6 89B0     		sub	sp, sp, #36
 1961              		.cfi_def_cfa_offset 48
 1962 09c8 00AF     		add	r7, sp, #0
 1963              		.cfi_def_cfa_register 7
 685:build/openmote-cc2538_armgcc/openstack/02b-MAChigh/sixtop.c ****     OpenQueueEntry_t* eb;
 686:build/openmote-cc2538_armgcc/openstack/02b-MAChigh/sixtop.c ****     uint8_t     i;
 687:build/openmote-cc2538_armgcc/openstack/02b-MAChigh/sixtop.c ****     uint8_t     eb_len;
 688:build/openmote-cc2538_armgcc/openstack/02b-MAChigh/sixtop.c ****     uint16_t    temp16b;
 689:build/openmote-cc2538_armgcc/openstack/02b-MAChigh/sixtop.c ****     open_addr_t addressToWrite;
 690:build/openmote-cc2538_armgcc/openstack/02b-MAChigh/sixtop.c **** 
 691:build/openmote-cc2538_armgcc/openstack/02b-MAChigh/sixtop.c ****     memset(&addressToWrite,0,sizeof(open_addr_t));
 1964              		.loc 1 691 0
 1965 09ca 3B46     		mov	r3, r7
 1966 09cc 1846     		mov	r0, r3
 1967 09ce 0021     		movs	r1, #0
 1968 09d0 1122     		movs	r2, #17
 1969 09d2 FFF7FEFF 		bl	memset
 692:build/openmote-cc2538_armgcc/openstack/02b-MAChigh/sixtop.c ****     if (
 693:build/openmote-cc2538_armgcc/openstack/02b-MAChigh/sixtop.c ****         (ieee154e_isSynch()==FALSE)                     ||
 1970              		.loc 1 693 0
 1971 09d6 FFF7FEFF 		bl	ieee154e_isSynch
 1972 09da 0346     		mov	r3, r0
 1973 09dc 83F00103 		eor	r3, r3, #1
 1974 09e0 DBB2     		uxtb	r3, r3
 692:build/openmote-cc2538_armgcc/openstack/02b-MAChigh/sixtop.c ****     if (
 1975              		.loc 1 692 0
 1976 09e2 002B     		cmp	r3, #0
 1977 09e4 17D1     		bne	.L115
 694:build/openmote-cc2538_armgcc/openstack/02b-MAChigh/sixtop.c ****         (IEEE802154_security_isConfigured()==FALSE)     ||
 1978              		.loc 1 694 0
 1979 09e6 FFF7FEFF 		bl	IEEE802154_security_isConfigured
 1980 09ea 0346     		mov	r3, r0
 1981 09ec 83F00103 		eor	r3, r3, #1
 1982 09f0 DBB2     		uxtb	r3, r3
 693:build/openmote-cc2538_armgcc/openstack/02b-MAChigh/sixtop.c ****         (IEEE802154_security_isConfigured()==FALSE)     ||
 1983              		.loc 1 693 0
 1984 09f2 002B     		cmp	r3, #0
 1985 09f4 0FD1     		bne	.L115
 695:build/openmote-cc2538_armgcc/openstack/02b-MAChigh/sixtop.c ****         (icmpv6rpl_getMyDAGrank()==DEFAULTDAGRANK)      ||
 1986              		.loc 1 695 0
 1987 09f6 FFF7FEFF 		bl	icmpv6rpl_getMyDAGrank
 1988 09fa 0346     		mov	r3, r0
 1989 09fc 1A46     		mov	r2, r3
 694:build/openmote-cc2538_armgcc/openstack/02b-MAChigh/sixtop.c ****         (IEEE802154_security_isConfigured()==FALSE)     ||
 1990              		.loc 1 694 0
 1991 09fe 4FF6FF73 		movw	r3, #65535
 1992 0a02 9A42     		cmp	r2, r3
 1993 0a04 07D0     		beq	.L115
 696:build/openmote-cc2538_armgcc/openstack/02b-MAChigh/sixtop.c ****         icmpv6rpl_daoSent()==FALSE
 1994              		.loc 1 696 0
 1995 0a06 FFF7FEFF 		bl	icmpv6rpl_daoSent
 1996 0a0a 0346     		mov	r3, r0
 1997 0a0c 83F00103 		eor	r3, r3, #1
 1998 0a10 DBB2     		uxtb	r3, r3
 695:build/openmote-cc2538_armgcc/openstack/02b-MAChigh/sixtop.c ****         (icmpv6rpl_getMyDAGrank()==DEFAULTDAGRANK)      ||
 1999              		.loc 1 695 0
 2000 0a12 002B     		cmp	r3, #0
 2001 0a14 09D0     		beq	.L116
 2002              	.L115:
 697:build/openmote-cc2538_armgcc/openstack/02b-MAChigh/sixtop.c ****     ) {
 698:build/openmote-cc2538_armgcc/openstack/02b-MAChigh/sixtop.c ****         // I'm not sync'ed, or did not join, or did not acquire a DAGrank or did not send out a DAO
 699:build/openmote-cc2538_armgcc/openstack/02b-MAChigh/sixtop.c ****         // before starting to advertize the network, we need to make sure that we are reachable dow
 700:build/openmote-cc2538_armgcc/openstack/02b-MAChigh/sixtop.c ****         // thus, the condition if DAO was sent
 701:build/openmote-cc2538_armgcc/openstack/02b-MAChigh/sixtop.c **** 
 702:build/openmote-cc2538_armgcc/openstack/02b-MAChigh/sixtop.c ****         // delete packets genereted by this module (EB and KA) from openqueue
 703:build/openmote-cc2538_armgcc/openstack/02b-MAChigh/sixtop.c ****         openqueue_removeAllCreatedBy(COMPONENT_SIXTOP);
 2003              		.loc 1 703 0
 2004 0a16 0C20     		movs	r0, #12
 2005 0a18 FFF7FEFF 		bl	openqueue_removeAllCreatedBy
 704:build/openmote-cc2538_armgcc/openstack/02b-MAChigh/sixtop.c **** 
 705:build/openmote-cc2538_armgcc/openstack/02b-MAChigh/sixtop.c ****         // I'm not busy sending an EB or KA
 706:build/openmote-cc2538_armgcc/openstack/02b-MAChigh/sixtop.c ****         sixtop_vars.busySendingEB = FALSE;
 2006              		.loc 1 706 0
 2007 0a1c 794B     		ldr	r3, .L129
 2008 0a1e 0022     		movs	r2, #0
 2009 0a20 DA70     		strb	r2, [r3, #3]
 707:build/openmote-cc2538_armgcc/openstack/02b-MAChigh/sixtop.c ****         sixtop_vars.busySendingKA = FALSE;
 2010              		.loc 1 707 0
 2011 0a22 784B     		ldr	r3, .L129
 2012 0a24 0022     		movs	r2, #0
 2013 0a26 9A70     		strb	r2, [r3, #2]
 708:build/openmote-cc2538_armgcc/openstack/02b-MAChigh/sixtop.c **** 
 709:build/openmote-cc2538_armgcc/openstack/02b-MAChigh/sixtop.c ****         // stop here
 710:build/openmote-cc2538_armgcc/openstack/02b-MAChigh/sixtop.c ****         return;
 2014              		.loc 1 710 0
 2015 0a28 E8E0     		b	.L114
 2016              	.L116:
 711:build/openmote-cc2538_armgcc/openstack/02b-MAChigh/sixtop.c ****     }
 712:build/openmote-cc2538_armgcc/openstack/02b-MAChigh/sixtop.c **** 
 713:build/openmote-cc2538_armgcc/openstack/02b-MAChigh/sixtop.c ****     if (
 714:build/openmote-cc2538_armgcc/openstack/02b-MAChigh/sixtop.c ****         idmanager_getIsDAGroot() == FALSE &&
 2017              		.loc 1 714 0
 2018 0a2a FFF7FEFF 		bl	idmanager_getIsDAGroot
 2019 0a2e 0346     		mov	r3, r0
 2020 0a30 83F00103 		eor	r3, r3, #1
 2021 0a34 DBB2     		uxtb	r3, r3
 713:build/openmote-cc2538_armgcc/openstack/02b-MAChigh/sixtop.c ****         idmanager_getIsDAGroot() == FALSE &&
 2022              		.loc 1 713 0
 2023 0a36 002B     		cmp	r3, #0
 2024 0a38 24D0     		beq	.L118
 715:build/openmote-cc2538_armgcc/openstack/02b-MAChigh/sixtop.c ****         (
 716:build/openmote-cc2538_armgcc/openstack/02b-MAChigh/sixtop.c ****             icmpv6rpl_getPreferredParentEui64(&addressToWrite) == FALSE ||
 2025              		.loc 1 716 0
 2026 0a3a 3B46     		mov	r3, r7
 2027 0a3c 1846     		mov	r0, r3
 2028 0a3e FFF7FEFF 		bl	icmpv6rpl_getPreferredParentEui64
 2029 0a42 0346     		mov	r3, r0
 2030 0a44 83F00103 		eor	r3, r3, #1
 2031 0a48 DBB2     		uxtb	r3, r3
 714:build/openmote-cc2538_armgcc/openstack/02b-MAChigh/sixtop.c ****         (
 2032              		.loc 1 714 0
 2033 0a4a 002B     		cmp	r3, #0
 2034 0a4c 10D1     		bne	.L119
 717:build/openmote-cc2538_armgcc/openstack/02b-MAChigh/sixtop.c ****             (
 718:build/openmote-cc2538_armgcc/openstack/02b-MAChigh/sixtop.c ****                 icmpv6rpl_getPreferredParentEui64(&addressToWrite) &&
 2035              		.loc 1 718 0
 2036 0a4e 3B46     		mov	r3, r7
 2037 0a50 1846     		mov	r0, r3
 2038 0a52 FFF7FEFF 		bl	icmpv6rpl_getPreferredParentEui64
 2039 0a56 0346     		mov	r3, r0
 716:build/openmote-cc2538_armgcc/openstack/02b-MAChigh/sixtop.c ****             (
 2040              		.loc 1 716 0
 2041 0a58 002B     		cmp	r3, #0
 2042 0a5a 13D0     		beq	.L118
 719:build/openmote-cc2538_armgcc/openstack/02b-MAChigh/sixtop.c ****                 schedule_hasDedicatedCellToNeighbor(&addressToWrite) == FALSE
 2043              		.loc 1 719 0
 2044 0a5c 3B46     		mov	r3, r7
 2045 0a5e 1846     		mov	r0, r3
 2046 0a60 FFF7FEFF 		bl	schedule_hasDedicatedCellToNeighbor
 2047 0a64 0346     		mov	r3, r0
 2048 0a66 83F00103 		eor	r3, r3, #1
 2049 0a6a DBB2     		uxtb	r3, r3
 718:build/openmote-cc2538_armgcc/openstack/02b-MAChigh/sixtop.c ****                 schedule_hasDedicatedCellToNeighbor(&addressToWrite) == FALSE
 2050              		.loc 1 718 0
 2051 0a6c 002B     		cmp	r3, #0
 2052 0a6e 09D0     		beq	.L118
 2053              	.L119:
 720:build/openmote-cc2538_armgcc/openstack/02b-MAChigh/sixtop.c ****             )
 721:build/openmote-cc2538_armgcc/openstack/02b-MAChigh/sixtop.c ****         )
 722:build/openmote-cc2538_armgcc/openstack/02b-MAChigh/sixtop.c ****     ){
 723:build/openmote-cc2538_armgcc/openstack/02b-MAChigh/sixtop.c ****         // delete packets genereted by this module (EB and KA) from openqueue
 724:build/openmote-cc2538_armgcc/openstack/02b-MAChigh/sixtop.c ****         openqueue_removeAllCreatedBy(COMPONENT_SIXTOP);
 2054              		.loc 1 724 0
 2055 0a70 0C20     		movs	r0, #12
 2056 0a72 FFF7FEFF 		bl	openqueue_removeAllCreatedBy
 725:build/openmote-cc2538_armgcc/openstack/02b-MAChigh/sixtop.c **** 
 726:build/openmote-cc2538_armgcc/openstack/02b-MAChigh/sixtop.c ****         // I'm not busy sending an EB or KA
 727:build/openmote-cc2538_armgcc/openstack/02b-MAChigh/sixtop.c ****         sixtop_vars.busySendingEB = FALSE;
 2057              		.loc 1 727 0
 2058 0a76 634B     		ldr	r3, .L129
 2059 0a78 0022     		movs	r2, #0
 2060 0a7a DA70     		strb	r2, [r3, #3]
 728:build/openmote-cc2538_armgcc/openstack/02b-MAChigh/sixtop.c ****         sixtop_vars.busySendingKA = FALSE;
 2061              		.loc 1 728 0
 2062 0a7c 614B     		ldr	r3, .L129
 2063 0a7e 0022     		movs	r2, #0
 2064 0a80 9A70     		strb	r2, [r3, #2]
 729:build/openmote-cc2538_armgcc/openstack/02b-MAChigh/sixtop.c **** 
 730:build/openmote-cc2538_armgcc/openstack/02b-MAChigh/sixtop.c ****         return;
 2065              		.loc 1 730 0
 2066 0a82 BBE0     		b	.L114
 2067              	.L118:
 731:build/openmote-cc2538_armgcc/openstack/02b-MAChigh/sixtop.c ****     }
 732:build/openmote-cc2538_armgcc/openstack/02b-MAChigh/sixtop.c **** 
 733:build/openmote-cc2538_armgcc/openstack/02b-MAChigh/sixtop.c ****     if (sixtop_vars.busySendingEB==TRUE) {
 2068              		.loc 1 733 0
 2069 0a84 5F4B     		ldr	r3, .L129
 2070 0a86 DB78     		ldrb	r3, [r3, #3]	@ zero_extendqisi2
 2071 0a88 002B     		cmp	r3, #0
 2072 0a8a 00D0     		beq	.L120
 734:build/openmote-cc2538_armgcc/openstack/02b-MAChigh/sixtop.c ****         // don't continue if I'm still sending a previous EB
 735:build/openmote-cc2538_armgcc/openstack/02b-MAChigh/sixtop.c ****         return;
 2073              		.loc 1 735 0
 2074 0a8c B6E0     		b	.L114
 2075              	.L120:
 736:build/openmote-cc2538_armgcc/openstack/02b-MAChigh/sixtop.c ****     }
 737:build/openmote-cc2538_armgcc/openstack/02b-MAChigh/sixtop.c **** 
 738:build/openmote-cc2538_armgcc/openstack/02b-MAChigh/sixtop.c ****     // if I get here, I will send an EB
 739:build/openmote-cc2538_armgcc/openstack/02b-MAChigh/sixtop.c **** 
 740:build/openmote-cc2538_armgcc/openstack/02b-MAChigh/sixtop.c ****     // get a free packet buffer
 741:build/openmote-cc2538_armgcc/openstack/02b-MAChigh/sixtop.c ****     eb = openqueue_getFreePacketBuffer(COMPONENT_SIXTOP);
 2076              		.loc 1 741 0
 2077 0a8e 0C20     		movs	r0, #12
 2078 0a90 FFF7FEFF 		bl	openqueue_getFreePacketBuffer
 2079 0a94 B861     		str	r0, [r7, #24]
 742:build/openmote-cc2538_armgcc/openstack/02b-MAChigh/sixtop.c ****     if (eb==NULL) {
 2080              		.loc 1 742 0
 2081 0a96 BB69     		ldr	r3, [r7, #24]
 2082 0a98 002B     		cmp	r3, #0
 2083 0a9a 06D1     		bne	.L121
 743:build/openmote-cc2538_armgcc/openstack/02b-MAChigh/sixtop.c ****         openserial_printError(
 2084              		.loc 1 743 0
 2085 0a9c 0C20     		movs	r0, #12
 2086 0a9e 2C21     		movs	r1, #44
 2087 0aa0 0022     		movs	r2, #0
 2088 0aa2 0023     		movs	r3, #0
 2089 0aa4 FFF7FEFF 		bl	openserial_printError
 744:build/openmote-cc2538_armgcc/openstack/02b-MAChigh/sixtop.c ****             COMPONENT_SIXTOP,
 745:build/openmote-cc2538_armgcc/openstack/02b-MAChigh/sixtop.c ****             ERR_NO_FREE_PACKET_BUFFER,
 746:build/openmote-cc2538_armgcc/openstack/02b-MAChigh/sixtop.c ****             (errorparameter_t)0,
 747:build/openmote-cc2538_armgcc/openstack/02b-MAChigh/sixtop.c ****             (errorparameter_t)0
 748:build/openmote-cc2538_armgcc/openstack/02b-MAChigh/sixtop.c ****         );
 749:build/openmote-cc2538_armgcc/openstack/02b-MAChigh/sixtop.c ****         return;
 2090              		.loc 1 749 0
 2091 0aa8 A8E0     		b	.L114
 2092              	.L121:
 750:build/openmote-cc2538_armgcc/openstack/02b-MAChigh/sixtop.c ****     }
 751:build/openmote-cc2538_armgcc/openstack/02b-MAChigh/sixtop.c **** 
 752:build/openmote-cc2538_armgcc/openstack/02b-MAChigh/sixtop.c ****     // declare ownership over that packet
 753:build/openmote-cc2538_armgcc/openstack/02b-MAChigh/sixtop.c ****     eb->creator = COMPONENT_SIXTOP;
 2093              		.loc 1 753 0
 2094 0aaa BB69     		ldr	r3, [r7, #24]
 2095 0aac 0C22     		movs	r2, #12
 2096 0aae 1A70     		strb	r2, [r3]
 754:build/openmote-cc2538_armgcc/openstack/02b-MAChigh/sixtop.c ****     eb->owner   = COMPONENT_SIXTOP;
 2097              		.loc 1 754 0
 2098 0ab0 BB69     		ldr	r3, [r7, #24]
 2099 0ab2 0C22     		movs	r2, #12
 2100 0ab4 5A70     		strb	r2, [r3, #1]
 755:build/openmote-cc2538_armgcc/openstack/02b-MAChigh/sixtop.c **** 
 756:build/openmote-cc2538_armgcc/openstack/02b-MAChigh/sixtop.c ****     // in case we none default number of shared cells defined in minimal configuration
 757:build/openmote-cc2538_armgcc/openstack/02b-MAChigh/sixtop.c ****     if (ebIEsBytestream[EB_SLOTFRAME_NUMLINK_OFFSET]>1){
 2101              		.loc 1 757 0
 2102 0ab6 0123     		movs	r3, #1
 2103 0ab8 012B     		cmp	r3, #1
 2104 0aba 25D9     		bls	.L122
 758:build/openmote-cc2538_armgcc/openstack/02b-MAChigh/sixtop.c ****         for (i=ebIEsBytestream[EB_SLOTFRAME_NUMLINK_OFFSET]-1;i>0;i--){
 2105              		.loc 1 758 0
 2106 0abc 0123     		movs	r3, #1
 2107 0abe 013B     		subs	r3, r3, #1
 2108 0ac0 FB77     		strb	r3, [r7, #31]
 2109 0ac2 1EE0     		b	.L123
 2110              	.L124:
 759:build/openmote-cc2538_armgcc/openstack/02b-MAChigh/sixtop.c ****             packetfunctions_reserveHeaderSize(eb,5);
 2111              		.loc 1 759 0 discriminator 3
 2112 0ac4 B869     		ldr	r0, [r7, #24]
 2113 0ac6 0521     		movs	r1, #5
 2114 0ac8 FFF7FEFF 		bl	packetfunctions_reserveHeaderSize
 760:build/openmote-cc2538_armgcc/openstack/02b-MAChigh/sixtop.c ****             eb->payload[0]   = i;    // slot offset
 2115              		.loc 1 760 0 discriminator 3
 2116 0acc BB69     		ldr	r3, [r7, #24]
 2117 0ace 5B68     		ldr	r3, [r3, #4]
 2118 0ad0 FA7F     		ldrb	r2, [r7, #31]
 2119 0ad2 1A70     		strb	r2, [r3]
 761:build/openmote-cc2538_armgcc/openstack/02b-MAChigh/sixtop.c ****             eb->payload[1]   = 0x00;
 2120              		.loc 1 761 0 discriminator 3
 2121 0ad4 BB69     		ldr	r3, [r7, #24]
 2122 0ad6 5B68     		ldr	r3, [r3, #4]
 2123 0ad8 0133     		adds	r3, r3, #1
 2124 0ada 0022     		movs	r2, #0
 2125 0adc 1A70     		strb	r2, [r3]
 762:build/openmote-cc2538_armgcc/openstack/02b-MAChigh/sixtop.c ****             eb->payload[2]   = 0x00; // channel offset
 2126              		.loc 1 762 0 discriminator 3
 2127 0ade BB69     		ldr	r3, [r7, #24]
 2128 0ae0 5B68     		ldr	r3, [r3, #4]
 2129 0ae2 0233     		adds	r3, r3, #2
 2130 0ae4 0022     		movs	r2, #0
 2131 0ae6 1A70     		strb	r2, [r3]
 763:build/openmote-cc2538_armgcc/openstack/02b-MAChigh/sixtop.c ****             eb->payload[3]   = 0x00;
 2132              		.loc 1 763 0 discriminator 3
 2133 0ae8 BB69     		ldr	r3, [r7, #24]
 2134 0aea 5B68     		ldr	r3, [r3, #4]
 2135 0aec 0333     		adds	r3, r3, #3
 2136 0aee 0022     		movs	r2, #0
 2137 0af0 1A70     		strb	r2, [r3]
 764:build/openmote-cc2538_armgcc/openstack/02b-MAChigh/sixtop.c ****             eb->payload[4]   = 0x0F; // link options
 2138              		.loc 1 764 0 discriminator 3
 2139 0af2 BB69     		ldr	r3, [r7, #24]
 2140 0af4 5B68     		ldr	r3, [r3, #4]
 2141 0af6 0433     		adds	r3, r3, #4
 2142 0af8 0F22     		movs	r2, #15
 2143 0afa 1A70     		strb	r2, [r3]
 758:build/openmote-cc2538_armgcc/openstack/02b-MAChigh/sixtop.c ****             packetfunctions_reserveHeaderSize(eb,5);
 2144              		.loc 1 758 0 discriminator 3
 2145 0afc FB7F     		ldrb	r3, [r7, #31]	@ zero_extendqisi2
 2146 0afe 013B     		subs	r3, r3, #1
 2147 0b00 FB77     		strb	r3, [r7, #31]
 2148              	.L123:
 758:build/openmote-cc2538_armgcc/openstack/02b-MAChigh/sixtop.c ****             packetfunctions_reserveHeaderSize(eb,5);
 2149              		.loc 1 758 0 is_stmt 0 discriminator 1
 2150 0b02 FB7F     		ldrb	r3, [r7, #31]	@ zero_extendqisi2
 2151 0b04 002B     		cmp	r3, #0
 2152 0b06 DDD1     		bne	.L124
 2153              	.L122:
 765:build/openmote-cc2538_armgcc/openstack/02b-MAChigh/sixtop.c ****         }
 766:build/openmote-cc2538_armgcc/openstack/02b-MAChigh/sixtop.c ****     }
 767:build/openmote-cc2538_armgcc/openstack/02b-MAChigh/sixtop.c **** 
 768:build/openmote-cc2538_armgcc/openstack/02b-MAChigh/sixtop.c ****     // reserve space for EB IEs
 769:build/openmote-cc2538_armgcc/openstack/02b-MAChigh/sixtop.c ****     packetfunctions_reserveHeaderSize(eb,EB_IE_LEN);
 2154              		.loc 1 769 0 is_stmt 1
 2155 0b08 B869     		ldr	r0, [r7, #24]
 2156 0b0a 1C21     		movs	r1, #28
 2157 0b0c FFF7FEFF 		bl	packetfunctions_reserveHeaderSize
 770:build/openmote-cc2538_armgcc/openstack/02b-MAChigh/sixtop.c ****     for (i=0;i<EB_IE_LEN;i++){
 2158              		.loc 1 770 0
 2159 0b10 0023     		movs	r3, #0
 2160 0b12 FB77     		strb	r3, [r7, #31]
 2161 0b14 0AE0     		b	.L125
 2162              	.L126:
 771:build/openmote-cc2538_armgcc/openstack/02b-MAChigh/sixtop.c ****         eb->payload[i]   = ebIEsBytestream[i];
 2163              		.loc 1 771 0 discriminator 3
 2164 0b16 BB69     		ldr	r3, [r7, #24]
 2165 0b18 5A68     		ldr	r2, [r3, #4]
 2166 0b1a FB7F     		ldrb	r3, [r7, #31]	@ zero_extendqisi2
 2167 0b1c 1344     		add	r3, r3, r2
 2168 0b1e FA7F     		ldrb	r2, [r7, #31]	@ zero_extendqisi2
 2169 0b20 3949     		ldr	r1, .L129+4
 2170 0b22 8A5C     		ldrb	r2, [r1, r2]	@ zero_extendqisi2
 2171 0b24 1A70     		strb	r2, [r3]
 770:build/openmote-cc2538_armgcc/openstack/02b-MAChigh/sixtop.c ****     for (i=0;i<EB_IE_LEN;i++){
 2172              		.loc 1 770 0 discriminator 3
 2173 0b26 FB7F     		ldrb	r3, [r7, #31]	@ zero_extendqisi2
 2174 0b28 0133     		adds	r3, r3, #1
 2175 0b2a FB77     		strb	r3, [r7, #31]
 2176              	.L125:
 770:build/openmote-cc2538_armgcc/openstack/02b-MAChigh/sixtop.c ****     for (i=0;i<EB_IE_LEN;i++){
 2177              		.loc 1 770 0 is_stmt 0 discriminator 1
 2178 0b2c FB7F     		ldrb	r3, [r7, #31]	@ zero_extendqisi2
 2179 0b2e 1B2B     		cmp	r3, #27
 2180 0b30 F1D9     		bls	.L126
 772:build/openmote-cc2538_armgcc/openstack/02b-MAChigh/sixtop.c ****     }
 773:build/openmote-cc2538_armgcc/openstack/02b-MAChigh/sixtop.c **** 
 774:build/openmote-cc2538_armgcc/openstack/02b-MAChigh/sixtop.c ****     if (ebIEsBytestream[EB_SLOTFRAME_NUMLINK_OFFSET]>1){
 2181              		.loc 1 774 0 is_stmt 1
 2182 0b32 0123     		movs	r3, #1
 2183 0b34 012B     		cmp	r3, #1
 2184 0b36 1AD9     		bls	.L127
 775:build/openmote-cc2538_armgcc/openstack/02b-MAChigh/sixtop.c ****         // reconstruct the MLME IE header since length changed
 776:build/openmote-cc2538_armgcc/openstack/02b-MAChigh/sixtop.c ****         eb_len = EB_IE_LEN-2+5*(ebIEsBytestream[EB_SLOTFRAME_NUMLINK_OFFSET]-1);
 2185              		.loc 1 776 0
 2186 0b38 0123     		movs	r3, #1
 2187 0b3a 013B     		subs	r3, r3, #1
 2188 0b3c DBB2     		uxtb	r3, r3
 2189 0b3e 1A46     		mov	r2, r3
 2190 0b40 9200     		lsls	r2, r2, #2
 2191 0b42 1344     		add	r3, r3, r2
 2192 0b44 DBB2     		uxtb	r3, r3
 2193 0b46 1A33     		adds	r3, r3, #26
 2194 0b48 FB75     		strb	r3, [r7, #23]
 777:build/openmote-cc2538_armgcc/openstack/02b-MAChigh/sixtop.c ****         temp16b = eb_len | IEEE802154E_PAYLOAD_DESC_GROUP_ID_MLME | IEEE802154E_PAYLOAD_DESC_TYPE_M
 2195              		.loc 1 777 0
 2196 0b4a FB7D     		ldrb	r3, [r7, #23]	@ zero_extendqisi2
 2197 0b4c 9AB2     		uxth	r2, r3
 2198 0b4e 2F4B     		ldr	r3, .L129+8
 2199 0b50 1343     		orrs	r3, r3, r2
 2200 0b52 BB82     		strh	r3, [r7, #20]	@ movhi
 778:build/openmote-cc2538_armgcc/openstack/02b-MAChigh/sixtop.c ****         eb->payload[0] = (uint8_t)(temp16b & 0x00ff);
 2201              		.loc 1 778 0
 2202 0b54 BB69     		ldr	r3, [r7, #24]
 2203 0b56 5B68     		ldr	r3, [r3, #4]
 2204 0b58 BA8A     		ldrh	r2, [r7, #20]	@ movhi
 2205 0b5a D2B2     		uxtb	r2, r2
 2206 0b5c 1A70     		strb	r2, [r3]
 779:build/openmote-cc2538_armgcc/openstack/02b-MAChigh/sixtop.c ****         eb->payload[1] = (uint8_t)((temp16b & 0xff00)>>8);
 2207              		.loc 1 779 0
 2208 0b5e BB69     		ldr	r3, [r7, #24]
 2209 0b60 5B68     		ldr	r3, [r3, #4]
 2210 0b62 0133     		adds	r3, r3, #1
 2211 0b64 BA8A     		ldrh	r2, [r7, #20]
 2212 0b66 120A     		lsrs	r2, r2, #8
 2213 0b68 92B2     		uxth	r2, r2
 2214 0b6a D2B2     		uxtb	r2, r2
 2215 0b6c 1A70     		strb	r2, [r3]
 2216              	.L127:
 780:build/openmote-cc2538_armgcc/openstack/02b-MAChigh/sixtop.c ****     }
 781:build/openmote-cc2538_armgcc/openstack/02b-MAChigh/sixtop.c **** 
 782:build/openmote-cc2538_armgcc/openstack/02b-MAChigh/sixtop.c ****     eb->payload[EB_SLOTFRAME_LEN_OFFSET]   = (uint8_t)(0x00FF & (schedule_getFrameLength()));
 2217              		.loc 1 782 0
 2218 0b6e BB69     		ldr	r3, [r7, #24]
 2219 0b70 5B68     		ldr	r3, [r3, #4]
 2220 0b72 03F11404 		add	r4, r3, #20
 2221 0b76 FFF7FEFF 		bl	schedule_getFrameLength
 2222 0b7a 0346     		mov	r3, r0
 2223 0b7c DBB2     		uxtb	r3, r3
 2224 0b7e 2370     		strb	r3, [r4]
 783:build/openmote-cc2538_armgcc/openstack/02b-MAChigh/sixtop.c ****     eb->payload[EB_SLOTFRAME_LEN_OFFSET+1] = (uint8_t)(0x00FF & (schedule_getFrameLength()>>8));
 2225              		.loc 1 783 0
 2226 0b80 BB69     		ldr	r3, [r7, #24]
 2227 0b82 5B68     		ldr	r3, [r3, #4]
 2228 0b84 03F11504 		add	r4, r3, #21
 2229 0b88 FFF7FEFF 		bl	schedule_getFrameLength
 2230 0b8c 0346     		mov	r3, r0
 2231 0b8e 1B0A     		lsrs	r3, r3, #8
 2232 0b90 9BB2     		uxth	r3, r3
 2233 0b92 DBB2     		uxtb	r3, r3
 2234 0b94 2370     		strb	r3, [r4]
 784:build/openmote-cc2538_armgcc/openstack/02b-MAChigh/sixtop.c **** 
 785:build/openmote-cc2538_armgcc/openstack/02b-MAChigh/sixtop.c ****     // Keep a pointer to where the ASN will be
 786:build/openmote-cc2538_armgcc/openstack/02b-MAChigh/sixtop.c ****     // Note: the actual value of the current ASN and JP will be written by the
 787:build/openmote-cc2538_armgcc/openstack/02b-MAChigh/sixtop.c ****     //    IEEE802.15.4e when transmitting
 788:build/openmote-cc2538_armgcc/openstack/02b-MAChigh/sixtop.c ****     eb->l2_ASNpayload               = &eb->payload[EB_ASN0_OFFSET];
 2235              		.loc 1 788 0
 2236 0b96 BB69     		ldr	r3, [r7, #24]
 2237 0b98 5B68     		ldr	r3, [r3, #4]
 2238 0b9a 1A1D     		adds	r2, r3, #4
 2239 0b9c BB69     		ldr	r3, [r7, #24]
 2240 0b9e C3F89420 		str	r2, [r3, #148]
 789:build/openmote-cc2538_armgcc/openstack/02b-MAChigh/sixtop.c **** 
 790:build/openmote-cc2538_armgcc/openstack/02b-MAChigh/sixtop.c ****     // some l2 information about this packet
 791:build/openmote-cc2538_armgcc/openstack/02b-MAChigh/sixtop.c ****     eb->l2_frameType                     = IEEE154_TYPE_BEACON;
 2241              		.loc 1 791 0
 2242 0ba2 BB69     		ldr	r3, [r7, #24]
 2243 0ba4 0022     		movs	r2, #0
 2244 0ba6 83F84D20 		strb	r2, [r3, #77]
 792:build/openmote-cc2538_armgcc/openstack/02b-MAChigh/sixtop.c ****     eb->l2_nextORpreviousHop.type        = ADDR_16B;
 2245              		.loc 1 792 0
 2246 0baa BB69     		ldr	r3, [r7, #24]
 2247 0bac 0122     		movs	r2, #1
 2248 0bae 83F83C20 		strb	r2, [r3, #60]
 793:build/openmote-cc2538_armgcc/openstack/02b-MAChigh/sixtop.c ****     eb->l2_nextORpreviousHop.addr_16b[0] = 0xff;
 2249              		.loc 1 793 0
 2250 0bb2 BB69     		ldr	r3, [r7, #24]
 2251 0bb4 FF22     		movs	r2, #255
 2252 0bb6 83F83D20 		strb	r2, [r3, #61]
 794:build/openmote-cc2538_armgcc/openstack/02b-MAChigh/sixtop.c ****     eb->l2_nextORpreviousHop.addr_16b[1] = 0xff;
 2253              		.loc 1 794 0
 2254 0bba BB69     		ldr	r3, [r7, #24]
 2255 0bbc FF22     		movs	r2, #255
 2256 0bbe 83F83E20 		strb	r2, [r3, #62]
 795:build/openmote-cc2538_armgcc/openstack/02b-MAChigh/sixtop.c **** 
 796:build/openmote-cc2538_armgcc/openstack/02b-MAChigh/sixtop.c ****     //I has an IE in my payload
 797:build/openmote-cc2538_armgcc/openstack/02b-MAChigh/sixtop.c ****     eb->l2_payloadIEpresent = TRUE;
 2257              		.loc 1 797 0
 2258 0bc2 BB69     		ldr	r3, [r7, #24]
 2259 0bc4 0122     		movs	r2, #1
 2260 0bc6 83F89A20 		strb	r2, [r3, #154]
 798:build/openmote-cc2538_armgcc/openstack/02b-MAChigh/sixtop.c **** 
 799:build/openmote-cc2538_armgcc/openstack/02b-MAChigh/sixtop.c ****     // set l2-security attributes
 800:build/openmote-cc2538_armgcc/openstack/02b-MAChigh/sixtop.c ****     eb->l2_securityLevel   = IEEE802154_SECURITY_LEVEL_BEACON;
 2261              		.loc 1 800 0
 2262 0bca BB69     		ldr	r3, [r7, #24]
 2263 0bcc 0022     		movs	r2, #0
 2264 0bce 83F8A020 		strb	r2, [r3, #160]
 801:build/openmote-cc2538_armgcc/openstack/02b-MAChigh/sixtop.c ****     eb->l2_keyIdMode       = IEEE802154_SECURITY_KEYIDMODE;
 2265              		.loc 1 801 0
 2266 0bd2 BB69     		ldr	r3, [r7, #24]
 2267 0bd4 0022     		movs	r2, #0
 2268 0bd6 83F8A120 		strb	r2, [r3, #161]
 802:build/openmote-cc2538_armgcc/openstack/02b-MAChigh/sixtop.c ****     eb->l2_keyIndex        = IEEE802154_security_getBeaconKeyIndex();
 2269              		.loc 1 802 0
 2270 0bda FFF7FEFF 		bl	IEEE802154_security_getBeaconKeyIndex
 2271 0bde 0346     		mov	r3, r0
 2272 0be0 1A46     		mov	r2, r3
 2273 0be2 BB69     		ldr	r3, [r7, #24]
 2274 0be4 83F8A220 		strb	r2, [r3, #162]
 803:build/openmote-cc2538_armgcc/openstack/02b-MAChigh/sixtop.c **** 
 804:build/openmote-cc2538_armgcc/openstack/02b-MAChigh/sixtop.c ****     // put in queue for MAC to handle
 805:build/openmote-cc2538_armgcc/openstack/02b-MAChigh/sixtop.c ****     sixtop_send_internal(eb,eb->l2_payloadIEpresent);
 2275              		.loc 1 805 0
 2276 0be8 BB69     		ldr	r3, [r7, #24]
 2277 0bea 93F89A30 		ldrb	r3, [r3, #154]	@ zero_extendqisi2
 2278 0bee B869     		ldr	r0, [r7, #24]
 2279 0bf0 1946     		mov	r1, r3
 2280 0bf2 FFF7FEFF 		bl	sixtop_send_internal
 806:build/openmote-cc2538_armgcc/openstack/02b-MAChigh/sixtop.c **** 
 807:build/openmote-cc2538_armgcc/openstack/02b-MAChigh/sixtop.c ****     // I'm now busy sending an EB
 808:build/openmote-cc2538_armgcc/openstack/02b-MAChigh/sixtop.c ****     sixtop_vars.busySendingEB = TRUE;
 2281              		.loc 1 808 0
 2282 0bf6 034B     		ldr	r3, .L129
 2283 0bf8 0122     		movs	r2, #1
 2284 0bfa DA70     		strb	r2, [r3, #3]
 2285              	.L114:
 809:build/openmote-cc2538_armgcc/openstack/02b-MAChigh/sixtop.c **** }
 2286              		.loc 1 809 0
 2287 0bfc 2437     		adds	r7, r7, #36
 2288              		.cfi_def_cfa_offset 12
 2289 0bfe BD46     		mov	sp, r7
 2290              		.cfi_def_cfa_register 13
 2291              		@ sp needed
 2292 0c00 90BD     		pop	{r4, r7, pc}
 2293              	.L130:
 2294 0c02 00BF     		.align	2
 2295              	.L129:
 2296 0c04 00000000 		.word	sixtop_vars
 2297 0c08 50000000 		.word	ebIEsBytestream
 2298 0c0c 0088FFFF 		.word	-30720
 2299              		.cfi_endproc
 2300              	.LFE17:
 2302              		.align	2
 2303              		.global	sixtop_sendKA
 2304              		.thumb
 2305              		.thumb_func
 2307              	sixtop_sendKA:
 2308              	.LFB18:
 810:build/openmote-cc2538_armgcc/openstack/02b-MAChigh/sixtop.c **** 
 811:build/openmote-cc2538_armgcc/openstack/02b-MAChigh/sixtop.c **** /**
 812:build/openmote-cc2538_armgcc/openstack/02b-MAChigh/sixtop.c **** \brief Send an keep-alive message, if necessary.
 813:build/openmote-cc2538_armgcc/openstack/02b-MAChigh/sixtop.c **** 
 814:build/openmote-cc2538_armgcc/openstack/02b-MAChigh/sixtop.c **** This is one of the MAC management tasks. This function inlines in the
 815:build/openmote-cc2538_armgcc/openstack/02b-MAChigh/sixtop.c **** timers_res_fired() function, but is declared as a separate function for better
 816:build/openmote-cc2538_armgcc/openstack/02b-MAChigh/sixtop.c **** readability of the code.
 817:build/openmote-cc2538_armgcc/openstack/02b-MAChigh/sixtop.c **** */
 818:build/openmote-cc2538_armgcc/openstack/02b-MAChigh/sixtop.c **** port_INLINE void sixtop_sendKA(void) {
 2309              		.loc 1 818 0
 2310              		.cfi_startproc
 2311              		@ args = 0, pretend = 0, frame = 8
 2312              		@ frame_needed = 1, uses_anonymous_args = 0
 2313 0c10 80B5     		push	{r7, lr}
 2314              		.cfi_def_cfa_offset 8
 2315              		.cfi_offset 7, -8
 2316              		.cfi_offset 14, -4
 2317 0c12 82B0     		sub	sp, sp, #8
 2318              		.cfi_def_cfa_offset 16
 2319 0c14 00AF     		add	r7, sp, #0
 2320              		.cfi_def_cfa_register 7
 819:build/openmote-cc2538_armgcc/openstack/02b-MAChigh/sixtop.c ****     OpenQueueEntry_t* kaPkt;
 820:build/openmote-cc2538_armgcc/openstack/02b-MAChigh/sixtop.c ****     open_addr_t*      kaNeighAddr;
 821:build/openmote-cc2538_armgcc/openstack/02b-MAChigh/sixtop.c **** 
 822:build/openmote-cc2538_armgcc/openstack/02b-MAChigh/sixtop.c ****     if (ieee154e_isSynch()==FALSE) {
 2321              		.loc 1 822 0
 2322 0c16 FFF7FEFF 		bl	ieee154e_isSynch
 2323 0c1a 0346     		mov	r3, r0
 2324 0c1c 83F00103 		eor	r3, r3, #1
 2325 0c20 DBB2     		uxtb	r3, r3
 2326 0c22 002B     		cmp	r3, #0
 2327 0c24 09D0     		beq	.L132
 823:build/openmote-cc2538_armgcc/openstack/02b-MAChigh/sixtop.c ****         // I'm not sync'ed
 824:build/openmote-cc2538_armgcc/openstack/02b-MAChigh/sixtop.c **** 
 825:build/openmote-cc2538_armgcc/openstack/02b-MAChigh/sixtop.c ****         // delete packets genereted by this module (EB and KA) from openqueue
 826:build/openmote-cc2538_armgcc/openstack/02b-MAChigh/sixtop.c ****         openqueue_removeAllCreatedBy(COMPONENT_SIXTOP);
 2328              		.loc 1 826 0
 2329 0c26 0C20     		movs	r0, #12
 2330 0c28 FFF7FEFF 		bl	openqueue_removeAllCreatedBy
 827:build/openmote-cc2538_armgcc/openstack/02b-MAChigh/sixtop.c **** 
 828:build/openmote-cc2538_armgcc/openstack/02b-MAChigh/sixtop.c ****         // I'm not busy sending an EB or KA
 829:build/openmote-cc2538_armgcc/openstack/02b-MAChigh/sixtop.c ****         sixtop_vars.busySendingEB = FALSE;
 2331              		.loc 1 829 0
 2332 0c2c 304B     		ldr	r3, .L138
 2333 0c2e 0022     		movs	r2, #0
 2334 0c30 DA70     		strb	r2, [r3, #3]
 830:build/openmote-cc2538_armgcc/openstack/02b-MAChigh/sixtop.c ****         sixtop_vars.busySendingKA = FALSE;
 2335              		.loc 1 830 0
 2336 0c32 2F4B     		ldr	r3, .L138
 2337 0c34 0022     		movs	r2, #0
 2338 0c36 9A70     		strb	r2, [r3, #2]
 831:build/openmote-cc2538_armgcc/openstack/02b-MAChigh/sixtop.c **** 
 832:build/openmote-cc2538_armgcc/openstack/02b-MAChigh/sixtop.c ****         // stop here
 833:build/openmote-cc2538_armgcc/openstack/02b-MAChigh/sixtop.c ****         return;
 2339              		.loc 1 833 0
 2340 0c38 56E0     		b	.L131
 2341              	.L132:
 834:build/openmote-cc2538_armgcc/openstack/02b-MAChigh/sixtop.c ****     }
 835:build/openmote-cc2538_armgcc/openstack/02b-MAChigh/sixtop.c **** 
 836:build/openmote-cc2538_armgcc/openstack/02b-MAChigh/sixtop.c ****     if (sixtop_vars.busySendingKA==TRUE) {
 2342              		.loc 1 836 0
 2343 0c3a 2D4B     		ldr	r3, .L138
 2344 0c3c 9B78     		ldrb	r3, [r3, #2]	@ zero_extendqisi2
 2345 0c3e 002B     		cmp	r3, #0
 2346 0c40 00D0     		beq	.L134
 837:build/openmote-cc2538_armgcc/openstack/02b-MAChigh/sixtop.c ****         // don't proceed if I'm still sending a KA
 838:build/openmote-cc2538_armgcc/openstack/02b-MAChigh/sixtop.c ****         return;
 2347              		.loc 1 838 0
 2348 0c42 51E0     		b	.L131
 2349              	.L134:
 839:build/openmote-cc2538_armgcc/openstack/02b-MAChigh/sixtop.c ****     }
 840:build/openmote-cc2538_armgcc/openstack/02b-MAChigh/sixtop.c **** 
 841:build/openmote-cc2538_armgcc/openstack/02b-MAChigh/sixtop.c ****     kaNeighAddr = neighbors_getKANeighbor(sixtop_vars.kaPeriod);
 2350              		.loc 1 841 0
 2351 0c44 2A4B     		ldr	r3, .L138
 2352 0c46 5B89     		ldrh	r3, [r3, #10]
 2353 0c48 1846     		mov	r0, r3
 2354 0c4a FFF7FEFF 		bl	neighbors_getKANeighbor
 2355 0c4e 7860     		str	r0, [r7, #4]
 842:build/openmote-cc2538_armgcc/openstack/02b-MAChigh/sixtop.c ****     if (kaNeighAddr==NULL) {
 2356              		.loc 1 842 0
 2357 0c50 7B68     		ldr	r3, [r7, #4]
 2358 0c52 002B     		cmp	r3, #0
 2359 0c54 00D1     		bne	.L135
 843:build/openmote-cc2538_armgcc/openstack/02b-MAChigh/sixtop.c ****         // don't proceed if I have no neighbor I need to send a KA to
 844:build/openmote-cc2538_armgcc/openstack/02b-MAChigh/sixtop.c ****         return;
 2360              		.loc 1 844 0 discriminator 2
 2361 0c56 47E0     		b	.L131
 2362              	.L135:
 845:build/openmote-cc2538_armgcc/openstack/02b-MAChigh/sixtop.c ****     }
 846:build/openmote-cc2538_armgcc/openstack/02b-MAChigh/sixtop.c **** 
 847:build/openmote-cc2538_armgcc/openstack/02b-MAChigh/sixtop.c ****     if (schedule_hasDedicatedCellToNeighbor(kaNeighAddr) == FALSE){
 2363              		.loc 1 847 0
 2364 0c58 7868     		ldr	r0, [r7, #4]
 2365 0c5a FFF7FEFF 		bl	schedule_hasDedicatedCellToNeighbor
 2366 0c5e 0346     		mov	r3, r0
 2367 0c60 83F00103 		eor	r3, r3, #1
 2368 0c64 DBB2     		uxtb	r3, r3
 2369 0c66 002B     		cmp	r3, #0
 2370 0c68 09D0     		beq	.L136
 848:build/openmote-cc2538_armgcc/openstack/02b-MAChigh/sixtop.c ****         // delete packets genereted by this module (EB and KA) from openqueue
 849:build/openmote-cc2538_armgcc/openstack/02b-MAChigh/sixtop.c ****         openqueue_removeAllCreatedBy(COMPONENT_SIXTOP);
 2371              		.loc 1 849 0
 2372 0c6a 0C20     		movs	r0, #12
 2373 0c6c FFF7FEFF 		bl	openqueue_removeAllCreatedBy
 850:build/openmote-cc2538_armgcc/openstack/02b-MAChigh/sixtop.c **** 
 851:build/openmote-cc2538_armgcc/openstack/02b-MAChigh/sixtop.c ****         // I'm not busy sending an EB or KA
 852:build/openmote-cc2538_armgcc/openstack/02b-MAChigh/sixtop.c ****         sixtop_vars.busySendingEB = FALSE;
 2374              		.loc 1 852 0
 2375 0c70 1F4B     		ldr	r3, .L138
 2376 0c72 0022     		movs	r2, #0
 2377 0c74 DA70     		strb	r2, [r3, #3]
 853:build/openmote-cc2538_armgcc/openstack/02b-MAChigh/sixtop.c ****         sixtop_vars.busySendingKA = FALSE;
 2378              		.loc 1 853 0
 2379 0c76 1E4B     		ldr	r3, .L138
 2380 0c78 0022     		movs	r2, #0
 2381 0c7a 9A70     		strb	r2, [r3, #2]
 854:build/openmote-cc2538_armgcc/openstack/02b-MAChigh/sixtop.c **** 
 855:build/openmote-cc2538_armgcc/openstack/02b-MAChigh/sixtop.c ****         return;
 2382              		.loc 1 855 0
 2383 0c7c 34E0     		b	.L131
 2384              	.L136:
 856:build/openmote-cc2538_armgcc/openstack/02b-MAChigh/sixtop.c ****     }
 857:build/openmote-cc2538_armgcc/openstack/02b-MAChigh/sixtop.c **** 
 858:build/openmote-cc2538_armgcc/openstack/02b-MAChigh/sixtop.c ****     // if I get here, I will send a KA
 859:build/openmote-cc2538_armgcc/openstack/02b-MAChigh/sixtop.c **** 
 860:build/openmote-cc2538_armgcc/openstack/02b-MAChigh/sixtop.c ****     // get a free packet buffer
 861:build/openmote-cc2538_armgcc/openstack/02b-MAChigh/sixtop.c ****     kaPkt = openqueue_getFreePacketBuffer(COMPONENT_SIXTOP);
 2385              		.loc 1 861 0
 2386 0c7e 0C20     		movs	r0, #12
 2387 0c80 FFF7FEFF 		bl	openqueue_getFreePacketBuffer
 2388 0c84 3860     		str	r0, [r7]
 862:build/openmote-cc2538_armgcc/openstack/02b-MAChigh/sixtop.c ****     if (kaPkt==NULL) {
 2389              		.loc 1 862 0
 2390 0c86 3B68     		ldr	r3, [r7]
 2391 0c88 002B     		cmp	r3, #0
 2392 0c8a 06D1     		bne	.L137
 863:build/openmote-cc2538_armgcc/openstack/02b-MAChigh/sixtop.c ****         openserial_printError(
 2393              		.loc 1 863 0
 2394 0c8c 0C20     		movs	r0, #12
 2395 0c8e 2C21     		movs	r1, #44
 2396 0c90 0122     		movs	r2, #1
 2397 0c92 0023     		movs	r3, #0
 2398 0c94 FFF7FEFF 		bl	openserial_printError
 864:build/openmote-cc2538_armgcc/openstack/02b-MAChigh/sixtop.c ****             COMPONENT_SIXTOP,
 865:build/openmote-cc2538_armgcc/openstack/02b-MAChigh/sixtop.c ****             ERR_NO_FREE_PACKET_BUFFER,
 866:build/openmote-cc2538_armgcc/openstack/02b-MAChigh/sixtop.c ****             (errorparameter_t)1,
 867:build/openmote-cc2538_armgcc/openstack/02b-MAChigh/sixtop.c ****             (errorparameter_t)0
 868:build/openmote-cc2538_armgcc/openstack/02b-MAChigh/sixtop.c ****         );
 869:build/openmote-cc2538_armgcc/openstack/02b-MAChigh/sixtop.c ****         return;
 2399              		.loc 1 869 0
 2400 0c98 26E0     		b	.L131
 2401              	.L137:
 870:build/openmote-cc2538_armgcc/openstack/02b-MAChigh/sixtop.c ****    }
 871:build/openmote-cc2538_armgcc/openstack/02b-MAChigh/sixtop.c **** 
 872:build/openmote-cc2538_armgcc/openstack/02b-MAChigh/sixtop.c ****     // declare ownership over that packet
 873:build/openmote-cc2538_armgcc/openstack/02b-MAChigh/sixtop.c ****     kaPkt->creator = COMPONENT_SIXTOP;
 2402              		.loc 1 873 0
 2403 0c9a 3B68     		ldr	r3, [r7]
 2404 0c9c 0C22     		movs	r2, #12
 2405 0c9e 1A70     		strb	r2, [r3]
 874:build/openmote-cc2538_armgcc/openstack/02b-MAChigh/sixtop.c ****     kaPkt->owner   = COMPONENT_SIXTOP;
 2406              		.loc 1 874 0
 2407 0ca0 3B68     		ldr	r3, [r7]
 2408 0ca2 0C22     		movs	r2, #12
 2409 0ca4 5A70     		strb	r2, [r3, #1]
 875:build/openmote-cc2538_armgcc/openstack/02b-MAChigh/sixtop.c **** 
 876:build/openmote-cc2538_armgcc/openstack/02b-MAChigh/sixtop.c ****     // some l2 information about this packet
 877:build/openmote-cc2538_armgcc/openstack/02b-MAChigh/sixtop.c ****     kaPkt->l2_frameType = IEEE154_TYPE_DATA;
 2410              		.loc 1 877 0
 2411 0ca6 3B68     		ldr	r3, [r7]
 2412 0ca8 0122     		movs	r2, #1
 2413 0caa 83F84D20 		strb	r2, [r3, #77]
 878:build/openmote-cc2538_armgcc/openstack/02b-MAChigh/sixtop.c ****     memcpy(&(kaPkt->l2_nextORpreviousHop),kaNeighAddr,sizeof(open_addr_t));
 2414              		.loc 1 878 0
 2415 0cae 3B68     		ldr	r3, [r7]
 2416 0cb0 3C33     		adds	r3, r3, #60
 2417 0cb2 1846     		mov	r0, r3
 2418 0cb4 7968     		ldr	r1, [r7, #4]
 2419 0cb6 1122     		movs	r2, #17
 2420 0cb8 FFF7FEFF 		bl	memcpy
 879:build/openmote-cc2538_armgcc/openstack/02b-MAChigh/sixtop.c **** 
 880:build/openmote-cc2538_armgcc/openstack/02b-MAChigh/sixtop.c ****     // set l2-security attributes
 881:build/openmote-cc2538_armgcc/openstack/02b-MAChigh/sixtop.c ****     kaPkt->l2_securityLevel   = IEEE802154_SECURITY_LEVEL; // do not exchange KAs with
 2421              		.loc 1 881 0
 2422 0cbc 3B68     		ldr	r3, [r7]
 2423 0cbe 0022     		movs	r2, #0
 2424 0cc0 83F8A020 		strb	r2, [r3, #160]
 882:build/openmote-cc2538_armgcc/openstack/02b-MAChigh/sixtop.c ****     kaPkt->l2_keyIdMode       = IEEE802154_SECURITY_KEYIDMODE;
 2425              		.loc 1 882 0
 2426 0cc4 3B68     		ldr	r3, [r7]
 2427 0cc6 0022     		movs	r2, #0
 2428 0cc8 83F8A120 		strb	r2, [r3, #161]
 883:build/openmote-cc2538_armgcc/openstack/02b-MAChigh/sixtop.c ****     kaPkt->l2_keyIndex        = IEEE802154_security_getDataKeyIndex();
 2429              		.loc 1 883 0
 2430 0ccc FFF7FEFF 		bl	IEEE802154_security_getDataKeyIndex
 2431 0cd0 0346     		mov	r3, r0
 2432 0cd2 1A46     		mov	r2, r3
 2433 0cd4 3B68     		ldr	r3, [r7]
 2434 0cd6 83F8A220 		strb	r2, [r3, #162]
 884:build/openmote-cc2538_armgcc/openstack/02b-MAChigh/sixtop.c **** 
 885:build/openmote-cc2538_armgcc/openstack/02b-MAChigh/sixtop.c ****     // put in queue for MAC to handle
 886:build/openmote-cc2538_armgcc/openstack/02b-MAChigh/sixtop.c ****     sixtop_send_internal(kaPkt,FALSE);
 2435              		.loc 1 886 0
 2436 0cda 3868     		ldr	r0, [r7]
 2437 0cdc 0021     		movs	r1, #0
 2438 0cde FFF7FEFF 		bl	sixtop_send_internal
 887:build/openmote-cc2538_armgcc/openstack/02b-MAChigh/sixtop.c **** 
 888:build/openmote-cc2538_armgcc/openstack/02b-MAChigh/sixtop.c ****     // I'm now busy sending a KA
 889:build/openmote-cc2538_armgcc/openstack/02b-MAChigh/sixtop.c ****     sixtop_vars.busySendingKA = TRUE;
 2439              		.loc 1 889 0
 2440 0ce2 034B     		ldr	r3, .L138
 2441 0ce4 0122     		movs	r2, #1
 2442 0ce6 9A70     		strb	r2, [r3, #2]
 2443              	.L131:
 890:build/openmote-cc2538_armgcc/openstack/02b-MAChigh/sixtop.c **** 
 891:build/openmote-cc2538_armgcc/openstack/02b-MAChigh/sixtop.c **** #ifdef OPENSIM
 892:build/openmote-cc2538_armgcc/openstack/02b-MAChigh/sixtop.c ****     debugpins_ka_set();
 893:build/openmote-cc2538_armgcc/openstack/02b-MAChigh/sixtop.c ****     debugpins_ka_clr();
 894:build/openmote-cc2538_armgcc/openstack/02b-MAChigh/sixtop.c **** #endif
 895:build/openmote-cc2538_armgcc/openstack/02b-MAChigh/sixtop.c **** }
 2444              		.loc 1 895 0
 2445 0ce8 0837     		adds	r7, r7, #8
 2446              		.cfi_def_cfa_offset 8
 2447 0cea BD46     		mov	sp, r7
 2448              		.cfi_def_cfa_register 13
 2449              		@ sp needed
 2450 0cec 80BD     		pop	{r7, pc}
 2451              	.L139:
 2452 0cee 00BF     		.align	2
 2453              	.L138:
 2454 0cf0 00000000 		.word	sixtop_vars
 2455              		.cfi_endproc
 2456              	.LFE18:
 2458              		.align	2
 2459              		.global	timer_sixtop_six2six_timeout_fired
 2460              		.thumb
 2461              		.thumb_func
 2463              	timer_sixtop_six2six_timeout_fired:
 2464              	.LFB19:
 896:build/openmote-cc2538_armgcc/openstack/02b-MAChigh/sixtop.c **** 
 897:build/openmote-cc2538_armgcc/openstack/02b-MAChigh/sixtop.c **** //======= six2six task
 898:build/openmote-cc2538_armgcc/openstack/02b-MAChigh/sixtop.c **** 
 899:build/openmote-cc2538_armgcc/openstack/02b-MAChigh/sixtop.c **** void timer_sixtop_six2six_timeout_fired(void) {
 2465              		.loc 1 899 0
 2466              		.cfi_startproc
 2467              		@ args = 0, pretend = 0, frame = 0
 2468              		@ frame_needed = 1, uses_anonymous_args = 0
 2469 0cf4 80B5     		push	{r7, lr}
 2470              		.cfi_def_cfa_offset 8
 2471              		.cfi_offset 7, -8
 2472              		.cfi_offset 14, -4
 2473 0cf6 00AF     		add	r7, sp, #0
 2474              		.cfi_def_cfa_register 7
 900:build/openmote-cc2538_armgcc/openstack/02b-MAChigh/sixtop.c **** 
 901:build/openmote-cc2538_armgcc/openstack/02b-MAChigh/sixtop.c ****     if (sixtop_vars.six2six_state == SIX_STATE_WAIT_CLEARRESPONSE){
 2475              		.loc 1 901 0
 2476 0cf8 0E4B     		ldr	r3, .L142
 2477 0cfa 9B7B     		ldrb	r3, [r3, #14]	@ zero_extendqisi2
 2478 0cfc 0C2B     		cmp	r3, #12
 2479 0cfe 10D1     		bne	.L141
 902:build/openmote-cc2538_armgcc/openstack/02b-MAChigh/sixtop.c ****         // no response for the 6p clear, just clear locally
 903:build/openmote-cc2538_armgcc/openstack/02b-MAChigh/sixtop.c ****         schedule_removeAllCells(
 904:build/openmote-cc2538_armgcc/openstack/02b-MAChigh/sixtop.c ****             sixtop_vars.cb_sf_getMetadata(),
 2480              		.loc 1 904 0
 2481 0d00 0C4B     		ldr	r3, .L142
 2482 0d02 1B6B     		ldr	r3, [r3, #48]
 2483 0d04 9847     		blx	r3
 2484 0d06 0346     		mov	r3, r0
 903:build/openmote-cc2538_armgcc/openstack/02b-MAChigh/sixtop.c ****             sixtop_vars.cb_sf_getMetadata(),
 2485              		.loc 1 903 0
 2486 0d08 DBB2     		uxtb	r3, r3
 2487 0d0a 1846     		mov	r0, r3
 2488 0d0c 0A49     		ldr	r1, .L142+4
 2489 0d0e FFF7FEFF 		bl	schedule_removeAllCells
 905:build/openmote-cc2538_armgcc/openstack/02b-MAChigh/sixtop.c ****             &sixtop_vars.neighborToClearCells
 906:build/openmote-cc2538_armgcc/openstack/02b-MAChigh/sixtop.c ****         );
 907:build/openmote-cc2538_armgcc/openstack/02b-MAChigh/sixtop.c ****         neighbors_resetSequenceNumber(&sixtop_vars.neighborToClearCells);
 2490              		.loc 1 907 0
 2491 0d12 0948     		ldr	r0, .L142+4
 2492 0d14 FFF7FEFF 		bl	neighbors_resetSequenceNumber
 908:build/openmote-cc2538_armgcc/openstack/02b-MAChigh/sixtop.c ****         memset(&sixtop_vars.neighborToClearCells,0,sizeof(open_addr_t));
 2493              		.loc 1 908 0
 2494 0d18 0748     		ldr	r0, .L142+4
 2495 0d1a 0021     		movs	r1, #0
 2496 0d1c 1122     		movs	r2, #17
 2497 0d1e FFF7FEFF 		bl	memset
 2498              	.L141:
 909:build/openmote-cc2538_armgcc/openstack/02b-MAChigh/sixtop.c ****     }
 910:build/openmote-cc2538_armgcc/openstack/02b-MAChigh/sixtop.c ****     // timeout timer fired, reset the state of sixtop to idle
 911:build/openmote-cc2538_armgcc/openstack/02b-MAChigh/sixtop.c ****     sixtop_vars.six2six_state = SIX_STATE_IDLE;
 2499              		.loc 1 911 0
 2500 0d22 044B     		ldr	r3, .L142
 2501 0d24 0022     		movs	r2, #0
 2502 0d26 9A73     		strb	r2, [r3, #14]
 912:build/openmote-cc2538_armgcc/openstack/02b-MAChigh/sixtop.c ****     opentimers_cancel(sixtop_vars.timeoutTimerId);
 2503              		.loc 1 912 0
 2504 0d28 024B     		ldr	r3, .L142
 2505 0d2a 5B7A     		ldrb	r3, [r3, #9]	@ zero_extendqisi2
 2506 0d2c 1846     		mov	r0, r3
 2507 0d2e FFF7FEFF 		bl	opentimers_cancel
 913:build/openmote-cc2538_armgcc/openstack/02b-MAChigh/sixtop.c **** }
 2508              		.loc 1 913 0
 2509 0d32 80BD     		pop	{r7, pc}
 2510              	.L143:
 2511              		.align	2
 2512              	.L142:
 2513 0d34 00000000 		.word	sixtop_vars
 2514 0d38 3C000000 		.word	sixtop_vars+60
 2515              		.cfi_endproc
 2516              	.LFE19:
 2518              		.align	2
 2519              		.global	sixtop_six2six_sendDone
 2520              		.thumb
 2521              		.thumb_func
 2523              	sixtop_six2six_sendDone:
 2524              	.LFB20:
 914:build/openmote-cc2538_armgcc/openstack/02b-MAChigh/sixtop.c **** 
 915:build/openmote-cc2538_armgcc/openstack/02b-MAChigh/sixtop.c **** void sixtop_six2six_sendDone(OpenQueueEntry_t* msg, owerror_t error){
 2525              		.loc 1 915 0
 2526              		.cfi_startproc
 2527              		@ args = 0, pretend = 0, frame = 8
 2528              		@ frame_needed = 1, uses_anonymous_args = 0
 2529 0d3c 80B5     		push	{r7, lr}
 2530              		.cfi_def_cfa_offset 8
 2531              		.cfi_offset 7, -8
 2532              		.cfi_offset 14, -4
 2533 0d3e 84B0     		sub	sp, sp, #16
 2534              		.cfi_def_cfa_offset 24
 2535 0d40 02AF     		add	r7, sp, #8
 2536              		.cfi_def_cfa 7, 16
 2537 0d42 7860     		str	r0, [r7, #4]
 2538 0d44 0B46     		mov	r3, r1
 2539 0d46 FB70     		strb	r3, [r7, #3]
 916:build/openmote-cc2538_armgcc/openstack/02b-MAChigh/sixtop.c **** 
 917:build/openmote-cc2538_armgcc/openstack/02b-MAChigh/sixtop.c ****     msg->owner = COMPONENT_SIXTOP_RES;
 2540              		.loc 1 917 0
 2541 0d48 7B68     		ldr	r3, [r7, #4]
 2542 0d4a 0F22     		movs	r2, #15
 2543 0d4c 5A70     		strb	r2, [r3, #1]
 918:build/openmote-cc2538_armgcc/openstack/02b-MAChigh/sixtop.c **** 
 919:build/openmote-cc2538_armgcc/openstack/02b-MAChigh/sixtop.c ****     // if this is a request send done
 920:build/openmote-cc2538_armgcc/openstack/02b-MAChigh/sixtop.c ****     if (msg->l2_sixtop_messageType == SIXTOP_CELL_REQUEST){
 2544              		.loc 1 920 0
 2545 0d4e 7B68     		ldr	r3, [r7, #4]
 2546 0d50 93F89030 		ldrb	r3, [r3, #144]	@ zero_extendqisi2
 2547 0d54 002B     		cmp	r3, #0
 2548 0d56 3FD1     		bne	.L145
 921:build/openmote-cc2538_armgcc/openstack/02b-MAChigh/sixtop.c ****         if(error == E_FAIL) {
 2549              		.loc 1 921 0
 2550 0d58 FB78     		ldrb	r3, [r7, #3]	@ zero_extendqisi2
 2551 0d5a 012B     		cmp	r3, #1
 2552 0d5c 03D1     		bne	.L146
 922:build/openmote-cc2538_armgcc/openstack/02b-MAChigh/sixtop.c ****             // reset handler and state if the request is failed to send out
 923:build/openmote-cc2538_armgcc/openstack/02b-MAChigh/sixtop.c ****             sixtop_vars.six2six_state = SIX_STATE_IDLE;
 2553              		.loc 1 923 0
 2554 0d5e 5A4B     		ldr	r3, .L162
 2555 0d60 0022     		movs	r2, #0
 2556 0d62 9A73     		strb	r2, [r3, #14]
 2557 0d64 38E0     		b	.L145
 2558              	.L146:
 924:build/openmote-cc2538_armgcc/openstack/02b-MAChigh/sixtop.c ****         } else {
 925:build/openmote-cc2538_armgcc/openstack/02b-MAChigh/sixtop.c ****             // the packet has been sent out successfully
 926:build/openmote-cc2538_armgcc/openstack/02b-MAChigh/sixtop.c ****             switch (sixtop_vars.six2six_state) {
 2559              		.loc 1 926 0
 2560 0d66 584B     		ldr	r3, .L162
 2561 0d68 9B7B     		ldrb	r3, [r3, #14]	@ zero_extendqisi2
 2562 0d6a 013B     		subs	r3, r3, #1
 2563 0d6c 052B     		cmp	r3, #5
 2564 0d6e 27D8     		bhi	.L161
 2565 0d70 01A2     		adr	r2, .L149
 2566 0d72 52F823F0 		ldr	pc, [r2, r3, lsl #2]
 2567 0d76 00BF     		.p2align 2
 2568              	.L149:
 2569 0d78 910D0000 		.word	.L148+1
 2570 0d7c 990D0000 		.word	.L150+1
 2571 0d80 A10D0000 		.word	.L151+1
 2572 0d84 B10D0000 		.word	.L152+1
 2573 0d88 A90D0000 		.word	.L153+1
 2574 0d8c B90D0000 		.word	.L154+1
 2575              		.p2align 1
 2576              	.L148:
 927:build/openmote-cc2538_armgcc/openstack/02b-MAChigh/sixtop.c ****             case SIX_STATE_WAIT_ADDREQUEST_SENDDONE:
 928:build/openmote-cc2538_armgcc/openstack/02b-MAChigh/sixtop.c ****                 sixtop_vars.six2six_state = SIX_STATE_WAIT_ADDRESPONSE;
 2577              		.loc 1 928 0
 2578 0d90 4D4B     		ldr	r3, .L162
 2579 0d92 0722     		movs	r2, #7
 2580 0d94 9A73     		strb	r2, [r3, #14]
 929:build/openmote-cc2538_armgcc/openstack/02b-MAChigh/sixtop.c ****                 break;
 2581              		.loc 1 929 0
 2582 0d96 14E0     		b	.L155
 2583              	.L150:
 930:build/openmote-cc2538_armgcc/openstack/02b-MAChigh/sixtop.c ****             case SIX_STATE_WAIT_DELETEREQUEST_SENDDONE:
 931:build/openmote-cc2538_armgcc/openstack/02b-MAChigh/sixtop.c ****                 sixtop_vars.six2six_state = SIX_STATE_WAIT_DELETERESPONSE;
 2584              		.loc 1 931 0
 2585 0d98 4B4B     		ldr	r3, .L162
 2586 0d9a 0822     		movs	r2, #8
 2587 0d9c 9A73     		strb	r2, [r3, #14]
 932:build/openmote-cc2538_armgcc/openstack/02b-MAChigh/sixtop.c ****                 break;
 2588              		.loc 1 932 0
 2589 0d9e 10E0     		b	.L155
 2590              	.L151:
 933:build/openmote-cc2538_armgcc/openstack/02b-MAChigh/sixtop.c ****             case SIX_STATE_WAIT_RELOCATEREQUEST_SENDDONE:
 934:build/openmote-cc2538_armgcc/openstack/02b-MAChigh/sixtop.c ****                 sixtop_vars.six2six_state = SIX_STATE_WAIT_RELOCATERESPONSE;
 2591              		.loc 1 934 0
 2592 0da0 494B     		ldr	r3, .L162
 2593 0da2 0922     		movs	r2, #9
 2594 0da4 9A73     		strb	r2, [r3, #14]
 935:build/openmote-cc2538_armgcc/openstack/02b-MAChigh/sixtop.c ****                 break;
 2595              		.loc 1 935 0
 2596 0da6 0CE0     		b	.L155
 2597              	.L153:
 936:build/openmote-cc2538_armgcc/openstack/02b-MAChigh/sixtop.c ****             case SIX_STATE_WAIT_LISTREQUEST_SENDDONE:
 937:build/openmote-cc2538_armgcc/openstack/02b-MAChigh/sixtop.c ****                 sixtop_vars.six2six_state = SIX_STATE_WAIT_LISTRESPONSE;
 2598              		.loc 1 937 0
 2599 0da8 474B     		ldr	r3, .L162
 2600 0daa 0B22     		movs	r2, #11
 2601 0dac 9A73     		strb	r2, [r3, #14]
 938:build/openmote-cc2538_armgcc/openstack/02b-MAChigh/sixtop.c ****                 break;
 2602              		.loc 1 938 0
 2603 0dae 08E0     		b	.L155
 2604              	.L152:
 939:build/openmote-cc2538_armgcc/openstack/02b-MAChigh/sixtop.c ****             case SIX_STATE_WAIT_COUNTREQUEST_SENDDONE:
 940:build/openmote-cc2538_armgcc/openstack/02b-MAChigh/sixtop.c ****                 sixtop_vars.six2six_state = SIX_STATE_WAIT_COUNTRESPONSE;
 2605              		.loc 1 940 0
 2606 0db0 454B     		ldr	r3, .L162
 2607 0db2 0A22     		movs	r2, #10
 2608 0db4 9A73     		strb	r2, [r3, #14]
 941:build/openmote-cc2538_armgcc/openstack/02b-MAChigh/sixtop.c ****                 break;
 2609              		.loc 1 941 0
 2610 0db6 04E0     		b	.L155
 2611              	.L154:
 942:build/openmote-cc2538_armgcc/openstack/02b-MAChigh/sixtop.c ****             case SIX_STATE_WAIT_CLEARREQUEST_SENDDONE:
 943:build/openmote-cc2538_armgcc/openstack/02b-MAChigh/sixtop.c ****                 sixtop_vars.six2six_state = SIX_STATE_WAIT_CLEARRESPONSE;
 2612              		.loc 1 943 0
 2613 0db8 434B     		ldr	r3, .L162
 2614 0dba 0C22     		movs	r2, #12
 2615 0dbc 9A73     		strb	r2, [r3, #14]
 944:build/openmote-cc2538_armgcc/openstack/02b-MAChigh/sixtop.c ****                 break;
 2616              		.loc 1 944 0
 2617 0dbe 00E0     		b	.L155
 2618              	.L161:
 945:build/openmote-cc2538_armgcc/openstack/02b-MAChigh/sixtop.c ****             default:
 946:build/openmote-cc2538_armgcc/openstack/02b-MAChigh/sixtop.c ****                 // should never happen
 947:build/openmote-cc2538_armgcc/openstack/02b-MAChigh/sixtop.c ****                 break;
 2619              		.loc 1 947 0
 2620 0dc0 00BF     		nop
 2621              	.L155:
 948:build/openmote-cc2538_armgcc/openstack/02b-MAChigh/sixtop.c ****             }
 949:build/openmote-cc2538_armgcc/openstack/02b-MAChigh/sixtop.c ****             // start timeout timer if I am waiting for a response
 950:build/openmote-cc2538_armgcc/openstack/02b-MAChigh/sixtop.c ****             opentimers_scheduleIn(
 2622              		.loc 1 950 0
 2623 0dc2 414B     		ldr	r3, .L162
 2624 0dc4 5A7A     		ldrb	r2, [r3, #9]	@ zero_extendqisi2
 2625 0dc6 414B     		ldr	r3, .L162+4
 2626 0dc8 0093     		str	r3, [sp]
 2627 0dca 1046     		mov	r0, r2
 2628 0dcc 4FF6FF71 		movw	r1, #65535
 2629 0dd0 0022     		movs	r2, #0
 2630 0dd2 0123     		movs	r3, #1
 2631 0dd4 FFF7FEFF 		bl	opentimers_scheduleIn
 2632              	.L145:
 951:build/openmote-cc2538_armgcc/openstack/02b-MAChigh/sixtop.c ****                 sixtop_vars.timeoutTimerId,
 952:build/openmote-cc2538_armgcc/openstack/02b-MAChigh/sixtop.c ****                 SIX2SIX_TIMEOUT_MS,
 953:build/openmote-cc2538_armgcc/openstack/02b-MAChigh/sixtop.c ****                 TIME_MS,
 954:build/openmote-cc2538_armgcc/openstack/02b-MAChigh/sixtop.c ****                 TIMER_ONESHOT,
 955:build/openmote-cc2538_armgcc/openstack/02b-MAChigh/sixtop.c ****                 sixtop_timeout_timer_cb
 956:build/openmote-cc2538_armgcc/openstack/02b-MAChigh/sixtop.c ****             );
 957:build/openmote-cc2538_armgcc/openstack/02b-MAChigh/sixtop.c ****         }
 958:build/openmote-cc2538_armgcc/openstack/02b-MAChigh/sixtop.c ****     }
 959:build/openmote-cc2538_armgcc/openstack/02b-MAChigh/sixtop.c **** 
 960:build/openmote-cc2538_armgcc/openstack/02b-MAChigh/sixtop.c ****     // if this is a response send done
 961:build/openmote-cc2538_armgcc/openstack/02b-MAChigh/sixtop.c ****     if (msg->l2_sixtop_messageType == SIXTOP_CELL_RESPONSE){
 2633              		.loc 1 961 0
 2634 0dd8 7B68     		ldr	r3, [r7, #4]
 2635 0dda 93F89030 		ldrb	r3, [r3, #144]	@ zero_extendqisi2
 2636 0dde 012B     		cmp	r3, #1
 2637 0de0 6BD1     		bne	.L156
 962:build/openmote-cc2538_armgcc/openstack/02b-MAChigh/sixtop.c ****         if(error == E_SUCCESS) {
 2638              		.loc 1 962 0
 2639 0de2 FB78     		ldrb	r3, [r7, #3]	@ zero_extendqisi2
 2640 0de4 002B     		cmp	r3, #0
 2641 0de6 68D1     		bne	.L156
 963:build/openmote-cc2538_armgcc/openstack/02b-MAChigh/sixtop.c ****             neighbors_updateSequenceNumber(&(msg->l2_nextORpreviousHop));
 2642              		.loc 1 963 0
 2643 0de8 7B68     		ldr	r3, [r7, #4]
 2644 0dea 3C33     		adds	r3, r3, #60
 2645 0dec 1846     		mov	r0, r3
 2646 0dee FFF7FEFF 		bl	neighbors_updateSequenceNumber
 964:build/openmote-cc2538_armgcc/openstack/02b-MAChigh/sixtop.c ****             // in case a response is sent out, check the return code
 965:build/openmote-cc2538_armgcc/openstack/02b-MAChigh/sixtop.c ****             if (msg->l2_sixtop_returnCode == IANA_6TOP_RC_SUCCESS){
 2647              		.loc 1 965 0
 2648 0df2 7B68     		ldr	r3, [r7, #4]
 2649 0df4 93F89330 		ldrb	r3, [r3, #147]	@ zero_extendqisi2
 2650 0df8 002B     		cmp	r3, #0
 2651 0dfa 5ED1     		bne	.L156
 966:build/openmote-cc2538_armgcc/openstack/02b-MAChigh/sixtop.c ****                 if (msg->l2_sixtop_command == IANA_6TOP_CMD_ADD){
 2652              		.loc 1 966 0
 2653 0dfc 7B68     		ldr	r3, [r7, #4]
 2654 0dfe 93F89130 		ldrb	r3, [r3, #145]	@ zero_extendqisi2
 2655 0e02 012B     		cmp	r3, #1
 2656 0e04 0ED1     		bne	.L157
 967:build/openmote-cc2538_armgcc/openstack/02b-MAChigh/sixtop.c ****                     sixtop_addCells(
 968:build/openmote-cc2538_armgcc/openstack/02b-MAChigh/sixtop.c ****                         msg->l2_sixtop_frameID,
 2657              		.loc 1 968 0
 2658 0e06 7B68     		ldr	r3, [r7, #4]
 2659 0e08 B3F88E30 		ldrh	r3, [r3, #142]
 967:build/openmote-cc2538_armgcc/openstack/02b-MAChigh/sixtop.c ****                     sixtop_addCells(
 2660              		.loc 1 967 0
 2661 0e0c D8B2     		uxtb	r0, r3
 969:build/openmote-cc2538_armgcc/openstack/02b-MAChigh/sixtop.c ****                         msg->l2_sixtop_celllist_add,
 2662              		.loc 1 969 0
 2663 0e0e 7B68     		ldr	r3, [r7, #4]
 2664 0e10 03F15C01 		add	r1, r3, #92
 967:build/openmote-cc2538_armgcc/openstack/02b-MAChigh/sixtop.c ****                     sixtop_addCells(
 2665              		.loc 1 967 0
 2666 0e14 7B68     		ldr	r3, [r7, #4]
 2667 0e16 03F13C02 		add	r2, r3, #60
 2668 0e1a 7B68     		ldr	r3, [r7, #4]
 2669 0e1c 93F89230 		ldrb	r3, [r3, #146]	@ zero_extendqisi2
 2670 0e20 FFF7FEFF 		bl	sixtop_addCells
 2671              	.L157:
 970:build/openmote-cc2538_armgcc/openstack/02b-MAChigh/sixtop.c ****                         &(msg->l2_nextORpreviousHop),
 971:build/openmote-cc2538_armgcc/openstack/02b-MAChigh/sixtop.c ****                         msg->l2_sixtop_cellOptions
 972:build/openmote-cc2538_armgcc/openstack/02b-MAChigh/sixtop.c ****                     );
 973:build/openmote-cc2538_armgcc/openstack/02b-MAChigh/sixtop.c ****                 }
 974:build/openmote-cc2538_armgcc/openstack/02b-MAChigh/sixtop.c **** 
 975:build/openmote-cc2538_armgcc/openstack/02b-MAChigh/sixtop.c ****                 if (msg->l2_sixtop_command == IANA_6TOP_CMD_DELETE){
 2672              		.loc 1 975 0
 2673 0e24 7B68     		ldr	r3, [r7, #4]
 2674 0e26 93F89130 		ldrb	r3, [r3, #145]	@ zero_extendqisi2
 2675 0e2a 022B     		cmp	r3, #2
 2676 0e2c 0ED1     		bne	.L158
 976:build/openmote-cc2538_armgcc/openstack/02b-MAChigh/sixtop.c ****                     sixtop_removeCells(
 977:build/openmote-cc2538_armgcc/openstack/02b-MAChigh/sixtop.c ****                       msg->l2_sixtop_frameID,
 2677              		.loc 1 977 0
 2678 0e2e 7B68     		ldr	r3, [r7, #4]
 2679 0e30 B3F88E30 		ldrh	r3, [r3, #142]
 976:build/openmote-cc2538_armgcc/openstack/02b-MAChigh/sixtop.c ****                     sixtop_removeCells(
 2680              		.loc 1 976 0
 2681 0e34 D8B2     		uxtb	r0, r3
 978:build/openmote-cc2538_armgcc/openstack/02b-MAChigh/sixtop.c ****                         msg->l2_sixtop_celllist_delete,
 2682              		.loc 1 978 0
 2683 0e36 7B68     		ldr	r3, [r7, #4]
 2684 0e38 03F17501 		add	r1, r3, #117
 976:build/openmote-cc2538_armgcc/openstack/02b-MAChigh/sixtop.c ****                     sixtop_removeCells(
 2685              		.loc 1 976 0
 2686 0e3c 7B68     		ldr	r3, [r7, #4]
 2687 0e3e 03F13C02 		add	r2, r3, #60
 2688 0e42 7B68     		ldr	r3, [r7, #4]
 2689 0e44 93F89230 		ldrb	r3, [r3, #146]	@ zero_extendqisi2
 2690 0e48 FFF7FEFF 		bl	sixtop_removeCells
 2691              	.L158:
 979:build/openmote-cc2538_armgcc/openstack/02b-MAChigh/sixtop.c ****                       &(msg->l2_nextORpreviousHop),
 980:build/openmote-cc2538_armgcc/openstack/02b-MAChigh/sixtop.c ****                         msg->l2_sixtop_cellOptions
 981:build/openmote-cc2538_armgcc/openstack/02b-MAChigh/sixtop.c ****                     );
 982:build/openmote-cc2538_armgcc/openstack/02b-MAChigh/sixtop.c ****                 }
 983:build/openmote-cc2538_armgcc/openstack/02b-MAChigh/sixtop.c **** 
 984:build/openmote-cc2538_armgcc/openstack/02b-MAChigh/sixtop.c ****                 if ( msg->l2_sixtop_command == IANA_6TOP_CMD_RELOCATE){
 2692              		.loc 1 984 0
 2693 0e4c 7B68     		ldr	r3, [r7, #4]
 2694 0e4e 93F89130 		ldrb	r3, [r3, #145]	@ zero_extendqisi2
 2695 0e52 032B     		cmp	r3, #3
 2696 0e54 1DD1     		bne	.L159
 985:build/openmote-cc2538_armgcc/openstack/02b-MAChigh/sixtop.c ****                     sixtop_removeCells(
 986:build/openmote-cc2538_armgcc/openstack/02b-MAChigh/sixtop.c ****                         msg->l2_sixtop_frameID,
 2697              		.loc 1 986 0
 2698 0e56 7B68     		ldr	r3, [r7, #4]
 2699 0e58 B3F88E30 		ldrh	r3, [r3, #142]
 985:build/openmote-cc2538_armgcc/openstack/02b-MAChigh/sixtop.c ****                     sixtop_removeCells(
 2700              		.loc 1 985 0
 2701 0e5c D8B2     		uxtb	r0, r3
 987:build/openmote-cc2538_armgcc/openstack/02b-MAChigh/sixtop.c ****                         msg->l2_sixtop_celllist_delete,
 2702              		.loc 1 987 0
 2703 0e5e 7B68     		ldr	r3, [r7, #4]
 2704 0e60 03F17501 		add	r1, r3, #117
 985:build/openmote-cc2538_armgcc/openstack/02b-MAChigh/sixtop.c ****                     sixtop_removeCells(
 2705              		.loc 1 985 0
 2706 0e64 7B68     		ldr	r3, [r7, #4]
 2707 0e66 03F13C02 		add	r2, r3, #60
 2708 0e6a 7B68     		ldr	r3, [r7, #4]
 2709 0e6c 93F89230 		ldrb	r3, [r3, #146]	@ zero_extendqisi2
 2710 0e70 FFF7FEFF 		bl	sixtop_removeCells
 988:build/openmote-cc2538_armgcc/openstack/02b-MAChigh/sixtop.c ****                         &(msg->l2_nextORpreviousHop),
 989:build/openmote-cc2538_armgcc/openstack/02b-MAChigh/sixtop.c ****                         msg->l2_sixtop_cellOptions
 990:build/openmote-cc2538_armgcc/openstack/02b-MAChigh/sixtop.c ****                     );
 991:build/openmote-cc2538_armgcc/openstack/02b-MAChigh/sixtop.c ****                     sixtop_addCells(
 992:build/openmote-cc2538_armgcc/openstack/02b-MAChigh/sixtop.c ****                         msg->l2_sixtop_frameID,
 2711              		.loc 1 992 0
 2712 0e74 7B68     		ldr	r3, [r7, #4]
 2713 0e76 B3F88E30 		ldrh	r3, [r3, #142]
 991:build/openmote-cc2538_armgcc/openstack/02b-MAChigh/sixtop.c ****                         msg->l2_sixtop_frameID,
 2714              		.loc 1 991 0
 2715 0e7a D8B2     		uxtb	r0, r3
 993:build/openmote-cc2538_armgcc/openstack/02b-MAChigh/sixtop.c ****                         msg->l2_sixtop_celllist_add,
 2716              		.loc 1 993 0
 2717 0e7c 7B68     		ldr	r3, [r7, #4]
 2718 0e7e 03F15C01 		add	r1, r3, #92
 991:build/openmote-cc2538_armgcc/openstack/02b-MAChigh/sixtop.c ****                         msg->l2_sixtop_frameID,
 2719              		.loc 1 991 0
 2720 0e82 7B68     		ldr	r3, [r7, #4]
 2721 0e84 03F13C02 		add	r2, r3, #60
 2722 0e88 7B68     		ldr	r3, [r7, #4]
 2723 0e8a 93F89230 		ldrb	r3, [r3, #146]	@ zero_extendqisi2
 2724 0e8e FFF7FEFF 		bl	sixtop_addCells
 2725              	.L159:
 994:build/openmote-cc2538_armgcc/openstack/02b-MAChigh/sixtop.c ****                         &(msg->l2_nextORpreviousHop),
 995:build/openmote-cc2538_armgcc/openstack/02b-MAChigh/sixtop.c ****                         msg->l2_sixtop_cellOptions
 996:build/openmote-cc2538_armgcc/openstack/02b-MAChigh/sixtop.c ****                     );
 997:build/openmote-cc2538_armgcc/openstack/02b-MAChigh/sixtop.c ****                 }
 998:build/openmote-cc2538_armgcc/openstack/02b-MAChigh/sixtop.c **** 
 999:build/openmote-cc2538_armgcc/openstack/02b-MAChigh/sixtop.c ****                 if ( msg->l2_sixtop_command == IANA_6TOP_CMD_CLEAR){
 2726              		.loc 1 999 0
 2727 0e92 7B68     		ldr	r3, [r7, #4]
 2728 0e94 93F89130 		ldrb	r3, [r3, #145]	@ zero_extendqisi2
 2729 0e98 072B     		cmp	r3, #7
 2730 0e9a 0ED1     		bne	.L156
1000:build/openmote-cc2538_armgcc/openstack/02b-MAChigh/sixtop.c ****                     schedule_removeAllCells(
1001:build/openmote-cc2538_armgcc/openstack/02b-MAChigh/sixtop.c ****                         msg->l2_sixtop_frameID,
 2731              		.loc 1 1001 0
 2732 0e9c 7B68     		ldr	r3, [r7, #4]
 2733 0e9e B3F88E30 		ldrh	r3, [r3, #142]
1000:build/openmote-cc2538_armgcc/openstack/02b-MAChigh/sixtop.c ****                     schedule_removeAllCells(
 2734              		.loc 1 1000 0
 2735 0ea2 DAB2     		uxtb	r2, r3
 2736 0ea4 7B68     		ldr	r3, [r7, #4]
 2737 0ea6 3C33     		adds	r3, r3, #60
 2738 0ea8 1046     		mov	r0, r2
 2739 0eaa 1946     		mov	r1, r3
 2740 0eac FFF7FEFF 		bl	schedule_removeAllCells
1002:build/openmote-cc2538_armgcc/openstack/02b-MAChigh/sixtop.c ****                         &(msg->l2_nextORpreviousHop)
1003:build/openmote-cc2538_armgcc/openstack/02b-MAChigh/sixtop.c ****                     );
1004:build/openmote-cc2538_armgcc/openstack/02b-MAChigh/sixtop.c ****                     neighbors_resetSequenceNumber(&(msg->l2_nextORpreviousHop));
 2741              		.loc 1 1004 0
 2742 0eb0 7B68     		ldr	r3, [r7, #4]
 2743 0eb2 3C33     		adds	r3, r3, #60
 2744 0eb4 1846     		mov	r0, r3
 2745 0eb6 FFF7FEFF 		bl	neighbors_resetSequenceNumber
 2746              	.L156:
1005:build/openmote-cc2538_armgcc/openstack/02b-MAChigh/sixtop.c ****                 }
1006:build/openmote-cc2538_armgcc/openstack/02b-MAChigh/sixtop.c ****             } else {
1007:build/openmote-cc2538_armgcc/openstack/02b-MAChigh/sixtop.c ****                 // the return code doesn't end up with SUCCESS
1008:build/openmote-cc2538_armgcc/openstack/02b-MAChigh/sixtop.c ****                 // The return code will be processed on request side.
1009:build/openmote-cc2538_armgcc/openstack/02b-MAChigh/sixtop.c ****             }
1010:build/openmote-cc2538_armgcc/openstack/02b-MAChigh/sixtop.c ****         } else {
1011:build/openmote-cc2538_armgcc/openstack/02b-MAChigh/sixtop.c ****             // doesn't receive the ACK of response packet from request side after maximum retries.
1012:build/openmote-cc2538_armgcc/openstack/02b-MAChigh/sixtop.c ****         }
1013:build/openmote-cc2538_armgcc/openstack/02b-MAChigh/sixtop.c ****     }
1014:build/openmote-cc2538_armgcc/openstack/02b-MAChigh/sixtop.c ****     // free the buffer
1015:build/openmote-cc2538_armgcc/openstack/02b-MAChigh/sixtop.c ****     openqueue_freePacketBuffer(msg);
 2747              		.loc 1 1015 0
 2748 0eba 7868     		ldr	r0, [r7, #4]
 2749 0ebc FFF7FEFF 		bl	openqueue_freePacketBuffer
1016:build/openmote-cc2538_armgcc/openstack/02b-MAChigh/sixtop.c **** }
 2750              		.loc 1 1016 0
 2751 0ec0 0837     		adds	r7, r7, #8
 2752              		.cfi_def_cfa_offset 8
 2753 0ec2 BD46     		mov	sp, r7
 2754              		.cfi_def_cfa_register 13
 2755              		@ sp needed
 2756 0ec4 80BD     		pop	{r7, pc}
 2757              	.L163:
 2758 0ec6 00BF     		.align	2
 2759              	.L162:
 2760 0ec8 00000000 		.word	sixtop_vars
 2761 0ecc 00000000 		.word	sixtop_timeout_timer_cb
 2762              		.cfi_endproc
 2763              	.LFE20:
 2765              		.align	2
 2766              		.global	sixtop_processIEs
 2767              		.thumb
 2768              		.thumb_func
 2770              	sixtop_processIEs:
 2771              	.LFB21:
1017:build/openmote-cc2538_armgcc/openstack/02b-MAChigh/sixtop.c **** 
1018:build/openmote-cc2538_armgcc/openstack/02b-MAChigh/sixtop.c **** port_INLINE bool sixtop_processIEs(OpenQueueEntry_t* pkt, uint16_t * lenIE) {
 2772              		.loc 1 1018 0
 2773              		.cfi_startproc
 2774              		@ args = 0, pretend = 0, frame = 24
 2775              		@ frame_needed = 1, uses_anonymous_args = 0
 2776 0ed0 B0B5     		push	{r4, r5, r7, lr}
 2777              		.cfi_def_cfa_offset 16
 2778              		.cfi_offset 4, -16
 2779              		.cfi_offset 5, -12
 2780              		.cfi_offset 7, -8
 2781              		.cfi_offset 14, -4
 2782 0ed2 8AB0     		sub	sp, sp, #40
 2783              		.cfi_def_cfa_offset 56
 2784 0ed4 04AF     		add	r7, sp, #16
 2785              		.cfi_def_cfa 7, 40
 2786 0ed6 7860     		str	r0, [r7, #4]
 2787 0ed8 3960     		str	r1, [r7]
1019:build/openmote-cc2538_armgcc/openstack/02b-MAChigh/sixtop.c ****     uint8_t ptr;
1020:build/openmote-cc2538_armgcc/openstack/02b-MAChigh/sixtop.c ****     uint8_t temp_8b;
1021:build/openmote-cc2538_armgcc/openstack/02b-MAChigh/sixtop.c ****     uint8_t subtypeid,code,sfid,version,type,seqNum;
1022:build/openmote-cc2538_armgcc/openstack/02b-MAChigh/sixtop.c ****     uint16_t temp_16b,len,headerlen;
1023:build/openmote-cc2538_armgcc/openstack/02b-MAChigh/sixtop.c **** 
1024:build/openmote-cc2538_armgcc/openstack/02b-MAChigh/sixtop.c ****     ptr         = 0;
 2788              		.loc 1 1024 0
 2789 0eda 0023     		movs	r3, #0
 2790 0edc FB75     		strb	r3, [r7, #23]
1025:build/openmote-cc2538_armgcc/openstack/02b-MAChigh/sixtop.c ****     headerlen   = 0;
 2791              		.loc 1 1025 0
 2792 0ede 0023     		movs	r3, #0
 2793 0ee0 BB82     		strh	r3, [r7, #20]	@ movhi
1026:build/openmote-cc2538_armgcc/openstack/02b-MAChigh/sixtop.c **** 
1027:build/openmote-cc2538_armgcc/openstack/02b-MAChigh/sixtop.c ****     //candidate IE header  if type ==0 header IE if type==1 payload IE
1028:build/openmote-cc2538_armgcc/openstack/02b-MAChigh/sixtop.c ****     temp_8b     = *((uint8_t*)(pkt->payload)+ptr);
 2794              		.loc 1 1028 0
 2795 0ee2 7B68     		ldr	r3, [r7, #4]
 2796 0ee4 5A68     		ldr	r2, [r3, #4]
 2797 0ee6 FB7D     		ldrb	r3, [r7, #23]	@ zero_extendqisi2
 2798 0ee8 1344     		add	r3, r3, r2
 2799 0eea 1B78     		ldrb	r3, [r3]
 2800 0eec FB74     		strb	r3, [r7, #19]
1029:build/openmote-cc2538_armgcc/openstack/02b-MAChigh/sixtop.c ****     ptr++;
 2801              		.loc 1 1029 0
 2802 0eee FB7D     		ldrb	r3, [r7, #23]	@ zero_extendqisi2
 2803 0ef0 0133     		adds	r3, r3, #1
 2804 0ef2 FB75     		strb	r3, [r7, #23]
1030:build/openmote-cc2538_armgcc/openstack/02b-MAChigh/sixtop.c ****     temp_16b    = temp_8b + ((*((uint8_t*)(pkt->payload)+ptr))<<8);
 2805              		.loc 1 1030 0
 2806 0ef4 FB7C     		ldrb	r3, [r7, #19]	@ zero_extendqisi2
 2807 0ef6 9AB2     		uxth	r2, r3
 2808 0ef8 7B68     		ldr	r3, [r7, #4]
 2809 0efa 5968     		ldr	r1, [r3, #4]
 2810 0efc FB7D     		ldrb	r3, [r7, #23]	@ zero_extendqisi2
 2811 0efe 0B44     		add	r3, r3, r1
 2812 0f00 1B78     		ldrb	r3, [r3]	@ zero_extendqisi2
 2813 0f02 9BB2     		uxth	r3, r3
 2814 0f04 1B02     		lsls	r3, r3, #8
 2815 0f06 9BB2     		uxth	r3, r3
 2816 0f08 1344     		add	r3, r3, r2
 2817 0f0a 3B82     		strh	r3, [r7, #16]	@ movhi
1031:build/openmote-cc2538_armgcc/openstack/02b-MAChigh/sixtop.c ****     ptr++;
 2818              		.loc 1 1031 0
 2819 0f0c FB7D     		ldrb	r3, [r7, #23]	@ zero_extendqisi2
 2820 0f0e 0133     		adds	r3, r3, #1
 2821 0f10 FB75     		strb	r3, [r7, #23]
1032:build/openmote-cc2538_armgcc/openstack/02b-MAChigh/sixtop.c ****     *lenIE += 2;
 2822              		.loc 1 1032 0
 2823 0f12 3B68     		ldr	r3, [r7]
 2824 0f14 1B88     		ldrh	r3, [r3]
 2825 0f16 0233     		adds	r3, r3, #2
 2826 0f18 9AB2     		uxth	r2, r3
 2827 0f1a 3B68     		ldr	r3, [r7]
 2828 0f1c 1A80     		strh	r2, [r3]	@ movhi
1033:build/openmote-cc2538_armgcc/openstack/02b-MAChigh/sixtop.c ****     // check ietf ie group id, type
1034:build/openmote-cc2538_armgcc/openstack/02b-MAChigh/sixtop.c ****     if ((temp_16b & IEEE802154E_DESC_LEN_PAYLOAD_ID_TYPE_MASK) != (IANA_IETF_IE_GROUP_ID | IANA_IET
 2829              		.loc 1 1034 0
 2830 0f1e 3B8A     		ldrh	r3, [r7, #16]
 2831 0f20 03F47843 		and	r3, r3, #63488
 2832 0f24 B3F5284F 		cmp	r3, #43008
 2833 0f28 07D0     		beq	.L165
1035:build/openmote-cc2538_armgcc/openstack/02b-MAChigh/sixtop.c ****         // wrong IE ID or type, record and drop the packet
1036:build/openmote-cc2538_armgcc/openstack/02b-MAChigh/sixtop.c ****         openserial_printError(COMPONENT_SIXTOP,ERR_UNSUPPORTED_FORMAT,0,0);
 2834              		.loc 1 1036 0
 2835 0f2a 0C20     		movs	r0, #12
 2836 0f2c 4021     		movs	r1, #64
 2837 0f2e 0022     		movs	r2, #0
 2838 0f30 0023     		movs	r3, #0
 2839 0f32 FFF7FEFF 		bl	openserial_printError
1037:build/openmote-cc2538_armgcc/openstack/02b-MAChigh/sixtop.c ****         return FALSE;
 2840              		.loc 1 1037 0
 2841 0f36 0023     		movs	r3, #0
 2842 0f38 80E0     		b	.L166
 2843              	.L165:
1038:build/openmote-cc2538_armgcc/openstack/02b-MAChigh/sixtop.c ****     }
1039:build/openmote-cc2538_armgcc/openstack/02b-MAChigh/sixtop.c ****     len = temp_16b & IEEE802154E_DESC_LEN_PAYLOAD_IE_MASK;
 2844              		.loc 1 1039 0
 2845 0f3a 3B8A     		ldrh	r3, [r7, #16]	@ movhi
 2846 0f3c C3F30A03 		ubfx	r3, r3, #0, #11
 2847 0f40 FB81     		strh	r3, [r7, #14]	@ movhi
1040:build/openmote-cc2538_armgcc/openstack/02b-MAChigh/sixtop.c ****     *lenIE += len;
 2848              		.loc 1 1040 0
 2849 0f42 3B68     		ldr	r3, [r7]
 2850 0f44 1A88     		ldrh	r2, [r3]
 2851 0f46 FB89     		ldrh	r3, [r7, #14]	@ movhi
 2852 0f48 1344     		add	r3, r3, r2
 2853 0f4a 9AB2     		uxth	r2, r3
 2854 0f4c 3B68     		ldr	r3, [r7]
 2855 0f4e 1A80     		strh	r2, [r3]	@ movhi
1041:build/openmote-cc2538_armgcc/openstack/02b-MAChigh/sixtop.c **** 
1042:build/openmote-cc2538_armgcc/openstack/02b-MAChigh/sixtop.c ****     // check 6p subtype Id
1043:build/openmote-cc2538_armgcc/openstack/02b-MAChigh/sixtop.c ****     subtypeid  = *((uint8_t*)(pkt->payload)+ptr);
 2856              		.loc 1 1043 0
 2857 0f50 7B68     		ldr	r3, [r7, #4]
 2858 0f52 5A68     		ldr	r2, [r3, #4]
 2859 0f54 FB7D     		ldrb	r3, [r7, #23]	@ zero_extendqisi2
 2860 0f56 1344     		add	r3, r3, r2
 2861 0f58 1B78     		ldrb	r3, [r3]
 2862 0f5a 7B73     		strb	r3, [r7, #13]
1044:build/openmote-cc2538_armgcc/openstack/02b-MAChigh/sixtop.c ****     ptr += 1;
 2863              		.loc 1 1044 0
 2864 0f5c FB7D     		ldrb	r3, [r7, #23]
 2865 0f5e 0133     		adds	r3, r3, #1
 2866 0f60 FB75     		strb	r3, [r7, #23]
1045:build/openmote-cc2538_armgcc/openstack/02b-MAChigh/sixtop.c ****     if (subtypeid != IANA_6TOP_SUBIE_ID){
 2867              		.loc 1 1045 0
 2868 0f62 7B7B     		ldrb	r3, [r7, #13]	@ zero_extendqisi2
 2869 0f64 C92B     		cmp	r3, #201
 2870 0f66 07D0     		beq	.L167
1046:build/openmote-cc2538_armgcc/openstack/02b-MAChigh/sixtop.c ****         // wrong subtypeID, record and drop the packet
1047:build/openmote-cc2538_armgcc/openstack/02b-MAChigh/sixtop.c ****         openserial_printError(COMPONENT_SIXTOP,ERR_UNSUPPORTED_FORMAT,1,0);
 2871              		.loc 1 1047 0
 2872 0f68 0C20     		movs	r0, #12
 2873 0f6a 4021     		movs	r1, #64
 2874 0f6c 0122     		movs	r2, #1
 2875 0f6e 0023     		movs	r3, #0
 2876 0f70 FFF7FEFF 		bl	openserial_printError
1048:build/openmote-cc2538_armgcc/openstack/02b-MAChigh/sixtop.c ****         return FALSE;
 2877              		.loc 1 1048 0
 2878 0f74 0023     		movs	r3, #0
 2879 0f76 61E0     		b	.L166
 2880              	.L167:
1049:build/openmote-cc2538_armgcc/openstack/02b-MAChigh/sixtop.c ****     }
1050:build/openmote-cc2538_armgcc/openstack/02b-MAChigh/sixtop.c ****     headerlen += 1;
 2881              		.loc 1 1050 0
 2882 0f78 BB8A     		ldrh	r3, [r7, #20]	@ movhi
 2883 0f7a 0133     		adds	r3, r3, #1
 2884 0f7c BB82     		strh	r3, [r7, #20]	@ movhi
1051:build/openmote-cc2538_armgcc/openstack/02b-MAChigh/sixtop.c **** 
1052:build/openmote-cc2538_armgcc/openstack/02b-MAChigh/sixtop.c ****     // check 6p version
1053:build/openmote-cc2538_armgcc/openstack/02b-MAChigh/sixtop.c ****     temp_8b = *((uint8_t*)(pkt->payload)+ptr);
 2885              		.loc 1 1053 0
 2886 0f7e 7B68     		ldr	r3, [r7, #4]
 2887 0f80 5A68     		ldr	r2, [r3, #4]
 2888 0f82 FB7D     		ldrb	r3, [r7, #23]	@ zero_extendqisi2
 2889 0f84 1344     		add	r3, r3, r2
 2890 0f86 1B78     		ldrb	r3, [r3]
 2891 0f88 FB74     		strb	r3, [r7, #19]
1054:build/openmote-cc2538_armgcc/openstack/02b-MAChigh/sixtop.c ****     ptr += 1;
 2892              		.loc 1 1054 0
 2893 0f8a FB7D     		ldrb	r3, [r7, #23]
 2894 0f8c 0133     		adds	r3, r3, #1
 2895 0f8e FB75     		strb	r3, [r7, #23]
1055:build/openmote-cc2538_armgcc/openstack/02b-MAChigh/sixtop.c ****     // 6p doesn't define type 3
1056:build/openmote-cc2538_armgcc/openstack/02b-MAChigh/sixtop.c ****     if (temp_8b>>IANA_6TOP_TYPE_SHIFT == 3){
 2896              		.loc 1 1056 0
 2897 0f90 FB7C     		ldrb	r3, [r7, #19]	@ zero_extendqisi2
 2898 0f92 1B09     		lsrs	r3, r3, #4
 2899 0f94 DBB2     		uxtb	r3, r3
 2900 0f96 032B     		cmp	r3, #3
 2901 0f98 07D1     		bne	.L168
1057:build/openmote-cc2538_armgcc/openstack/02b-MAChigh/sixtop.c ****         // wrong type, record and drop the packet
1058:build/openmote-cc2538_armgcc/openstack/02b-MAChigh/sixtop.c ****         openserial_printError(COMPONENT_SIXTOP,ERR_UNSUPPORTED_FORMAT,2,0);
 2902              		.loc 1 1058 0
 2903 0f9a 0C20     		movs	r0, #12
 2904 0f9c 4021     		movs	r1, #64
 2905 0f9e 0222     		movs	r2, #2
 2906 0fa0 0023     		movs	r3, #0
 2907 0fa2 FFF7FEFF 		bl	openserial_printError
1059:build/openmote-cc2538_armgcc/openstack/02b-MAChigh/sixtop.c ****         return FALSE;
 2908              		.loc 1 1059 0
 2909 0fa6 0023     		movs	r3, #0
 2910 0fa8 48E0     		b	.L166
 2911              	.L168:
1060:build/openmote-cc2538_armgcc/openstack/02b-MAChigh/sixtop.c ****     }
1061:build/openmote-cc2538_armgcc/openstack/02b-MAChigh/sixtop.c ****     version    = temp_8b &  IANA_6TOP_VESION_MASK;
 2912              		.loc 1 1061 0
 2913 0faa FB7C     		ldrb	r3, [r7, #19]
 2914 0fac 03F00F03 		and	r3, r3, #15
 2915 0fb0 3B73     		strb	r3, [r7, #12]
1062:build/openmote-cc2538_armgcc/openstack/02b-MAChigh/sixtop.c ****     type       = temp_8b >> IANA_6TOP_TYPE_SHIFT;
 2916              		.loc 1 1062 0
 2917 0fb2 FB7C     		ldrb	r3, [r7, #19]	@ zero_extendqisi2
 2918 0fb4 1B09     		lsrs	r3, r3, #4
 2919 0fb6 FB72     		strb	r3, [r7, #11]
1063:build/openmote-cc2538_armgcc/openstack/02b-MAChigh/sixtop.c ****     headerlen += 1;
 2920              		.loc 1 1063 0
 2921 0fb8 BB8A     		ldrh	r3, [r7, #20]	@ movhi
 2922 0fba 0133     		adds	r3, r3, #1
 2923 0fbc BB82     		strh	r3, [r7, #20]	@ movhi
1064:build/openmote-cc2538_armgcc/openstack/02b-MAChigh/sixtop.c **** 
1065:build/openmote-cc2538_armgcc/openstack/02b-MAChigh/sixtop.c ****     // get 6p code
1066:build/openmote-cc2538_armgcc/openstack/02b-MAChigh/sixtop.c ****     code       = *((uint8_t*)(pkt->payload)+ptr);
 2924              		.loc 1 1066 0
 2925 0fbe 7B68     		ldr	r3, [r7, #4]
 2926 0fc0 5A68     		ldr	r2, [r3, #4]
 2927 0fc2 FB7D     		ldrb	r3, [r7, #23]	@ zero_extendqisi2
 2928 0fc4 1344     		add	r3, r3, r2
 2929 0fc6 1B78     		ldrb	r3, [r3]
 2930 0fc8 BB72     		strb	r3, [r7, #10]
1067:build/openmote-cc2538_armgcc/openstack/02b-MAChigh/sixtop.c ****     ptr       += 1;
 2931              		.loc 1 1067 0
 2932 0fca FB7D     		ldrb	r3, [r7, #23]
 2933 0fcc 0133     		adds	r3, r3, #1
 2934 0fce FB75     		strb	r3, [r7, #23]
1068:build/openmote-cc2538_armgcc/openstack/02b-MAChigh/sixtop.c ****     headerlen += 1;
 2935              		.loc 1 1068 0
 2936 0fd0 BB8A     		ldrh	r3, [r7, #20]	@ movhi
 2937 0fd2 0133     		adds	r3, r3, #1
 2938 0fd4 BB82     		strh	r3, [r7, #20]	@ movhi
1069:build/openmote-cc2538_armgcc/openstack/02b-MAChigh/sixtop.c ****     // get 6p sfid
1070:build/openmote-cc2538_armgcc/openstack/02b-MAChigh/sixtop.c ****     sfid       = *((uint8_t*)(pkt->payload)+ptr);
 2939              		.loc 1 1070 0
 2940 0fd6 7B68     		ldr	r3, [r7, #4]
 2941 0fd8 5A68     		ldr	r2, [r3, #4]
 2942 0fda FB7D     		ldrb	r3, [r7, #23]	@ zero_extendqisi2
 2943 0fdc 1344     		add	r3, r3, r2
 2944 0fde 1B78     		ldrb	r3, [r3]
 2945 0fe0 7B72     		strb	r3, [r7, #9]
1071:build/openmote-cc2538_armgcc/openstack/02b-MAChigh/sixtop.c ****     ptr       += 1;
 2946              		.loc 1 1071 0
 2947 0fe2 FB7D     		ldrb	r3, [r7, #23]
 2948 0fe4 0133     		adds	r3, r3, #1
 2949 0fe6 FB75     		strb	r3, [r7, #23]
1072:build/openmote-cc2538_armgcc/openstack/02b-MAChigh/sixtop.c ****     headerlen += 1;
 2950              		.loc 1 1072 0
 2951 0fe8 BB8A     		ldrh	r3, [r7, #20]	@ movhi
 2952 0fea 0133     		adds	r3, r3, #1
 2953 0fec BB82     		strh	r3, [r7, #20]	@ movhi
1073:build/openmote-cc2538_armgcc/openstack/02b-MAChigh/sixtop.c ****     // get 6p seqNum and GEN
1074:build/openmote-cc2538_armgcc/openstack/02b-MAChigh/sixtop.c ****     seqNum     =  *((uint8_t*)(pkt->payload)+ptr) & 0xff;
 2954              		.loc 1 1074 0
 2955 0fee 7B68     		ldr	r3, [r7, #4]
 2956 0ff0 5A68     		ldr	r2, [r3, #4]
 2957 0ff2 FB7D     		ldrb	r3, [r7, #23]	@ zero_extendqisi2
 2958 0ff4 1344     		add	r3, r3, r2
 2959 0ff6 1B78     		ldrb	r3, [r3]
 2960 0ff8 3B72     		strb	r3, [r7, #8]
1075:build/openmote-cc2538_armgcc/openstack/02b-MAChigh/sixtop.c ****     ptr       += 1;
 2961              		.loc 1 1075 0
 2962 0ffa FB7D     		ldrb	r3, [r7, #23]
 2963 0ffc 0133     		adds	r3, r3, #1
 2964 0ffe FB75     		strb	r3, [r7, #23]
1076:build/openmote-cc2538_armgcc/openstack/02b-MAChigh/sixtop.c ****     headerlen += 1;
 2965              		.loc 1 1076 0
 2966 1000 BB8A     		ldrh	r3, [r7, #20]	@ movhi
 2967 1002 0133     		adds	r3, r3, #1
 2968 1004 BB82     		strh	r3, [r7, #20]	@ movhi
1077:build/openmote-cc2538_armgcc/openstack/02b-MAChigh/sixtop.c **** 
1078:build/openmote-cc2538_armgcc/openstack/02b-MAChigh/sixtop.c ****     // give six2six to process
1079:build/openmote-cc2538_armgcc/openstack/02b-MAChigh/sixtop.c ****     sixtop_six2six_notifyReceive(version,type,code,sfid,seqNum,ptr,len-headerlen,pkt);
 2969              		.loc 1 1079 0
 2970 1006 FB89     		ldrh	r3, [r7, #14]	@ movhi
 2971 1008 DAB2     		uxtb	r2, r3
 2972 100a BB8A     		ldrh	r3, [r7, #20]	@ movhi
 2973 100c DBB2     		uxtb	r3, r3
 2974 100e D31A     		subs	r3, r2, r3
 2975 1010 DBB2     		uxtb	r3, r3
 2976 1012 387B     		ldrb	r0, [r7, #12]	@ zero_extendqisi2
 2977 1014 F97A     		ldrb	r1, [r7, #11]	@ zero_extendqisi2
 2978 1016 BD7A     		ldrb	r5, [r7, #10]	@ zero_extendqisi2
 2979 1018 7C7A     		ldrb	r4, [r7, #9]	@ zero_extendqisi2
 2980 101a 3A7A     		ldrb	r2, [r7, #8]	@ zero_extendqisi2
 2981 101c 0092     		str	r2, [sp]
 2982 101e FA7D     		ldrb	r2, [r7, #23]	@ zero_extendqisi2
 2983 1020 0192     		str	r2, [sp, #4]
 2984 1022 0293     		str	r3, [sp, #8]
 2985 1024 7B68     		ldr	r3, [r7, #4]
 2986 1026 0393     		str	r3, [sp, #12]
 2987 1028 2A46     		mov	r2, r5
 2988 102a 2346     		mov	r3, r4
 2989 102c FFF7FEFF 		bl	sixtop_six2six_notifyReceive
1080:build/openmote-cc2538_armgcc/openstack/02b-MAChigh/sixtop.c ****     *lenIE     = len+2;
 2990              		.loc 1 1080 0
 2991 1030 FB89     		ldrh	r3, [r7, #14]	@ movhi
 2992 1032 0233     		adds	r3, r3, #2
 2993 1034 9AB2     		uxth	r2, r3
 2994 1036 3B68     		ldr	r3, [r7]
 2995 1038 1A80     		strh	r2, [r3]	@ movhi
1081:build/openmote-cc2538_armgcc/openstack/02b-MAChigh/sixtop.c ****     return TRUE;
 2996              		.loc 1 1081 0
 2997 103a 0123     		movs	r3, #1
 2998              	.L166:
1082:build/openmote-cc2538_armgcc/openstack/02b-MAChigh/sixtop.c **** }
 2999              		.loc 1 1082 0
 3000 103c 1846     		mov	r0, r3
 3001 103e 1837     		adds	r7, r7, #24
 3002              		.cfi_def_cfa_offset 16
 3003 1040 BD46     		mov	sp, r7
 3004              		.cfi_def_cfa_register 13
 3005              		@ sp needed
 3006 1042 B0BD     		pop	{r4, r5, r7, pc}
 3007              		.cfi_endproc
 3008              	.LFE21:
 3010              		.align	2
 3011              		.global	sixtop_six2six_notifyReceive
 3012              		.thumb
 3013              		.thumb_func
 3015              	sixtop_six2six_notifyReceive:
 3016              	.LFB22:
1083:build/openmote-cc2538_armgcc/openstack/02b-MAChigh/sixtop.c **** 
1084:build/openmote-cc2538_armgcc/openstack/02b-MAChigh/sixtop.c **** void sixtop_six2six_notifyReceive(
1085:build/openmote-cc2538_armgcc/openstack/02b-MAChigh/sixtop.c ****     uint8_t           version,
1086:build/openmote-cc2538_armgcc/openstack/02b-MAChigh/sixtop.c ****     uint8_t           type,
1087:build/openmote-cc2538_armgcc/openstack/02b-MAChigh/sixtop.c ****     uint8_t           code,
1088:build/openmote-cc2538_armgcc/openstack/02b-MAChigh/sixtop.c ****     uint8_t           sfId,
1089:build/openmote-cc2538_armgcc/openstack/02b-MAChigh/sixtop.c ****     uint8_t           seqNum,
1090:build/openmote-cc2538_armgcc/openstack/02b-MAChigh/sixtop.c ****     uint8_t           ptr,
1091:build/openmote-cc2538_armgcc/openstack/02b-MAChigh/sixtop.c ****     uint8_t           length,
1092:build/openmote-cc2538_armgcc/openstack/02b-MAChigh/sixtop.c ****     OpenQueueEntry_t* pkt
1093:build/openmote-cc2538_armgcc/openstack/02b-MAChigh/sixtop.c **** ){
 3017              		.loc 1 1093 0
 3018              		.cfi_startproc
 3019              		@ args = 16, pretend = 0, frame = 64
 3020              		@ frame_needed = 1, uses_anonymous_args = 0
 3021 1044 90B5     		push	{r4, r7, lr}
 3022              		.cfi_def_cfa_offset 12
 3023              		.cfi_offset 4, -12
 3024              		.cfi_offset 7, -8
 3025              		.cfi_offset 14, -4
 3026 1046 93B0     		sub	sp, sp, #76
 3027              		.cfi_def_cfa_offset 88
 3028 1048 02AF     		add	r7, sp, #8
 3029              		.cfi_def_cfa 7, 80
 3030 104a 0446     		mov	r4, r0
 3031 104c 0846     		mov	r0, r1
 3032 104e 1146     		mov	r1, r2
 3033 1050 1A46     		mov	r2, r3
 3034 1052 2346     		mov	r3, r4
 3035 1054 FB71     		strb	r3, [r7, #7]
 3036 1056 0346     		mov	r3, r0
 3037 1058 BB71     		strb	r3, [r7, #6]
 3038 105a 0B46     		mov	r3, r1
 3039 105c 7B71     		strb	r3, [r7, #5]
 3040 105e 1346     		mov	r3, r2
 3041 1060 3B71     		strb	r3, [r7, #4]
1094:build/openmote-cc2538_armgcc/openstack/02b-MAChigh/sixtop.c ****     uint8_t           returnCode        = -1;
 3042              		.loc 1 1094 0
 3043 1062 FF23     		movs	r3, #255
 3044 1064 87F83F30 		strb	r3, [r7, #63]
1095:build/openmote-cc2538_armgcc/openstack/02b-MAChigh/sixtop.c ****     uint16_t          metadata          = -1;
 3045              		.loc 1 1095 0
 3046 1068 4FF6FF73 		movw	r3, #65535
 3047 106c BB87     		strh	r3, [r7, #60]	@ movhi
1096:build/openmote-cc2538_armgcc/openstack/02b-MAChigh/sixtop.c ****     uint8_t           cellOptions       = -1;
 3048              		.loc 1 1096 0
 3049 106e FF23     		movs	r3, #255
 3050 1070 87F83B30 		strb	r3, [r7, #59]
1097:build/openmote-cc2538_armgcc/openstack/02b-MAChigh/sixtop.c ****     uint8_t           cellOptions_transformed;
1098:build/openmote-cc2538_armgcc/openstack/02b-MAChigh/sixtop.c ****     uint16_t          offset;
1099:build/openmote-cc2538_armgcc/openstack/02b-MAChigh/sixtop.c ****     uint16_t          length_groupid_type;
1100:build/openmote-cc2538_armgcc/openstack/02b-MAChigh/sixtop.c ****     uint16_t          startingOffset;
1101:build/openmote-cc2538_armgcc/openstack/02b-MAChigh/sixtop.c ****     uint8_t           maxNumCells;
1102:build/openmote-cc2538_armgcc/openstack/02b-MAChigh/sixtop.c ****     uint16_t          i;
1103:build/openmote-cc2538_armgcc/openstack/02b-MAChigh/sixtop.c ****     uint16_t          slotoffset;
1104:build/openmote-cc2538_armgcc/openstack/02b-MAChigh/sixtop.c ****     uint16_t          channeloffset;
1105:build/openmote-cc2538_armgcc/openstack/02b-MAChigh/sixtop.c ****     uint16_t          numCells;
1106:build/openmote-cc2538_armgcc/openstack/02b-MAChigh/sixtop.c ****     uint16_t          temp16;
1107:build/openmote-cc2538_armgcc/openstack/02b-MAChigh/sixtop.c ****     OpenQueueEntry_t* response_pkt;
1108:build/openmote-cc2538_armgcc/openstack/02b-MAChigh/sixtop.c ****     uint8_t           pktLen            = length;
 3051              		.loc 1 1108 0
 3052 1074 97F85830 		ldrb	r3, [r7, #88]
 3053 1078 87F83130 		strb	r3, [r7, #49]
1109:build/openmote-cc2538_armgcc/openstack/02b-MAChigh/sixtop.c ****     uint8_t           response_pktLen   = 0;
 3054              		.loc 1 1109 0
 3055 107c 0023     		movs	r3, #0
 3056 107e 87F83030 		strb	r3, [r7, #48]
1110:build/openmote-cc2538_armgcc/openstack/02b-MAChigh/sixtop.c ****     cellInfo_ht       celllist_list[CELLLIST_MAX_LEN];
1111:build/openmote-cc2538_armgcc/openstack/02b-MAChigh/sixtop.c **** 
1112:build/openmote-cc2538_armgcc/openstack/02b-MAChigh/sixtop.c ****     if (type == SIXTOP_CELL_REQUEST){
 3057              		.loc 1 1112 0
 3058 1082 BB79     		ldrb	r3, [r7, #6]	@ zero_extendqisi2
 3059 1084 002B     		cmp	r3, #0
 3060 1086 40F02686 		bne	.L170
1113:build/openmote-cc2538_armgcc/openstack/02b-MAChigh/sixtop.c ****         // if this is a 6p request message
1114:build/openmote-cc2538_armgcc/openstack/02b-MAChigh/sixtop.c **** 
1115:build/openmote-cc2538_armgcc/openstack/02b-MAChigh/sixtop.c ****         // get a free packet buffer
1116:build/openmote-cc2538_armgcc/openstack/02b-MAChigh/sixtop.c ****         response_pkt = openqueue_getFreePacketBuffer(COMPONENT_SIXTOP_RES);
 3061              		.loc 1 1116 0
 3062 108a 0F20     		movs	r0, #15
 3063 108c FFF7FEFF 		bl	openqueue_getFreePacketBuffer
 3064 1090 F862     		str	r0, [r7, #44]
1117:build/openmote-cc2538_armgcc/openstack/02b-MAChigh/sixtop.c ****         if (response_pkt==NULL) {
 3065              		.loc 1 1117 0
 3066 1092 FB6A     		ldr	r3, [r7, #44]
 3067 1094 002B     		cmp	r3, #0
 3068 1096 07D1     		bne	.L171
1118:build/openmote-cc2538_armgcc/openstack/02b-MAChigh/sixtop.c ****             openserial_printError(
 3069              		.loc 1 1118 0
 3070 1098 0F20     		movs	r0, #15
 3071 109a 2C21     		movs	r1, #44
 3072 109c 0022     		movs	r2, #0
 3073 109e 0023     		movs	r3, #0
 3074 10a0 FFF7FEFF 		bl	openserial_printError
 3075 10a4 01F085B8 		b	.L169
 3076              	.L171:
1119:build/openmote-cc2538_armgcc/openstack/02b-MAChigh/sixtop.c ****                 COMPONENT_SIXTOP_RES,
1120:build/openmote-cc2538_armgcc/openstack/02b-MAChigh/sixtop.c ****                 ERR_NO_FREE_PACKET_BUFFER,
1121:build/openmote-cc2538_armgcc/openstack/02b-MAChigh/sixtop.c ****                 (errorparameter_t)0,
1122:build/openmote-cc2538_armgcc/openstack/02b-MAChigh/sixtop.c ****                 (errorparameter_t)0
1123:build/openmote-cc2538_armgcc/openstack/02b-MAChigh/sixtop.c ****             );
1124:build/openmote-cc2538_armgcc/openstack/02b-MAChigh/sixtop.c ****             return;
1125:build/openmote-cc2538_armgcc/openstack/02b-MAChigh/sixtop.c ****         }
1126:build/openmote-cc2538_armgcc/openstack/02b-MAChigh/sixtop.c **** 
1127:build/openmote-cc2538_armgcc/openstack/02b-MAChigh/sixtop.c ****         // take ownership
1128:build/openmote-cc2538_armgcc/openstack/02b-MAChigh/sixtop.c ****         response_pkt->creator = COMPONENT_SIXTOP_RES;
 3077              		.loc 1 1128 0
 3078 10a8 FB6A     		ldr	r3, [r7, #44]
 3079 10aa 0F22     		movs	r2, #15
 3080 10ac 1A70     		strb	r2, [r3]
1129:build/openmote-cc2538_armgcc/openstack/02b-MAChigh/sixtop.c ****         response_pkt->owner   = COMPONENT_SIXTOP_RES;
 3081              		.loc 1 1129 0
 3082 10ae FB6A     		ldr	r3, [r7, #44]
 3083 10b0 0F22     		movs	r2, #15
 3084 10b2 5A70     		strb	r2, [r3, #1]
1130:build/openmote-cc2538_armgcc/openstack/02b-MAChigh/sixtop.c **** 
1131:build/openmote-cc2538_armgcc/openstack/02b-MAChigh/sixtop.c ****         memcpy(&(response_pkt->l2_nextORpreviousHop),
 3085              		.loc 1 1131 0
 3086 10b4 FB6A     		ldr	r3, [r7, #44]
 3087 10b6 03F13C02 		add	r2, r3, #60
1132:build/openmote-cc2538_armgcc/openstack/02b-MAChigh/sixtop.c ****                &(pkt->l2_nextORpreviousHop),
 3088              		.loc 1 1132 0
 3089 10ba FB6D     		ldr	r3, [r7, #92]
 3090 10bc 3C33     		adds	r3, r3, #60
1131:build/openmote-cc2538_armgcc/openstack/02b-MAChigh/sixtop.c ****                &(pkt->l2_nextORpreviousHop),
 3091              		.loc 1 1131 0
 3092 10be 1046     		mov	r0, r2
 3093 10c0 1946     		mov	r1, r3
 3094 10c2 1122     		movs	r2, #17
 3095 10c4 FFF7FEFF 		bl	memcpy
1133:build/openmote-cc2538_armgcc/openstack/02b-MAChigh/sixtop.c ****                sizeof(open_addr_t)
1134:build/openmote-cc2538_armgcc/openstack/02b-MAChigh/sixtop.c ****         );
1135:build/openmote-cc2538_armgcc/openstack/02b-MAChigh/sixtop.c **** 
1136:build/openmote-cc2538_armgcc/openstack/02b-MAChigh/sixtop.c ****         // the follow while loop only execute once
1137:build/openmote-cc2538_armgcc/openstack/02b-MAChigh/sixtop.c ****         do{
1138:build/openmote-cc2538_armgcc/openstack/02b-MAChigh/sixtop.c ****             // version check
1139:build/openmote-cc2538_armgcc/openstack/02b-MAChigh/sixtop.c ****             if (version != IANA_6TOP_6P_VERSION){
 3096              		.loc 1 1139 0
 3097 10c8 FB79     		ldrb	r3, [r7, #7]	@ zero_extendqisi2
 3098 10ca 002B     		cmp	r3, #0
 3099 10cc 04D0     		beq	.L173
1140:build/openmote-cc2538_armgcc/openstack/02b-MAChigh/sixtop.c ****                 returnCode = IANA_6TOP_RC_VER_ERR;
 3100              		.loc 1 1140 0
 3101 10ce 0423     		movs	r3, #4
 3102 10d0 87F83F30 		strb	r3, [r7, #63]
1141:build/openmote-cc2538_armgcc/openstack/02b-MAChigh/sixtop.c ****                 break;
 3103              		.loc 1 1141 0
 3104 10d4 00F069BD 		b	.L174
 3105              	.L173:
1142:build/openmote-cc2538_armgcc/openstack/02b-MAChigh/sixtop.c ****             }
1143:build/openmote-cc2538_armgcc/openstack/02b-MAChigh/sixtop.c ****             // sfid check
1144:build/openmote-cc2538_armgcc/openstack/02b-MAChigh/sixtop.c ****             if (sfId != sixtop_vars.cb_sf_getsfid()){
 3106              		.loc 1 1144 0
 3107 10d8 A84B     		ldr	r3, .L248
 3108 10da DB6A     		ldr	r3, [r3, #44]
 3109 10dc 9847     		blx	r3
 3110 10de 0346     		mov	r3, r0
 3111 10e0 1A46     		mov	r2, r3
 3112 10e2 3B79     		ldrb	r3, [r7, #4]	@ zero_extendqisi2
 3113 10e4 9342     		cmp	r3, r2
 3114 10e6 04D0     		beq	.L175
1145:build/openmote-cc2538_armgcc/openstack/02b-MAChigh/sixtop.c ****                 returnCode = IANA_6TOP_RC_SFID_ERR;
 3115              		.loc 1 1145 0
 3116 10e8 0523     		movs	r3, #5
 3117 10ea 87F83F30 		strb	r3, [r7, #63]
1146:build/openmote-cc2538_armgcc/openstack/02b-MAChigh/sixtop.c ****                 break;
 3118              		.loc 1 1146 0
 3119 10ee 00F05CBD 		b	.L174
 3120              	.L175:
1147:build/openmote-cc2538_armgcc/openstack/02b-MAChigh/sixtop.c ****             }
1148:build/openmote-cc2538_armgcc/openstack/02b-MAChigh/sixtop.c ****             // sequenceNumber check
1149:build/openmote-cc2538_armgcc/openstack/02b-MAChigh/sixtop.c ****             if (seqNum != neighbors_getSequenceNumber(&(pkt->l2_nextORpreviousHop)) && code != IANA
 3121              		.loc 1 1149 0
 3122 10f2 FB6D     		ldr	r3, [r7, #92]
 3123 10f4 3C33     		adds	r3, r3, #60
 3124 10f6 1846     		mov	r0, r3
 3125 10f8 FFF7FEFF 		bl	neighbors_getSequenceNumber
 3126 10fc 0346     		mov	r3, r0
 3127 10fe 1A46     		mov	r2, r3
 3128 1100 97F85030 		ldrb	r3, [r7, #80]	@ zero_extendqisi2
 3129 1104 9342     		cmp	r3, r2
 3130 1106 07D0     		beq	.L176
 3131              		.loc 1 1149 0 is_stmt 0 discriminator 1
 3132 1108 7B79     		ldrb	r3, [r7, #5]	@ zero_extendqisi2
 3133 110a 072B     		cmp	r3, #7
 3134 110c 04D0     		beq	.L176
1150:build/openmote-cc2538_armgcc/openstack/02b-MAChigh/sixtop.c ****                 returnCode = IANA_6TOP_RC_SEQNUM_ERR;
 3135              		.loc 1 1150 0 is_stmt 1
 3136 110e 0623     		movs	r3, #6
 3137 1110 87F83F30 		strb	r3, [r7, #63]
1151:build/openmote-cc2538_armgcc/openstack/02b-MAChigh/sixtop.c ****                 break;
 3138              		.loc 1 1151 0
 3139 1114 00F049BD 		b	.L174
 3140              	.L176:
1152:build/openmote-cc2538_armgcc/openstack/02b-MAChigh/sixtop.c ****             }
1153:build/openmote-cc2538_armgcc/openstack/02b-MAChigh/sixtop.c ****             // previous 6p transcation check
1154:build/openmote-cc2538_armgcc/openstack/02b-MAChigh/sixtop.c ****             if (sixtop_vars.six2six_state != SIX_STATE_IDLE){
 3141              		.loc 1 1154 0
 3142 1118 984B     		ldr	r3, .L248
 3143 111a 9B7B     		ldrb	r3, [r3, #14]	@ zero_extendqisi2
 3144 111c 002B     		cmp	r3, #0
 3145 111e 04D0     		beq	.L177
1155:build/openmote-cc2538_armgcc/openstack/02b-MAChigh/sixtop.c ****                 returnCode = IANA_6TOP_RC_RESET;
 3146              		.loc 1 1155 0
 3147 1120 0323     		movs	r3, #3
 3148 1122 87F83F30 		strb	r3, [r7, #63]
1156:build/openmote-cc2538_armgcc/openstack/02b-MAChigh/sixtop.c ****                 break;
 3149              		.loc 1 1156 0
 3150 1126 00F040BD 		b	.L174
 3151              	.L177:
1157:build/openmote-cc2538_armgcc/openstack/02b-MAChigh/sixtop.c ****             }
1158:build/openmote-cc2538_armgcc/openstack/02b-MAChigh/sixtop.c ****             // metadata meaning check
1159:build/openmote-cc2538_armgcc/openstack/02b-MAChigh/sixtop.c ****             if (sixtop_vars.cb_sf_translateMetadata()!=METADATA_TYPE_FRAMEID){
 3152              		.loc 1 1159 0
 3153 112a 944B     		ldr	r3, .L248
 3154 112c 5B6B     		ldr	r3, [r3, #52]
 3155 112e 9847     		blx	r3
 3156 1130 0346     		mov	r3, r0
 3157 1132 002B     		cmp	r3, #0
 3158 1134 0FD0     		beq	.L178
1160:build/openmote-cc2538_armgcc/openstack/02b-MAChigh/sixtop.c ****                 openserial_printError(
1161:build/openmote-cc2538_armgcc/openstack/02b-MAChigh/sixtop.c ****                     COMPONENT_SIXTOP,
1162:build/openmote-cc2538_armgcc/openstack/02b-MAChigh/sixtop.c ****                     ERR_UNSUPPORTED_METADATA,
1163:build/openmote-cc2538_armgcc/openstack/02b-MAChigh/sixtop.c ****                     sixtop_vars.cb_sf_translateMetadata(),
 3159              		.loc 1 1163 0
 3160 1136 914B     		ldr	r3, .L248
 3161 1138 5B6B     		ldr	r3, [r3, #52]
 3162 113a 9847     		blx	r3
 3163 113c 0346     		mov	r3, r0
1160:build/openmote-cc2538_armgcc/openstack/02b-MAChigh/sixtop.c ****                 openserial_printError(
 3164              		.loc 1 1160 0
 3165 113e 9BB2     		uxth	r3, r3
 3166 1140 0C20     		movs	r0, #12
 3167 1142 4121     		movs	r1, #65
 3168 1144 1A46     		mov	r2, r3
 3169 1146 0023     		movs	r3, #0
 3170 1148 FFF7FEFF 		bl	openserial_printError
1164:build/openmote-cc2538_armgcc/openstack/02b-MAChigh/sixtop.c ****                     0
1165:build/openmote-cc2538_armgcc/openstack/02b-MAChigh/sixtop.c ****                 );
1166:build/openmote-cc2538_armgcc/openstack/02b-MAChigh/sixtop.c ****                 returnCode = IANA_6TOP_RC_ERROR;
 3171              		.loc 1 1166 0
 3172 114c 0223     		movs	r3, #2
 3173 114e 87F83F30 		strb	r3, [r7, #63]
1167:build/openmote-cc2538_armgcc/openstack/02b-MAChigh/sixtop.c ****                 break;
 3174              		.loc 1 1167 0
 3175 1152 00F02ABD 		b	.L174
 3176              	.L178:
1168:build/openmote-cc2538_armgcc/openstack/02b-MAChigh/sixtop.c ****             }
1169:build/openmote-cc2538_armgcc/openstack/02b-MAChigh/sixtop.c **** 
1170:build/openmote-cc2538_armgcc/openstack/02b-MAChigh/sixtop.c ****             // commands check
1171:build/openmote-cc2538_armgcc/openstack/02b-MAChigh/sixtop.c **** 
1172:build/openmote-cc2538_armgcc/openstack/02b-MAChigh/sixtop.c ****             // get metadata, metadata indicates frame id
1173:build/openmote-cc2538_armgcc/openstack/02b-MAChigh/sixtop.c ****             metadata  = *((uint8_t*)(pkt->payload)+ptr);
 3177              		.loc 1 1173 0
 3178 1156 FB6D     		ldr	r3, [r7, #92]
 3179 1158 5A68     		ldr	r2, [r3, #4]
 3180 115a 97F85430 		ldrb	r3, [r7, #84]	@ zero_extendqisi2
 3181 115e 1344     		add	r3, r3, r2
 3182 1160 1B78     		ldrb	r3, [r3]	@ zero_extendqisi2
 3183 1162 BB87     		strh	r3, [r7, #60]	@ movhi
1174:build/openmote-cc2538_armgcc/openstack/02b-MAChigh/sixtop.c ****             metadata |= *((uint8_t*)(pkt->payload)+ptr+1)<<8;
 3184              		.loc 1 1174 0
 3185 1164 FB6D     		ldr	r3, [r7, #92]
 3186 1166 5A68     		ldr	r2, [r3, #4]
 3187 1168 97F85430 		ldrb	r3, [r7, #84]	@ zero_extendqisi2
 3188 116c 0133     		adds	r3, r3, #1
 3189 116e 1344     		add	r3, r3, r2
 3190 1170 1B78     		ldrb	r3, [r3]	@ zero_extendqisi2
 3191 1172 1B02     		lsls	r3, r3, #8
 3192 1174 9AB2     		uxth	r2, r3
 3193 1176 BB8F     		ldrh	r3, [r7, #60]
 3194 1178 1343     		orrs	r3, r3, r2
 3195 117a 9BB2     		uxth	r3, r3
 3196 117c BB87     		strh	r3, [r7, #60]	@ movhi
1175:build/openmote-cc2538_armgcc/openstack/02b-MAChigh/sixtop.c ****             ptr      += 2;
 3197              		.loc 1 1175 0
 3198 117e 97F85430 		ldrb	r3, [r7, #84]
 3199 1182 0233     		adds	r3, r3, #2
 3200 1184 87F85430 		strb	r3, [r7, #84]
1176:build/openmote-cc2538_armgcc/openstack/02b-MAChigh/sixtop.c ****             pktLen   -= 2;
 3201              		.loc 1 1176 0
 3202 1188 97F83130 		ldrb	r3, [r7, #49]
 3203 118c 023B     		subs	r3, r3, #2
 3204 118e 87F83130 		strb	r3, [r7, #49]
1177:build/openmote-cc2538_armgcc/openstack/02b-MAChigh/sixtop.c **** 
1178:build/openmote-cc2538_armgcc/openstack/02b-MAChigh/sixtop.c ****             // clear command
1179:build/openmote-cc2538_armgcc/openstack/02b-MAChigh/sixtop.c ****             if (code == IANA_6TOP_CMD_CLEAR){
 3205              		.loc 1 1179 0
 3206 1192 7B79     		ldrb	r3, [r7, #5]	@ zero_extendqisi2
 3207 1194 072B     		cmp	r3, #7
 3208 1196 04D1     		bne	.L179
1180:build/openmote-cc2538_armgcc/openstack/02b-MAChigh/sixtop.c ****                 // the cells will be removed when the repsonse sendone successfully
1181:build/openmote-cc2538_armgcc/openstack/02b-MAChigh/sixtop.c ****                 // don't clear cells here
1182:build/openmote-cc2538_armgcc/openstack/02b-MAChigh/sixtop.c ****                 returnCode = IANA_6TOP_RC_SUCCESS;
 3209              		.loc 1 1182 0
 3210 1198 0023     		movs	r3, #0
 3211 119a 87F83F30 		strb	r3, [r7, #63]
1183:build/openmote-cc2538_armgcc/openstack/02b-MAChigh/sixtop.c ****                 break;
 3212              		.loc 1 1183 0
 3213 119e 00F004BD 		b	.L174
 3214              	.L179:
1184:build/openmote-cc2538_armgcc/openstack/02b-MAChigh/sixtop.c ****             }
1185:build/openmote-cc2538_armgcc/openstack/02b-MAChigh/sixtop.c **** 
1186:build/openmote-cc2538_armgcc/openstack/02b-MAChigh/sixtop.c ****             cellOptions  = *((uint8_t*)(pkt->payload)+ptr);
 3215              		.loc 1 1186 0
 3216 11a2 FB6D     		ldr	r3, [r7, #92]
 3217 11a4 5A68     		ldr	r2, [r3, #4]
 3218 11a6 97F85430 		ldrb	r3, [r7, #84]	@ zero_extendqisi2
 3219 11aa 1344     		add	r3, r3, r2
 3220 11ac 1B78     		ldrb	r3, [r3]
 3221 11ae 87F83B30 		strb	r3, [r7, #59]
1187:build/openmote-cc2538_armgcc/openstack/02b-MAChigh/sixtop.c ****             ptr         += 1;
 3222              		.loc 1 1187 0
 3223 11b2 97F85430 		ldrb	r3, [r7, #84]
 3224 11b6 0133     		adds	r3, r3, #1
 3225 11b8 87F85430 		strb	r3, [r7, #84]
1188:build/openmote-cc2538_armgcc/openstack/02b-MAChigh/sixtop.c ****             pktLen      -= 1;
 3226              		.loc 1 1188 0
 3227 11bc 97F83130 		ldrb	r3, [r7, #49]
 3228 11c0 013B     		subs	r3, r3, #1
 3229 11c2 87F83130 		strb	r3, [r7, #49]
1189:build/openmote-cc2538_armgcc/openstack/02b-MAChigh/sixtop.c **** 
1190:build/openmote-cc2538_armgcc/openstack/02b-MAChigh/sixtop.c ****             // list command
1191:build/openmote-cc2538_armgcc/openstack/02b-MAChigh/sixtop.c ****             if (code == IANA_6TOP_CMD_LIST){
 3230              		.loc 1 1191 0
 3231 11c6 7B79     		ldrb	r3, [r7, #5]	@ zero_extendqisi2
 3232 11c8 052B     		cmp	r3, #5
 3233 11ca 40F0BC80 		bne	.L180
1192:build/openmote-cc2538_armgcc/openstack/02b-MAChigh/sixtop.c ****                 ptr += 1; // skip the one byte reserved field
 3234              		.loc 1 1192 0
 3235 11ce 97F85430 		ldrb	r3, [r7, #84]
 3236 11d2 0133     		adds	r3, r3, #1
 3237 11d4 87F85430 		strb	r3, [r7, #84]
1193:build/openmote-cc2538_armgcc/openstack/02b-MAChigh/sixtop.c ****                 offset  = *((uint8_t*)(pkt->payload)+ptr);
 3238              		.loc 1 1193 0
 3239 11d8 FB6D     		ldr	r3, [r7, #92]
 3240 11da 5A68     		ldr	r2, [r3, #4]
 3241 11dc 97F85430 		ldrb	r3, [r7, #84]	@ zero_extendqisi2
 3242 11e0 1344     		add	r3, r3, r2
 3243 11e2 1B78     		ldrb	r3, [r3]	@ zero_extendqisi2
 3244 11e4 7B85     		strh	r3, [r7, #42]	@ movhi
1194:build/openmote-cc2538_armgcc/openstack/02b-MAChigh/sixtop.c ****                 offset |= *((uint8_t*)(pkt->payload)+ptr+1)<<8;
 3245              		.loc 1 1194 0
 3246 11e6 FB6D     		ldr	r3, [r7, #92]
 3247 11e8 5A68     		ldr	r2, [r3, #4]
 3248 11ea 97F85430 		ldrb	r3, [r7, #84]	@ zero_extendqisi2
 3249 11ee 0133     		adds	r3, r3, #1
 3250 11f0 1344     		add	r3, r3, r2
 3251 11f2 1B78     		ldrb	r3, [r3]	@ zero_extendqisi2
 3252 11f4 1B02     		lsls	r3, r3, #8
 3253 11f6 9AB2     		uxth	r2, r3
 3254 11f8 7B8D     		ldrh	r3, [r7, #42]
 3255 11fa 1343     		orrs	r3, r3, r2
 3256 11fc 9BB2     		uxth	r3, r3
 3257 11fe 7B85     		strh	r3, [r7, #42]	@ movhi
1195:build/openmote-cc2538_armgcc/openstack/02b-MAChigh/sixtop.c ****                 ptr += 2;
 3258              		.loc 1 1195 0
 3259 1200 97F85430 		ldrb	r3, [r7, #84]
 3260 1204 0233     		adds	r3, r3, #2
 3261 1206 87F85430 		strb	r3, [r7, #84]
1196:build/openmote-cc2538_armgcc/openstack/02b-MAChigh/sixtop.c ****                 maxNumCells  = *((uint8_t*)(pkt->payload)+ptr);
 3262              		.loc 1 1196 0
 3263 120a FB6D     		ldr	r3, [r7, #92]
 3264 120c 5A68     		ldr	r2, [r3, #4]
 3265 120e 97F85430 		ldrb	r3, [r7, #84]	@ zero_extendqisi2
 3266 1212 1344     		add	r3, r3, r2
 3267 1214 1B78     		ldrb	r3, [r3]
 3268 1216 87F82930 		strb	r3, [r7, #41]
1197:build/openmote-cc2538_armgcc/openstack/02b-MAChigh/sixtop.c ****                 maxNumCells |= *((uint8_t*)(pkt->payload)+ptr+1)<<8;
 3269              		.loc 1 1197 0
 3270 121a FB6D     		ldr	r3, [r7, #92]
 3271 121c 5A68     		ldr	r2, [r3, #4]
 3272 121e 97F85430 		ldrb	r3, [r7, #84]	@ zero_extendqisi2
 3273 1222 0133     		adds	r3, r3, #1
 3274 1224 1344     		add	r3, r3, r2
 3275 1226 1B78     		ldrb	r3, [r3]	@ zero_extendqisi2
 3276 1228 1B02     		lsls	r3, r3, #8
 3277 122a DAB2     		uxtb	r2, r3
 3278 122c 97F82930 		ldrb	r3, [r7, #41]	@ zero_extendqisi2
 3279 1230 1343     		orrs	r3, r3, r2
 3280 1232 DBB2     		uxtb	r3, r3
 3281 1234 87F82930 		strb	r3, [r7, #41]
1198:build/openmote-cc2538_armgcc/openstack/02b-MAChigh/sixtop.c ****                 ptr += 2;
 3282              		.loc 1 1198 0
 3283 1238 97F85430 		ldrb	r3, [r7, #84]
 3284 123c 0233     		adds	r3, r3, #2
 3285 123e 87F85430 		strb	r3, [r7, #84]
1199:build/openmote-cc2538_armgcc/openstack/02b-MAChigh/sixtop.c **** 
1200:build/openmote-cc2538_armgcc/openstack/02b-MAChigh/sixtop.c ****                 returnCode = IANA_6TOP_RC_SUCCESS;
 3286              		.loc 1 1200 0
 3287 1242 0023     		movs	r3, #0
 3288 1244 87F83F30 		strb	r3, [r7, #63]
1201:build/openmote-cc2538_armgcc/openstack/02b-MAChigh/sixtop.c ****                 startingOffset = offset;
 3289              		.loc 1 1201 0
 3290 1248 7B8D     		ldrh	r3, [r7, #42]	@ movhi
 3291 124a 3B87     		strh	r3, [r7, #56]	@ movhi
1202:build/openmote-cc2538_armgcc/openstack/02b-MAChigh/sixtop.c ****                 if ((cellOptions & (CELLOPTIONS_TX | CELLOPTIONS_RX)) != (CELLOPTIONS_TX | CELLOPTI
 3292              		.loc 1 1202 0
 3293 124c 97F83B30 		ldrb	r3, [r7, #59]	@ zero_extendqisi2
 3294 1250 03F00303 		and	r3, r3, #3
 3295 1254 032B     		cmp	r3, #3
 3296 1256 06D0     		beq	.L181
1203:build/openmote-cc2538_armgcc/openstack/02b-MAChigh/sixtop.c ****                     cellOptions_transformed = cellOptions ^ (CELLOPTIONS_TX | CELLOPTIONS_RX);
 3297              		.loc 1 1203 0
 3298 1258 97F83B30 		ldrb	r3, [r7, #59]
 3299 125c 83F00303 		eor	r3, r3, #3
 3300 1260 87F83A30 		strb	r3, [r7, #58]
 3301 1264 03E0     		b	.L182
 3302              	.L181:
1204:build/openmote-cc2538_armgcc/openstack/02b-MAChigh/sixtop.c ****                 } else {
1205:build/openmote-cc2538_armgcc/openstack/02b-MAChigh/sixtop.c ****                     cellOptions_transformed = cellOptions;
 3303              		.loc 1 1205 0
 3304 1266 97F83B30 		ldrb	r3, [r7, #59]
 3305 126a 87F83A30 		strb	r3, [r7, #58]
 3306              	.L182:
1206:build/openmote-cc2538_armgcc/openstack/02b-MAChigh/sixtop.c ****                 }
1207:build/openmote-cc2538_armgcc/openstack/02b-MAChigh/sixtop.c ****                 for(i=0; i<maxNumCells; i++) {
 3307              		.loc 1 1207 0
 3308 126e 0023     		movs	r3, #0
 3309 1270 FB86     		strh	r3, [r7, #54]	@ movhi
 3310 1272 43E0     		b	.L183
 3311              	.L187:
1208:build/openmote-cc2538_armgcc/openstack/02b-MAChigh/sixtop.c ****                     if (
1209:build/openmote-cc2538_armgcc/openstack/02b-MAChigh/sixtop.c ****                         schedule_getOneCellAfterOffset(
 3312              		.loc 1 1209 0
 3313 1274 BB8F     		ldrh	r3, [r7, #60]	@ movhi
 3314 1276 D8B2     		uxtb	r0, r3
 3315 1278 3B8F     		ldrh	r3, [r7, #56]	@ movhi
 3316 127a D9B2     		uxtb	r1, r3
 3317 127c FB6D     		ldr	r3, [r7, #92]
 3318 127e 03F13C02 		add	r2, r3, #60
 3319 1282 97F83A40 		ldrb	r4, [r7, #58]	@ zero_extendqisi2
 3320 1286 07F12403 		add	r3, r7, #36
 3321 128a 0093     		str	r3, [sp]
 3322 128c 07F12203 		add	r3, r7, #34
 3323 1290 0193     		str	r3, [sp, #4]
 3324 1292 2346     		mov	r3, r4
 3325 1294 FFF7FEFF 		bl	schedule_getOneCellAfterOffset
 3326 1298 0346     		mov	r3, r0
1208:build/openmote-cc2538_armgcc/openstack/02b-MAChigh/sixtop.c ****                     if (
 3327              		.loc 1 1208 0
 3328 129a 002B     		cmp	r3, #0
 3329 129c 27D0     		beq	.L184
1210:build/openmote-cc2538_armgcc/openstack/02b-MAChigh/sixtop.c ****                             metadata,
1211:build/openmote-cc2538_armgcc/openstack/02b-MAChigh/sixtop.c ****                             startingOffset,
1212:build/openmote-cc2538_armgcc/openstack/02b-MAChigh/sixtop.c ****                             &(pkt->l2_nextORpreviousHop),
1213:build/openmote-cc2538_armgcc/openstack/02b-MAChigh/sixtop.c ****                             cellOptions_transformed,
1214:build/openmote-cc2538_armgcc/openstack/02b-MAChigh/sixtop.c ****                             &slotoffset,
1215:build/openmote-cc2538_armgcc/openstack/02b-MAChigh/sixtop.c ****                             &channeloffset)
1216:build/openmote-cc2538_armgcc/openstack/02b-MAChigh/sixtop.c ****                     ){
1217:build/openmote-cc2538_armgcc/openstack/02b-MAChigh/sixtop.c ****                         // found one cell after slot offset+i
1218:build/openmote-cc2538_armgcc/openstack/02b-MAChigh/sixtop.c ****                         packetfunctions_reserveHeaderSize(response_pkt,4);
 3330              		.loc 1 1218 0
 3331 129e F86A     		ldr	r0, [r7, #44]
 3332 12a0 0421     		movs	r1, #4
 3333 12a2 FFF7FEFF 		bl	packetfunctions_reserveHeaderSize
1219:build/openmote-cc2538_armgcc/openstack/02b-MAChigh/sixtop.c ****                         response_pkt->payload[0] = slotoffset     & 0x00FF;
 3334              		.loc 1 1219 0
 3335 12a6 FB6A     		ldr	r3, [r7, #44]
 3336 12a8 5B68     		ldr	r3, [r3, #4]
 3337 12aa BA8C     		ldrh	r2, [r7, #36]
 3338 12ac D2B2     		uxtb	r2, r2
 3339 12ae 1A70     		strb	r2, [r3]
1220:build/openmote-cc2538_armgcc/openstack/02b-MAChigh/sixtop.c ****                         response_pkt->payload[1] = (slotoffset    & 0xFF00)>>8;
 3340              		.loc 1 1220 0
 3341 12b0 FB6A     		ldr	r3, [r7, #44]
 3342 12b2 5B68     		ldr	r3, [r3, #4]
 3343 12b4 0133     		adds	r3, r3, #1
 3344 12b6 BA8C     		ldrh	r2, [r7, #36]
 3345 12b8 120A     		lsrs	r2, r2, #8
 3346 12ba 92B2     		uxth	r2, r2
 3347 12bc D2B2     		uxtb	r2, r2
 3348 12be 1A70     		strb	r2, [r3]
1221:build/openmote-cc2538_armgcc/openstack/02b-MAChigh/sixtop.c ****                         response_pkt->payload[2] = channeloffset  & 0x00FF;
 3349              		.loc 1 1221 0
 3350 12c0 FB6A     		ldr	r3, [r7, #44]
 3351 12c2 5B68     		ldr	r3, [r3, #4]
 3352 12c4 0233     		adds	r3, r3, #2
 3353 12c6 7A8C     		ldrh	r2, [r7, #34]
 3354 12c8 D2B2     		uxtb	r2, r2
 3355 12ca 1A70     		strb	r2, [r3]
1222:build/openmote-cc2538_armgcc/openstack/02b-MAChigh/sixtop.c ****                         response_pkt->payload[3] = (channeloffset & 0xFF00)>>8;
 3356              		.loc 1 1222 0
 3357 12cc FB6A     		ldr	r3, [r7, #44]
 3358 12ce 5B68     		ldr	r3, [r3, #4]
 3359 12d0 0333     		adds	r3, r3, #3
 3360 12d2 7A8C     		ldrh	r2, [r7, #34]
 3361 12d4 120A     		lsrs	r2, r2, #8
 3362 12d6 92B2     		uxth	r2, r2
 3363 12d8 D2B2     		uxtb	r2, r2
 3364 12da 1A70     		strb	r2, [r3]
1223:build/openmote-cc2538_armgcc/openstack/02b-MAChigh/sixtop.c ****                         response_pktLen         += 4;
 3365              		.loc 1 1223 0
 3366 12dc 97F83030 		ldrb	r3, [r7, #48]
 3367 12e0 0433     		adds	r3, r3, #4
 3368 12e2 87F83030 		strb	r3, [r7, #48]
1224:build/openmote-cc2538_armgcc/openstack/02b-MAChigh/sixtop.c ****                         startingOffset           = slotoffset+1;
 3369              		.loc 1 1224 0
 3370 12e6 BB8C     		ldrh	r3, [r7, #36]
 3371 12e8 0133     		adds	r3, r3, #1
 3372 12ea 3B87     		strh	r3, [r7, #56]	@ movhi
 3373 12ec 03E0     		b	.L246
 3374              	.L184:
1225:build/openmote-cc2538_armgcc/openstack/02b-MAChigh/sixtop.c ****                     } else {
1226:build/openmote-cc2538_armgcc/openstack/02b-MAChigh/sixtop.c ****                         // no more cell after offset
1227:build/openmote-cc2538_armgcc/openstack/02b-MAChigh/sixtop.c ****                         returnCode = IANA_6TOP_RC_EOL;
 3375              		.loc 1 1227 0
 3376 12ee 0123     		movs	r3, #1
 3377 12f0 87F83F30 		strb	r3, [r7, #63]
1228:build/openmote-cc2538_armgcc/openstack/02b-MAChigh/sixtop.c ****                         break;
 3378              		.loc 1 1228 0
 3379 12f4 08E0     		b	.L186
 3380              	.L246:
1207:build/openmote-cc2538_armgcc/openstack/02b-MAChigh/sixtop.c ****                     if (
 3381              		.loc 1 1207 0 discriminator 2
 3382 12f6 FB8E     		ldrh	r3, [r7, #54]
 3383 12f8 0133     		adds	r3, r3, #1
 3384 12fa FB86     		strh	r3, [r7, #54]	@ movhi
 3385              	.L183:
1207:build/openmote-cc2538_armgcc/openstack/02b-MAChigh/sixtop.c ****                     if (
 3386              		.loc 1 1207 0 is_stmt 0 discriminator 1
 3387 12fc 97F82930 		ldrb	r3, [r7, #41]	@ zero_extendqisi2
 3388 1300 9BB2     		uxth	r3, r3
 3389 1302 FA8E     		ldrh	r2, [r7, #54]
 3390 1304 9A42     		cmp	r2, r3
 3391 1306 B5D3     		bcc	.L187
 3392              	.L186:
1229:build/openmote-cc2538_armgcc/openstack/02b-MAChigh/sixtop.c ****                     }
1230:build/openmote-cc2538_armgcc/openstack/02b-MAChigh/sixtop.c ****                 }
1231:build/openmote-cc2538_armgcc/openstack/02b-MAChigh/sixtop.c ****                 if (
1232:build/openmote-cc2538_armgcc/openstack/02b-MAChigh/sixtop.c ****                     schedule_getOneCellAfterOffset(
 3393              		.loc 1 1232 0 is_stmt 1
 3394 1308 BB8F     		ldrh	r3, [r7, #60]	@ movhi
 3395 130a D8B2     		uxtb	r0, r3
 3396 130c 3B8F     		ldrh	r3, [r7, #56]	@ movhi
 3397 130e D9B2     		uxtb	r1, r3
 3398 1310 FB6D     		ldr	r3, [r7, #92]
 3399 1312 03F13C02 		add	r2, r3, #60
 3400 1316 97F83A40 		ldrb	r4, [r7, #58]	@ zero_extendqisi2
 3401 131a 07F12403 		add	r3, r7, #36
 3402 131e 0093     		str	r3, [sp]
 3403 1320 07F12203 		add	r3, r7, #34
 3404 1324 0193     		str	r3, [sp, #4]
 3405 1326 2346     		mov	r3, r4
 3406 1328 FFF7FEFF 		bl	schedule_getOneCellAfterOffset
 3407 132c 0346     		mov	r3, r0
1233:build/openmote-cc2538_armgcc/openstack/02b-MAChigh/sixtop.c ****                         metadata,
1234:build/openmote-cc2538_armgcc/openstack/02b-MAChigh/sixtop.c ****                         startingOffset,
1235:build/openmote-cc2538_armgcc/openstack/02b-MAChigh/sixtop.c ****                         &(pkt->l2_nextORpreviousHop),
1236:build/openmote-cc2538_armgcc/openstack/02b-MAChigh/sixtop.c ****                         cellOptions_transformed,
1237:build/openmote-cc2538_armgcc/openstack/02b-MAChigh/sixtop.c ****                         &slotoffset,
1238:build/openmote-cc2538_armgcc/openstack/02b-MAChigh/sixtop.c ****                         &channeloffset) == FALSE
 3408              		.loc 1 1238 0
 3409 132e 83F00103 		eor	r3, r3, #1
 3410 1332 DBB2     		uxtb	r3, r3
1231:build/openmote-cc2538_armgcc/openstack/02b-MAChigh/sixtop.c ****                     schedule_getOneCellAfterOffset(
 3411              		.loc 1 1231 0
 3412 1334 002B     		cmp	r3, #0
 3413 1336 04D0     		beq	.L188
1239:build/openmote-cc2538_armgcc/openstack/02b-MAChigh/sixtop.c ****                 ){
1240:build/openmote-cc2538_armgcc/openstack/02b-MAChigh/sixtop.c ****                     returnCode = IANA_6TOP_RC_EOL;
 3414              		.loc 1 1240 0
 3415 1338 0123     		movs	r3, #1
 3416 133a 87F83F30 		strb	r3, [r7, #63]
1241:build/openmote-cc2538_armgcc/openstack/02b-MAChigh/sixtop.c ****                 }
1242:build/openmote-cc2538_armgcc/openstack/02b-MAChigh/sixtop.c **** 
1243:build/openmote-cc2538_armgcc/openstack/02b-MAChigh/sixtop.c ****                 break;
 3417              		.loc 1 1243 0
 3418 133e 00F034BC 		b	.L174
 3419              	.L188:
 3420 1342 00F032BC 		b	.L174
 3421              	.L180:
1244:build/openmote-cc2538_armgcc/openstack/02b-MAChigh/sixtop.c ****             }
1245:build/openmote-cc2538_armgcc/openstack/02b-MAChigh/sixtop.c **** 
1246:build/openmote-cc2538_armgcc/openstack/02b-MAChigh/sixtop.c ****             // count command
1247:build/openmote-cc2538_armgcc/openstack/02b-MAChigh/sixtop.c ****             if (code == IANA_6TOP_CMD_COUNT){
 3422              		.loc 1 1247 0
 3423 1346 7B79     		ldrb	r3, [r7, #5]	@ zero_extendqisi2
 3424 1348 042B     		cmp	r3, #4
 3425 134a 58D1     		bne	.L189
1248:build/openmote-cc2538_armgcc/openstack/02b-MAChigh/sixtop.c ****                 numCells = 0;
 3426              		.loc 1 1248 0
 3427 134c 0023     		movs	r3, #0
 3428 134e BB86     		strh	r3, [r7, #52]	@ movhi
1249:build/openmote-cc2538_armgcc/openstack/02b-MAChigh/sixtop.c ****                 startingOffset = 0;
 3429              		.loc 1 1249 0
 3430 1350 0023     		movs	r3, #0
 3431 1352 3B87     		strh	r3, [r7, #56]	@ movhi
1250:build/openmote-cc2538_armgcc/openstack/02b-MAChigh/sixtop.c ****                 if ((cellOptions & (CELLOPTIONS_TX | CELLOPTIONS_RX)) != (CELLOPTIONS_TX | CELLOPTI
 3432              		.loc 1 1250 0
 3433 1354 97F83B30 		ldrb	r3, [r7, #59]	@ zero_extendqisi2
 3434 1358 03F00303 		and	r3, r3, #3
 3435 135c 032B     		cmp	r3, #3
 3436 135e 06D0     		beq	.L190
1251:build/openmote-cc2538_armgcc/openstack/02b-MAChigh/sixtop.c ****                     cellOptions_transformed = cellOptions ^ (CELLOPTIONS_TX | CELLOPTIONS_RX);
 3437              		.loc 1 1251 0
 3438 1360 97F83B30 		ldrb	r3, [r7, #59]
 3439 1364 83F00303 		eor	r3, r3, #3
 3440 1368 87F83A30 		strb	r3, [r7, #58]
 3441 136c 03E0     		b	.L191
 3442              	.L190:
1252:build/openmote-cc2538_armgcc/openstack/02b-MAChigh/sixtop.c ****                 } else {
1253:build/openmote-cc2538_armgcc/openstack/02b-MAChigh/sixtop.c ****                     cellOptions_transformed = cellOptions;
 3443              		.loc 1 1253 0
 3444 136e 97F83B30 		ldrb	r3, [r7, #59]
 3445 1372 87F83A30 		strb	r3, [r7, #58]
 3446              	.L191:
1254:build/openmote-cc2538_armgcc/openstack/02b-MAChigh/sixtop.c ****                 }
1255:build/openmote-cc2538_armgcc/openstack/02b-MAChigh/sixtop.c ****                 for(i=0; i<schedule_getFrameLength(); i++) {
 3447              		.loc 1 1255 0
 3448 1376 0023     		movs	r3, #0
 3449 1378 FB86     		strh	r3, [r7, #54]	@ movhi
 3450 137a 1FE0     		b	.L192
 3451              	.L249:
 3452              		.align	2
 3453              	.L248:
 3454 137c 00000000 		.word	sixtop_vars
 3455              	.L194:
1256:build/openmote-cc2538_armgcc/openstack/02b-MAChigh/sixtop.c ****                     if (
1257:build/openmote-cc2538_armgcc/openstack/02b-MAChigh/sixtop.c ****                         schedule_getOneCellAfterOffset(
 3456              		.loc 1 1257 0
 3457 1380 BB8F     		ldrh	r3, [r7, #60]	@ movhi
 3458 1382 D8B2     		uxtb	r0, r3
 3459 1384 3B8F     		ldrh	r3, [r7, #56]	@ movhi
 3460 1386 D9B2     		uxtb	r1, r3
 3461 1388 FB6D     		ldr	r3, [r7, #92]
 3462 138a 03F13C02 		add	r2, r3, #60
 3463 138e 97F83A40 		ldrb	r4, [r7, #58]	@ zero_extendqisi2
 3464 1392 07F12403 		add	r3, r7, #36
 3465 1396 0093     		str	r3, [sp]
 3466 1398 07F12203 		add	r3, r7, #34
 3467 139c 0193     		str	r3, [sp, #4]
 3468 139e 2346     		mov	r3, r4
 3469 13a0 FFF7FEFF 		bl	schedule_getOneCellAfterOffset
 3470 13a4 0346     		mov	r3, r0
1256:build/openmote-cc2538_armgcc/openstack/02b-MAChigh/sixtop.c ****                     if (
 3471              		.loc 1 1256 0
 3472 13a6 002B     		cmp	r3, #0
 3473 13a8 05D0     		beq	.L193
1258:build/openmote-cc2538_armgcc/openstack/02b-MAChigh/sixtop.c ****                             metadata,
1259:build/openmote-cc2538_armgcc/openstack/02b-MAChigh/sixtop.c ****                             startingOffset,
1260:build/openmote-cc2538_armgcc/openstack/02b-MAChigh/sixtop.c ****                             &(pkt->l2_nextORpreviousHop),
1261:build/openmote-cc2538_armgcc/openstack/02b-MAChigh/sixtop.c ****                             cellOptions_transformed,
1262:build/openmote-cc2538_armgcc/openstack/02b-MAChigh/sixtop.c ****                             &slotoffset,
1263:build/openmote-cc2538_armgcc/openstack/02b-MAChigh/sixtop.c ****                             &channeloffset)
1264:build/openmote-cc2538_armgcc/openstack/02b-MAChigh/sixtop.c ****                     ){
1265:build/openmote-cc2538_armgcc/openstack/02b-MAChigh/sixtop.c ****                         // found one cell after slot i
1266:build/openmote-cc2538_armgcc/openstack/02b-MAChigh/sixtop.c ****                         numCells++;
 3474              		.loc 1 1266 0
 3475 13aa BB8E     		ldrh	r3, [r7, #52]
 3476 13ac 0133     		adds	r3, r3, #1
 3477 13ae BB86     		strh	r3, [r7, #52]	@ movhi
1267:build/openmote-cc2538_armgcc/openstack/02b-MAChigh/sixtop.c ****                         startingOffset = slotoffset+1;
 3478              		.loc 1 1267 0
 3479 13b0 BB8C     		ldrh	r3, [r7, #36]
 3480 13b2 0133     		adds	r3, r3, #1
 3481 13b4 3B87     		strh	r3, [r7, #56]	@ movhi
 3482              	.L193:
1255:build/openmote-cc2538_armgcc/openstack/02b-MAChigh/sixtop.c ****                     if (
 3483              		.loc 1 1255 0 discriminator 2
 3484 13b6 FB8E     		ldrh	r3, [r7, #54]
 3485 13b8 0133     		adds	r3, r3, #1
 3486 13ba FB86     		strh	r3, [r7, #54]	@ movhi
 3487              	.L192:
1255:build/openmote-cc2538_armgcc/openstack/02b-MAChigh/sixtop.c ****                     if (
 3488              		.loc 1 1255 0 is_stmt 0 discriminator 1
 3489 13bc FFF7FEFF 		bl	schedule_getFrameLength
 3490 13c0 0346     		mov	r3, r0
 3491 13c2 1A46     		mov	r2, r3
 3492 13c4 FB8E     		ldrh	r3, [r7, #54]
 3493 13c6 9342     		cmp	r3, r2
 3494 13c8 DAD3     		bcc	.L194
1268:build/openmote-cc2538_armgcc/openstack/02b-MAChigh/sixtop.c ****                     }
1269:build/openmote-cc2538_armgcc/openstack/02b-MAChigh/sixtop.c ****                 }
1270:build/openmote-cc2538_armgcc/openstack/02b-MAChigh/sixtop.c ****                 returnCode = IANA_6TOP_RC_SUCCESS;
 3495              		.loc 1 1270 0 is_stmt 1
 3496 13ca 0023     		movs	r3, #0
 3497 13cc 87F83F30 		strb	r3, [r7, #63]
1271:build/openmote-cc2538_armgcc/openstack/02b-MAChigh/sixtop.c ****                 packetfunctions_reserveHeaderSize(response_pkt,sizeof(uint16_t));
 3498              		.loc 1 1271 0
 3499 13d0 F86A     		ldr	r0, [r7, #44]
 3500 13d2 0221     		movs	r1, #2
 3501 13d4 FFF7FEFF 		bl	packetfunctions_reserveHeaderSize
1272:build/openmote-cc2538_armgcc/openstack/02b-MAChigh/sixtop.c ****                 response_pkt->payload[0] =  numCells & 0x00FF;
 3502              		.loc 1 1272 0
 3503 13d8 FB6A     		ldr	r3, [r7, #44]
 3504 13da 5B68     		ldr	r3, [r3, #4]
 3505 13dc BA8E     		ldrh	r2, [r7, #52]	@ movhi
 3506 13de D2B2     		uxtb	r2, r2
 3507 13e0 1A70     		strb	r2, [r3]
1273:build/openmote-cc2538_armgcc/openstack/02b-MAChigh/sixtop.c ****                 response_pkt->payload[1] = (numCells & 0xFF00)>>8;
 3508              		.loc 1 1273 0
 3509 13e2 FB6A     		ldr	r3, [r7, #44]
 3510 13e4 5B68     		ldr	r3, [r3, #4]
 3511 13e6 0133     		adds	r3, r3, #1
 3512 13e8 BA8E     		ldrh	r2, [r7, #52]
 3513 13ea 120A     		lsrs	r2, r2, #8
 3514 13ec 92B2     		uxth	r2, r2
 3515 13ee D2B2     		uxtb	r2, r2
 3516 13f0 1A70     		strb	r2, [r3]
1274:build/openmote-cc2538_armgcc/openstack/02b-MAChigh/sixtop.c ****                 response_pktLen         += 2;
 3517              		.loc 1 1274 0
 3518 13f2 97F83030 		ldrb	r3, [r7, #48]
 3519 13f6 0233     		adds	r3, r3, #2
 3520 13f8 87F83030 		strb	r3, [r7, #48]
1275:build/openmote-cc2538_armgcc/openstack/02b-MAChigh/sixtop.c ****                 break;
 3521              		.loc 1 1275 0
 3522 13fc D5E3     		b	.L174
 3523              	.L189:
1276:build/openmote-cc2538_armgcc/openstack/02b-MAChigh/sixtop.c ****             }
1277:build/openmote-cc2538_armgcc/openstack/02b-MAChigh/sixtop.c **** 
1278:build/openmote-cc2538_armgcc/openstack/02b-MAChigh/sixtop.c ****             numCells = *((uint8_t*)(pkt->payload)+ptr);
 3524              		.loc 1 1278 0
 3525 13fe FB6D     		ldr	r3, [r7, #92]
 3526 1400 5A68     		ldr	r2, [r3, #4]
 3527 1402 97F85430 		ldrb	r3, [r7, #84]	@ zero_extendqisi2
 3528 1406 1344     		add	r3, r3, r2
 3529 1408 1B78     		ldrb	r3, [r3]	@ zero_extendqisi2
 3530 140a BB86     		strh	r3, [r7, #52]	@ movhi
1279:build/openmote-cc2538_armgcc/openstack/02b-MAChigh/sixtop.c ****             ptr     += 1;
 3531              		.loc 1 1279 0
 3532 140c 97F85430 		ldrb	r3, [r7, #84]
 3533 1410 0133     		adds	r3, r3, #1
 3534 1412 87F85430 		strb	r3, [r7, #84]
1280:build/openmote-cc2538_armgcc/openstack/02b-MAChigh/sixtop.c ****             pktLen  -= 1;
 3535              		.loc 1 1280 0
 3536 1416 97F83130 		ldrb	r3, [r7, #49]
 3537 141a 013B     		subs	r3, r3, #1
 3538 141c 87F83130 		strb	r3, [r7, #49]
1281:build/openmote-cc2538_armgcc/openstack/02b-MAChigh/sixtop.c **** 
1282:build/openmote-cc2538_armgcc/openstack/02b-MAChigh/sixtop.c ****             // add command
1283:build/openmote-cc2538_armgcc/openstack/02b-MAChigh/sixtop.c ****             if (code == IANA_6TOP_CMD_ADD){
 3539              		.loc 1 1283 0
 3540 1420 7B79     		ldrb	r3, [r7, #5]	@ zero_extendqisi2
 3541 1422 012B     		cmp	r3, #1
 3542 1424 40F00481 		bne	.L195
1284:build/openmote-cc2538_armgcc/openstack/02b-MAChigh/sixtop.c ****                 if (schedule_getNumberOfFreeEntries() < numCells){
 3543              		.loc 1 1284 0
 3544 1428 FFF7FEFF 		bl	schedule_getNumberOfFreeEntries
 3545 142c 0346     		mov	r3, r0
 3546 142e 9BB2     		uxth	r3, r3
 3547 1430 BA8E     		ldrh	r2, [r7, #52]
 3548 1432 9A42     		cmp	r2, r3
 3549 1434 03D9     		bls	.L196
1285:build/openmote-cc2538_armgcc/openstack/02b-MAChigh/sixtop.c ****                     returnCode = IANA_6TOP_RC_BUSY;
 3550              		.loc 1 1285 0
 3551 1436 0823     		movs	r3, #8
 3552 1438 87F83F30 		strb	r3, [r7, #63]
1286:build/openmote-cc2538_armgcc/openstack/02b-MAChigh/sixtop.c ****                     break;
 3553              		.loc 1 1286 0
 3554 143c B5E3     		b	.L174
 3555              	.L196:
1287:build/openmote-cc2538_armgcc/openstack/02b-MAChigh/sixtop.c ****                 }
1288:build/openmote-cc2538_armgcc/openstack/02b-MAChigh/sixtop.c ****                 // retrieve cell list
1289:build/openmote-cc2538_armgcc/openstack/02b-MAChigh/sixtop.c ****                 i = 0;
 3556              		.loc 1 1289 0
 3557 143e 0023     		movs	r3, #0
 3558 1440 FB86     		strh	r3, [r7, #54]	@ movhi
1290:build/openmote-cc2538_armgcc/openstack/02b-MAChigh/sixtop.c ****                 memset(response_pkt->l2_sixtop_celllist_add,0,sizeof(response_pkt->l2_sixtop_cellli
 3559              		.loc 1 1290 0
 3560 1442 FB6A     		ldr	r3, [r7, #44]
 3561 1444 5C33     		adds	r3, r3, #92
 3562 1446 1846     		mov	r0, r3
 3563 1448 0021     		movs	r1, #0
 3564 144a 1922     		movs	r2, #25
 3565 144c FFF7FEFF 		bl	memset
1291:build/openmote-cc2538_armgcc/openstack/02b-MAChigh/sixtop.c ****                 while(pktLen>0){
 3566              		.loc 1 1291 0
 3567 1450 7CE0     		b	.L197
 3568              	.L198:
1292:build/openmote-cc2538_armgcc/openstack/02b-MAChigh/sixtop.c ****                     response_pkt->l2_sixtop_celllist_add[i].slotoffset     =  *((uint8_t*)(pkt->pay
 3569              		.loc 1 1292 0
 3570 1452 FA8E     		ldrh	r2, [r7, #54]
 3571 1454 FB6D     		ldr	r3, [r7, #92]
 3572 1456 5968     		ldr	r1, [r3, #4]
 3573 1458 97F85430 		ldrb	r3, [r7, #84]	@ zero_extendqisi2
 3574 145c 0B44     		add	r3, r3, r1
 3575 145e 1B78     		ldrb	r3, [r3]	@ zero_extendqisi2
 3576 1460 98B2     		uxth	r0, r3
 3577 1462 F96A     		ldr	r1, [r7, #44]
 3578 1464 1346     		mov	r3, r2
 3579 1466 9B00     		lsls	r3, r3, #2
 3580 1468 1344     		add	r3, r3, r2
 3581 146a 0B44     		add	r3, r3, r1
 3582 146c 5833     		adds	r3, r3, #88
 3583 146e 0246     		mov	r2, r0	@ movhi
 3584 1470 A3F80520 		strh	r2, [r3, #5]	@ unaligned
1293:build/openmote-cc2538_armgcc/openstack/02b-MAChigh/sixtop.c ****                     response_pkt->l2_sixtop_celllist_add[i].slotoffset    |= (*((uint8_t*)(pkt->pay
 3585              		.loc 1 1293 0
 3586 1474 FA8E     		ldrh	r2, [r7, #54]
 3587 1476 F98E     		ldrh	r1, [r7, #54]
 3588 1478 F86A     		ldr	r0, [r7, #44]
 3589 147a 0B46     		mov	r3, r1
 3590 147c 9B00     		lsls	r3, r3, #2
 3591 147e 0B44     		add	r3, r3, r1
 3592 1480 0344     		add	r3, r3, r0
 3593 1482 5833     		adds	r3, r3, #88
 3594 1484 B3F80530 		ldrh	r3, [r3, #5]	@ unaligned
 3595 1488 9BB2     		uxth	r3, r3
 3596 148a 98B2     		uxth	r0, r3
 3597 148c FB6D     		ldr	r3, [r7, #92]
 3598 148e 5968     		ldr	r1, [r3, #4]
 3599 1490 97F85430 		ldrb	r3, [r7, #84]	@ zero_extendqisi2
 3600 1494 0133     		adds	r3, r3, #1
 3601 1496 0B44     		add	r3, r3, r1
 3602 1498 1B78     		ldrb	r3, [r3]	@ zero_extendqisi2
 3603 149a 1B02     		lsls	r3, r3, #8
 3604 149c 9BB2     		uxth	r3, r3
 3605 149e 0146     		mov	r1, r0	@ movhi
 3606 14a0 0B43     		orrs	r3, r3, r1
 3607 14a2 9BB2     		uxth	r3, r3
 3608 14a4 98B2     		uxth	r0, r3
 3609 14a6 F96A     		ldr	r1, [r7, #44]
 3610 14a8 1346     		mov	r3, r2
 3611 14aa 9B00     		lsls	r3, r3, #2
 3612 14ac 1344     		add	r3, r3, r2
 3613 14ae 0B44     		add	r3, r3, r1
 3614 14b0 5833     		adds	r3, r3, #88
 3615 14b2 0246     		mov	r2, r0	@ movhi
 3616 14b4 A3F80520 		strh	r2, [r3, #5]	@ unaligned
1294:build/openmote-cc2538_armgcc/openstack/02b-MAChigh/sixtop.c ****                     response_pkt->l2_sixtop_celllist_add[i].channeloffset  =  *((uint8_t*)(pkt->pay
 3617              		.loc 1 1294 0
 3618 14b8 FA8E     		ldrh	r2, [r7, #54]
 3619 14ba FB6D     		ldr	r3, [r7, #92]
 3620 14bc 5968     		ldr	r1, [r3, #4]
 3621 14be 97F85430 		ldrb	r3, [r7, #84]	@ zero_extendqisi2
 3622 14c2 0233     		adds	r3, r3, #2
 3623 14c4 0B44     		add	r3, r3, r1
 3624 14c6 1B78     		ldrb	r3, [r3]	@ zero_extendqisi2
 3625 14c8 98B2     		uxth	r0, r3
 3626 14ca F96A     		ldr	r1, [r7, #44]
 3627 14cc 1346     		mov	r3, r2
 3628 14ce 9B00     		lsls	r3, r3, #2
 3629 14d0 1344     		add	r3, r3, r2
 3630 14d2 0B44     		add	r3, r3, r1
 3631 14d4 5833     		adds	r3, r3, #88
 3632 14d6 0246     		mov	r2, r0	@ movhi
 3633 14d8 A3F80720 		strh	r2, [r3, #7]	@ unaligned
1295:build/openmote-cc2538_armgcc/openstack/02b-MAChigh/sixtop.c ****                     response_pkt->l2_sixtop_celllist_add[i].channeloffset |= (*((uint8_t*)(pkt->pay
 3634              		.loc 1 1295 0
 3635 14dc FA8E     		ldrh	r2, [r7, #54]
 3636 14de F98E     		ldrh	r1, [r7, #54]
 3637 14e0 F86A     		ldr	r0, [r7, #44]
 3638 14e2 0B46     		mov	r3, r1
 3639 14e4 9B00     		lsls	r3, r3, #2
 3640 14e6 0B44     		add	r3, r3, r1
 3641 14e8 0344     		add	r3, r3, r0
 3642 14ea 5833     		adds	r3, r3, #88
 3643 14ec B3F80730 		ldrh	r3, [r3, #7]	@ unaligned
 3644 14f0 9BB2     		uxth	r3, r3
 3645 14f2 98B2     		uxth	r0, r3
 3646 14f4 FB6D     		ldr	r3, [r7, #92]
 3647 14f6 5968     		ldr	r1, [r3, #4]
 3648 14f8 97F85430 		ldrb	r3, [r7, #84]	@ zero_extendqisi2
 3649 14fc 0333     		adds	r3, r3, #3
 3650 14fe 0B44     		add	r3, r3, r1
 3651 1500 1B78     		ldrb	r3, [r3]	@ zero_extendqisi2
 3652 1502 1B02     		lsls	r3, r3, #8
 3653 1504 9BB2     		uxth	r3, r3
 3654 1506 0146     		mov	r1, r0	@ movhi
 3655 1508 0B43     		orrs	r3, r3, r1
 3656 150a 9BB2     		uxth	r3, r3
 3657 150c 98B2     		uxth	r0, r3
 3658 150e F96A     		ldr	r1, [r7, #44]
 3659 1510 1346     		mov	r3, r2
 3660 1512 9B00     		lsls	r3, r3, #2
 3661 1514 1344     		add	r3, r3, r2
 3662 1516 0B44     		add	r3, r3, r1
 3663 1518 5833     		adds	r3, r3, #88
 3664 151a 0246     		mov	r2, r0	@ movhi
 3665 151c A3F80720 		strh	r2, [r3, #7]	@ unaligned
1296:build/openmote-cc2538_armgcc/openstack/02b-MAChigh/sixtop.c ****                     response_pkt->l2_sixtop_celllist_add[i].isUsed         = TRUE;
 3666              		.loc 1 1296 0
 3667 1520 FA8E     		ldrh	r2, [r7, #54]
 3668 1522 F96A     		ldr	r1, [r7, #44]
 3669 1524 1346     		mov	r3, r2
 3670 1526 9B00     		lsls	r3, r3, #2
 3671 1528 1344     		add	r3, r3, r2
 3672 152a 0B44     		add	r3, r3, r1
 3673 152c 5833     		adds	r3, r3, #88
 3674 152e 0122     		movs	r2, #1
 3675 1530 1A71     		strb	r2, [r3, #4]
1297:build/openmote-cc2538_armgcc/openstack/02b-MAChigh/sixtop.c ****                     ptr    += 4;
 3676              		.loc 1 1297 0
 3677 1532 97F85430 		ldrb	r3, [r7, #84]
 3678 1536 0433     		adds	r3, r3, #4
 3679 1538 87F85430 		strb	r3, [r7, #84]
1298:build/openmote-cc2538_armgcc/openstack/02b-MAChigh/sixtop.c ****                     pktLen -= 4;
 3680              		.loc 1 1298 0
 3681 153c 97F83130 		ldrb	r3, [r7, #49]
 3682 1540 043B     		subs	r3, r3, #4
 3683 1542 87F83130 		strb	r3, [r7, #49]
1299:build/openmote-cc2538_armgcc/openstack/02b-MAChigh/sixtop.c ****                     i++;
 3684              		.loc 1 1299 0
 3685 1546 FB8E     		ldrh	r3, [r7, #54]
 3686 1548 0133     		adds	r3, r3, #1
 3687 154a FB86     		strh	r3, [r7, #54]	@ movhi
 3688              	.L197:
1291:build/openmote-cc2538_armgcc/openstack/02b-MAChigh/sixtop.c ****                     response_pkt->l2_sixtop_celllist_add[i].slotoffset     =  *((uint8_t*)(pkt->pay
 3689              		.loc 1 1291 0
 3690 154c 97F83130 		ldrb	r3, [r7, #49]	@ zero_extendqisi2
 3691 1550 002B     		cmp	r3, #0
 3692 1552 7FF47EAF 		bne	.L198
1300:build/openmote-cc2538_armgcc/openstack/02b-MAChigh/sixtop.c ****                 }
1301:build/openmote-cc2538_armgcc/openstack/02b-MAChigh/sixtop.c ****                 if (sixtop_areAvailableCellsToBeScheduled(metadata,numCells,response_pkt->l2_sixtop
 3693              		.loc 1 1301 0
 3694 1556 BB8F     		ldrh	r3, [r7, #60]	@ movhi
 3695 1558 D9B2     		uxtb	r1, r3
 3696 155a BB8E     		ldrh	r3, [r7, #52]	@ movhi
 3697 155c DAB2     		uxtb	r2, r3
 3698 155e FB6A     		ldr	r3, [r7, #44]
 3699 1560 5C33     		adds	r3, r3, #92
 3700 1562 0846     		mov	r0, r1
 3701 1564 1146     		mov	r1, r2
 3702 1566 1A46     		mov	r2, r3
 3703 1568 FFF7FEFF 		bl	sixtop_areAvailableCellsToBeScheduled
 3704 156c 0346     		mov	r3, r0
 3705 156e 002B     		cmp	r3, #0
 3706 1570 5AD0     		beq	.L199
1302:build/openmote-cc2538_armgcc/openstack/02b-MAChigh/sixtop.c ****                     for(i=0;i<CELLLIST_MAX_LEN;i++) {
 3707              		.loc 1 1302 0
 3708 1572 0023     		movs	r3, #0
 3709 1574 FB86     		strh	r3, [r7, #54]	@ movhi
 3710 1576 54E0     		b	.L200
 3711              	.L202:
1303:build/openmote-cc2538_armgcc/openstack/02b-MAChigh/sixtop.c ****                         if(response_pkt->l2_sixtop_celllist_add[i].isUsed){
 3712              		.loc 1 1303 0
 3713 1578 FA8E     		ldrh	r2, [r7, #54]
 3714 157a F96A     		ldr	r1, [r7, #44]
 3715 157c 1346     		mov	r3, r2
 3716 157e 9B00     		lsls	r3, r3, #2
 3717 1580 1344     		add	r3, r3, r2
 3718 1582 0B44     		add	r3, r3, r1
 3719 1584 5833     		adds	r3, r3, #88
 3720 1586 1B79     		ldrb	r3, [r3, #4]	@ zero_extendqisi2
 3721 1588 002B     		cmp	r3, #0
 3722 158a 47D0     		beq	.L201
1304:build/openmote-cc2538_armgcc/openstack/02b-MAChigh/sixtop.c ****                             packetfunctions_reserveHeaderSize(response_pkt,4);
 3723              		.loc 1 1304 0
 3724 158c F86A     		ldr	r0, [r7, #44]
 3725 158e 0421     		movs	r1, #4
 3726 1590 FFF7FEFF 		bl	packetfunctions_reserveHeaderSize
1305:build/openmote-cc2538_armgcc/openstack/02b-MAChigh/sixtop.c ****                             response_pkt->payload[0] = (uint8_t)(response_pkt->l2_sixtop_celllist_a
 3727              		.loc 1 1305 0
 3728 1594 FB6A     		ldr	r3, [r7, #44]
 3729 1596 5968     		ldr	r1, [r3, #4]
 3730 1598 FA8E     		ldrh	r2, [r7, #54]
 3731 159a F86A     		ldr	r0, [r7, #44]
 3732 159c 1346     		mov	r3, r2
 3733 159e 9B00     		lsls	r3, r3, #2
 3734 15a0 1344     		add	r3, r3, r2
 3735 15a2 0344     		add	r3, r3, r0
 3736 15a4 5833     		adds	r3, r3, #88
 3737 15a6 B3F80530 		ldrh	r3, [r3, #5]	@ unaligned
 3738 15aa 9BB2     		uxth	r3, r3
 3739 15ac DBB2     		uxtb	r3, r3
 3740 15ae 0B70     		strb	r3, [r1]
1306:build/openmote-cc2538_armgcc/openstack/02b-MAChigh/sixtop.c ****                             response_pkt->payload[1] = (uint8_t)((response_pkt->l2_sixtop_celllist_
 3741              		.loc 1 1306 0
 3742 15b0 FB6A     		ldr	r3, [r7, #44]
 3743 15b2 5B68     		ldr	r3, [r3, #4]
 3744 15b4 591C     		adds	r1, r3, #1
 3745 15b6 FA8E     		ldrh	r2, [r7, #54]
 3746 15b8 F86A     		ldr	r0, [r7, #44]
 3747 15ba 1346     		mov	r3, r2
 3748 15bc 9B00     		lsls	r3, r3, #2
 3749 15be 1344     		add	r3, r3, r2
 3750 15c0 0344     		add	r3, r3, r0
 3751 15c2 5833     		adds	r3, r3, #88
 3752 15c4 B3F80530 		ldrh	r3, [r3, #5]	@ unaligned
 3753 15c8 9BB2     		uxth	r3, r3
 3754 15ca 1B0A     		lsrs	r3, r3, #8
 3755 15cc 9BB2     		uxth	r3, r3
 3756 15ce DBB2     		uxtb	r3, r3
 3757 15d0 0B70     		strb	r3, [r1]
1307:build/openmote-cc2538_armgcc/openstack/02b-MAChigh/sixtop.c ****                             response_pkt->payload[2] = (uint8_t)(response_pkt->l2_sixtop_celllist_a
 3758              		.loc 1 1307 0
 3759 15d2 FB6A     		ldr	r3, [r7, #44]
 3760 15d4 5B68     		ldr	r3, [r3, #4]
 3761 15d6 991C     		adds	r1, r3, #2
 3762 15d8 FA8E     		ldrh	r2, [r7, #54]
 3763 15da F86A     		ldr	r0, [r7, #44]
 3764 15dc 1346     		mov	r3, r2
 3765 15de 9B00     		lsls	r3, r3, #2
 3766 15e0 1344     		add	r3, r3, r2
 3767 15e2 0344     		add	r3, r3, r0
 3768 15e4 5833     		adds	r3, r3, #88
 3769 15e6 B3F80730 		ldrh	r3, [r3, #7]	@ unaligned
 3770 15ea 9BB2     		uxth	r3, r3
 3771 15ec DBB2     		uxtb	r3, r3
 3772 15ee 0B70     		strb	r3, [r1]
1308:build/openmote-cc2538_armgcc/openstack/02b-MAChigh/sixtop.c ****                             response_pkt->payload[3] = (uint8_t)((response_pkt->l2_sixtop_celllist_
 3773              		.loc 1 1308 0
 3774 15f0 FB6A     		ldr	r3, [r7, #44]
 3775 15f2 5B68     		ldr	r3, [r3, #4]
 3776 15f4 D91C     		adds	r1, r3, #3
 3777 15f6 FA8E     		ldrh	r2, [r7, #54]
 3778 15f8 F86A     		ldr	r0, [r7, #44]
 3779 15fa 1346     		mov	r3, r2
 3780 15fc 9B00     		lsls	r3, r3, #2
 3781 15fe 1344     		add	r3, r3, r2
 3782 1600 0344     		add	r3, r3, r0
 3783 1602 5833     		adds	r3, r3, #88
 3784 1604 B3F80730 		ldrh	r3, [r3, #7]	@ unaligned
 3785 1608 9BB2     		uxth	r3, r3
 3786 160a 1B0A     		lsrs	r3, r3, #8
 3787 160c 9BB2     		uxth	r3, r3
 3788 160e DBB2     		uxtb	r3, r3
 3789 1610 0B70     		strb	r3, [r1]
1309:build/openmote-cc2538_armgcc/openstack/02b-MAChigh/sixtop.c ****                             response_pktLen += 4;
 3790              		.loc 1 1309 0
 3791 1612 97F83030 		ldrb	r3, [r7, #48]
 3792 1616 0433     		adds	r3, r3, #4
 3793 1618 87F83030 		strb	r3, [r7, #48]
 3794              	.L201:
1302:build/openmote-cc2538_armgcc/openstack/02b-MAChigh/sixtop.c ****                         if(response_pkt->l2_sixtop_celllist_add[i].isUsed){
 3795              		.loc 1 1302 0 discriminator 2
 3796 161c FB8E     		ldrh	r3, [r7, #54]
 3797 161e 0133     		adds	r3, r3, #1
 3798 1620 FB86     		strh	r3, [r7, #54]	@ movhi
 3799              	.L200:
1302:build/openmote-cc2538_armgcc/openstack/02b-MAChigh/sixtop.c ****                         if(response_pkt->l2_sixtop_celllist_add[i].isUsed){
 3800              		.loc 1 1302 0 is_stmt 0 discriminator 1
 3801 1622 FB8E     		ldrh	r3, [r7, #54]
 3802 1624 042B     		cmp	r3, #4
 3803 1626 A7D9     		bls	.L202
 3804              	.L199:
1310:build/openmote-cc2538_armgcc/openstack/02b-MAChigh/sixtop.c ****                         }
1311:build/openmote-cc2538_armgcc/openstack/02b-MAChigh/sixtop.c ****                     }
1312:build/openmote-cc2538_armgcc/openstack/02b-MAChigh/sixtop.c ****                 }
1313:build/openmote-cc2538_armgcc/openstack/02b-MAChigh/sixtop.c ****                 returnCode = IANA_6TOP_RC_SUCCESS;
 3805              		.loc 1 1313 0 is_stmt 1
 3806 1628 0023     		movs	r3, #0
 3807 162a 87F83F30 		strb	r3, [r7, #63]
1314:build/openmote-cc2538_armgcc/openstack/02b-MAChigh/sixtop.c ****                 break;
 3808              		.loc 1 1314 0
 3809 162e BCE2     		b	.L174
 3810              	.L195:
1315:build/openmote-cc2538_armgcc/openstack/02b-MAChigh/sixtop.c ****             }
1316:build/openmote-cc2538_armgcc/openstack/02b-MAChigh/sixtop.c **** 
1317:build/openmote-cc2538_armgcc/openstack/02b-MAChigh/sixtop.c ****             // delete command
1318:build/openmote-cc2538_armgcc/openstack/02b-MAChigh/sixtop.c ****             if (code == IANA_6TOP_CMD_DELETE){
 3811              		.loc 1 1318 0
 3812 1630 7B79     		ldrb	r3, [r7, #5]	@ zero_extendqisi2
 3813 1632 022B     		cmp	r3, #2
 3814 1634 40F00881 		bne	.L203
1319:build/openmote-cc2538_armgcc/openstack/02b-MAChigh/sixtop.c ****                 i = 0;
 3815              		.loc 1 1319 0
 3816 1638 0023     		movs	r3, #0
 3817 163a FB86     		strh	r3, [r7, #54]	@ movhi
1320:build/openmote-cc2538_armgcc/openstack/02b-MAChigh/sixtop.c ****                 memset(response_pkt->l2_sixtop_celllist_delete,0,sizeof(response_pkt->l2_sixtop_cel
 3818              		.loc 1 1320 0
 3819 163c FB6A     		ldr	r3, [r7, #44]
 3820 163e 7533     		adds	r3, r3, #117
 3821 1640 1846     		mov	r0, r3
 3822 1642 0021     		movs	r1, #0
 3823 1644 1922     		movs	r2, #25
 3824 1646 FFF7FEFF 		bl	memset
1321:build/openmote-cc2538_armgcc/openstack/02b-MAChigh/sixtop.c ****                 while(pktLen>0){
 3825              		.loc 1 1321 0
 3826 164a 76E0     		b	.L204
 3827              	.L205:
1322:build/openmote-cc2538_armgcc/openstack/02b-MAChigh/sixtop.c ****                     response_pkt->l2_sixtop_celllist_delete[i].slotoffset     =  *((uint8_t*)(pkt->
 3828              		.loc 1 1322 0
 3829 164c FA8E     		ldrh	r2, [r7, #54]
 3830 164e FB6D     		ldr	r3, [r7, #92]
 3831 1650 5968     		ldr	r1, [r3, #4]
 3832 1652 97F85430 		ldrb	r3, [r7, #84]	@ zero_extendqisi2
 3833 1656 0B44     		add	r3, r3, r1
 3834 1658 1B78     		ldrb	r3, [r3]	@ zero_extendqisi2
 3835 165a 98B2     		uxth	r0, r3
 3836 165c F96A     		ldr	r1, [r7, #44]
 3837 165e 1346     		mov	r3, r2
 3838 1660 9B00     		lsls	r3, r3, #2
 3839 1662 1344     		add	r3, r3, r2
 3840 1664 0B44     		add	r3, r3, r1
 3841 1666 7033     		adds	r3, r3, #112
 3842 1668 0246     		mov	r2, r0	@ movhi
 3843 166a DA80     		strh	r2, [r3, #6]	@ unaligned
1323:build/openmote-cc2538_armgcc/openstack/02b-MAChigh/sixtop.c ****                     response_pkt->l2_sixtop_celllist_delete[i].slotoffset    |= (*((uint8_t*)(pkt->
 3844              		.loc 1 1323 0
 3845 166c FA8E     		ldrh	r2, [r7, #54]
 3846 166e F98E     		ldrh	r1, [r7, #54]
 3847 1670 F86A     		ldr	r0, [r7, #44]
 3848 1672 0B46     		mov	r3, r1
 3849 1674 9B00     		lsls	r3, r3, #2
 3850 1676 0B44     		add	r3, r3, r1
 3851 1678 0344     		add	r3, r3, r0
 3852 167a 7033     		adds	r3, r3, #112
 3853 167c DB88     		ldrh	r3, [r3, #6]	@ unaligned
 3854 167e 9BB2     		uxth	r3, r3
 3855 1680 98B2     		uxth	r0, r3
 3856 1682 FB6D     		ldr	r3, [r7, #92]
 3857 1684 5968     		ldr	r1, [r3, #4]
 3858 1686 97F85430 		ldrb	r3, [r7, #84]	@ zero_extendqisi2
 3859 168a 0133     		adds	r3, r3, #1
 3860 168c 0B44     		add	r3, r3, r1
 3861 168e 1B78     		ldrb	r3, [r3]	@ zero_extendqisi2
 3862 1690 1B02     		lsls	r3, r3, #8
 3863 1692 9BB2     		uxth	r3, r3
 3864 1694 0146     		mov	r1, r0	@ movhi
 3865 1696 0B43     		orrs	r3, r3, r1
 3866 1698 9BB2     		uxth	r3, r3
 3867 169a 98B2     		uxth	r0, r3
 3868 169c F96A     		ldr	r1, [r7, #44]
 3869 169e 1346     		mov	r3, r2
 3870 16a0 9B00     		lsls	r3, r3, #2
 3871 16a2 1344     		add	r3, r3, r2
 3872 16a4 0B44     		add	r3, r3, r1
 3873 16a6 7033     		adds	r3, r3, #112
 3874 16a8 0246     		mov	r2, r0	@ movhi
 3875 16aa DA80     		strh	r2, [r3, #6]	@ unaligned
1324:build/openmote-cc2538_armgcc/openstack/02b-MAChigh/sixtop.c ****                     response_pkt->l2_sixtop_celllist_delete[i].channeloffset  =  *((uint8_t*)(pkt->
 3876              		.loc 1 1324 0
 3877 16ac FA8E     		ldrh	r2, [r7, #54]
 3878 16ae FB6D     		ldr	r3, [r7, #92]
 3879 16b0 5968     		ldr	r1, [r3, #4]
 3880 16b2 97F85430 		ldrb	r3, [r7, #84]	@ zero_extendqisi2
 3881 16b6 0233     		adds	r3, r3, #2
 3882 16b8 0B44     		add	r3, r3, r1
 3883 16ba 1B78     		ldrb	r3, [r3]	@ zero_extendqisi2
 3884 16bc 98B2     		uxth	r0, r3
 3885 16be F96A     		ldr	r1, [r7, #44]
 3886 16c0 1346     		mov	r3, r2
 3887 16c2 9B00     		lsls	r3, r3, #2
 3888 16c4 1344     		add	r3, r3, r2
 3889 16c6 0B44     		add	r3, r3, r1
 3890 16c8 7033     		adds	r3, r3, #112
 3891 16ca 0246     		mov	r2, r0	@ movhi
 3892 16cc 1A81     		strh	r2, [r3, #8]	@ unaligned
1325:build/openmote-cc2538_armgcc/openstack/02b-MAChigh/sixtop.c ****                     response_pkt->l2_sixtop_celllist_delete[i].channeloffset |= (*((uint8_t*)(pkt->
 3893              		.loc 1 1325 0
 3894 16ce FA8E     		ldrh	r2, [r7, #54]
 3895 16d0 F98E     		ldrh	r1, [r7, #54]
 3896 16d2 F86A     		ldr	r0, [r7, #44]
 3897 16d4 0B46     		mov	r3, r1
 3898 16d6 9B00     		lsls	r3, r3, #2
 3899 16d8 0B44     		add	r3, r3, r1
 3900 16da 0344     		add	r3, r3, r0
 3901 16dc 7033     		adds	r3, r3, #112
 3902 16de 1B89     		ldrh	r3, [r3, #8]	@ unaligned
 3903 16e0 9BB2     		uxth	r3, r3
 3904 16e2 98B2     		uxth	r0, r3
 3905 16e4 FB6D     		ldr	r3, [r7, #92]
 3906 16e6 5968     		ldr	r1, [r3, #4]
 3907 16e8 97F85430 		ldrb	r3, [r7, #84]	@ zero_extendqisi2
 3908 16ec 0333     		adds	r3, r3, #3
 3909 16ee 0B44     		add	r3, r3, r1
 3910 16f0 1B78     		ldrb	r3, [r3]	@ zero_extendqisi2
 3911 16f2 1B02     		lsls	r3, r3, #8
 3912 16f4 9BB2     		uxth	r3, r3
 3913 16f6 0146     		mov	r1, r0	@ movhi
 3914 16f8 0B43     		orrs	r3, r3, r1
 3915 16fa 9BB2     		uxth	r3, r3
 3916 16fc 98B2     		uxth	r0, r3
 3917 16fe F96A     		ldr	r1, [r7, #44]
 3918 1700 1346     		mov	r3, r2
 3919 1702 9B00     		lsls	r3, r3, #2
 3920 1704 1344     		add	r3, r3, r2
 3921 1706 0B44     		add	r3, r3, r1
 3922 1708 7033     		adds	r3, r3, #112
 3923 170a 0246     		mov	r2, r0	@ movhi
 3924 170c 1A81     		strh	r2, [r3, #8]	@ unaligned
1326:build/openmote-cc2538_armgcc/openstack/02b-MAChigh/sixtop.c ****                     response_pkt->l2_sixtop_celllist_delete[i].isUsed         = TRUE;
 3925              		.loc 1 1326 0
 3926 170e FA8E     		ldrh	r2, [r7, #54]
 3927 1710 F96A     		ldr	r1, [r7, #44]
 3928 1712 1346     		mov	r3, r2
 3929 1714 9B00     		lsls	r3, r3, #2
 3930 1716 1344     		add	r3, r3, r2
 3931 1718 0B44     		add	r3, r3, r1
 3932 171a 7033     		adds	r3, r3, #112
 3933 171c 0122     		movs	r2, #1
 3934 171e 5A71     		strb	r2, [r3, #5]
1327:build/openmote-cc2538_armgcc/openstack/02b-MAChigh/sixtop.c ****                     ptr    += 4;
 3935              		.loc 1 1327 0
 3936 1720 97F85430 		ldrb	r3, [r7, #84]
 3937 1724 0433     		adds	r3, r3, #4
 3938 1726 87F85430 		strb	r3, [r7, #84]
1328:build/openmote-cc2538_armgcc/openstack/02b-MAChigh/sixtop.c ****                     pktLen -= 4;
 3939              		.loc 1 1328 0
 3940 172a 97F83130 		ldrb	r3, [r7, #49]
 3941 172e 043B     		subs	r3, r3, #4
 3942 1730 87F83130 		strb	r3, [r7, #49]
1329:build/openmote-cc2538_armgcc/openstack/02b-MAChigh/sixtop.c ****                     i++;
 3943              		.loc 1 1329 0
 3944 1734 FB8E     		ldrh	r3, [r7, #54]
 3945 1736 0133     		adds	r3, r3, #1
 3946 1738 FB86     		strh	r3, [r7, #54]	@ movhi
 3947              	.L204:
1321:build/openmote-cc2538_armgcc/openstack/02b-MAChigh/sixtop.c ****                     response_pkt->l2_sixtop_celllist_delete[i].slotoffset     =  *((uint8_t*)(pkt->
 3948              		.loc 1 1321 0
 3949 173a 97F83130 		ldrb	r3, [r7, #49]	@ zero_extendqisi2
 3950 173e 002B     		cmp	r3, #0
 3951 1740 84D1     		bne	.L205
1330:build/openmote-cc2538_armgcc/openstack/02b-MAChigh/sixtop.c ****                 }
1331:build/openmote-cc2538_armgcc/openstack/02b-MAChigh/sixtop.c ****                 if ((cellOptions & (CELLOPTIONS_TX | CELLOPTIONS_RX)) != (CELLOPTIONS_TX | CELLOPTI
 3952              		.loc 1 1331 0
 3953 1742 97F83B30 		ldrb	r3, [r7, #59]	@ zero_extendqisi2
 3954 1746 03F00303 		and	r3, r3, #3
 3955 174a 032B     		cmp	r3, #3
 3956 174c 06D0     		beq	.L206
1332:build/openmote-cc2538_armgcc/openstack/02b-MAChigh/sixtop.c ****                     cellOptions_transformed = cellOptions ^ (CELLOPTIONS_TX | CELLOPTIONS_RX);
 3957              		.loc 1 1332 0
 3958 174e 97F83B30 		ldrb	r3, [r7, #59]
 3959 1752 83F00303 		eor	r3, r3, #3
 3960 1756 87F83A30 		strb	r3, [r7, #58]
 3961 175a 03E0     		b	.L207
 3962              	.L206:
1333:build/openmote-cc2538_armgcc/openstack/02b-MAChigh/sixtop.c ****                 } else {
1334:build/openmote-cc2538_armgcc/openstack/02b-MAChigh/sixtop.c ****                     cellOptions_transformed = cellOptions;
 3963              		.loc 1 1334 0
 3964 175c 97F83B30 		ldrb	r3, [r7, #59]
 3965 1760 87F83A30 		strb	r3, [r7, #58]
 3966              	.L207:
1335:build/openmote-cc2538_armgcc/openstack/02b-MAChigh/sixtop.c ****                 }
1336:build/openmote-cc2538_armgcc/openstack/02b-MAChigh/sixtop.c ****                 if (sixtop_areAvailableCellsToBeRemoved(metadata,numCells,response_pkt->l2_sixtop_c
 3967              		.loc 1 1336 0
 3968 1764 BB8F     		ldrh	r3, [r7, #60]	@ movhi
 3969 1766 D8B2     		uxtb	r0, r3
 3970 1768 BB8E     		ldrh	r3, [r7, #52]	@ movhi
 3971 176a D9B2     		uxtb	r1, r3
 3972 176c FB6A     		ldr	r3, [r7, #44]
 3973 176e 03F17502 		add	r2, r3, #117
 3974 1772 FB6D     		ldr	r3, [r7, #92]
 3975 1774 03F13C04 		add	r4, r3, #60
 3976 1778 97F83A30 		ldrb	r3, [r7, #58]	@ zero_extendqisi2
 3977 177c 0093     		str	r3, [sp]
 3978 177e 2346     		mov	r3, r4
 3979 1780 FFF7FEFF 		bl	sixtop_areAvailableCellsToBeRemoved
 3980 1784 0346     		mov	r3, r0
 3981 1786 002B     		cmp	r3, #0
 3982 1788 5AD0     		beq	.L208
1337:build/openmote-cc2538_armgcc/openstack/02b-MAChigh/sixtop.c ****                     returnCode = IANA_6TOP_RC_SUCCESS;
 3983              		.loc 1 1337 0
 3984 178a 0023     		movs	r3, #0
 3985 178c 87F83F30 		strb	r3, [r7, #63]
1338:build/openmote-cc2538_armgcc/openstack/02b-MAChigh/sixtop.c ****                     for(i=0;i<CELLLIST_MAX_LEN;i++) {
 3986              		.loc 1 1338 0
 3987 1790 0023     		movs	r3, #0
 3988 1792 FB86     		strh	r3, [r7, #54]	@ movhi
 3989 1794 50E0     		b	.L209
 3990              	.L211:
1339:build/openmote-cc2538_armgcc/openstack/02b-MAChigh/sixtop.c ****                         if(response_pkt->l2_sixtop_celllist_delete[i].isUsed){
 3991              		.loc 1 1339 0
 3992 1796 FA8E     		ldrh	r2, [r7, #54]
 3993 1798 F96A     		ldr	r1, [r7, #44]
 3994 179a 1346     		mov	r3, r2
 3995 179c 9B00     		lsls	r3, r3, #2
 3996 179e 1344     		add	r3, r3, r2
 3997 17a0 0B44     		add	r3, r3, r1
 3998 17a2 7033     		adds	r3, r3, #112
 3999 17a4 5B79     		ldrb	r3, [r3, #5]	@ zero_extendqisi2
 4000 17a6 002B     		cmp	r3, #0
 4001 17a8 43D0     		beq	.L210
1340:build/openmote-cc2538_armgcc/openstack/02b-MAChigh/sixtop.c ****                             packetfunctions_reserveHeaderSize(response_pkt,4);
 4002              		.loc 1 1340 0
 4003 17aa F86A     		ldr	r0, [r7, #44]
 4004 17ac 0421     		movs	r1, #4
 4005 17ae FFF7FEFF 		bl	packetfunctions_reserveHeaderSize
1341:build/openmote-cc2538_armgcc/openstack/02b-MAChigh/sixtop.c ****                             response_pkt->payload[0] = (uint8_t)(response_pkt->l2_sixtop_celllist_d
 4006              		.loc 1 1341 0
 4007 17b2 FB6A     		ldr	r3, [r7, #44]
 4008 17b4 5968     		ldr	r1, [r3, #4]
 4009 17b6 FA8E     		ldrh	r2, [r7, #54]
 4010 17b8 F86A     		ldr	r0, [r7, #44]
 4011 17ba 1346     		mov	r3, r2
 4012 17bc 9B00     		lsls	r3, r3, #2
 4013 17be 1344     		add	r3, r3, r2
 4014 17c0 0344     		add	r3, r3, r0
 4015 17c2 7033     		adds	r3, r3, #112
 4016 17c4 DB88     		ldrh	r3, [r3, #6]	@ unaligned
 4017 17c6 9BB2     		uxth	r3, r3
 4018 17c8 DBB2     		uxtb	r3, r3
 4019 17ca 0B70     		strb	r3, [r1]
1342:build/openmote-cc2538_armgcc/openstack/02b-MAChigh/sixtop.c ****                             response_pkt->payload[1] = (uint8_t)((response_pkt->l2_sixtop_celllist_
 4020              		.loc 1 1342 0
 4021 17cc FB6A     		ldr	r3, [r7, #44]
 4022 17ce 5B68     		ldr	r3, [r3, #4]
 4023 17d0 591C     		adds	r1, r3, #1
 4024 17d2 FA8E     		ldrh	r2, [r7, #54]
 4025 17d4 F86A     		ldr	r0, [r7, #44]
 4026 17d6 1346     		mov	r3, r2
 4027 17d8 9B00     		lsls	r3, r3, #2
 4028 17da 1344     		add	r3, r3, r2
 4029 17dc 0344     		add	r3, r3, r0
 4030 17de 7033     		adds	r3, r3, #112
 4031 17e0 DB88     		ldrh	r3, [r3, #6]	@ unaligned
 4032 17e2 9BB2     		uxth	r3, r3
 4033 17e4 1B0A     		lsrs	r3, r3, #8
 4034 17e6 9BB2     		uxth	r3, r3
 4035 17e8 DBB2     		uxtb	r3, r3
 4036 17ea 0B70     		strb	r3, [r1]
1343:build/openmote-cc2538_armgcc/openstack/02b-MAChigh/sixtop.c ****                             response_pkt->payload[2] = (uint8_t)(response_pkt->l2_sixtop_celllist_d
 4037              		.loc 1 1343 0
 4038 17ec FB6A     		ldr	r3, [r7, #44]
 4039 17ee 5B68     		ldr	r3, [r3, #4]
 4040 17f0 991C     		adds	r1, r3, #2
 4041 17f2 FA8E     		ldrh	r2, [r7, #54]
 4042 17f4 F86A     		ldr	r0, [r7, #44]
 4043 17f6 1346     		mov	r3, r2
 4044 17f8 9B00     		lsls	r3, r3, #2
 4045 17fa 1344     		add	r3, r3, r2
 4046 17fc 0344     		add	r3, r3, r0
 4047 17fe 7033     		adds	r3, r3, #112
 4048 1800 1B89     		ldrh	r3, [r3, #8]	@ unaligned
 4049 1802 9BB2     		uxth	r3, r3
 4050 1804 DBB2     		uxtb	r3, r3
 4051 1806 0B70     		strb	r3, [r1]
1344:build/openmote-cc2538_armgcc/openstack/02b-MAChigh/sixtop.c ****                             response_pkt->payload[3] = (uint8_t)((response_pkt->l2_sixtop_celllist_
 4052              		.loc 1 1344 0
 4053 1808 FB6A     		ldr	r3, [r7, #44]
 4054 180a 5B68     		ldr	r3, [r3, #4]
 4055 180c D91C     		adds	r1, r3, #3
 4056 180e FA8E     		ldrh	r2, [r7, #54]
 4057 1810 F86A     		ldr	r0, [r7, #44]
 4058 1812 1346     		mov	r3, r2
 4059 1814 9B00     		lsls	r3, r3, #2
 4060 1816 1344     		add	r3, r3, r2
 4061 1818 0344     		add	r3, r3, r0
 4062 181a 7033     		adds	r3, r3, #112
 4063 181c 1B89     		ldrh	r3, [r3, #8]	@ unaligned
 4064 181e 9BB2     		uxth	r3, r3
 4065 1820 1B0A     		lsrs	r3, r3, #8
 4066 1822 9BB2     		uxth	r3, r3
 4067 1824 DBB2     		uxtb	r3, r3
 4068 1826 0B70     		strb	r3, [r1]
1345:build/openmote-cc2538_armgcc/openstack/02b-MAChigh/sixtop.c ****                             response_pktLen += 4;
 4069              		.loc 1 1345 0
 4070 1828 97F83030 		ldrb	r3, [r7, #48]
 4071 182c 0433     		adds	r3, r3, #4
 4072 182e 87F83030 		strb	r3, [r7, #48]
 4073              	.L210:
1338:build/openmote-cc2538_armgcc/openstack/02b-MAChigh/sixtop.c ****                         if(response_pkt->l2_sixtop_celllist_delete[i].isUsed){
 4074              		.loc 1 1338 0 discriminator 2
 4075 1832 FB8E     		ldrh	r3, [r7, #54]
 4076 1834 0133     		adds	r3, r3, #1
 4077 1836 FB86     		strh	r3, [r7, #54]	@ movhi
 4078              	.L209:
1338:build/openmote-cc2538_armgcc/openstack/02b-MAChigh/sixtop.c ****                         if(response_pkt->l2_sixtop_celllist_delete[i].isUsed){
 4079              		.loc 1 1338 0 is_stmt 0 discriminator 1
 4080 1838 FB8E     		ldrh	r3, [r7, #54]
 4081 183a 042B     		cmp	r3, #4
 4082 183c ABD9     		bls	.L211
1346:build/openmote-cc2538_armgcc/openstack/02b-MAChigh/sixtop.c ****                         }
1347:build/openmote-cc2538_armgcc/openstack/02b-MAChigh/sixtop.c ****                     }
1348:build/openmote-cc2538_armgcc/openstack/02b-MAChigh/sixtop.c ****                 } else {
1349:build/openmote-cc2538_armgcc/openstack/02b-MAChigh/sixtop.c ****                     returnCode = IANA_6TOP_RC_CELLLIST_ERR;
1350:build/openmote-cc2538_armgcc/openstack/02b-MAChigh/sixtop.c ****                 }
1351:build/openmote-cc2538_armgcc/openstack/02b-MAChigh/sixtop.c ****                     break;
 4083              		.loc 1 1351 0 is_stmt 1
 4084 183e B4E1     		b	.L174
 4085              	.L208:
1349:build/openmote-cc2538_armgcc/openstack/02b-MAChigh/sixtop.c ****                 }
 4086              		.loc 1 1349 0
 4087 1840 0723     		movs	r3, #7
 4088 1842 87F83F30 		strb	r3, [r7, #63]
 4089              		.loc 1 1351 0
 4090 1846 B0E1     		b	.L174
 4091              	.L203:
1352:build/openmote-cc2538_armgcc/openstack/02b-MAChigh/sixtop.c ****             }
1353:build/openmote-cc2538_armgcc/openstack/02b-MAChigh/sixtop.c **** 
1354:build/openmote-cc2538_armgcc/openstack/02b-MAChigh/sixtop.c ****             // relocate command
1355:build/openmote-cc2538_armgcc/openstack/02b-MAChigh/sixtop.c ****             if (code == IANA_6TOP_CMD_RELOCATE){
 4092              		.loc 1 1355 0
 4093 1848 7B79     		ldrb	r3, [r7, #5]	@ zero_extendqisi2
 4094 184a 032B     		cmp	r3, #3
 4095 184c 40F0AD81 		bne	.L174
1356:build/openmote-cc2538_armgcc/openstack/02b-MAChigh/sixtop.c ****                 // retrieve cell list to be relocated
1357:build/openmote-cc2538_armgcc/openstack/02b-MAChigh/sixtop.c ****                 i = 0;
 4096              		.loc 1 1357 0
 4097 1850 0023     		movs	r3, #0
 4098 1852 FB86     		strh	r3, [r7, #54]	@ movhi
1358:build/openmote-cc2538_armgcc/openstack/02b-MAChigh/sixtop.c ****                 memset(response_pkt->l2_sixtop_celllist_delete,0,sizeof(response_pkt->l2_sixtop_cel
 4099              		.loc 1 1358 0
 4100 1854 FB6A     		ldr	r3, [r7, #44]
 4101 1856 7533     		adds	r3, r3, #117
 4102 1858 1846     		mov	r0, r3
 4103 185a 0021     		movs	r1, #0
 4104 185c 1922     		movs	r2, #25
 4105 185e FFF7FEFF 		bl	memset
1359:build/openmote-cc2538_armgcc/openstack/02b-MAChigh/sixtop.c ****                 temp16 = numCells;
 4106              		.loc 1 1359 0
 4107 1862 BB8E     		ldrh	r3, [r7, #52]	@ movhi
 4108 1864 7B86     		strh	r3, [r7, #50]	@ movhi
1360:build/openmote-cc2538_armgcc/openstack/02b-MAChigh/sixtop.c ****                 while(temp16>0){
 4109              		.loc 1 1360 0
 4110 1866 79E0     		b	.L213
 4111              	.L214:
1361:build/openmote-cc2538_armgcc/openstack/02b-MAChigh/sixtop.c ****                     response_pkt->l2_sixtop_celllist_delete[i].slotoffset     =  *((uint8_t*)(pkt->
 4112              		.loc 1 1361 0
 4113 1868 FA8E     		ldrh	r2, [r7, #54]
 4114 186a FB6D     		ldr	r3, [r7, #92]
 4115 186c 5968     		ldr	r1, [r3, #4]
 4116 186e 97F85430 		ldrb	r3, [r7, #84]	@ zero_extendqisi2
 4117 1872 0B44     		add	r3, r3, r1
 4118 1874 1B78     		ldrb	r3, [r3]	@ zero_extendqisi2
 4119 1876 98B2     		uxth	r0, r3
 4120 1878 F96A     		ldr	r1, [r7, #44]
 4121 187a 1346     		mov	r3, r2
 4122 187c 9B00     		lsls	r3, r3, #2
 4123 187e 1344     		add	r3, r3, r2
 4124 1880 0B44     		add	r3, r3, r1
 4125 1882 7033     		adds	r3, r3, #112
 4126 1884 0246     		mov	r2, r0	@ movhi
 4127 1886 DA80     		strh	r2, [r3, #6]	@ unaligned
1362:build/openmote-cc2538_armgcc/openstack/02b-MAChigh/sixtop.c ****                     response_pkt->l2_sixtop_celllist_delete[i].slotoffset    |= (*((uint8_t*)(pkt->
 4128              		.loc 1 1362 0
 4129 1888 FA8E     		ldrh	r2, [r7, #54]
 4130 188a F98E     		ldrh	r1, [r7, #54]
 4131 188c F86A     		ldr	r0, [r7, #44]
 4132 188e 0B46     		mov	r3, r1
 4133 1890 9B00     		lsls	r3, r3, #2
 4134 1892 0B44     		add	r3, r3, r1
 4135 1894 0344     		add	r3, r3, r0
 4136 1896 7033     		adds	r3, r3, #112
 4137 1898 DB88     		ldrh	r3, [r3, #6]	@ unaligned
 4138 189a 9BB2     		uxth	r3, r3
 4139 189c 98B2     		uxth	r0, r3
 4140 189e FB6D     		ldr	r3, [r7, #92]
 4141 18a0 5968     		ldr	r1, [r3, #4]
 4142 18a2 97F85430 		ldrb	r3, [r7, #84]	@ zero_extendqisi2
 4143 18a6 0133     		adds	r3, r3, #1
 4144 18a8 0B44     		add	r3, r3, r1
 4145 18aa 1B78     		ldrb	r3, [r3]	@ zero_extendqisi2
 4146 18ac 1B02     		lsls	r3, r3, #8
 4147 18ae 9BB2     		uxth	r3, r3
 4148 18b0 0146     		mov	r1, r0	@ movhi
 4149 18b2 0B43     		orrs	r3, r3, r1
 4150 18b4 9BB2     		uxth	r3, r3
 4151 18b6 98B2     		uxth	r0, r3
 4152 18b8 F96A     		ldr	r1, [r7, #44]
 4153 18ba 1346     		mov	r3, r2
 4154 18bc 9B00     		lsls	r3, r3, #2
 4155 18be 1344     		add	r3, r3, r2
 4156 18c0 0B44     		add	r3, r3, r1
 4157 18c2 7033     		adds	r3, r3, #112
 4158 18c4 0246     		mov	r2, r0	@ movhi
 4159 18c6 DA80     		strh	r2, [r3, #6]	@ unaligned
1363:build/openmote-cc2538_armgcc/openstack/02b-MAChigh/sixtop.c ****                     response_pkt->l2_sixtop_celllist_delete[i].channeloffset  =  *((uint8_t*)(pkt->
 4160              		.loc 1 1363 0
 4161 18c8 FA8E     		ldrh	r2, [r7, #54]
 4162 18ca FB6D     		ldr	r3, [r7, #92]
 4163 18cc 5968     		ldr	r1, [r3, #4]
 4164 18ce 97F85430 		ldrb	r3, [r7, #84]	@ zero_extendqisi2
 4165 18d2 0233     		adds	r3, r3, #2
 4166 18d4 0B44     		add	r3, r3, r1
 4167 18d6 1B78     		ldrb	r3, [r3]	@ zero_extendqisi2
 4168 18d8 98B2     		uxth	r0, r3
 4169 18da F96A     		ldr	r1, [r7, #44]
 4170 18dc 1346     		mov	r3, r2
 4171 18de 9B00     		lsls	r3, r3, #2
 4172 18e0 1344     		add	r3, r3, r2
 4173 18e2 0B44     		add	r3, r3, r1
 4174 18e4 7033     		adds	r3, r3, #112
 4175 18e6 0246     		mov	r2, r0	@ movhi
 4176 18e8 1A81     		strh	r2, [r3, #8]	@ unaligned
1364:build/openmote-cc2538_armgcc/openstack/02b-MAChigh/sixtop.c ****                     response_pkt->l2_sixtop_celllist_delete[i].channeloffset |= (*((uint8_t*)(pkt->
 4177              		.loc 1 1364 0
 4178 18ea FA8E     		ldrh	r2, [r7, #54]
 4179 18ec F98E     		ldrh	r1, [r7, #54]
 4180 18ee F86A     		ldr	r0, [r7, #44]
 4181 18f0 0B46     		mov	r3, r1
 4182 18f2 9B00     		lsls	r3, r3, #2
 4183 18f4 0B44     		add	r3, r3, r1
 4184 18f6 0344     		add	r3, r3, r0
 4185 18f8 7033     		adds	r3, r3, #112
 4186 18fa 1B89     		ldrh	r3, [r3, #8]	@ unaligned
 4187 18fc 9BB2     		uxth	r3, r3
 4188 18fe 98B2     		uxth	r0, r3
 4189 1900 FB6D     		ldr	r3, [r7, #92]
 4190 1902 5968     		ldr	r1, [r3, #4]
 4191 1904 97F85430 		ldrb	r3, [r7, #84]	@ zero_extendqisi2
 4192 1908 0333     		adds	r3, r3, #3
 4193 190a 0B44     		add	r3, r3, r1
 4194 190c 1B78     		ldrb	r3, [r3]	@ zero_extendqisi2
 4195 190e 1B02     		lsls	r3, r3, #8
 4196 1910 9BB2     		uxth	r3, r3
 4197 1912 0146     		mov	r1, r0	@ movhi
 4198 1914 0B43     		orrs	r3, r3, r1
 4199 1916 9BB2     		uxth	r3, r3
 4200 1918 98B2     		uxth	r0, r3
 4201 191a F96A     		ldr	r1, [r7, #44]
 4202 191c 1346     		mov	r3, r2
 4203 191e 9B00     		lsls	r3, r3, #2
 4204 1920 1344     		add	r3, r3, r2
 4205 1922 0B44     		add	r3, r3, r1
 4206 1924 7033     		adds	r3, r3, #112
 4207 1926 0246     		mov	r2, r0	@ movhi
 4208 1928 1A81     		strh	r2, [r3, #8]	@ unaligned
1365:build/openmote-cc2538_armgcc/openstack/02b-MAChigh/sixtop.c ****                     response_pkt->l2_sixtop_celllist_delete[i].isUsed         = TRUE;
 4209              		.loc 1 1365 0
 4210 192a FA8E     		ldrh	r2, [r7, #54]
 4211 192c F96A     		ldr	r1, [r7, #44]
 4212 192e 1346     		mov	r3, r2
 4213 1930 9B00     		lsls	r3, r3, #2
 4214 1932 1344     		add	r3, r3, r2
 4215 1934 0B44     		add	r3, r3, r1
 4216 1936 7033     		adds	r3, r3, #112
 4217 1938 0122     		movs	r2, #1
 4218 193a 5A71     		strb	r2, [r3, #5]
1366:build/openmote-cc2538_armgcc/openstack/02b-MAChigh/sixtop.c ****                     ptr    += 4;
 4219              		.loc 1 1366 0
 4220 193c 97F85430 		ldrb	r3, [r7, #84]
 4221 1940 0433     		adds	r3, r3, #4
 4222 1942 87F85430 		strb	r3, [r7, #84]
1367:build/openmote-cc2538_armgcc/openstack/02b-MAChigh/sixtop.c ****                     pktLen -= 4;
 4223              		.loc 1 1367 0
 4224 1946 97F83130 		ldrb	r3, [r7, #49]
 4225 194a 043B     		subs	r3, r3, #4
 4226 194c 87F83130 		strb	r3, [r7, #49]
1368:build/openmote-cc2538_armgcc/openstack/02b-MAChigh/sixtop.c ****                     temp16--;
 4227              		.loc 1 1368 0
 4228 1950 7B8E     		ldrh	r3, [r7, #50]
 4229 1952 013B     		subs	r3, r3, #1
 4230 1954 7B86     		strh	r3, [r7, #50]	@ movhi
1369:build/openmote-cc2538_armgcc/openstack/02b-MAChigh/sixtop.c ****                     i++;
 4231              		.loc 1 1369 0
 4232 1956 FB8E     		ldrh	r3, [r7, #54]
 4233 1958 0133     		adds	r3, r3, #1
 4234 195a FB86     		strh	r3, [r7, #54]	@ movhi
 4235              	.L213:
1360:build/openmote-cc2538_armgcc/openstack/02b-MAChigh/sixtop.c ****                     response_pkt->l2_sixtop_celllist_delete[i].slotoffset     =  *((uint8_t*)(pkt->
 4236              		.loc 1 1360 0
 4237 195c 7B8E     		ldrh	r3, [r7, #50]
 4238 195e 002B     		cmp	r3, #0
 4239 1960 82D1     		bne	.L214
1370:build/openmote-cc2538_armgcc/openstack/02b-MAChigh/sixtop.c ****                 }
1371:build/openmote-cc2538_armgcc/openstack/02b-MAChigh/sixtop.c ****                 if ((cellOptions & (CELLOPTIONS_TX | CELLOPTIONS_RX)) != (CELLOPTIONS_TX | CELLOPTI
 4240              		.loc 1 1371 0
 4241 1962 97F83B30 		ldrb	r3, [r7, #59]	@ zero_extendqisi2
 4242 1966 03F00303 		and	r3, r3, #3
 4243 196a 032B     		cmp	r3, #3
 4244 196c 06D0     		beq	.L215
1372:build/openmote-cc2538_armgcc/openstack/02b-MAChigh/sixtop.c ****                     cellOptions_transformed = cellOptions ^ (CELLOPTIONS_TX | CELLOPTIONS_RX);
 4245              		.loc 1 1372 0
 4246 196e 97F83B30 		ldrb	r3, [r7, #59]
 4247 1972 83F00303 		eor	r3, r3, #3
 4248 1976 87F83A30 		strb	r3, [r7, #58]
 4249 197a 03E0     		b	.L216
 4250              	.L215:
1373:build/openmote-cc2538_armgcc/openstack/02b-MAChigh/sixtop.c ****                 } else {
1374:build/openmote-cc2538_armgcc/openstack/02b-MAChigh/sixtop.c ****                     cellOptions_transformed = cellOptions;
 4251              		.loc 1 1374 0
 4252 197c 97F83B30 		ldrb	r3, [r7, #59]
 4253 1980 87F83A30 		strb	r3, [r7, #58]
 4254              	.L216:
1375:build/openmote-cc2538_armgcc/openstack/02b-MAChigh/sixtop.c ****                 }
1376:build/openmote-cc2538_armgcc/openstack/02b-MAChigh/sixtop.c ****                 if (sixtop_areAvailableCellsToBeRemoved(metadata,numCells,response_pkt->l2_sixtop_c
 4255              		.loc 1 1376 0
 4256 1984 BB8F     		ldrh	r3, [r7, #60]	@ movhi
 4257 1986 D8B2     		uxtb	r0, r3
 4258 1988 BB8E     		ldrh	r3, [r7, #52]	@ movhi
 4259 198a D9B2     		uxtb	r1, r3
 4260 198c FB6A     		ldr	r3, [r7, #44]
 4261 198e 03F17502 		add	r2, r3, #117
 4262 1992 FB6D     		ldr	r3, [r7, #92]
 4263 1994 03F13C04 		add	r4, r3, #60
 4264 1998 97F83A30 		ldrb	r3, [r7, #58]	@ zero_extendqisi2
 4265 199c 0093     		str	r3, [sp]
 4266 199e 2346     		mov	r3, r4
 4267 19a0 FFF7FEFF 		bl	sixtop_areAvailableCellsToBeRemoved
 4268 19a4 0346     		mov	r3, r0
 4269 19a6 83F00103 		eor	r3, r3, #1
 4270 19aa DBB2     		uxtb	r3, r3
 4271 19ac 002B     		cmp	r3, #0
 4272 19ae 03D0     		beq	.L217
1377:build/openmote-cc2538_armgcc/openstack/02b-MAChigh/sixtop.c ****                     returnCode = IANA_6TOP_RC_CELLLIST_ERR;
 4273              		.loc 1 1377 0
 4274 19b0 0723     		movs	r3, #7
 4275 19b2 87F83F30 		strb	r3, [r7, #63]
1378:build/openmote-cc2538_armgcc/openstack/02b-MAChigh/sixtop.c ****                     break;
 4276              		.loc 1 1378 0
 4277 19b6 F8E0     		b	.L174
 4278              	.L217:
1379:build/openmote-cc2538_armgcc/openstack/02b-MAChigh/sixtop.c ****                 }
1380:build/openmote-cc2538_armgcc/openstack/02b-MAChigh/sixtop.c ****                 // retrieve cell list to be relocated
1381:build/openmote-cc2538_armgcc/openstack/02b-MAChigh/sixtop.c ****                 i = 0;
 4279              		.loc 1 1381 0
 4280 19b8 0023     		movs	r3, #0
 4281 19ba FB86     		strh	r3, [r7, #54]	@ movhi
1382:build/openmote-cc2538_armgcc/openstack/02b-MAChigh/sixtop.c ****                 memset(response_pkt->l2_sixtop_celllist_add,0,sizeof(response_pkt->l2_sixtop_cellli
 4282              		.loc 1 1382 0
 4283 19bc FB6A     		ldr	r3, [r7, #44]
 4284 19be 5C33     		adds	r3, r3, #92
 4285 19c0 1846     		mov	r0, r3
 4286 19c2 0021     		movs	r1, #0
 4287 19c4 1922     		movs	r2, #25
 4288 19c6 FFF7FEFF 		bl	memset
1383:build/openmote-cc2538_armgcc/openstack/02b-MAChigh/sixtop.c ****                 while(pktLen>0){
 4289              		.loc 1 1383 0
 4290 19ca 7CE0     		b	.L218
 4291              	.L219:
1384:build/openmote-cc2538_armgcc/openstack/02b-MAChigh/sixtop.c ****                     response_pkt->l2_sixtop_celllist_add[i].slotoffset     =  *((uint8_t*)(pkt->pay
 4292              		.loc 1 1384 0
 4293 19cc FA8E     		ldrh	r2, [r7, #54]
 4294 19ce FB6D     		ldr	r3, [r7, #92]
 4295 19d0 5968     		ldr	r1, [r3, #4]
 4296 19d2 97F85430 		ldrb	r3, [r7, #84]	@ zero_extendqisi2
 4297 19d6 0B44     		add	r3, r3, r1
 4298 19d8 1B78     		ldrb	r3, [r3]	@ zero_extendqisi2
 4299 19da 98B2     		uxth	r0, r3
 4300 19dc F96A     		ldr	r1, [r7, #44]
 4301 19de 1346     		mov	r3, r2
 4302 19e0 9B00     		lsls	r3, r3, #2
 4303 19e2 1344     		add	r3, r3, r2
 4304 19e4 0B44     		add	r3, r3, r1
 4305 19e6 5833     		adds	r3, r3, #88
 4306 19e8 0246     		mov	r2, r0	@ movhi
 4307 19ea A3F80520 		strh	r2, [r3, #5]	@ unaligned
1385:build/openmote-cc2538_armgcc/openstack/02b-MAChigh/sixtop.c ****                     response_pkt->l2_sixtop_celllist_add[i].slotoffset    |= (*((uint8_t*)(pkt->pay
 4308              		.loc 1 1385 0
 4309 19ee FA8E     		ldrh	r2, [r7, #54]
 4310 19f0 F98E     		ldrh	r1, [r7, #54]
 4311 19f2 F86A     		ldr	r0, [r7, #44]
 4312 19f4 0B46     		mov	r3, r1
 4313 19f6 9B00     		lsls	r3, r3, #2
 4314 19f8 0B44     		add	r3, r3, r1
 4315 19fa 0344     		add	r3, r3, r0
 4316 19fc 5833     		adds	r3, r3, #88
 4317 19fe B3F80530 		ldrh	r3, [r3, #5]	@ unaligned
 4318 1a02 9BB2     		uxth	r3, r3
 4319 1a04 98B2     		uxth	r0, r3
 4320 1a06 FB6D     		ldr	r3, [r7, #92]
 4321 1a08 5968     		ldr	r1, [r3, #4]
 4322 1a0a 97F85430 		ldrb	r3, [r7, #84]	@ zero_extendqisi2
 4323 1a0e 0133     		adds	r3, r3, #1
 4324 1a10 0B44     		add	r3, r3, r1
 4325 1a12 1B78     		ldrb	r3, [r3]	@ zero_extendqisi2
 4326 1a14 1B02     		lsls	r3, r3, #8
 4327 1a16 9BB2     		uxth	r3, r3
 4328 1a18 0146     		mov	r1, r0	@ movhi
 4329 1a1a 0B43     		orrs	r3, r3, r1
 4330 1a1c 9BB2     		uxth	r3, r3
 4331 1a1e 98B2     		uxth	r0, r3
 4332 1a20 F96A     		ldr	r1, [r7, #44]
 4333 1a22 1346     		mov	r3, r2
 4334 1a24 9B00     		lsls	r3, r3, #2
 4335 1a26 1344     		add	r3, r3, r2
 4336 1a28 0B44     		add	r3, r3, r1
 4337 1a2a 5833     		adds	r3, r3, #88
 4338 1a2c 0246     		mov	r2, r0	@ movhi
 4339 1a2e A3F80520 		strh	r2, [r3, #5]	@ unaligned
1386:build/openmote-cc2538_armgcc/openstack/02b-MAChigh/sixtop.c ****                     response_pkt->l2_sixtop_celllist_add[i].channeloffset  =  *((uint8_t*)(pkt->pay
 4340              		.loc 1 1386 0
 4341 1a32 FA8E     		ldrh	r2, [r7, #54]
 4342 1a34 FB6D     		ldr	r3, [r7, #92]
 4343 1a36 5968     		ldr	r1, [r3, #4]
 4344 1a38 97F85430 		ldrb	r3, [r7, #84]	@ zero_extendqisi2
 4345 1a3c 0233     		adds	r3, r3, #2
 4346 1a3e 0B44     		add	r3, r3, r1
 4347 1a40 1B78     		ldrb	r3, [r3]	@ zero_extendqisi2
 4348 1a42 98B2     		uxth	r0, r3
 4349 1a44 F96A     		ldr	r1, [r7, #44]
 4350 1a46 1346     		mov	r3, r2
 4351 1a48 9B00     		lsls	r3, r3, #2
 4352 1a4a 1344     		add	r3, r3, r2
 4353 1a4c 0B44     		add	r3, r3, r1
 4354 1a4e 5833     		adds	r3, r3, #88
 4355 1a50 0246     		mov	r2, r0	@ movhi
 4356 1a52 A3F80720 		strh	r2, [r3, #7]	@ unaligned
1387:build/openmote-cc2538_armgcc/openstack/02b-MAChigh/sixtop.c ****                     response_pkt->l2_sixtop_celllist_add[i].channeloffset |= (*((uint8_t*)(pkt->pay
 4357              		.loc 1 1387 0
 4358 1a56 FA8E     		ldrh	r2, [r7, #54]
 4359 1a58 F98E     		ldrh	r1, [r7, #54]
 4360 1a5a F86A     		ldr	r0, [r7, #44]
 4361 1a5c 0B46     		mov	r3, r1
 4362 1a5e 9B00     		lsls	r3, r3, #2
 4363 1a60 0B44     		add	r3, r3, r1
 4364 1a62 0344     		add	r3, r3, r0
 4365 1a64 5833     		adds	r3, r3, #88
 4366 1a66 B3F80730 		ldrh	r3, [r3, #7]	@ unaligned
 4367 1a6a 9BB2     		uxth	r3, r3
 4368 1a6c 98B2     		uxth	r0, r3
 4369 1a6e FB6D     		ldr	r3, [r7, #92]
 4370 1a70 5968     		ldr	r1, [r3, #4]
 4371 1a72 97F85430 		ldrb	r3, [r7, #84]	@ zero_extendqisi2
 4372 1a76 0333     		adds	r3, r3, #3
 4373 1a78 0B44     		add	r3, r3, r1
 4374 1a7a 1B78     		ldrb	r3, [r3]	@ zero_extendqisi2
 4375 1a7c 1B02     		lsls	r3, r3, #8
 4376 1a7e 9BB2     		uxth	r3, r3
 4377 1a80 0146     		mov	r1, r0	@ movhi
 4378 1a82 0B43     		orrs	r3, r3, r1
 4379 1a84 9BB2     		uxth	r3, r3
 4380 1a86 98B2     		uxth	r0, r3
 4381 1a88 F96A     		ldr	r1, [r7, #44]
 4382 1a8a 1346     		mov	r3, r2
 4383 1a8c 9B00     		lsls	r3, r3, #2
 4384 1a8e 1344     		add	r3, r3, r2
 4385 1a90 0B44     		add	r3, r3, r1
 4386 1a92 5833     		adds	r3, r3, #88
 4387 1a94 0246     		mov	r2, r0	@ movhi
 4388 1a96 A3F80720 		strh	r2, [r3, #7]	@ unaligned
1388:build/openmote-cc2538_armgcc/openstack/02b-MAChigh/sixtop.c ****                     response_pkt->l2_sixtop_celllist_add[i].isUsed         = TRUE;
 4389              		.loc 1 1388 0
 4390 1a9a FA8E     		ldrh	r2, [r7, #54]
 4391 1a9c F96A     		ldr	r1, [r7, #44]
 4392 1a9e 1346     		mov	r3, r2
 4393 1aa0 9B00     		lsls	r3, r3, #2
 4394 1aa2 1344     		add	r3, r3, r2
 4395 1aa4 0B44     		add	r3, r3, r1
 4396 1aa6 5833     		adds	r3, r3, #88
 4397 1aa8 0122     		movs	r2, #1
 4398 1aaa 1A71     		strb	r2, [r3, #4]
1389:build/openmote-cc2538_armgcc/openstack/02b-MAChigh/sixtop.c ****                     ptr    += 4;
 4399              		.loc 1 1389 0
 4400 1aac 97F85430 		ldrb	r3, [r7, #84]
 4401 1ab0 0433     		adds	r3, r3, #4
 4402 1ab2 87F85430 		strb	r3, [r7, #84]
1390:build/openmote-cc2538_armgcc/openstack/02b-MAChigh/sixtop.c ****                     pktLen -= 4;
 4403              		.loc 1 1390 0
 4404 1ab6 97F83130 		ldrb	r3, [r7, #49]
 4405 1aba 043B     		subs	r3, r3, #4
 4406 1abc 87F83130 		strb	r3, [r7, #49]
1391:build/openmote-cc2538_armgcc/openstack/02b-MAChigh/sixtop.c ****                     i++;
 4407              		.loc 1 1391 0
 4408 1ac0 FB8E     		ldrh	r3, [r7, #54]
 4409 1ac2 0133     		adds	r3, r3, #1
 4410 1ac4 FB86     		strh	r3, [r7, #54]	@ movhi
 4411              	.L218:
1383:build/openmote-cc2538_armgcc/openstack/02b-MAChigh/sixtop.c ****                     response_pkt->l2_sixtop_celllist_add[i].slotoffset     =  *((uint8_t*)(pkt->pay
 4412              		.loc 1 1383 0
 4413 1ac6 97F83130 		ldrb	r3, [r7, #49]	@ zero_extendqisi2
 4414 1aca 002B     		cmp	r3, #0
 4415 1acc 7FF47EAF 		bne	.L219
1392:build/openmote-cc2538_armgcc/openstack/02b-MAChigh/sixtop.c ****                 }
1393:build/openmote-cc2538_armgcc/openstack/02b-MAChigh/sixtop.c ****                 if (sixtop_areAvailableCellsToBeScheduled(metadata,numCells,response_pkt->l2_sixtop
 4416              		.loc 1 1393 0
 4417 1ad0 BB8F     		ldrh	r3, [r7, #60]	@ movhi
 4418 1ad2 D9B2     		uxtb	r1, r3
 4419 1ad4 BB8E     		ldrh	r3, [r7, #52]	@ movhi
 4420 1ad6 DAB2     		uxtb	r2, r3
 4421 1ad8 FB6A     		ldr	r3, [r7, #44]
 4422 1ada 5C33     		adds	r3, r3, #92
 4423 1adc 0846     		mov	r0, r1
 4424 1ade 1146     		mov	r1, r2
 4425 1ae0 1A46     		mov	r2, r3
 4426 1ae2 FFF7FEFF 		bl	sixtop_areAvailableCellsToBeScheduled
 4427 1ae6 0346     		mov	r3, r0
 4428 1ae8 002B     		cmp	r3, #0
 4429 1aea 5AD0     		beq	.L220
1394:build/openmote-cc2538_armgcc/openstack/02b-MAChigh/sixtop.c ****                     for(i=0;i<CELLLIST_MAX_LEN;i++) {
 4430              		.loc 1 1394 0
 4431 1aec 0023     		movs	r3, #0
 4432 1aee FB86     		strh	r3, [r7, #54]	@ movhi
 4433 1af0 54E0     		b	.L221
 4434              	.L223:
1395:build/openmote-cc2538_armgcc/openstack/02b-MAChigh/sixtop.c ****                         if(response_pkt->l2_sixtop_celllist_add[i].isUsed){
 4435              		.loc 1 1395 0
 4436 1af2 FA8E     		ldrh	r2, [r7, #54]
 4437 1af4 F96A     		ldr	r1, [r7, #44]
 4438 1af6 1346     		mov	r3, r2
 4439 1af8 9B00     		lsls	r3, r3, #2
 4440 1afa 1344     		add	r3, r3, r2
 4441 1afc 0B44     		add	r3, r3, r1
 4442 1afe 5833     		adds	r3, r3, #88
 4443 1b00 1B79     		ldrb	r3, [r3, #4]	@ zero_extendqisi2
 4444 1b02 002B     		cmp	r3, #0
 4445 1b04 47D0     		beq	.L222
1396:build/openmote-cc2538_armgcc/openstack/02b-MAChigh/sixtop.c ****                             packetfunctions_reserveHeaderSize(response_pkt,4);
 4446              		.loc 1 1396 0
 4447 1b06 F86A     		ldr	r0, [r7, #44]
 4448 1b08 0421     		movs	r1, #4
 4449 1b0a FFF7FEFF 		bl	packetfunctions_reserveHeaderSize
1397:build/openmote-cc2538_armgcc/openstack/02b-MAChigh/sixtop.c ****                             response_pkt->payload[0] = (uint8_t)(response_pkt->l2_sixtop_celllist_a
 4450              		.loc 1 1397 0
 4451 1b0e FB6A     		ldr	r3, [r7, #44]
 4452 1b10 5968     		ldr	r1, [r3, #4]
 4453 1b12 FA8E     		ldrh	r2, [r7, #54]
 4454 1b14 F86A     		ldr	r0, [r7, #44]
 4455 1b16 1346     		mov	r3, r2
 4456 1b18 9B00     		lsls	r3, r3, #2
 4457 1b1a 1344     		add	r3, r3, r2
 4458 1b1c 0344     		add	r3, r3, r0
 4459 1b1e 5833     		adds	r3, r3, #88
 4460 1b20 B3F80530 		ldrh	r3, [r3, #5]	@ unaligned
 4461 1b24 9BB2     		uxth	r3, r3
 4462 1b26 DBB2     		uxtb	r3, r3
 4463 1b28 0B70     		strb	r3, [r1]
1398:build/openmote-cc2538_armgcc/openstack/02b-MAChigh/sixtop.c ****                             response_pkt->payload[1] = (uint8_t)((response_pkt->l2_sixtop_celllist_
 4464              		.loc 1 1398 0
 4465 1b2a FB6A     		ldr	r3, [r7, #44]
 4466 1b2c 5B68     		ldr	r3, [r3, #4]
 4467 1b2e 591C     		adds	r1, r3, #1
 4468 1b30 FA8E     		ldrh	r2, [r7, #54]
 4469 1b32 F86A     		ldr	r0, [r7, #44]
 4470 1b34 1346     		mov	r3, r2
 4471 1b36 9B00     		lsls	r3, r3, #2
 4472 1b38 1344     		add	r3, r3, r2
 4473 1b3a 0344     		add	r3, r3, r0
 4474 1b3c 5833     		adds	r3, r3, #88
 4475 1b3e B3F80530 		ldrh	r3, [r3, #5]	@ unaligned
 4476 1b42 9BB2     		uxth	r3, r3
 4477 1b44 1B0A     		lsrs	r3, r3, #8
 4478 1b46 9BB2     		uxth	r3, r3
 4479 1b48 DBB2     		uxtb	r3, r3
 4480 1b4a 0B70     		strb	r3, [r1]
1399:build/openmote-cc2538_armgcc/openstack/02b-MAChigh/sixtop.c ****                             response_pkt->payload[2] = (uint8_t)(response_pkt->l2_sixtop_celllist_a
 4481              		.loc 1 1399 0
 4482 1b4c FB6A     		ldr	r3, [r7, #44]
 4483 1b4e 5B68     		ldr	r3, [r3, #4]
 4484 1b50 991C     		adds	r1, r3, #2
 4485 1b52 FA8E     		ldrh	r2, [r7, #54]
 4486 1b54 F86A     		ldr	r0, [r7, #44]
 4487 1b56 1346     		mov	r3, r2
 4488 1b58 9B00     		lsls	r3, r3, #2
 4489 1b5a 1344     		add	r3, r3, r2
 4490 1b5c 0344     		add	r3, r3, r0
 4491 1b5e 5833     		adds	r3, r3, #88
 4492 1b60 B3F80730 		ldrh	r3, [r3, #7]	@ unaligned
 4493 1b64 9BB2     		uxth	r3, r3
 4494 1b66 DBB2     		uxtb	r3, r3
 4495 1b68 0B70     		strb	r3, [r1]
1400:build/openmote-cc2538_armgcc/openstack/02b-MAChigh/sixtop.c ****                             response_pkt->payload[3] = (uint8_t)((response_pkt->l2_sixtop_celllist_
 4496              		.loc 1 1400 0
 4497 1b6a FB6A     		ldr	r3, [r7, #44]
 4498 1b6c 5B68     		ldr	r3, [r3, #4]
 4499 1b6e D91C     		adds	r1, r3, #3
 4500 1b70 FA8E     		ldrh	r2, [r7, #54]
 4501 1b72 F86A     		ldr	r0, [r7, #44]
 4502 1b74 1346     		mov	r3, r2
 4503 1b76 9B00     		lsls	r3, r3, #2
 4504 1b78 1344     		add	r3, r3, r2
 4505 1b7a 0344     		add	r3, r3, r0
 4506 1b7c 5833     		adds	r3, r3, #88
 4507 1b7e B3F80730 		ldrh	r3, [r3, #7]	@ unaligned
 4508 1b82 9BB2     		uxth	r3, r3
 4509 1b84 1B0A     		lsrs	r3, r3, #8
 4510 1b86 9BB2     		uxth	r3, r3
 4511 1b88 DBB2     		uxtb	r3, r3
 4512 1b8a 0B70     		strb	r3, [r1]
1401:build/openmote-cc2538_armgcc/openstack/02b-MAChigh/sixtop.c ****                             response_pktLen += 4;
 4513              		.loc 1 1401 0
 4514 1b8c 97F83030 		ldrb	r3, [r7, #48]
 4515 1b90 0433     		adds	r3, r3, #4
 4516 1b92 87F83030 		strb	r3, [r7, #48]
 4517              	.L222:
1394:build/openmote-cc2538_armgcc/openstack/02b-MAChigh/sixtop.c ****                         if(response_pkt->l2_sixtop_celllist_add[i].isUsed){
 4518              		.loc 1 1394 0 discriminator 2
 4519 1b96 FB8E     		ldrh	r3, [r7, #54]
 4520 1b98 0133     		adds	r3, r3, #1
 4521 1b9a FB86     		strh	r3, [r7, #54]	@ movhi
 4522              	.L221:
1394:build/openmote-cc2538_armgcc/openstack/02b-MAChigh/sixtop.c ****                         if(response_pkt->l2_sixtop_celllist_add[i].isUsed){
 4523              		.loc 1 1394 0 is_stmt 0 discriminator 1
 4524 1b9c FB8E     		ldrh	r3, [r7, #54]
 4525 1b9e 042B     		cmp	r3, #4
 4526 1ba0 A7D9     		bls	.L223
 4527              	.L220:
1402:build/openmote-cc2538_armgcc/openstack/02b-MAChigh/sixtop.c ****                         }
1403:build/openmote-cc2538_armgcc/openstack/02b-MAChigh/sixtop.c ****                     }
1404:build/openmote-cc2538_armgcc/openstack/02b-MAChigh/sixtop.c ****                 }
1405:build/openmote-cc2538_armgcc/openstack/02b-MAChigh/sixtop.c ****                 returnCode = IANA_6TOP_RC_SUCCESS;
 4528              		.loc 1 1405 0 is_stmt 1
 4529 1ba2 0023     		movs	r3, #0
 4530 1ba4 87F83F30 		strb	r3, [r7, #63]
1406:build/openmote-cc2538_armgcc/openstack/02b-MAChigh/sixtop.c ****                 break;
 4531              		.loc 1 1406 0
 4532 1ba8 00BF     		nop
 4533              	.L174:
1407:build/openmote-cc2538_armgcc/openstack/02b-MAChigh/sixtop.c ****             }
1408:build/openmote-cc2538_armgcc/openstack/02b-MAChigh/sixtop.c ****         } while(0);
1409:build/openmote-cc2538_armgcc/openstack/02b-MAChigh/sixtop.c **** 
1410:build/openmote-cc2538_armgcc/openstack/02b-MAChigh/sixtop.c ****         // record code, returnCode, frameID and cellOptions. They will be used when 6p repsonse sen
1411:build/openmote-cc2538_armgcc/openstack/02b-MAChigh/sixtop.c ****         response_pkt->l2_sixtop_command     = code;
 4534              		.loc 1 1411 0
 4535 1baa FB6A     		ldr	r3, [r7, #44]
 4536 1bac 7A79     		ldrb	r2, [r7, #5]
 4537 1bae 83F89120 		strb	r2, [r3, #145]
1412:build/openmote-cc2538_armgcc/openstack/02b-MAChigh/sixtop.c ****         response_pkt->l2_sixtop_returnCode  = returnCode;
 4538              		.loc 1 1412 0
 4539 1bb2 FB6A     		ldr	r3, [r7, #44]
 4540 1bb4 97F83F20 		ldrb	r2, [r7, #63]
 4541 1bb8 83F89320 		strb	r2, [r3, #147]
1413:build/openmote-cc2538_armgcc/openstack/02b-MAChigh/sixtop.c ****         response_pkt->l2_sixtop_frameID     = metadata;
 4542              		.loc 1 1413 0
 4543 1bbc FB6A     		ldr	r3, [r7, #44]
 4544 1bbe BA8F     		ldrh	r2, [r7, #60]	@ movhi
 4545 1bc0 A3F88E20 		strh	r2, [r3, #142]	@ movhi
1414:build/openmote-cc2538_armgcc/openstack/02b-MAChigh/sixtop.c ****         // revert tx and rx link option bits
1415:build/openmote-cc2538_armgcc/openstack/02b-MAChigh/sixtop.c ****         if ((cellOptions & (CELLOPTIONS_TX | CELLOPTIONS_RX)) != (CELLOPTIONS_TX | CELLOPTIONS_RX))
 4546              		.loc 1 1415 0
 4547 1bc4 97F83B30 		ldrb	r3, [r7, #59]	@ zero_extendqisi2
 4548 1bc8 03F00303 		and	r3, r3, #3
 4549 1bcc 032B     		cmp	r3, #3
 4550 1bce 08D0     		beq	.L224
1416:build/openmote-cc2538_armgcc/openstack/02b-MAChigh/sixtop.c ****             response_pkt->l2_sixtop_cellOptions = cellOptions ^ (CELLOPTIONS_TX | CELLOPTIONS_RX);
 4551              		.loc 1 1416 0
 4552 1bd0 97F83B30 		ldrb	r3, [r7, #59]
 4553 1bd4 83F00303 		eor	r3, r3, #3
 4554 1bd8 DAB2     		uxtb	r2, r3
 4555 1bda FB6A     		ldr	r3, [r7, #44]
 4556 1bdc 83F89220 		strb	r2, [r3, #146]
 4557 1be0 04E0     		b	.L225
 4558              	.L224:
1417:build/openmote-cc2538_armgcc/openstack/02b-MAChigh/sixtop.c ****         } else {
1418:build/openmote-cc2538_armgcc/openstack/02b-MAChigh/sixtop.c ****             response_pkt->l2_sixtop_cellOptions = cellOptions;
 4559              		.loc 1 1418 0
 4560 1be2 FB6A     		ldr	r3, [r7, #44]
 4561 1be4 97F83B20 		ldrb	r2, [r7, #59]
 4562 1be8 83F89220 		strb	r2, [r3, #146]
 4563              	.L225:
1419:build/openmote-cc2538_armgcc/openstack/02b-MAChigh/sixtop.c ****         }
1420:build/openmote-cc2538_armgcc/openstack/02b-MAChigh/sixtop.c **** 
1421:build/openmote-cc2538_armgcc/openstack/02b-MAChigh/sixtop.c ****         // append 6p Seqnum
1422:build/openmote-cc2538_armgcc/openstack/02b-MAChigh/sixtop.c ****         packetfunctions_reserveHeaderSize(response_pkt,sizeof(uint8_t));
 4564              		.loc 1 1422 0
 4565 1bec F86A     		ldr	r0, [r7, #44]
 4566 1bee 0121     		movs	r1, #1
 4567 1bf0 FFF7FEFF 		bl	packetfunctions_reserveHeaderSize
1423:build/openmote-cc2538_armgcc/openstack/02b-MAChigh/sixtop.c ****         *((uint8_t*)(response_pkt->payload)) = seqNum;
 4568              		.loc 1 1423 0
 4569 1bf4 FB6A     		ldr	r3, [r7, #44]
 4570 1bf6 5B68     		ldr	r3, [r3, #4]
 4571 1bf8 97F85020 		ldrb	r2, [r7, #80]
 4572 1bfc 1A70     		strb	r2, [r3]
1424:build/openmote-cc2538_armgcc/openstack/02b-MAChigh/sixtop.c ****         response_pktLen += 1;
 4573              		.loc 1 1424 0
 4574 1bfe 97F83030 		ldrb	r3, [r7, #48]
 4575 1c02 0133     		adds	r3, r3, #1
 4576 1c04 87F83030 		strb	r3, [r7, #48]
1425:build/openmote-cc2538_armgcc/openstack/02b-MAChigh/sixtop.c **** 
1426:build/openmote-cc2538_armgcc/openstack/02b-MAChigh/sixtop.c ****         // append 6p sfid
1427:build/openmote-cc2538_armgcc/openstack/02b-MAChigh/sixtop.c ****         packetfunctions_reserveHeaderSize(response_pkt,sizeof(uint8_t));
 4577              		.loc 1 1427 0
 4578 1c08 F86A     		ldr	r0, [r7, #44]
 4579 1c0a 0121     		movs	r1, #1
 4580 1c0c FFF7FEFF 		bl	packetfunctions_reserveHeaderSize
1428:build/openmote-cc2538_armgcc/openstack/02b-MAChigh/sixtop.c ****         *((uint8_t*)(response_pkt->payload)) = sixtop_vars.cb_sf_getsfid();
 4581              		.loc 1 1428 0
 4582 1c10 FB6A     		ldr	r3, [r7, #44]
 4583 1c12 5C68     		ldr	r4, [r3, #4]
 4584 1c14 9D4B     		ldr	r3, .L250
 4585 1c16 DB6A     		ldr	r3, [r3, #44]
 4586 1c18 9847     		blx	r3
 4587 1c1a 0346     		mov	r3, r0
 4588 1c1c 2370     		strb	r3, [r4]
1429:build/openmote-cc2538_armgcc/openstack/02b-MAChigh/sixtop.c ****         response_pktLen += 1;
 4589              		.loc 1 1429 0
 4590 1c1e 97F83030 		ldrb	r3, [r7, #48]
 4591 1c22 0133     		adds	r3, r3, #1
 4592 1c24 87F83030 		strb	r3, [r7, #48]
1430:build/openmote-cc2538_armgcc/openstack/02b-MAChigh/sixtop.c **** 
1431:build/openmote-cc2538_armgcc/openstack/02b-MAChigh/sixtop.c ****         // append 6p code
1432:build/openmote-cc2538_armgcc/openstack/02b-MAChigh/sixtop.c ****         packetfunctions_reserveHeaderSize(response_pkt,sizeof(uint8_t));
 4593              		.loc 1 1432 0
 4594 1c28 F86A     		ldr	r0, [r7, #44]
 4595 1c2a 0121     		movs	r1, #1
 4596 1c2c FFF7FEFF 		bl	packetfunctions_reserveHeaderSize
1433:build/openmote-cc2538_armgcc/openstack/02b-MAChigh/sixtop.c ****         *((uint8_t*)(response_pkt->payload)) = returnCode;
 4597              		.loc 1 1433 0
 4598 1c30 FB6A     		ldr	r3, [r7, #44]
 4599 1c32 5B68     		ldr	r3, [r3, #4]
 4600 1c34 97F83F20 		ldrb	r2, [r7, #63]
 4601 1c38 1A70     		strb	r2, [r3]
1434:build/openmote-cc2538_armgcc/openstack/02b-MAChigh/sixtop.c ****         response_pktLen += 1;
 4602              		.loc 1 1434 0
 4603 1c3a 97F83030 		ldrb	r3, [r7, #48]
 4604 1c3e 0133     		adds	r3, r3, #1
 4605 1c40 87F83030 		strb	r3, [r7, #48]
1435:build/openmote-cc2538_armgcc/openstack/02b-MAChigh/sixtop.c **** 
1436:build/openmote-cc2538_armgcc/openstack/02b-MAChigh/sixtop.c ****         // append 6p version, T(type) and  R(reserved)
1437:build/openmote-cc2538_armgcc/openstack/02b-MAChigh/sixtop.c ****         packetfunctions_reserveHeaderSize(response_pkt,sizeof(uint8_t));
 4606              		.loc 1 1437 0
 4607 1c44 F86A     		ldr	r0, [r7, #44]
 4608 1c46 0121     		movs	r1, #1
 4609 1c48 FFF7FEFF 		bl	packetfunctions_reserveHeaderSize
1438:build/openmote-cc2538_armgcc/openstack/02b-MAChigh/sixtop.c ****         *((uint8_t*)(response_pkt->payload)) = IANA_6TOP_6P_VERSION | IANA_6TOP_TYPE_RESPONSE;
 4610              		.loc 1 1438 0
 4611 1c4c FB6A     		ldr	r3, [r7, #44]
 4612 1c4e 5B68     		ldr	r3, [r3, #4]
 4613 1c50 1022     		movs	r2, #16
 4614 1c52 1A70     		strb	r2, [r3]
1439:build/openmote-cc2538_armgcc/openstack/02b-MAChigh/sixtop.c ****         response_pktLen += 1;
 4615              		.loc 1 1439 0
 4616 1c54 97F83030 		ldrb	r3, [r7, #48]
 4617 1c58 0133     		adds	r3, r3, #1
 4618 1c5a 87F83030 		strb	r3, [r7, #48]
1440:build/openmote-cc2538_armgcc/openstack/02b-MAChigh/sixtop.c **** 
1441:build/openmote-cc2538_armgcc/openstack/02b-MAChigh/sixtop.c ****         // append 6p subtype id
1442:build/openmote-cc2538_armgcc/openstack/02b-MAChigh/sixtop.c ****         packetfunctions_reserveHeaderSize(response_pkt,sizeof(uint8_t));
 4619              		.loc 1 1442 0
 4620 1c5e F86A     		ldr	r0, [r7, #44]
 4621 1c60 0121     		movs	r1, #1
 4622 1c62 FFF7FEFF 		bl	packetfunctions_reserveHeaderSize
1443:build/openmote-cc2538_armgcc/openstack/02b-MAChigh/sixtop.c ****         *((uint8_t*)(response_pkt->payload)) = IANA_6TOP_SUBIE_ID;
 4623              		.loc 1 1443 0
 4624 1c66 FB6A     		ldr	r3, [r7, #44]
 4625 1c68 5B68     		ldr	r3, [r3, #4]
 4626 1c6a C922     		movs	r2, #201
 4627 1c6c 1A70     		strb	r2, [r3]
1444:build/openmote-cc2538_armgcc/openstack/02b-MAChigh/sixtop.c ****         response_pktLen += 1;
 4628              		.loc 1 1444 0
 4629 1c6e 97F83030 		ldrb	r3, [r7, #48]
 4630 1c72 0133     		adds	r3, r3, #1
 4631 1c74 87F83030 		strb	r3, [r7, #48]
1445:build/openmote-cc2538_armgcc/openstack/02b-MAChigh/sixtop.c **** 
1446:build/openmote-cc2538_armgcc/openstack/02b-MAChigh/sixtop.c ****         // append IETF IE header (length_groupid_type)
1447:build/openmote-cc2538_armgcc/openstack/02b-MAChigh/sixtop.c ****         packetfunctions_reserveHeaderSize(response_pkt, sizeof(uint16_t));
 4632              		.loc 1 1447 0
 4633 1c78 F86A     		ldr	r0, [r7, #44]
 4634 1c7a 0221     		movs	r1, #2
 4635 1c7c FFF7FEFF 		bl	packetfunctions_reserveHeaderSize
1448:build/openmote-cc2538_armgcc/openstack/02b-MAChigh/sixtop.c ****         length_groupid_type  = response_pktLen;
 4636              		.loc 1 1448 0
 4637 1c80 97F83030 		ldrb	r3, [r7, #48]	@ zero_extendqisi2
 4638 1c84 FB84     		strh	r3, [r7, #38]	@ movhi
1449:build/openmote-cc2538_armgcc/openstack/02b-MAChigh/sixtop.c ****         length_groupid_type |= (IANA_IETF_IE_GROUP_ID  | IANA_IETF_IE_TYPE);
 4639              		.loc 1 1449 0
 4640 1c86 FB8C     		ldrh	r3, [r7, #38]	@ movhi
 4641 1c88 43F07F43 		orr	r3, r3, #-16777216
 4642 1c8c 43F47F03 		orr	r3, r3, #16711680
 4643 1c90 43F42843 		orr	r3, r3, #43008
 4644 1c94 FB84     		strh	r3, [r7, #38]	@ movhi
1450:build/openmote-cc2538_armgcc/openstack/02b-MAChigh/sixtop.c ****         response_pkt->payload[0]      = length_groupid_type        & 0xFF;
 4645              		.loc 1 1450 0
 4646 1c96 FB6A     		ldr	r3, [r7, #44]
 4647 1c98 5B68     		ldr	r3, [r3, #4]
 4648 1c9a FA8C     		ldrh	r2, [r7, #38]	@ movhi
 4649 1c9c D2B2     		uxtb	r2, r2
 4650 1c9e 1A70     		strb	r2, [r3]
1451:build/openmote-cc2538_armgcc/openstack/02b-MAChigh/sixtop.c ****         response_pkt->payload[1]      = (length_groupid_type >> 8) & 0xFF;
 4651              		.loc 1 1451 0
 4652 1ca0 FB6A     		ldr	r3, [r7, #44]
 4653 1ca2 5B68     		ldr	r3, [r3, #4]
 4654 1ca4 0133     		adds	r3, r3, #1
 4655 1ca6 FA8C     		ldrh	r2, [r7, #38]
 4656 1ca8 120A     		lsrs	r2, r2, #8
 4657 1caa 92B2     		uxth	r2, r2
 4658 1cac D2B2     		uxtb	r2, r2
 4659 1cae 1A70     		strb	r2, [r3]
1452:build/openmote-cc2538_armgcc/openstack/02b-MAChigh/sixtop.c **** 
1453:build/openmote-cc2538_armgcc/openstack/02b-MAChigh/sixtop.c ****         // indicate IEs present
1454:build/openmote-cc2538_armgcc/openstack/02b-MAChigh/sixtop.c ****         response_pkt->l2_payloadIEpresent = TRUE;
 4660              		.loc 1 1454 0
 4661 1cb0 FB6A     		ldr	r3, [r7, #44]
 4662 1cb2 0122     		movs	r2, #1
 4663 1cb4 83F89A20 		strb	r2, [r3, #154]
1455:build/openmote-cc2538_armgcc/openstack/02b-MAChigh/sixtop.c ****         // record this packet as sixtop request message
1456:build/openmote-cc2538_armgcc/openstack/02b-MAChigh/sixtop.c ****         response_pkt->l2_sixtop_messageType    = SIXTOP_CELL_RESPONSE;
 4664              		.loc 1 1456 0
 4665 1cb8 FB6A     		ldr	r3, [r7, #44]
 4666 1cba 0122     		movs	r2, #1
 4667 1cbc 83F89020 		strb	r2, [r3, #144]
1457:build/openmote-cc2538_armgcc/openstack/02b-MAChigh/sixtop.c **** 
1458:build/openmote-cc2538_armgcc/openstack/02b-MAChigh/sixtop.c ****         if (sixtop_vars.isResponseEnabled){
 4668              		.loc 1 1458 0
 4669 1cc0 724B     		ldr	r3, .L250
 4670 1cc2 1B7C     		ldrb	r3, [r3, #16]	@ zero_extendqisi2
 4671 1cc4 002B     		cmp	r3, #0
 4672 1cc6 03D0     		beq	.L226
1459:build/openmote-cc2538_armgcc/openstack/02b-MAChigh/sixtop.c ****             // send packet
1460:build/openmote-cc2538_armgcc/openstack/02b-MAChigh/sixtop.c ****             sixtop_send(response_pkt);
 4673              		.loc 1 1460 0
 4674 1cc8 F86A     		ldr	r0, [r7, #44]
 4675 1cca FFF7FEFF 		bl	sixtop_send
 4676 1cce 02E0     		b	.L170
 4677              	.L226:
1461:build/openmote-cc2538_armgcc/openstack/02b-MAChigh/sixtop.c ****         } else {
1462:build/openmote-cc2538_armgcc/openstack/02b-MAChigh/sixtop.c ****             openqueue_freePacketBuffer(response_pkt);
 4678              		.loc 1 1462 0
 4679 1cd0 F86A     		ldr	r0, [r7, #44]
 4680 1cd2 FFF7FEFF 		bl	openqueue_freePacketBuffer
 4681              	.L170:
1463:build/openmote-cc2538_armgcc/openstack/02b-MAChigh/sixtop.c ****         }
1464:build/openmote-cc2538_armgcc/openstack/02b-MAChigh/sixtop.c ****     }
1465:build/openmote-cc2538_armgcc/openstack/02b-MAChigh/sixtop.c **** 
1466:build/openmote-cc2538_armgcc/openstack/02b-MAChigh/sixtop.c ****     if (type == SIXTOP_CELL_RESPONSE) {
 4682              		.loc 1 1466 0
 4683 1cd6 BB79     		ldrb	r3, [r7, #6]	@ zero_extendqisi2
 4684 1cd8 012B     		cmp	r3, #1
 4685 1cda 40F06A82 		bne	.L169
1467:build/openmote-cc2538_armgcc/openstack/02b-MAChigh/sixtop.c ****         // this is a 6p response message
1468:build/openmote-cc2538_armgcc/openstack/02b-MAChigh/sixtop.c ****         neighbors_updateSequenceNumber(&(pkt->l2_nextORpreviousHop));
 4686              		.loc 1 1468 0
 4687 1cde FB6D     		ldr	r3, [r7, #92]
 4688 1ce0 3C33     		adds	r3, r3, #60
 4689 1ce2 1846     		mov	r0, r3
 4690 1ce4 FFF7FEFF 		bl	neighbors_updateSequenceNumber
1469:build/openmote-cc2538_armgcc/openstack/02b-MAChigh/sixtop.c **** 
1470:build/openmote-cc2538_armgcc/openstack/02b-MAChigh/sixtop.c ****         // if the code is SUCCESS
1471:build/openmote-cc2538_armgcc/openstack/02b-MAChigh/sixtop.c ****         if (code == IANA_6TOP_RC_SUCCESS || code == IANA_6TOP_RC_EOL){
 4691              		.loc 1 1471 0
 4692 1ce8 7B79     		ldrb	r3, [r7, #5]	@ zero_extendqisi2
 4693 1cea 002B     		cmp	r3, #0
 4694 1cec 03D0     		beq	.L228
 4695              		.loc 1 1471 0 is_stmt 0 discriminator 1
 4696 1cee 7B79     		ldrb	r3, [r7, #5]	@ zero_extendqisi2
 4697 1cf0 012B     		cmp	r3, #1
 4698 1cf2 40F04082 		bne	.L229
 4699              	.L228:
1472:build/openmote-cc2538_armgcc/openstack/02b-MAChigh/sixtop.c ****             switch(sixtop_vars.six2six_state){
 4700              		.loc 1 1472 0 is_stmt 1
 4701 1cf6 654B     		ldr	r3, .L250
 4702 1cf8 9B7B     		ldrb	r3, [r3, #14]	@ zero_extendqisi2
 4703 1cfa 073B     		subs	r3, r3, #7
 4704 1cfc 052B     		cmp	r3, #5
 4705 1cfe 00F23882 		bhi	.L247
 4706 1d02 01A2     		adr	r2, .L232
 4707 1d04 52F823F0 		ldr	pc, [r2, r3, lsl #2]
 4708              		.p2align 2
 4709              	.L232:
 4710 1d08 211D0000 		.word	.L231+1
 4711 1d0c 591E0000 		.word	.L233+1
 4712 1d10 771E0000 		.word	.L234+1
 4713 1d14 D51F0000 		.word	.L235+1
 4714 1d18 19200000 		.word	.L236+1
 4715 1d1c 51210000 		.word	.L237+1
 4716              		.p2align 1
 4717              	.L231:
1473:build/openmote-cc2538_armgcc/openstack/02b-MAChigh/sixtop.c ****             case SIX_STATE_WAIT_ADDRESPONSE:
1474:build/openmote-cc2538_armgcc/openstack/02b-MAChigh/sixtop.c ****                 i = 0;
 4718              		.loc 1 1474 0
 4719 1d20 0023     		movs	r3, #0
 4720 1d22 FB86     		strh	r3, [r7, #54]	@ movhi
1475:build/openmote-cc2538_armgcc/openstack/02b-MAChigh/sixtop.c ****                 memset(pkt->l2_sixtop_celllist_add,0,sizeof(pkt->l2_sixtop_celllist_add));
 4721              		.loc 1 1475 0
 4722 1d24 FB6D     		ldr	r3, [r7, #92]
 4723 1d26 5C33     		adds	r3, r3, #92
 4724 1d28 1846     		mov	r0, r3
 4725 1d2a 0021     		movs	r1, #0
 4726 1d2c 1922     		movs	r2, #25
 4727 1d2e FFF7FEFF 		bl	memset
1476:build/openmote-cc2538_armgcc/openstack/02b-MAChigh/sixtop.c ****                 while(pktLen>0){
 4728              		.loc 1 1476 0
 4729 1d32 7CE0     		b	.L238
 4730              	.L239:
1477:build/openmote-cc2538_armgcc/openstack/02b-MAChigh/sixtop.c ****                     pkt->l2_sixtop_celllist_add[i].slotoffset     =  *((uint8_t*)(pkt->payload)+ptr
 4731              		.loc 1 1477 0
 4732 1d34 FA8E     		ldrh	r2, [r7, #54]
 4733 1d36 FB6D     		ldr	r3, [r7, #92]
 4734 1d38 5968     		ldr	r1, [r3, #4]
 4735 1d3a 97F85430 		ldrb	r3, [r7, #84]	@ zero_extendqisi2
 4736 1d3e 0B44     		add	r3, r3, r1
 4737 1d40 1B78     		ldrb	r3, [r3]	@ zero_extendqisi2
 4738 1d42 98B2     		uxth	r0, r3
 4739 1d44 F96D     		ldr	r1, [r7, #92]
 4740 1d46 1346     		mov	r3, r2
 4741 1d48 9B00     		lsls	r3, r3, #2
 4742 1d4a 1344     		add	r3, r3, r2
 4743 1d4c 0B44     		add	r3, r3, r1
 4744 1d4e 5833     		adds	r3, r3, #88
 4745 1d50 0246     		mov	r2, r0	@ movhi
 4746 1d52 A3F80520 		strh	r2, [r3, #5]	@ unaligned
1478:build/openmote-cc2538_armgcc/openstack/02b-MAChigh/sixtop.c ****                     pkt->l2_sixtop_celllist_add[i].slotoffset    |= (*((uint8_t*)(pkt->payload)+ptr
 4747              		.loc 1 1478 0
 4748 1d56 FA8E     		ldrh	r2, [r7, #54]
 4749 1d58 F98E     		ldrh	r1, [r7, #54]
 4750 1d5a F86D     		ldr	r0, [r7, #92]
 4751 1d5c 0B46     		mov	r3, r1
 4752 1d5e 9B00     		lsls	r3, r3, #2
 4753 1d60 0B44     		add	r3, r3, r1
 4754 1d62 0344     		add	r3, r3, r0
 4755 1d64 5833     		adds	r3, r3, #88
 4756 1d66 B3F80530 		ldrh	r3, [r3, #5]	@ unaligned
 4757 1d6a 9BB2     		uxth	r3, r3
 4758 1d6c 98B2     		uxth	r0, r3
 4759 1d6e FB6D     		ldr	r3, [r7, #92]
 4760 1d70 5968     		ldr	r1, [r3, #4]
 4761 1d72 97F85430 		ldrb	r3, [r7, #84]	@ zero_extendqisi2
 4762 1d76 0133     		adds	r3, r3, #1
 4763 1d78 0B44     		add	r3, r3, r1
 4764 1d7a 1B78     		ldrb	r3, [r3]	@ zero_extendqisi2
 4765 1d7c 1B02     		lsls	r3, r3, #8
 4766 1d7e 9BB2     		uxth	r3, r3
 4767 1d80 0146     		mov	r1, r0	@ movhi
 4768 1d82 0B43     		orrs	r3, r3, r1
 4769 1d84 9BB2     		uxth	r3, r3
 4770 1d86 98B2     		uxth	r0, r3
 4771 1d88 F96D     		ldr	r1, [r7, #92]
 4772 1d8a 1346     		mov	r3, r2
 4773 1d8c 9B00     		lsls	r3, r3, #2
 4774 1d8e 1344     		add	r3, r3, r2
 4775 1d90 0B44     		add	r3, r3, r1
 4776 1d92 5833     		adds	r3, r3, #88
 4777 1d94 0246     		mov	r2, r0	@ movhi
 4778 1d96 A3F80520 		strh	r2, [r3, #5]	@ unaligned
1479:build/openmote-cc2538_armgcc/openstack/02b-MAChigh/sixtop.c ****                     pkt->l2_sixtop_celllist_add[i].channeloffset  =  *((uint8_t*)(pkt->payload)+ptr
 4779              		.loc 1 1479 0
 4780 1d9a FA8E     		ldrh	r2, [r7, #54]
 4781 1d9c FB6D     		ldr	r3, [r7, #92]
 4782 1d9e 5968     		ldr	r1, [r3, #4]
 4783 1da0 97F85430 		ldrb	r3, [r7, #84]	@ zero_extendqisi2
 4784 1da4 0233     		adds	r3, r3, #2
 4785 1da6 0B44     		add	r3, r3, r1
 4786 1da8 1B78     		ldrb	r3, [r3]	@ zero_extendqisi2
 4787 1daa 98B2     		uxth	r0, r3
 4788 1dac F96D     		ldr	r1, [r7, #92]
 4789 1dae 1346     		mov	r3, r2
 4790 1db0 9B00     		lsls	r3, r3, #2
 4791 1db2 1344     		add	r3, r3, r2
 4792 1db4 0B44     		add	r3, r3, r1
 4793 1db6 5833     		adds	r3, r3, #88
 4794 1db8 0246     		mov	r2, r0	@ movhi
 4795 1dba A3F80720 		strh	r2, [r3, #7]	@ unaligned
1480:build/openmote-cc2538_armgcc/openstack/02b-MAChigh/sixtop.c ****                     pkt->l2_sixtop_celllist_add[i].channeloffset |= (*((uint8_t*)(pkt->payload)+ptr
 4796              		.loc 1 1480 0
 4797 1dbe FA8E     		ldrh	r2, [r7, #54]
 4798 1dc0 F98E     		ldrh	r1, [r7, #54]
 4799 1dc2 F86D     		ldr	r0, [r7, #92]
 4800 1dc4 0B46     		mov	r3, r1
 4801 1dc6 9B00     		lsls	r3, r3, #2
 4802 1dc8 0B44     		add	r3, r3, r1
 4803 1dca 0344     		add	r3, r3, r0
 4804 1dcc 5833     		adds	r3, r3, #88
 4805 1dce B3F80730 		ldrh	r3, [r3, #7]	@ unaligned
 4806 1dd2 9BB2     		uxth	r3, r3
 4807 1dd4 98B2     		uxth	r0, r3
 4808 1dd6 FB6D     		ldr	r3, [r7, #92]
 4809 1dd8 5968     		ldr	r1, [r3, #4]
 4810 1dda 97F85430 		ldrb	r3, [r7, #84]	@ zero_extendqisi2
 4811 1dde 0333     		adds	r3, r3, #3
 4812 1de0 0B44     		add	r3, r3, r1
 4813 1de2 1B78     		ldrb	r3, [r3]	@ zero_extendqisi2
 4814 1de4 1B02     		lsls	r3, r3, #8
 4815 1de6 9BB2     		uxth	r3, r3
 4816 1de8 0146     		mov	r1, r0	@ movhi
 4817 1dea 0B43     		orrs	r3, r3, r1
 4818 1dec 9BB2     		uxth	r3, r3
 4819 1dee 98B2     		uxth	r0, r3
 4820 1df0 F96D     		ldr	r1, [r7, #92]
 4821 1df2 1346     		mov	r3, r2
 4822 1df4 9B00     		lsls	r3, r3, #2
 4823 1df6 1344     		add	r3, r3, r2
 4824 1df8 0B44     		add	r3, r3, r1
 4825 1dfa 5833     		adds	r3, r3, #88
 4826 1dfc 0246     		mov	r2, r0	@ movhi
 4827 1dfe A3F80720 		strh	r2, [r3, #7]	@ unaligned
1481:build/openmote-cc2538_armgcc/openstack/02b-MAChigh/sixtop.c ****                     pkt->l2_sixtop_celllist_add[i].isUsed         = TRUE;
 4828              		.loc 1 1481 0
 4829 1e02 FA8E     		ldrh	r2, [r7, #54]
 4830 1e04 F96D     		ldr	r1, [r7, #92]
 4831 1e06 1346     		mov	r3, r2
 4832 1e08 9B00     		lsls	r3, r3, #2
 4833 1e0a 1344     		add	r3, r3, r2
 4834 1e0c 0B44     		add	r3, r3, r1
 4835 1e0e 5833     		adds	r3, r3, #88
 4836 1e10 0122     		movs	r2, #1
 4837 1e12 1A71     		strb	r2, [r3, #4]
1482:build/openmote-cc2538_armgcc/openstack/02b-MAChigh/sixtop.c ****                     ptr    += 4;
 4838              		.loc 1 1482 0
 4839 1e14 97F85430 		ldrb	r3, [r7, #84]
 4840 1e18 0433     		adds	r3, r3, #4
 4841 1e1a 87F85430 		strb	r3, [r7, #84]
1483:build/openmote-cc2538_armgcc/openstack/02b-MAChigh/sixtop.c ****                     pktLen -= 4;
 4842              		.loc 1 1483 0
 4843 1e1e 97F83130 		ldrb	r3, [r7, #49]
 4844 1e22 043B     		subs	r3, r3, #4
 4845 1e24 87F83130 		strb	r3, [r7, #49]
1484:build/openmote-cc2538_armgcc/openstack/02b-MAChigh/sixtop.c ****                     i++;
 4846              		.loc 1 1484 0
 4847 1e28 FB8E     		ldrh	r3, [r7, #54]
 4848 1e2a 0133     		adds	r3, r3, #1
 4849 1e2c FB86     		strh	r3, [r7, #54]	@ movhi
 4850              	.L238:
1476:build/openmote-cc2538_armgcc/openstack/02b-MAChigh/sixtop.c ****                     pkt->l2_sixtop_celllist_add[i].slotoffset     =  *((uint8_t*)(pkt->payload)+ptr
 4851              		.loc 1 1476 0
 4852 1e2e 97F83130 		ldrb	r3, [r7, #49]	@ zero_extendqisi2
 4853 1e32 002B     		cmp	r3, #0
 4854 1e34 7FF47EAF 		bne	.L239
1485:build/openmote-cc2538_armgcc/openstack/02b-MAChigh/sixtop.c ****                 }
1486:build/openmote-cc2538_armgcc/openstack/02b-MAChigh/sixtop.c ****                 sixtop_addCells(
1487:build/openmote-cc2538_armgcc/openstack/02b-MAChigh/sixtop.c ****                     sixtop_vars.cb_sf_getMetadata(),     // frame id
 4855              		.loc 1 1487 0
 4856 1e38 144B     		ldr	r3, .L250
 4857 1e3a 1B6B     		ldr	r3, [r3, #48]
 4858 1e3c 9847     		blx	r3
 4859 1e3e 0346     		mov	r3, r0
1486:build/openmote-cc2538_armgcc/openstack/02b-MAChigh/sixtop.c ****                     sixtop_vars.cb_sf_getMetadata(),     // frame id
 4860              		.loc 1 1486 0
 4861 1e40 D8B2     		uxtb	r0, r3
1488:build/openmote-cc2538_armgcc/openstack/02b-MAChigh/sixtop.c ****                     pkt->l2_sixtop_celllist_add,  // celllist to be added
 4862              		.loc 1 1488 0
 4863 1e42 FB6D     		ldr	r3, [r7, #92]
 4864 1e44 03F15C01 		add	r1, r3, #92
1486:build/openmote-cc2538_armgcc/openstack/02b-MAChigh/sixtop.c ****                     sixtop_vars.cb_sf_getMetadata(),     // frame id
 4865              		.loc 1 1486 0
 4866 1e48 FB6D     		ldr	r3, [r7, #92]
 4867 1e4a 03F13C02 		add	r2, r3, #60
 4868 1e4e 0F4B     		ldr	r3, .L250
 4869 1e50 5B7C     		ldrb	r3, [r3, #17]	@ zero_extendqisi2
 4870 1e52 FFF7FEFF 		bl	sixtop_addCells
1489:build/openmote-cc2538_armgcc/openstack/02b-MAChigh/sixtop.c ****                     &(pkt->l2_nextORpreviousHop), // neighbor that cells to be added to
1490:build/openmote-cc2538_armgcc/openstack/02b-MAChigh/sixtop.c ****                     sixtop_vars.cellOptions       // cell options
1491:build/openmote-cc2538_armgcc/openstack/02b-MAChigh/sixtop.c ****                 );
1492:build/openmote-cc2538_armgcc/openstack/02b-MAChigh/sixtop.c ****                 break;
 4871              		.loc 1 1492 0
 4872 1e56 8DE1     		b	.L240
 4873              	.L233:
1493:build/openmote-cc2538_armgcc/openstack/02b-MAChigh/sixtop.c ****             case SIX_STATE_WAIT_DELETERESPONSE:
1494:build/openmote-cc2538_armgcc/openstack/02b-MAChigh/sixtop.c ****                 sixtop_removeCells(
1495:build/openmote-cc2538_armgcc/openstack/02b-MAChigh/sixtop.c ****                     sixtop_vars.cb_sf_getMetadata(),
 4874              		.loc 1 1495 0
 4875 1e58 0C4B     		ldr	r3, .L250
 4876 1e5a 1B6B     		ldr	r3, [r3, #48]
 4877 1e5c 9847     		blx	r3
 4878 1e5e 0346     		mov	r3, r0
1494:build/openmote-cc2538_armgcc/openstack/02b-MAChigh/sixtop.c ****                     sixtop_vars.cb_sf_getMetadata(),
 4879              		.loc 1 1494 0
 4880 1e60 D9B2     		uxtb	r1, r3
 4881 1e62 FB6D     		ldr	r3, [r7, #92]
 4882 1e64 03F13C02 		add	r2, r3, #60
 4883 1e68 084B     		ldr	r3, .L250
 4884 1e6a 5B7C     		ldrb	r3, [r3, #17]	@ zero_extendqisi2
 4885 1e6c 0846     		mov	r0, r1
 4886 1e6e 0849     		ldr	r1, .L250+4
 4887 1e70 FFF7FEFF 		bl	sixtop_removeCells
1496:build/openmote-cc2538_armgcc/openstack/02b-MAChigh/sixtop.c ****                     sixtop_vars.celllist_toDelete,
1497:build/openmote-cc2538_armgcc/openstack/02b-MAChigh/sixtop.c ****                     &(pkt->l2_nextORpreviousHop),
1498:build/openmote-cc2538_armgcc/openstack/02b-MAChigh/sixtop.c ****                     sixtop_vars.cellOptions
1499:build/openmote-cc2538_armgcc/openstack/02b-MAChigh/sixtop.c ****                 );
1500:build/openmote-cc2538_armgcc/openstack/02b-MAChigh/sixtop.c ****                 break;
 4888              		.loc 1 1500 0
 4889 1e74 7EE1     		b	.L240
 4890              	.L234:
1501:build/openmote-cc2538_armgcc/openstack/02b-MAChigh/sixtop.c ****             case SIX_STATE_WAIT_RELOCATERESPONSE:
1502:build/openmote-cc2538_armgcc/openstack/02b-MAChigh/sixtop.c ****                 i = 0;
 4891              		.loc 1 1502 0
 4892 1e76 0023     		movs	r3, #0
 4893 1e78 FB86     		strh	r3, [r7, #54]	@ movhi
1503:build/openmote-cc2538_armgcc/openstack/02b-MAChigh/sixtop.c ****                 memset(pkt->l2_sixtop_celllist_add,0,sizeof(pkt->l2_sixtop_celllist_add));
 4894              		.loc 1 1503 0
 4895 1e7a FB6D     		ldr	r3, [r7, #92]
 4896 1e7c 5C33     		adds	r3, r3, #92
 4897 1e7e 1846     		mov	r0, r3
 4898 1e80 0021     		movs	r1, #0
 4899 1e82 1922     		movs	r2, #25
 4900 1e84 FFF7FEFF 		bl	memset
1504:build/openmote-cc2538_armgcc/openstack/02b-MAChigh/sixtop.c ****                 while(pktLen>0){
 4901              		.loc 1 1504 0
 4902 1e88 81E0     		b	.L241
 4903              	.L251:
 4904 1e8a 00BF     		.align	2
 4905              	.L250:
 4906 1e8c 00000000 		.word	sixtop_vars
 4907 1e90 12000000 		.word	sixtop_vars+18
 4908              	.L242:
1505:build/openmote-cc2538_armgcc/openstack/02b-MAChigh/sixtop.c ****                     pkt->l2_sixtop_celllist_add[i].slotoffset     =  *((uint8_t*)(pkt->payload)+ptr
 4909              		.loc 1 1505 0
 4910 1e94 FA8E     		ldrh	r2, [r7, #54]
 4911 1e96 FB6D     		ldr	r3, [r7, #92]
 4912 1e98 5968     		ldr	r1, [r3, #4]
 4913 1e9a 97F85430 		ldrb	r3, [r7, #84]	@ zero_extendqisi2
 4914 1e9e 0B44     		add	r3, r3, r1
 4915 1ea0 1B78     		ldrb	r3, [r3]	@ zero_extendqisi2
 4916 1ea2 98B2     		uxth	r0, r3
 4917 1ea4 F96D     		ldr	r1, [r7, #92]
 4918 1ea6 1346     		mov	r3, r2
 4919 1ea8 9B00     		lsls	r3, r3, #2
 4920 1eaa 1344     		add	r3, r3, r2
 4921 1eac 0B44     		add	r3, r3, r1
 4922 1eae 5833     		adds	r3, r3, #88
 4923 1eb0 0246     		mov	r2, r0	@ movhi
 4924 1eb2 A3F80520 		strh	r2, [r3, #5]	@ unaligned
1506:build/openmote-cc2538_armgcc/openstack/02b-MAChigh/sixtop.c ****                     pkt->l2_sixtop_celllist_add[i].slotoffset    |= (*((uint8_t*)(pkt->payload)+ptr
 4925              		.loc 1 1506 0
 4926 1eb6 FA8E     		ldrh	r2, [r7, #54]
 4927 1eb8 F98E     		ldrh	r1, [r7, #54]
 4928 1eba F86D     		ldr	r0, [r7, #92]
 4929 1ebc 0B46     		mov	r3, r1
 4930 1ebe 9B00     		lsls	r3, r3, #2
 4931 1ec0 0B44     		add	r3, r3, r1
 4932 1ec2 0344     		add	r3, r3, r0
 4933 1ec4 5833     		adds	r3, r3, #88
 4934 1ec6 B3F80530 		ldrh	r3, [r3, #5]	@ unaligned
 4935 1eca 9BB2     		uxth	r3, r3
 4936 1ecc 98B2     		uxth	r0, r3
 4937 1ece FB6D     		ldr	r3, [r7, #92]
 4938 1ed0 5968     		ldr	r1, [r3, #4]
 4939 1ed2 97F85430 		ldrb	r3, [r7, #84]	@ zero_extendqisi2
 4940 1ed6 0133     		adds	r3, r3, #1
 4941 1ed8 0B44     		add	r3, r3, r1
 4942 1eda 1B78     		ldrb	r3, [r3]	@ zero_extendqisi2
 4943 1edc 1B02     		lsls	r3, r3, #8
 4944 1ede 9BB2     		uxth	r3, r3
 4945 1ee0 0146     		mov	r1, r0	@ movhi
 4946 1ee2 0B43     		orrs	r3, r3, r1
 4947 1ee4 9BB2     		uxth	r3, r3
 4948 1ee6 98B2     		uxth	r0, r3
 4949 1ee8 F96D     		ldr	r1, [r7, #92]
 4950 1eea 1346     		mov	r3, r2
 4951 1eec 9B00     		lsls	r3, r3, #2
 4952 1eee 1344     		add	r3, r3, r2
 4953 1ef0 0B44     		add	r3, r3, r1
 4954 1ef2 5833     		adds	r3, r3, #88
 4955 1ef4 0246     		mov	r2, r0	@ movhi
 4956 1ef6 A3F80520 		strh	r2, [r3, #5]	@ unaligned
1507:build/openmote-cc2538_armgcc/openstack/02b-MAChigh/sixtop.c ****                     pkt->l2_sixtop_celllist_add[i].channeloffset  =  *((uint8_t*)(pkt->payload)+ptr
 4957              		.loc 1 1507 0
 4958 1efa FA8E     		ldrh	r2, [r7, #54]
 4959 1efc FB6D     		ldr	r3, [r7, #92]
 4960 1efe 5968     		ldr	r1, [r3, #4]
 4961 1f00 97F85430 		ldrb	r3, [r7, #84]	@ zero_extendqisi2
 4962 1f04 0233     		adds	r3, r3, #2
 4963 1f06 0B44     		add	r3, r3, r1
 4964 1f08 1B78     		ldrb	r3, [r3]	@ zero_extendqisi2
 4965 1f0a 98B2     		uxth	r0, r3
 4966 1f0c F96D     		ldr	r1, [r7, #92]
 4967 1f0e 1346     		mov	r3, r2
 4968 1f10 9B00     		lsls	r3, r3, #2
 4969 1f12 1344     		add	r3, r3, r2
 4970 1f14 0B44     		add	r3, r3, r1
 4971 1f16 5833     		adds	r3, r3, #88
 4972 1f18 0246     		mov	r2, r0	@ movhi
 4973 1f1a A3F80720 		strh	r2, [r3, #7]	@ unaligned
1508:build/openmote-cc2538_armgcc/openstack/02b-MAChigh/sixtop.c ****                     pkt->l2_sixtop_celllist_add[i].channeloffset |= (*((uint8_t*)(pkt->payload)+ptr
 4974              		.loc 1 1508 0
 4975 1f1e FA8E     		ldrh	r2, [r7, #54]
 4976 1f20 F98E     		ldrh	r1, [r7, #54]
 4977 1f22 F86D     		ldr	r0, [r7, #92]
 4978 1f24 0B46     		mov	r3, r1
 4979 1f26 9B00     		lsls	r3, r3, #2
 4980 1f28 0B44     		add	r3, r3, r1
 4981 1f2a 0344     		add	r3, r3, r0
 4982 1f2c 5833     		adds	r3, r3, #88
 4983 1f2e B3F80730 		ldrh	r3, [r3, #7]	@ unaligned
 4984 1f32 9BB2     		uxth	r3, r3
 4985 1f34 98B2     		uxth	r0, r3
 4986 1f36 FB6D     		ldr	r3, [r7, #92]
 4987 1f38 5968     		ldr	r1, [r3, #4]
 4988 1f3a 97F85430 		ldrb	r3, [r7, #84]	@ zero_extendqisi2
 4989 1f3e 0333     		adds	r3, r3, #3
 4990 1f40 0B44     		add	r3, r3, r1
 4991 1f42 1B78     		ldrb	r3, [r3]	@ zero_extendqisi2
 4992 1f44 1B02     		lsls	r3, r3, #8
 4993 1f46 9BB2     		uxth	r3, r3
 4994 1f48 0146     		mov	r1, r0	@ movhi
 4995 1f4a 0B43     		orrs	r3, r3, r1
 4996 1f4c 9BB2     		uxth	r3, r3
 4997 1f4e 98B2     		uxth	r0, r3
 4998 1f50 F96D     		ldr	r1, [r7, #92]
 4999 1f52 1346     		mov	r3, r2
 5000 1f54 9B00     		lsls	r3, r3, #2
 5001 1f56 1344     		add	r3, r3, r2
 5002 1f58 0B44     		add	r3, r3, r1
 5003 1f5a 5833     		adds	r3, r3, #88
 5004 1f5c 0246     		mov	r2, r0	@ movhi
 5005 1f5e A3F80720 		strh	r2, [r3, #7]	@ unaligned
1509:build/openmote-cc2538_armgcc/openstack/02b-MAChigh/sixtop.c ****                     pkt->l2_sixtop_celllist_add[i].isUsed         = TRUE;
 5006              		.loc 1 1509 0
 5007 1f62 FA8E     		ldrh	r2, [r7, #54]
 5008 1f64 F96D     		ldr	r1, [r7, #92]
 5009 1f66 1346     		mov	r3, r2
 5010 1f68 9B00     		lsls	r3, r3, #2
 5011 1f6a 1344     		add	r3, r3, r2
 5012 1f6c 0B44     		add	r3, r3, r1
 5013 1f6e 5833     		adds	r3, r3, #88
 5014 1f70 0122     		movs	r2, #1
 5015 1f72 1A71     		strb	r2, [r3, #4]
1510:build/openmote-cc2538_armgcc/openstack/02b-MAChigh/sixtop.c ****                     ptr    += 4;
 5016              		.loc 1 1510 0
 5017 1f74 97F85430 		ldrb	r3, [r7, #84]
 5018 1f78 0433     		adds	r3, r3, #4
 5019 1f7a 87F85430 		strb	r3, [r7, #84]
1511:build/openmote-cc2538_armgcc/openstack/02b-MAChigh/sixtop.c ****                     pktLen -= 4;
 5020              		.loc 1 1511 0
 5021 1f7e 97F83130 		ldrb	r3, [r7, #49]
 5022 1f82 043B     		subs	r3, r3, #4
 5023 1f84 87F83130 		strb	r3, [r7, #49]
1512:build/openmote-cc2538_armgcc/openstack/02b-MAChigh/sixtop.c ****                     i++;
 5024              		.loc 1 1512 0
 5025 1f88 FB8E     		ldrh	r3, [r7, #54]
 5026 1f8a 0133     		adds	r3, r3, #1
 5027 1f8c FB86     		strh	r3, [r7, #54]	@ movhi
 5028              	.L241:
1504:build/openmote-cc2538_armgcc/openstack/02b-MAChigh/sixtop.c ****                     pkt->l2_sixtop_celllist_add[i].slotoffset     =  *((uint8_t*)(pkt->payload)+ptr
 5029              		.loc 1 1504 0
 5030 1f8e 97F83130 		ldrb	r3, [r7, #49]	@ zero_extendqisi2
 5031 1f92 002B     		cmp	r3, #0
 5032 1f94 7FF47EAF 		bne	.L242
1513:build/openmote-cc2538_armgcc/openstack/02b-MAChigh/sixtop.c ****                 }
1514:build/openmote-cc2538_armgcc/openstack/02b-MAChigh/sixtop.c ****                 sixtop_removeCells(
1515:build/openmote-cc2538_armgcc/openstack/02b-MAChigh/sixtop.c ****                     sixtop_vars.cb_sf_getMetadata(),
 5033              		.loc 1 1515 0
 5034 1f98 874B     		ldr	r3, .L252
 5035 1f9a 1B6B     		ldr	r3, [r3, #48]
 5036 1f9c 9847     		blx	r3
 5037 1f9e 0346     		mov	r3, r0
1514:build/openmote-cc2538_armgcc/openstack/02b-MAChigh/sixtop.c ****                     sixtop_vars.cb_sf_getMetadata(),
 5038              		.loc 1 1514 0
 5039 1fa0 D9B2     		uxtb	r1, r3
 5040 1fa2 FB6D     		ldr	r3, [r7, #92]
 5041 1fa4 03F13C02 		add	r2, r3, #60
 5042 1fa8 834B     		ldr	r3, .L252
 5043 1faa 5B7C     		ldrb	r3, [r3, #17]	@ zero_extendqisi2
 5044 1fac 0846     		mov	r0, r1
 5045 1fae 8349     		ldr	r1, .L252+4
 5046 1fb0 FFF7FEFF 		bl	sixtop_removeCells
1516:build/openmote-cc2538_armgcc/openstack/02b-MAChigh/sixtop.c ****                     sixtop_vars.celllist_toDelete,
1517:build/openmote-cc2538_armgcc/openstack/02b-MAChigh/sixtop.c ****                     &(pkt->l2_nextORpreviousHop),
1518:build/openmote-cc2538_armgcc/openstack/02b-MAChigh/sixtop.c ****                     sixtop_vars.cellOptions
1519:build/openmote-cc2538_armgcc/openstack/02b-MAChigh/sixtop.c ****                 );
1520:build/openmote-cc2538_armgcc/openstack/02b-MAChigh/sixtop.c ****                 sixtop_addCells(
1521:build/openmote-cc2538_armgcc/openstack/02b-MAChigh/sixtop.c ****                     sixtop_vars.cb_sf_getMetadata(),     // frame id
 5047              		.loc 1 1521 0
 5048 1fb4 804B     		ldr	r3, .L252
 5049 1fb6 1B6B     		ldr	r3, [r3, #48]
 5050 1fb8 9847     		blx	r3
 5051 1fba 0346     		mov	r3, r0
1520:build/openmote-cc2538_armgcc/openstack/02b-MAChigh/sixtop.c ****                     sixtop_vars.cb_sf_getMetadata(),     // frame id
 5052              		.loc 1 1520 0
 5053 1fbc D8B2     		uxtb	r0, r3
1522:build/openmote-cc2538_armgcc/openstack/02b-MAChigh/sixtop.c ****                     pkt->l2_sixtop_celllist_add,  // celllist to be added
 5054              		.loc 1 1522 0
 5055 1fbe FB6D     		ldr	r3, [r7, #92]
 5056 1fc0 03F15C01 		add	r1, r3, #92
1520:build/openmote-cc2538_armgcc/openstack/02b-MAChigh/sixtop.c ****                     sixtop_vars.cb_sf_getMetadata(),     // frame id
 5057              		.loc 1 1520 0
 5058 1fc4 FB6D     		ldr	r3, [r7, #92]
 5059 1fc6 03F13C02 		add	r2, r3, #60
 5060 1fca 7B4B     		ldr	r3, .L252
 5061 1fcc 5B7C     		ldrb	r3, [r3, #17]	@ zero_extendqisi2
 5062 1fce FFF7FEFF 		bl	sixtop_addCells
1523:build/openmote-cc2538_armgcc/openstack/02b-MAChigh/sixtop.c ****                     &(pkt->l2_nextORpreviousHop), // neighbor that cells to be added to
1524:build/openmote-cc2538_armgcc/openstack/02b-MAChigh/sixtop.c ****                     sixtop_vars.cellOptions       // cell options
1525:build/openmote-cc2538_armgcc/openstack/02b-MAChigh/sixtop.c ****                 );
1526:build/openmote-cc2538_armgcc/openstack/02b-MAChigh/sixtop.c ****                 break;
 5063              		.loc 1 1526 0
 5064 1fd2 CFE0     		b	.L240
 5065              	.L235:
1527:build/openmote-cc2538_armgcc/openstack/02b-MAChigh/sixtop.c ****             case SIX_STATE_WAIT_COUNTRESPONSE:
1528:build/openmote-cc2538_armgcc/openstack/02b-MAChigh/sixtop.c ****                 numCells  = *((uint8_t*)(pkt->payload)+ptr);
 5066              		.loc 1 1528 0
 5067 1fd4 FB6D     		ldr	r3, [r7, #92]
 5068 1fd6 5A68     		ldr	r2, [r3, #4]
 5069 1fd8 97F85430 		ldrb	r3, [r7, #84]	@ zero_extendqisi2
 5070 1fdc 1344     		add	r3, r3, r2
 5071 1fde 1B78     		ldrb	r3, [r3]	@ zero_extendqisi2
 5072 1fe0 BB86     		strh	r3, [r7, #52]	@ movhi
1529:build/openmote-cc2538_armgcc/openstack/02b-MAChigh/sixtop.c ****                 numCells |= (*((uint8_t*)(pkt->payload)+ptr+1))<<8;
 5073              		.loc 1 1529 0
 5074 1fe2 FB6D     		ldr	r3, [r7, #92]
 5075 1fe4 5A68     		ldr	r2, [r3, #4]
 5076 1fe6 97F85430 		ldrb	r3, [r7, #84]	@ zero_extendqisi2
 5077 1fea 0133     		adds	r3, r3, #1
 5078 1fec 1344     		add	r3, r3, r2
 5079 1fee 1B78     		ldrb	r3, [r3]	@ zero_extendqisi2
 5080 1ff0 1B02     		lsls	r3, r3, #8
 5081 1ff2 9AB2     		uxth	r2, r3
 5082 1ff4 BB8E     		ldrh	r3, [r7, #52]
 5083 1ff6 1343     		orrs	r3, r3, r2
 5084 1ff8 9BB2     		uxth	r3, r3
 5085 1ffa BB86     		strh	r3, [r7, #52]	@ movhi
1530:build/openmote-cc2538_armgcc/openstack/02b-MAChigh/sixtop.c ****                 ptr += 2;
 5086              		.loc 1 1530 0
 5087 1ffc 97F85430 		ldrb	r3, [r7, #84]
 5088 2000 0233     		adds	r3, r3, #2
 5089 2002 87F85430 		strb	r3, [r7, #84]
1531:build/openmote-cc2538_armgcc/openstack/02b-MAChigh/sixtop.c ****                 openserial_printInfo(
1532:build/openmote-cc2538_armgcc/openstack/02b-MAChigh/sixtop.c ****                     COMPONENT_SIXTOP,
1533:build/openmote-cc2538_armgcc/openstack/02b-MAChigh/sixtop.c ****                     ERR_SIXTOP_COUNT,
1534:build/openmote-cc2538_armgcc/openstack/02b-MAChigh/sixtop.c ****                     (errorparameter_t)numCells,
1535:build/openmote-cc2538_armgcc/openstack/02b-MAChigh/sixtop.c ****                     (errorparameter_t)sixtop_vars.six2six_state
 5090              		.loc 1 1535 0
 5091 2006 6C4B     		ldr	r3, .L252
 5092 2008 9B7B     		ldrb	r3, [r3, #14]	@ zero_extendqisi2
1531:build/openmote-cc2538_armgcc/openstack/02b-MAChigh/sixtop.c ****                 openserial_printInfo(
 5093              		.loc 1 1531 0
 5094 200a 9BB2     		uxth	r3, r3
 5095 200c BA8E     		ldrh	r2, [r7, #52]
 5096 200e 0C20     		movs	r0, #12
 5097 2010 3D21     		movs	r1, #61
 5098 2012 FFF7FEFF 		bl	openserial_printInfo
1536:build/openmote-cc2538_armgcc/openstack/02b-MAChigh/sixtop.c ****                 );
1537:build/openmote-cc2538_armgcc/openstack/02b-MAChigh/sixtop.c ****                 break;
 5099              		.loc 1 1537 0
 5100 2016 ADE0     		b	.L240
 5101              	.L236:
1538:build/openmote-cc2538_armgcc/openstack/02b-MAChigh/sixtop.c ****             case SIX_STATE_WAIT_LISTRESPONSE:
1539:build/openmote-cc2538_armgcc/openstack/02b-MAChigh/sixtop.c ****                 i = 0;
 5102              		.loc 1 1539 0
 5103 2018 0023     		movs	r3, #0
 5104 201a FB86     		strh	r3, [r7, #54]	@ movhi
1540:build/openmote-cc2538_armgcc/openstack/02b-MAChigh/sixtop.c ****                 memset(celllist_list,0,CELLLIST_MAX_LEN*sizeof(cellInfo_ht));
 5105              		.loc 1 1540 0
 5106 201c 07F10803 		add	r3, r7, #8
 5107 2020 1846     		mov	r0, r3
 5108 2022 0021     		movs	r1, #0
 5109 2024 1922     		movs	r2, #25
 5110 2026 FFF7FEFF 		bl	memset
1541:build/openmote-cc2538_armgcc/openstack/02b-MAChigh/sixtop.c ****                 while(pktLen>0){
 5111              		.loc 1 1541 0
 5112 202a 83E0     		b	.L243
 5113              	.L244:
1542:build/openmote-cc2538_armgcc/openstack/02b-MAChigh/sixtop.c ****                     celllist_list[i].slotoffset     =  *((uint8_t*)(pkt->payload)+ptr);
 5114              		.loc 1 1542 0
 5115 202c FA8E     		ldrh	r2, [r7, #54]
 5116 202e FB6D     		ldr	r3, [r7, #92]
 5117 2030 5968     		ldr	r1, [r3, #4]
 5118 2032 97F85430 		ldrb	r3, [r7, #84]	@ zero_extendqisi2
 5119 2036 0B44     		add	r3, r3, r1
 5120 2038 1B78     		ldrb	r3, [r3]	@ zero_extendqisi2
 5121 203a 99B2     		uxth	r1, r3
 5122 203c 1346     		mov	r3, r2
 5123 203e 9B00     		lsls	r3, r3, #2
 5124 2040 1344     		add	r3, r3, r2
 5125 2042 07F14002 		add	r2, r7, #64
 5126 2046 1344     		add	r3, r3, r2
 5127 2048 383B     		subs	r3, r3, #56
 5128 204a 0A46     		mov	r2, r1	@ movhi
 5129 204c A3F80120 		strh	r2, [r3, #1]	@ unaligned
1543:build/openmote-cc2538_armgcc/openstack/02b-MAChigh/sixtop.c ****                     celllist_list[i].slotoffset    |= (*((uint8_t*)(pkt->payload)+ptr+1))<<8;
 5130              		.loc 1 1543 0
 5131 2050 FA8E     		ldrh	r2, [r7, #54]
 5132 2052 F98E     		ldrh	r1, [r7, #54]
 5133 2054 0B46     		mov	r3, r1
 5134 2056 9B00     		lsls	r3, r3, #2
 5135 2058 0B44     		add	r3, r3, r1
 5136 205a 07F14001 		add	r1, r7, #64
 5137 205e 0B44     		add	r3, r3, r1
 5138 2060 383B     		subs	r3, r3, #56
 5139 2062 B3F80130 		ldrh	r3, [r3, #1]	@ unaligned
 5140 2066 9BB2     		uxth	r3, r3
 5141 2068 98B2     		uxth	r0, r3
 5142 206a FB6D     		ldr	r3, [r7, #92]
 5143 206c 5968     		ldr	r1, [r3, #4]
 5144 206e 97F85430 		ldrb	r3, [r7, #84]	@ zero_extendqisi2
 5145 2072 0133     		adds	r3, r3, #1
 5146 2074 0B44     		add	r3, r3, r1
 5147 2076 1B78     		ldrb	r3, [r3]	@ zero_extendqisi2
 5148 2078 1B02     		lsls	r3, r3, #8
 5149 207a 9BB2     		uxth	r3, r3
 5150 207c 0146     		mov	r1, r0	@ movhi
 5151 207e 0B43     		orrs	r3, r3, r1
 5152 2080 9BB2     		uxth	r3, r3
 5153 2082 99B2     		uxth	r1, r3
 5154 2084 1346     		mov	r3, r2
 5155 2086 9B00     		lsls	r3, r3, #2
 5156 2088 1344     		add	r3, r3, r2
 5157 208a 07F14002 		add	r2, r7, #64
 5158 208e 1344     		add	r3, r3, r2
 5159 2090 383B     		subs	r3, r3, #56
 5160 2092 0A46     		mov	r2, r1	@ movhi
 5161 2094 A3F80120 		strh	r2, [r3, #1]	@ unaligned
1544:build/openmote-cc2538_armgcc/openstack/02b-MAChigh/sixtop.c ****                     celllist_list[i].channeloffset  =  *((uint8_t*)(pkt->payload)+ptr+2);
 5162              		.loc 1 1544 0
 5163 2098 FA8E     		ldrh	r2, [r7, #54]
 5164 209a FB6D     		ldr	r3, [r7, #92]
 5165 209c 5968     		ldr	r1, [r3, #4]
 5166 209e 97F85430 		ldrb	r3, [r7, #84]	@ zero_extendqisi2
 5167 20a2 0233     		adds	r3, r3, #2
 5168 20a4 0B44     		add	r3, r3, r1
 5169 20a6 1B78     		ldrb	r3, [r3]	@ zero_extendqisi2
 5170 20a8 99B2     		uxth	r1, r3
 5171 20aa 1346     		mov	r3, r2
 5172 20ac 9B00     		lsls	r3, r3, #2
 5173 20ae 1344     		add	r3, r3, r2
 5174 20b0 07F14002 		add	r2, r7, #64
 5175 20b4 1344     		add	r3, r3, r2
 5176 20b6 383B     		subs	r3, r3, #56
 5177 20b8 0A46     		mov	r2, r1	@ movhi
 5178 20ba A3F80320 		strh	r2, [r3, #3]	@ unaligned
1545:build/openmote-cc2538_armgcc/openstack/02b-MAChigh/sixtop.c ****                     celllist_list[i].channeloffset |= (*((uint8_t*)(pkt->payload)+ptr+3))<<8;
 5179              		.loc 1 1545 0
 5180 20be FA8E     		ldrh	r2, [r7, #54]
 5181 20c0 F98E     		ldrh	r1, [r7, #54]
 5182 20c2 0B46     		mov	r3, r1
 5183 20c4 9B00     		lsls	r3, r3, #2
 5184 20c6 0B44     		add	r3, r3, r1
 5185 20c8 07F14001 		add	r1, r7, #64
 5186 20cc 0B44     		add	r3, r3, r1
 5187 20ce 383B     		subs	r3, r3, #56
 5188 20d0 B3F80330 		ldrh	r3, [r3, #3]	@ unaligned
 5189 20d4 9BB2     		uxth	r3, r3
 5190 20d6 98B2     		uxth	r0, r3
 5191 20d8 FB6D     		ldr	r3, [r7, #92]
 5192 20da 5968     		ldr	r1, [r3, #4]
 5193 20dc 97F85430 		ldrb	r3, [r7, #84]	@ zero_extendqisi2
 5194 20e0 0333     		adds	r3, r3, #3
 5195 20e2 0B44     		add	r3, r3, r1
 5196 20e4 1B78     		ldrb	r3, [r3]	@ zero_extendqisi2
 5197 20e6 1B02     		lsls	r3, r3, #8
 5198 20e8 9BB2     		uxth	r3, r3
 5199 20ea 0146     		mov	r1, r0	@ movhi
 5200 20ec 0B43     		orrs	r3, r3, r1
 5201 20ee 9BB2     		uxth	r3, r3
 5202 20f0 99B2     		uxth	r1, r3
 5203 20f2 1346     		mov	r3, r2
 5204 20f4 9B00     		lsls	r3, r3, #2
 5205 20f6 1344     		add	r3, r3, r2
 5206 20f8 07F14002 		add	r2, r7, #64
 5207 20fc 1344     		add	r3, r3, r2
 5208 20fe 383B     		subs	r3, r3, #56
 5209 2100 0A46     		mov	r2, r1	@ movhi
 5210 2102 A3F80320 		strh	r2, [r3, #3]	@ unaligned
1546:build/openmote-cc2538_armgcc/openstack/02b-MAChigh/sixtop.c ****                     celllist_list[i].isUsed         = TRUE;
 5211              		.loc 1 1546 0
 5212 2106 FA8E     		ldrh	r2, [r7, #54]
 5213 2108 1346     		mov	r3, r2
 5214 210a 9B00     		lsls	r3, r3, #2
 5215 210c 1344     		add	r3, r3, r2
 5216 210e 07F14002 		add	r2, r7, #64
 5217 2112 1344     		add	r3, r3, r2
 5218 2114 383B     		subs	r3, r3, #56
 5219 2116 0122     		movs	r2, #1
 5220 2118 1A70     		strb	r2, [r3]
1547:build/openmote-cc2538_armgcc/openstack/02b-MAChigh/sixtop.c ****                     ptr    += 4;
 5221              		.loc 1 1547 0
 5222 211a 97F85430 		ldrb	r3, [r7, #84]
 5223 211e 0433     		adds	r3, r3, #4
 5224 2120 87F85430 		strb	r3, [r7, #84]
1548:build/openmote-cc2538_armgcc/openstack/02b-MAChigh/sixtop.c ****                     pktLen -= 4;
 5225              		.loc 1 1548 0
 5226 2124 97F83130 		ldrb	r3, [r7, #49]
 5227 2128 043B     		subs	r3, r3, #4
 5228 212a 87F83130 		strb	r3, [r7, #49]
1549:build/openmote-cc2538_armgcc/openstack/02b-MAChigh/sixtop.c ****                     i++;
 5229              		.loc 1 1549 0
 5230 212e FB8E     		ldrh	r3, [r7, #54]
 5231 2130 0133     		adds	r3, r3, #1
 5232 2132 FB86     		strh	r3, [r7, #54]	@ movhi
 5233              	.L243:
1541:build/openmote-cc2538_armgcc/openstack/02b-MAChigh/sixtop.c ****                     celllist_list[i].slotoffset     =  *((uint8_t*)(pkt->payload)+ptr);
 5234              		.loc 1 1541 0
 5235 2134 97F83130 		ldrb	r3, [r7, #49]	@ zero_extendqisi2
 5236 2138 002B     		cmp	r3, #0
 5237 213a 7FF477AF 		bne	.L244
1550:build/openmote-cc2538_armgcc/openstack/02b-MAChigh/sixtop.c ****                 }
1551:build/openmote-cc2538_armgcc/openstack/02b-MAChigh/sixtop.c ****                 // print out first two cells in the list
1552:build/openmote-cc2538_armgcc/openstack/02b-MAChigh/sixtop.c ****                 openserial_printInfo(
 5238              		.loc 1 1552 0
 5239 213e B7F80930 		ldrh	r3, [r7, #9]	@ unaligned
 5240 2142 9AB2     		uxth	r2, r3
 5241 2144 FB89     		ldrh	r3, [r7, #14]
 5242 2146 0C20     		movs	r0, #12
 5243 2148 3E21     		movs	r1, #62
 5244 214a FFF7FEFF 		bl	openserial_printInfo
1553:build/openmote-cc2538_armgcc/openstack/02b-MAChigh/sixtop.c ****                     COMPONENT_SIXTOP,
1554:build/openmote-cc2538_armgcc/openstack/02b-MAChigh/sixtop.c ****                     ERR_SIXTOP_LIST,
1555:build/openmote-cc2538_armgcc/openstack/02b-MAChigh/sixtop.c ****                     (errorparameter_t)celllist_list[0].slotoffset,
1556:build/openmote-cc2538_armgcc/openstack/02b-MAChigh/sixtop.c ****                     (errorparameter_t)celllist_list[1].slotoffset
1557:build/openmote-cc2538_armgcc/openstack/02b-MAChigh/sixtop.c ****                 );
1558:build/openmote-cc2538_armgcc/openstack/02b-MAChigh/sixtop.c ****                 break;
 5245              		.loc 1 1558 0
 5246 214e 11E0     		b	.L240
 5247              	.L237:
1559:build/openmote-cc2538_armgcc/openstack/02b-MAChigh/sixtop.c ****             case SIX_STATE_WAIT_CLEARRESPONSE:
1560:build/openmote-cc2538_armgcc/openstack/02b-MAChigh/sixtop.c ****                 schedule_removeAllCells(
1561:build/openmote-cc2538_armgcc/openstack/02b-MAChigh/sixtop.c ****                     sixtop_vars.cb_sf_getMetadata(),
 5248              		.loc 1 1561 0
 5249 2150 194B     		ldr	r3, .L252
 5250 2152 1B6B     		ldr	r3, [r3, #48]
 5251 2154 9847     		blx	r3
 5252 2156 0346     		mov	r3, r0
1560:build/openmote-cc2538_armgcc/openstack/02b-MAChigh/sixtop.c ****                     sixtop_vars.cb_sf_getMetadata(),
 5253              		.loc 1 1560 0
 5254 2158 DAB2     		uxtb	r2, r3
 5255 215a FB6D     		ldr	r3, [r7, #92]
 5256 215c 3C33     		adds	r3, r3, #60
 5257 215e 1046     		mov	r0, r2
 5258 2160 1946     		mov	r1, r3
 5259 2162 FFF7FEFF 		bl	schedule_removeAllCells
1562:build/openmote-cc2538_armgcc/openstack/02b-MAChigh/sixtop.c ****                     &(pkt->l2_nextORpreviousHop)
1563:build/openmote-cc2538_armgcc/openstack/02b-MAChigh/sixtop.c ****                 );
1564:build/openmote-cc2538_armgcc/openstack/02b-MAChigh/sixtop.c ****                 neighbors_resetSequenceNumber(&(pkt->l2_nextORpreviousHop));
 5260              		.loc 1 1564 0
 5261 2166 FB6D     		ldr	r3, [r7, #92]
 5262 2168 3C33     		adds	r3, r3, #60
 5263 216a 1846     		mov	r0, r3
 5264 216c FFF7FEFF 		bl	neighbors_resetSequenceNumber
1565:build/openmote-cc2538_armgcc/openstack/02b-MAChigh/sixtop.c ****                 break;
 5265              		.loc 1 1565 0
 5266 2170 00E0     		b	.L240
 5267              	.L247:
1566:build/openmote-cc2538_armgcc/openstack/02b-MAChigh/sixtop.c ****             default:
1567:build/openmote-cc2538_armgcc/openstack/02b-MAChigh/sixtop.c ****                 // should neven happen
1568:build/openmote-cc2538_armgcc/openstack/02b-MAChigh/sixtop.c ****                 break;
 5268              		.loc 1 1568 0
 5269 2172 00BF     		nop
 5270              	.L240:
1569:build/openmote-cc2538_armgcc/openstack/02b-MAChigh/sixtop.c ****             }
1570:build/openmote-cc2538_armgcc/openstack/02b-MAChigh/sixtop.c ****         } else {
 5271              		.loc 1 1570 0 discriminator 2
 5272 2174 07E0     		b	.L245
 5273              	.L229:
1571:build/openmote-cc2538_armgcc/openstack/02b-MAChigh/sixtop.c ****             sixtop_vars.cb_sf_handleRCError(code, &(pkt->l2_nextORpreviousHop));
 5274              		.loc 1 1571 0
 5275 2176 104B     		ldr	r3, .L252
 5276 2178 9B6B     		ldr	r3, [r3, #56]
 5277 217a FA6D     		ldr	r2, [r7, #92]
 5278 217c 3C32     		adds	r2, r2, #60
 5279 217e 7979     		ldrb	r1, [r7, #5]	@ zero_extendqisi2
 5280 2180 0846     		mov	r0, r1
 5281 2182 1146     		mov	r1, r2
 5282 2184 9847     		blx	r3
 5283              	.L245:
1572:build/openmote-cc2538_armgcc/openstack/02b-MAChigh/sixtop.c ****         }
1573:build/openmote-cc2538_armgcc/openstack/02b-MAChigh/sixtop.c ****         openserial_printInfo(
 5284              		.loc 1 1573 0
 5285 2186 7B79     		ldrb	r3, [r7, #5]	@ zero_extendqisi2
 5286 2188 9AB2     		uxth	r2, r3
1574:build/openmote-cc2538_armgcc/openstack/02b-MAChigh/sixtop.c ****             COMPONENT_SIXTOP,
1575:build/openmote-cc2538_armgcc/openstack/02b-MAChigh/sixtop.c ****             ERR_SIXTOP_RETURNCODE,
1576:build/openmote-cc2538_armgcc/openstack/02b-MAChigh/sixtop.c ****             (errorparameter_t)code,
1577:build/openmote-cc2538_armgcc/openstack/02b-MAChigh/sixtop.c ****             (errorparameter_t)sixtop_vars.six2six_state
 5287              		.loc 1 1577 0
 5288 218a 0B4B     		ldr	r3, .L252
 5289 218c 9B7B     		ldrb	r3, [r3, #14]	@ zero_extendqisi2
1573:build/openmote-cc2538_armgcc/openstack/02b-MAChigh/sixtop.c ****             COMPONENT_SIXTOP,
 5290              		.loc 1 1573 0
 5291 218e 9BB2     		uxth	r3, r3
 5292 2190 0C20     		movs	r0, #12
 5293 2192 3C21     		movs	r1, #60
 5294 2194 FFF7FEFF 		bl	openserial_printInfo
1578:build/openmote-cc2538_armgcc/openstack/02b-MAChigh/sixtop.c ****         );
1579:build/openmote-cc2538_armgcc/openstack/02b-MAChigh/sixtop.c ****         memset(&sixtop_vars.neighborToClearCells,0,sizeof(open_addr_t));
 5295              		.loc 1 1579 0
 5296 2198 0948     		ldr	r0, .L252+8
 5297 219a 0021     		movs	r1, #0
 5298 219c 1122     		movs	r2, #17
 5299 219e FFF7FEFF 		bl	memset
1580:build/openmote-cc2538_armgcc/openstack/02b-MAChigh/sixtop.c ****         sixtop_vars.six2six_state   = SIX_STATE_IDLE;
 5300              		.loc 1 1580 0
 5301 21a2 054B     		ldr	r3, .L252
 5302 21a4 0022     		movs	r2, #0
 5303 21a6 9A73     		strb	r2, [r3, #14]
1581:build/openmote-cc2538_armgcc/openstack/02b-MAChigh/sixtop.c ****         opentimers_cancel(sixtop_vars.timeoutTimerId);
 5304              		.loc 1 1581 0
 5305 21a8 034B     		ldr	r3, .L252
 5306 21aa 5B7A     		ldrb	r3, [r3, #9]	@ zero_extendqisi2
 5307 21ac 1846     		mov	r0, r3
 5308 21ae FFF7FEFF 		bl	opentimers_cancel
 5309              	.L169:
1582:build/openmote-cc2538_armgcc/openstack/02b-MAChigh/sixtop.c ****     }
1583:build/openmote-cc2538_armgcc/openstack/02b-MAChigh/sixtop.c **** }
 5310              		.loc 1 1583 0
 5311 21b2 4437     		adds	r7, r7, #68
 5312              		.cfi_def_cfa_offset 12
 5313 21b4 BD46     		mov	sp, r7
 5314              		.cfi_def_cfa_register 13
 5315              		@ sp needed
 5316 21b6 90BD     		pop	{r4, r7, pc}
 5317              	.L253:
 5318              		.align	2
 5319              	.L252:
 5320 21b8 00000000 		.word	sixtop_vars
 5321 21bc 12000000 		.word	sixtop_vars+18
 5322 21c0 3C000000 		.word	sixtop_vars+60
 5323              		.cfi_endproc
 5324              	.LFE22:
 5326              		.align	2
 5327              		.global	sixtop_addCells
 5328              		.thumb
 5329              		.thumb_func
 5331              	sixtop_addCells:
 5332              	.LFB23:
1584:build/openmote-cc2538_armgcc/openstack/02b-MAChigh/sixtop.c **** 
1585:build/openmote-cc2538_armgcc/openstack/02b-MAChigh/sixtop.c **** //======= helper functions
1586:build/openmote-cc2538_armgcc/openstack/02b-MAChigh/sixtop.c **** 
1587:build/openmote-cc2538_armgcc/openstack/02b-MAChigh/sixtop.c **** bool sixtop_addCells(
1588:build/openmote-cc2538_armgcc/openstack/02b-MAChigh/sixtop.c ****     uint8_t      slotframeID,
1589:build/openmote-cc2538_armgcc/openstack/02b-MAChigh/sixtop.c ****     cellInfo_ht* cellList,
1590:build/openmote-cc2538_armgcc/openstack/02b-MAChigh/sixtop.c ****     open_addr_t* previousHop,
1591:build/openmote-cc2538_armgcc/openstack/02b-MAChigh/sixtop.c ****     uint8_t      cellOptions
1592:build/openmote-cc2538_armgcc/openstack/02b-MAChigh/sixtop.c **** ){
 5333              		.loc 1 1592 0
 5334              		.cfi_startproc
 5335              		@ args = 0, pretend = 0, frame = 40
 5336              		@ frame_needed = 1, uses_anonymous_args = 0
 5337 21c4 B0B5     		push	{r4, r5, r7, lr}
 5338              		.cfi_def_cfa_offset 16
 5339              		.cfi_offset 4, -16
 5340              		.cfi_offset 5, -12
 5341              		.cfi_offset 7, -8
 5342              		.cfi_offset 14, -4
 5343 21c6 8CB0     		sub	sp, sp, #48
 5344              		.cfi_def_cfa_offset 64
 5345 21c8 02AF     		add	r7, sp, #8
 5346              		.cfi_def_cfa 7, 56
 5347 21ca B960     		str	r1, [r7, #8]
 5348 21cc 7A60     		str	r2, [r7, #4]
 5349 21ce 1A46     		mov	r2, r3
 5350 21d0 0346     		mov	r3, r0
 5351 21d2 FB73     		strb	r3, [r7, #15]
 5352 21d4 1346     		mov	r3, r2
 5353 21d6 BB73     		strb	r3, [r7, #14]
1593:build/openmote-cc2538_armgcc/openstack/02b-MAChigh/sixtop.c ****     uint8_t     i;
1594:build/openmote-cc2538_armgcc/openstack/02b-MAChigh/sixtop.c ****     bool        isShared;
1595:build/openmote-cc2538_armgcc/openstack/02b-MAChigh/sixtop.c ****     open_addr_t temp_neighbor;
1596:build/openmote-cc2538_armgcc/openstack/02b-MAChigh/sixtop.c ****     cellType_t  type;
1597:build/openmote-cc2538_armgcc/openstack/02b-MAChigh/sixtop.c ****     bool        hasCellsAdded;
1598:build/openmote-cc2538_armgcc/openstack/02b-MAChigh/sixtop.c **** 
1599:build/openmote-cc2538_armgcc/openstack/02b-MAChigh/sixtop.c ****     // translate cellOptions to cell type
1600:build/openmote-cc2538_armgcc/openstack/02b-MAChigh/sixtop.c ****     if (cellOptions == CELLOPTIONS_TX){
 5354              		.loc 1 1600 0
 5355 21d8 BB7B     		ldrb	r3, [r7, #14]	@ zero_extendqisi2
 5356 21da 012B     		cmp	r3, #1
 5357 21dc 05D1     		bne	.L255
1601:build/openmote-cc2538_armgcc/openstack/02b-MAChigh/sixtop.c ****         type     = CELLTYPE_TX;
 5358              		.loc 1 1601 0
 5359 21de 0123     		movs	r3, #1
 5360 21e0 87F82530 		strb	r3, [r7, #37]
1602:build/openmote-cc2538_armgcc/openstack/02b-MAChigh/sixtop.c ****         isShared = FALSE;
 5361              		.loc 1 1602 0
 5362 21e4 0023     		movs	r3, #0
 5363 21e6 87F82630 		strb	r3, [r7, #38]
 5364              	.L255:
1603:build/openmote-cc2538_armgcc/openstack/02b-MAChigh/sixtop.c ****     }
1604:build/openmote-cc2538_armgcc/openstack/02b-MAChigh/sixtop.c ****     if (cellOptions == CELLOPTIONS_RX){
 5365              		.loc 1 1604 0
 5366 21ea BB7B     		ldrb	r3, [r7, #14]	@ zero_extendqisi2
 5367 21ec 022B     		cmp	r3, #2
 5368 21ee 05D1     		bne	.L256
1605:build/openmote-cc2538_armgcc/openstack/02b-MAChigh/sixtop.c ****         type     = CELLTYPE_RX;
 5369              		.loc 1 1605 0
 5370 21f0 0223     		movs	r3, #2
 5371 21f2 87F82530 		strb	r3, [r7, #37]
1606:build/openmote-cc2538_armgcc/openstack/02b-MAChigh/sixtop.c ****         isShared = FALSE;
 5372              		.loc 1 1606 0
 5373 21f6 0023     		movs	r3, #0
 5374 21f8 87F82630 		strb	r3, [r7, #38]
 5375              	.L256:
1607:build/openmote-cc2538_armgcc/openstack/02b-MAChigh/sixtop.c ****     }
1608:build/openmote-cc2538_armgcc/openstack/02b-MAChigh/sixtop.c ****     if (cellOptions == (CELLOPTIONS_TX | CELLOPTIONS_RX | CELLOPTIONS_SHARED)){
 5376              		.loc 1 1608 0
 5377 21fc BB7B     		ldrb	r3, [r7, #14]	@ zero_extendqisi2
 5378 21fe 072B     		cmp	r3, #7
 5379 2200 05D1     		bne	.L257
1609:build/openmote-cc2538_armgcc/openstack/02b-MAChigh/sixtop.c ****         type     = CELLTYPE_TXRX;
 5380              		.loc 1 1609 0
 5381 2202 0323     		movs	r3, #3
 5382 2204 87F82530 		strb	r3, [r7, #37]
1610:build/openmote-cc2538_armgcc/openstack/02b-MAChigh/sixtop.c ****         isShared = TRUE;
 5383              		.loc 1 1610 0
 5384 2208 0123     		movs	r3, #1
 5385 220a 87F82630 		strb	r3, [r7, #38]
 5386              	.L257:
1611:build/openmote-cc2538_armgcc/openstack/02b-MAChigh/sixtop.c ****     }
1612:build/openmote-cc2538_armgcc/openstack/02b-MAChigh/sixtop.c **** 
1613:build/openmote-cc2538_armgcc/openstack/02b-MAChigh/sixtop.c ****     memcpy(&temp_neighbor,previousHop,sizeof(open_addr_t));
 5387              		.loc 1 1613 0
 5388 220e 7B68     		ldr	r3, [r7, #4]
 5389 2210 07F11004 		add	r4, r7, #16
 5390 2214 1D46     		mov	r5, r3
 5391 2216 2868     		ldr	r0, [r5]	@ unaligned
 5392 2218 6968     		ldr	r1, [r5, #4]	@ unaligned
 5393 221a AA68     		ldr	r2, [r5, #8]	@ unaligned
 5394 221c EB68     		ldr	r3, [r5, #12]	@ unaligned
 5395 221e 0FC4     		stmia	r4!, {r0, r1, r2, r3}
 5396 2220 2B7C     		ldrb	r3, [r5, #16]
 5397 2222 2370     		strb	r3, [r4]
1614:build/openmote-cc2538_armgcc/openstack/02b-MAChigh/sixtop.c **** 
1615:build/openmote-cc2538_armgcc/openstack/02b-MAChigh/sixtop.c ****     hasCellsAdded = FALSE;
 5398              		.loc 1 1615 0
 5399 2224 0023     		movs	r3, #0
 5400 2226 87F82430 		strb	r3, [r7, #36]
1616:build/openmote-cc2538_armgcc/openstack/02b-MAChigh/sixtop.c ****     // add cells to schedule
1617:build/openmote-cc2538_armgcc/openstack/02b-MAChigh/sixtop.c ****     for(i = 0;i<CELLLIST_MAX_LEN;i++){
 5401              		.loc 1 1617 0
 5402 222a 0023     		movs	r3, #0
 5403 222c 87F82730 		strb	r3, [r7, #39]
 5404 2230 30E0     		b	.L258
 5405              	.L260:
1618:build/openmote-cc2538_armgcc/openstack/02b-MAChigh/sixtop.c ****         if (cellList[i].isUsed){
 5406              		.loc 1 1618 0
 5407 2232 97F82720 		ldrb	r2, [r7, #39]	@ zero_extendqisi2
 5408 2236 1346     		mov	r3, r2
 5409 2238 9B00     		lsls	r3, r3, #2
 5410 223a 1344     		add	r3, r3, r2
 5411 223c BA68     		ldr	r2, [r7, #8]
 5412 223e 1344     		add	r3, r3, r2
 5413 2240 1B78     		ldrb	r3, [r3]	@ zero_extendqisi2
 5414 2242 002B     		cmp	r3, #0
 5415 2244 21D0     		beq	.L259
1619:build/openmote-cc2538_armgcc/openstack/02b-MAChigh/sixtop.c ****             hasCellsAdded = TRUE;
 5416              		.loc 1 1619 0
 5417 2246 0123     		movs	r3, #1
 5418 2248 87F82430 		strb	r3, [r7, #36]
1620:build/openmote-cc2538_armgcc/openstack/02b-MAChigh/sixtop.c ****             schedule_addActiveSlot(
1621:build/openmote-cc2538_armgcc/openstack/02b-MAChigh/sixtop.c ****                 cellList[i].slotoffset,
 5419              		.loc 1 1621 0
 5420 224c 97F82720 		ldrb	r2, [r7, #39]	@ zero_extendqisi2
 5421 2250 1346     		mov	r3, r2
 5422 2252 9B00     		lsls	r3, r3, #2
 5423 2254 1344     		add	r3, r3, r2
 5424 2256 BA68     		ldr	r2, [r7, #8]
 5425 2258 1344     		add	r3, r3, r2
1620:build/openmote-cc2538_armgcc/openstack/02b-MAChigh/sixtop.c ****             schedule_addActiveSlot(
 5426              		.loc 1 1620 0
 5427 225a B3F80130 		ldrh	r3, [r3, #1]	@ unaligned
 5428 225e 98B2     		uxth	r0, r3
1622:build/openmote-cc2538_armgcc/openstack/02b-MAChigh/sixtop.c ****                 type,
1623:build/openmote-cc2538_armgcc/openstack/02b-MAChigh/sixtop.c ****                 isShared,
1624:build/openmote-cc2538_armgcc/openstack/02b-MAChigh/sixtop.c ****                 cellList[i].channeloffset,
 5429              		.loc 1 1624 0
 5430 2260 97F82720 		ldrb	r2, [r7, #39]	@ zero_extendqisi2
 5431 2264 1346     		mov	r3, r2
 5432 2266 9B00     		lsls	r3, r3, #2
 5433 2268 1344     		add	r3, r3, r2
 5434 226a BA68     		ldr	r2, [r7, #8]
 5435 226c 1344     		add	r3, r3, r2
 5436 226e B3F80330 		ldrh	r3, [r3, #3]	@ unaligned
 5437 2272 9BB2     		uxth	r3, r3
1620:build/openmote-cc2538_armgcc/openstack/02b-MAChigh/sixtop.c ****             schedule_addActiveSlot(
 5438              		.loc 1 1620 0
 5439 2274 DCB2     		uxtb	r4, r3
 5440 2276 97F82510 		ldrb	r1, [r7, #37]	@ zero_extendqisi2
 5441 227a 97F82620 		ldrb	r2, [r7, #38]	@ zero_extendqisi2
 5442 227e 07F11003 		add	r3, r7, #16
 5443 2282 0093     		str	r3, [sp]
 5444 2284 2346     		mov	r3, r4
 5445 2286 FFF7FEFF 		bl	schedule_addActiveSlot
 5446              	.L259:
1617:build/openmote-cc2538_armgcc/openstack/02b-MAChigh/sixtop.c ****         if (cellList[i].isUsed){
 5447              		.loc 1 1617 0 discriminator 2
 5448 228a 97F82730 		ldrb	r3, [r7, #39]	@ zero_extendqisi2
 5449 228e 0133     		adds	r3, r3, #1
 5450 2290 87F82730 		strb	r3, [r7, #39]
 5451              	.L258:
1617:build/openmote-cc2538_armgcc/openstack/02b-MAChigh/sixtop.c ****         if (cellList[i].isUsed){
 5452              		.loc 1 1617 0 is_stmt 0 discriminator 1
 5453 2294 97F82730 		ldrb	r3, [r7, #39]	@ zero_extendqisi2
 5454 2298 042B     		cmp	r3, #4
 5455 229a CAD9     		bls	.L260
1625:build/openmote-cc2538_armgcc/openstack/02b-MAChigh/sixtop.c ****                 &temp_neighbor
1626:build/openmote-cc2538_armgcc/openstack/02b-MAChigh/sixtop.c ****             );
1627:build/openmote-cc2538_armgcc/openstack/02b-MAChigh/sixtop.c ****          }
1628:build/openmote-cc2538_armgcc/openstack/02b-MAChigh/sixtop.c ****     }
1629:build/openmote-cc2538_armgcc/openstack/02b-MAChigh/sixtop.c **** 
1630:build/openmote-cc2538_armgcc/openstack/02b-MAChigh/sixtop.c ****     return hasCellsAdded;
 5456              		.loc 1 1630 0 is_stmt 1
 5457 229c 97F82430 		ldrb	r3, [r7, #36]	@ zero_extendqisi2
1631:build/openmote-cc2538_armgcc/openstack/02b-MAChigh/sixtop.c **** }
 5458              		.loc 1 1631 0
 5459 22a0 1846     		mov	r0, r3
 5460 22a2 2837     		adds	r7, r7, #40
 5461              		.cfi_def_cfa_offset 16
 5462 22a4 BD46     		mov	sp, r7
 5463              		.cfi_def_cfa_register 13
 5464              		@ sp needed
 5465 22a6 B0BD     		pop	{r4, r5, r7, pc}
 5466              		.cfi_endproc
 5467              	.LFE23:
 5469              		.align	2
 5470              		.global	sixtop_removeCells
 5471              		.thumb
 5472              		.thumb_func
 5474              	sixtop_removeCells:
 5475              	.LFB24:
1632:build/openmote-cc2538_armgcc/openstack/02b-MAChigh/sixtop.c **** 
1633:build/openmote-cc2538_armgcc/openstack/02b-MAChigh/sixtop.c **** bool sixtop_removeCells(
1634:build/openmote-cc2538_armgcc/openstack/02b-MAChigh/sixtop.c ****       uint8_t      slotframeID,
1635:build/openmote-cc2538_armgcc/openstack/02b-MAChigh/sixtop.c ****       cellInfo_ht* cellList,
1636:build/openmote-cc2538_armgcc/openstack/02b-MAChigh/sixtop.c ****       open_addr_t* previousHop,
1637:build/openmote-cc2538_armgcc/openstack/02b-MAChigh/sixtop.c ****     uint8_t      cellOptions
1638:build/openmote-cc2538_armgcc/openstack/02b-MAChigh/sixtop.c ****    ){
 5476              		.loc 1 1638 0
 5477              		.cfi_startproc
 5478              		@ args = 0, pretend = 0, frame = 40
 5479              		@ frame_needed = 1, uses_anonymous_args = 0
 5480 22a8 B0B5     		push	{r4, r5, r7, lr}
 5481              		.cfi_def_cfa_offset 16
 5482              		.cfi_offset 4, -16
 5483              		.cfi_offset 5, -12
 5484              		.cfi_offset 7, -8
 5485              		.cfi_offset 14, -4
 5486 22aa 8AB0     		sub	sp, sp, #40
 5487              		.cfi_def_cfa_offset 56
 5488 22ac 00AF     		add	r7, sp, #0
 5489              		.cfi_def_cfa_register 7
 5490 22ae B960     		str	r1, [r7, #8]
 5491 22b0 7A60     		str	r2, [r7, #4]
 5492 22b2 1A46     		mov	r2, r3
 5493 22b4 0346     		mov	r3, r0
 5494 22b6 FB73     		strb	r3, [r7, #15]
 5495 22b8 1346     		mov	r3, r2
 5496 22ba BB73     		strb	r3, [r7, #14]
1639:build/openmote-cc2538_armgcc/openstack/02b-MAChigh/sixtop.c ****     uint8_t     i;
1640:build/openmote-cc2538_armgcc/openstack/02b-MAChigh/sixtop.c ****     open_addr_t temp_neighbor;
1641:build/openmote-cc2538_armgcc/openstack/02b-MAChigh/sixtop.c ****     bool        hasCellsRemoved;
1642:build/openmote-cc2538_armgcc/openstack/02b-MAChigh/sixtop.c **** 
1643:build/openmote-cc2538_armgcc/openstack/02b-MAChigh/sixtop.c ****     memcpy(&temp_neighbor,previousHop,sizeof(open_addr_t));
 5497              		.loc 1 1643 0
 5498 22bc 7B68     		ldr	r3, [r7, #4]
 5499 22be 07F11404 		add	r4, r7, #20
 5500 22c2 1D46     		mov	r5, r3
 5501 22c4 2868     		ldr	r0, [r5]	@ unaligned
 5502 22c6 6968     		ldr	r1, [r5, #4]	@ unaligned
 5503 22c8 AA68     		ldr	r2, [r5, #8]	@ unaligned
 5504 22ca EB68     		ldr	r3, [r5, #12]	@ unaligned
 5505 22cc 0FC4     		stmia	r4!, {r0, r1, r2, r3}
 5506 22ce 2B7C     		ldrb	r3, [r5, #16]
 5507 22d0 2370     		strb	r3, [r4]
1644:build/openmote-cc2538_armgcc/openstack/02b-MAChigh/sixtop.c **** 
1645:build/openmote-cc2538_armgcc/openstack/02b-MAChigh/sixtop.c ****     hasCellsRemoved = FALSE;
 5508              		.loc 1 1645 0
 5509 22d2 0023     		movs	r3, #0
 5510 22d4 87F82630 		strb	r3, [r7, #38]
1646:build/openmote-cc2538_armgcc/openstack/02b-MAChigh/sixtop.c ****     // delete cells from schedule
1647:build/openmote-cc2538_armgcc/openstack/02b-MAChigh/sixtop.c ****     for(i=0;i<CELLLIST_MAX_LEN;i++){
 5511              		.loc 1 1647 0
 5512 22d8 0023     		movs	r3, #0
 5513 22da 87F82730 		strb	r3, [r7, #39]
 5514 22de 21E0     		b	.L263
 5515              	.L265:
1648:build/openmote-cc2538_armgcc/openstack/02b-MAChigh/sixtop.c ****         if (cellList[i].isUsed){
 5516              		.loc 1 1648 0
 5517 22e0 97F82720 		ldrb	r2, [r7, #39]	@ zero_extendqisi2
 5518 22e4 1346     		mov	r3, r2
 5519 22e6 9B00     		lsls	r3, r3, #2
 5520 22e8 1344     		add	r3, r3, r2
 5521 22ea BA68     		ldr	r2, [r7, #8]
 5522 22ec 1344     		add	r3, r3, r2
 5523 22ee 1B78     		ldrb	r3, [r3]	@ zero_extendqisi2
 5524 22f0 002B     		cmp	r3, #0
 5525 22f2 12D0     		beq	.L264
1649:build/openmote-cc2538_armgcc/openstack/02b-MAChigh/sixtop.c ****             hasCellsRemoved = TRUE;
 5526              		.loc 1 1649 0
 5527 22f4 0123     		movs	r3, #1
 5528 22f6 87F82630 		strb	r3, [r7, #38]
1650:build/openmote-cc2538_armgcc/openstack/02b-MAChigh/sixtop.c ****             schedule_removeActiveSlot(
1651:build/openmote-cc2538_armgcc/openstack/02b-MAChigh/sixtop.c ****                 cellList[i].slotoffset,
 5529              		.loc 1 1651 0
 5530 22fa 97F82720 		ldrb	r2, [r7, #39]	@ zero_extendqisi2
 5531 22fe 1346     		mov	r3, r2
 5532 2300 9B00     		lsls	r3, r3, #2
 5533 2302 1344     		add	r3, r3, r2
 5534 2304 BA68     		ldr	r2, [r7, #8]
 5535 2306 1344     		add	r3, r3, r2
1650:build/openmote-cc2538_armgcc/openstack/02b-MAChigh/sixtop.c ****             schedule_removeActiveSlot(
 5536              		.loc 1 1650 0
 5537 2308 B3F80130 		ldrh	r3, [r3, #1]	@ unaligned
 5538 230c 9AB2     		uxth	r2, r3
 5539 230e 07F11403 		add	r3, r7, #20
 5540 2312 1046     		mov	r0, r2
 5541 2314 1946     		mov	r1, r3
 5542 2316 FFF7FEFF 		bl	schedule_removeActiveSlot
 5543              	.L264:
1647:build/openmote-cc2538_armgcc/openstack/02b-MAChigh/sixtop.c ****         if (cellList[i].isUsed){
 5544              		.loc 1 1647 0 discriminator 2
 5545 231a 97F82730 		ldrb	r3, [r7, #39]	@ zero_extendqisi2
 5546 231e 0133     		adds	r3, r3, #1
 5547 2320 87F82730 		strb	r3, [r7, #39]
 5548              	.L263:
1647:build/openmote-cc2538_armgcc/openstack/02b-MAChigh/sixtop.c ****         if (cellList[i].isUsed){
 5549              		.loc 1 1647 0 is_stmt 0 discriminator 1
 5550 2324 97F82730 		ldrb	r3, [r7, #39]	@ zero_extendqisi2
 5551 2328 042B     		cmp	r3, #4
 5552 232a D9D9     		bls	.L265
1652:build/openmote-cc2538_armgcc/openstack/02b-MAChigh/sixtop.c ****                 &temp_neighbor
1653:build/openmote-cc2538_armgcc/openstack/02b-MAChigh/sixtop.c ****             );
1654:build/openmote-cc2538_armgcc/openstack/02b-MAChigh/sixtop.c ****         }
1655:build/openmote-cc2538_armgcc/openstack/02b-MAChigh/sixtop.c ****     }
1656:build/openmote-cc2538_armgcc/openstack/02b-MAChigh/sixtop.c **** 
1657:build/openmote-cc2538_armgcc/openstack/02b-MAChigh/sixtop.c ****     return hasCellsRemoved;
 5553              		.loc 1 1657 0 is_stmt 1
 5554 232c 97F82630 		ldrb	r3, [r7, #38]	@ zero_extendqisi2
1658:build/openmote-cc2538_armgcc/openstack/02b-MAChigh/sixtop.c **** }
 5555              		.loc 1 1658 0
 5556 2330 1846     		mov	r0, r3
 5557 2332 2837     		adds	r7, r7, #40
 5558              		.cfi_def_cfa_offset 16
 5559 2334 BD46     		mov	sp, r7
 5560              		.cfi_def_cfa_register 13
 5561              		@ sp needed
 5562 2336 B0BD     		pop	{r4, r5, r7, pc}
 5563              		.cfi_endproc
 5564              	.LFE24:
 5566              		.align	2
 5567              		.global	sixtop_areAvailableCellsToBeScheduled
 5568              		.thumb
 5569              		.thumb_func
 5571              	sixtop_areAvailableCellsToBeScheduled:
 5572              	.LFB25:
1659:build/openmote-cc2538_armgcc/openstack/02b-MAChigh/sixtop.c **** 
1660:build/openmote-cc2538_armgcc/openstack/02b-MAChigh/sixtop.c **** bool sixtop_areAvailableCellsToBeScheduled(
1661:build/openmote-cc2538_armgcc/openstack/02b-MAChigh/sixtop.c ****       uint8_t      frameID,
1662:build/openmote-cc2538_armgcc/openstack/02b-MAChigh/sixtop.c ****       uint8_t      numOfCells,
1663:build/openmote-cc2538_armgcc/openstack/02b-MAChigh/sixtop.c ****       cellInfo_ht* cellList
1664:build/openmote-cc2538_armgcc/openstack/02b-MAChigh/sixtop.c **** ){
 5573              		.loc 1 1664 0
 5574              		.cfi_startproc
 5575              		@ args = 0, pretend = 0, frame = 16
 5576              		@ frame_needed = 1, uses_anonymous_args = 0
 5577 2338 80B5     		push	{r7, lr}
 5578              		.cfi_def_cfa_offset 8
 5579              		.cfi_offset 7, -8
 5580              		.cfi_offset 14, -4
 5581 233a 84B0     		sub	sp, sp, #16
 5582              		.cfi_def_cfa_offset 24
 5583 233c 00AF     		add	r7, sp, #0
 5584              		.cfi_def_cfa_register 7
 5585 233e 0346     		mov	r3, r0
 5586 2340 3A60     		str	r2, [r7]
 5587 2342 FB71     		strb	r3, [r7, #7]
 5588 2344 0B46     		mov	r3, r1
 5589 2346 BB71     		strb	r3, [r7, #6]
1665:build/openmote-cc2538_armgcc/openstack/02b-MAChigh/sixtop.c ****     uint8_t i;
1666:build/openmote-cc2538_armgcc/openstack/02b-MAChigh/sixtop.c ****     uint8_t numbOfavailableCells;
1667:build/openmote-cc2538_armgcc/openstack/02b-MAChigh/sixtop.c ****     bool    available;
1668:build/openmote-cc2538_armgcc/openstack/02b-MAChigh/sixtop.c **** 
1669:build/openmote-cc2538_armgcc/openstack/02b-MAChigh/sixtop.c ****     i          = 0;
 5590              		.loc 1 1669 0
 5591 2348 0023     		movs	r3, #0
 5592 234a FB73     		strb	r3, [r7, #15]
1670:build/openmote-cc2538_armgcc/openstack/02b-MAChigh/sixtop.c ****     numbOfavailableCells = 0;
 5593              		.loc 1 1670 0
 5594 234c 0023     		movs	r3, #0
 5595 234e BB73     		strb	r3, [r7, #14]
1671:build/openmote-cc2538_armgcc/openstack/02b-MAChigh/sixtop.c ****     available  = FALSE;
 5596              		.loc 1 1671 0
 5597 2350 0023     		movs	r3, #0
 5598 2352 7B73     		strb	r3, [r7, #13]
1672:build/openmote-cc2538_armgcc/openstack/02b-MAChigh/sixtop.c **** 
1673:build/openmote-cc2538_armgcc/openstack/02b-MAChigh/sixtop.c ****     if(numOfCells == 0 || numOfCells>CELLLIST_MAX_LEN){
 5599              		.loc 1 1673 0
 5600 2354 BB79     		ldrb	r3, [r7, #6]	@ zero_extendqisi2
 5601 2356 002B     		cmp	r3, #0
 5602 2358 02D0     		beq	.L268
 5603              		.loc 1 1673 0 is_stmt 0 discriminator 1
 5604 235a BB79     		ldrb	r3, [r7, #6]	@ zero_extendqisi2
 5605 235c 052B     		cmp	r3, #5
 5606 235e 02D9     		bls	.L269
 5607              	.L268:
1674:build/openmote-cc2538_armgcc/openstack/02b-MAChigh/sixtop.c ****         // log wrong parameter error TODO
1675:build/openmote-cc2538_armgcc/openstack/02b-MAChigh/sixtop.c **** 
1676:build/openmote-cc2538_armgcc/openstack/02b-MAChigh/sixtop.c ****         available = FALSE;
 5608              		.loc 1 1676 0 is_stmt 1
 5609 2360 0023     		movs	r3, #0
 5610 2362 7B73     		strb	r3, [r7, #13]
 5611 2364 3BE0     		b	.L270
 5612              	.L269:
1677:build/openmote-cc2538_armgcc/openstack/02b-MAChigh/sixtop.c ****     } else {
1678:build/openmote-cc2538_armgcc/openstack/02b-MAChigh/sixtop.c ****         do {
1679:build/openmote-cc2538_armgcc/openstack/02b-MAChigh/sixtop.c ****             if(schedule_isSlotOffsetAvailable(cellList[i].slotoffset) == TRUE){
 5613              		.loc 1 1679 0
 5614 2366 FA7B     		ldrb	r2, [r7, #15]	@ zero_extendqisi2
 5615 2368 1346     		mov	r3, r2
 5616 236a 9B00     		lsls	r3, r3, #2
 5617 236c 1344     		add	r3, r3, r2
 5618 236e 3A68     		ldr	r2, [r7]
 5619 2370 1344     		add	r3, r3, r2
 5620 2372 B3F80130 		ldrh	r3, [r3, #1]	@ unaligned
 5621 2376 9BB2     		uxth	r3, r3
 5622 2378 1846     		mov	r0, r3
 5623 237a FFF7FEFF 		bl	schedule_isSlotOffsetAvailable
 5624 237e 0346     		mov	r3, r0
 5625 2380 002B     		cmp	r3, #0
 5626 2382 03D0     		beq	.L271
1680:build/openmote-cc2538_armgcc/openstack/02b-MAChigh/sixtop.c ****                 numbOfavailableCells++;
 5627              		.loc 1 1680 0
 5628 2384 BB7B     		ldrb	r3, [r7, #14]	@ zero_extendqisi2
 5629 2386 0133     		adds	r3, r3, #1
 5630 2388 BB73     		strb	r3, [r7, #14]
 5631 238a 07E0     		b	.L272
 5632              	.L271:
1681:build/openmote-cc2538_armgcc/openstack/02b-MAChigh/sixtop.c ****             } else {
1682:build/openmote-cc2538_armgcc/openstack/02b-MAChigh/sixtop.c ****                 // mark the cell
1683:build/openmote-cc2538_armgcc/openstack/02b-MAChigh/sixtop.c ****                 cellList[i].isUsed = FALSE;
 5633              		.loc 1 1683 0
 5634 238c FA7B     		ldrb	r2, [r7, #15]	@ zero_extendqisi2
 5635 238e 1346     		mov	r3, r2
 5636 2390 9B00     		lsls	r3, r3, #2
 5637 2392 1344     		add	r3, r3, r2
 5638 2394 3A68     		ldr	r2, [r7]
 5639 2396 1344     		add	r3, r3, r2
 5640 2398 0022     		movs	r2, #0
 5641 239a 1A70     		strb	r2, [r3]
 5642              	.L272:
1684:build/openmote-cc2538_armgcc/openstack/02b-MAChigh/sixtop.c ****             }
1685:build/openmote-cc2538_armgcc/openstack/02b-MAChigh/sixtop.c ****             i++;
 5643              		.loc 1 1685 0
 5644 239c FB7B     		ldrb	r3, [r7, #15]	@ zero_extendqisi2
 5645 239e 0133     		adds	r3, r3, #1
 5646 23a0 FB73     		strb	r3, [r7, #15]
1686:build/openmote-cc2538_armgcc/openstack/02b-MAChigh/sixtop.c ****         }while(i<CELLLIST_MAX_LEN && numbOfavailableCells!=numOfCells);
 5647              		.loc 1 1686 0
 5648 23a2 FB7B     		ldrb	r3, [r7, #15]	@ zero_extendqisi2
 5649 23a4 042B     		cmp	r3, #4
 5650 23a6 03D8     		bhi	.L273
 5651              		.loc 1 1686 0 is_stmt 0 discriminator 1
 5652 23a8 BA7B     		ldrb	r2, [r7, #14]	@ zero_extendqisi2
 5653 23aa BB79     		ldrb	r3, [r7, #6]	@ zero_extendqisi2
 5654 23ac 9A42     		cmp	r2, r3
 5655 23ae DAD1     		bne	.L269
 5656              	.L273:
1687:build/openmote-cc2538_armgcc/openstack/02b-MAChigh/sixtop.c **** 
1688:build/openmote-cc2538_armgcc/openstack/02b-MAChigh/sixtop.c ****         if(numbOfavailableCells>0){
 5657              		.loc 1 1688 0 is_stmt 1
 5658 23b0 BB7B     		ldrb	r3, [r7, #14]	@ zero_extendqisi2
 5659 23b2 002B     		cmp	r3, #0
 5660 23b4 11D0     		beq	.L274
1689:build/openmote-cc2538_armgcc/openstack/02b-MAChigh/sixtop.c ****             // there are more than one cell can be added.
1690:build/openmote-cc2538_armgcc/openstack/02b-MAChigh/sixtop.c ****             // the rest cells in the list will not be used
1691:build/openmote-cc2538_armgcc/openstack/02b-MAChigh/sixtop.c ****             while(i<CELLLIST_MAX_LEN){
 5661              		.loc 1 1691 0
 5662 23b6 0AE0     		b	.L275
 5663              	.L276:
1692:build/openmote-cc2538_armgcc/openstack/02b-MAChigh/sixtop.c ****                 cellList[i].isUsed = FALSE;
 5664              		.loc 1 1692 0
 5665 23b8 FA7B     		ldrb	r2, [r7, #15]	@ zero_extendqisi2
 5666 23ba 1346     		mov	r3, r2
 5667 23bc 9B00     		lsls	r3, r3, #2
 5668 23be 1344     		add	r3, r3, r2
 5669 23c0 3A68     		ldr	r2, [r7]
 5670 23c2 1344     		add	r3, r3, r2
 5671 23c4 0022     		movs	r2, #0
 5672 23c6 1A70     		strb	r2, [r3]
1693:build/openmote-cc2538_armgcc/openstack/02b-MAChigh/sixtop.c ****                 i++;
 5673              		.loc 1 1693 0
 5674 23c8 FB7B     		ldrb	r3, [r7, #15]	@ zero_extendqisi2
 5675 23ca 0133     		adds	r3, r3, #1
 5676 23cc FB73     		strb	r3, [r7, #15]
 5677              	.L275:
1691:build/openmote-cc2538_armgcc/openstack/02b-MAChigh/sixtop.c ****                 cellList[i].isUsed = FALSE;
 5678              		.loc 1 1691 0
 5679 23ce FB7B     		ldrb	r3, [r7, #15]	@ zero_extendqisi2
 5680 23d0 042B     		cmp	r3, #4
 5681 23d2 F1D9     		bls	.L276
1694:build/openmote-cc2538_armgcc/openstack/02b-MAChigh/sixtop.c ****             }
1695:build/openmote-cc2538_armgcc/openstack/02b-MAChigh/sixtop.c ****             available = TRUE;
 5682              		.loc 1 1695 0
 5683 23d4 0123     		movs	r3, #1
 5684 23d6 7B73     		strb	r3, [r7, #13]
 5685 23d8 01E0     		b	.L270
 5686              	.L274:
1696:build/openmote-cc2538_armgcc/openstack/02b-MAChigh/sixtop.c ****         } else {
1697:build/openmote-cc2538_armgcc/openstack/02b-MAChigh/sixtop.c ****             // No cell in the list is able to be added
1698:build/openmote-cc2538_armgcc/openstack/02b-MAChigh/sixtop.c ****             available = FALSE;
 5687              		.loc 1 1698 0
 5688 23da 0023     		movs	r3, #0
 5689 23dc 7B73     		strb	r3, [r7, #13]
 5690              	.L270:
1699:build/openmote-cc2538_armgcc/openstack/02b-MAChigh/sixtop.c ****         }
1700:build/openmote-cc2538_armgcc/openstack/02b-MAChigh/sixtop.c ****     }
1701:build/openmote-cc2538_armgcc/openstack/02b-MAChigh/sixtop.c ****     return available;
 5691              		.loc 1 1701 0
 5692 23de 7B7B     		ldrb	r3, [r7, #13]	@ zero_extendqisi2
1702:build/openmote-cc2538_armgcc/openstack/02b-MAChigh/sixtop.c **** }
 5693              		.loc 1 1702 0
 5694 23e0 1846     		mov	r0, r3
 5695 23e2 1037     		adds	r7, r7, #16
 5696              		.cfi_def_cfa_offset 8
 5697 23e4 BD46     		mov	sp, r7
 5698              		.cfi_def_cfa_register 13
 5699              		@ sp needed
 5700 23e6 80BD     		pop	{r7, pc}
 5701              		.cfi_endproc
 5702              	.LFE25:
 5704              		.align	2
 5705              		.global	sixtop_areAvailableCellsToBeRemoved
 5706              		.thumb
 5707              		.thumb_func
 5709              	sixtop_areAvailableCellsToBeRemoved:
 5710              	.LFB26:
1703:build/openmote-cc2538_armgcc/openstack/02b-MAChigh/sixtop.c **** 
1704:build/openmote-cc2538_armgcc/openstack/02b-MAChigh/sixtop.c **** bool sixtop_areAvailableCellsToBeRemoved(
1705:build/openmote-cc2538_armgcc/openstack/02b-MAChigh/sixtop.c ****     uint8_t      frameID,
1706:build/openmote-cc2538_armgcc/openstack/02b-MAChigh/sixtop.c ****     uint8_t      numOfCells,
1707:build/openmote-cc2538_armgcc/openstack/02b-MAChigh/sixtop.c ****     cellInfo_ht* cellList,
1708:build/openmote-cc2538_armgcc/openstack/02b-MAChigh/sixtop.c ****     open_addr_t* neighbor,
1709:build/openmote-cc2538_armgcc/openstack/02b-MAChigh/sixtop.c ****     uint8_t      cellOptions
1710:build/openmote-cc2538_armgcc/openstack/02b-MAChigh/sixtop.c **** ){
 5711              		.loc 1 1710 0
 5712              		.cfi_startproc
 5713              		@ args = 4, pretend = 0, frame = 56
 5714              		@ frame_needed = 1, uses_anonymous_args = 0
 5715 23e8 80B5     		push	{r7, lr}
 5716              		.cfi_def_cfa_offset 8
 5717              		.cfi_offset 7, -8
 5718              		.cfi_offset 14, -4
 5719 23ea 8EB0     		sub	sp, sp, #56
 5720              		.cfi_def_cfa_offset 64
 5721 23ec 00AF     		add	r7, sp, #0
 5722              		.cfi_def_cfa_register 7
 5723 23ee BA60     		str	r2, [r7, #8]
 5724 23f0 7B60     		str	r3, [r7, #4]
 5725 23f2 0346     		mov	r3, r0
 5726 23f4 FB73     		strb	r3, [r7, #15]
 5727 23f6 0B46     		mov	r3, r1
 5728 23f8 BB73     		strb	r3, [r7, #14]
1711:build/openmote-cc2538_armgcc/openstack/02b-MAChigh/sixtop.c ****     uint8_t              i;
1712:build/openmote-cc2538_armgcc/openstack/02b-MAChigh/sixtop.c ****     uint8_t              numOfavailableCells;
1713:build/openmote-cc2538_armgcc/openstack/02b-MAChigh/sixtop.c ****     bool                 available;
1714:build/openmote-cc2538_armgcc/openstack/02b-MAChigh/sixtop.c ****     slotinfo_element_t   info;
1715:build/openmote-cc2538_armgcc/openstack/02b-MAChigh/sixtop.c ****     cellType_t           type;
1716:build/openmote-cc2538_armgcc/openstack/02b-MAChigh/sixtop.c ****     open_addr_t          anycastAddr;
1717:build/openmote-cc2538_armgcc/openstack/02b-MAChigh/sixtop.c **** 
1718:build/openmote-cc2538_armgcc/openstack/02b-MAChigh/sixtop.c ****     i          = 0;
 5729              		.loc 1 1718 0
 5730 23fa 0023     		movs	r3, #0
 5731 23fc 87F83730 		strb	r3, [r7, #55]
1719:build/openmote-cc2538_armgcc/openstack/02b-MAChigh/sixtop.c ****     numOfavailableCells = 0;
 5732              		.loc 1 1719 0
 5733 2400 0023     		movs	r3, #0
 5734 2402 87F83630 		strb	r3, [r7, #54]
1720:build/openmote-cc2538_armgcc/openstack/02b-MAChigh/sixtop.c ****     available           = TRUE;
 5735              		.loc 1 1720 0
 5736 2406 0123     		movs	r3, #1
 5737 2408 87F83530 		strb	r3, [r7, #53]
1721:build/openmote-cc2538_armgcc/openstack/02b-MAChigh/sixtop.c **** 
1722:build/openmote-cc2538_armgcc/openstack/02b-MAChigh/sixtop.c ****     // translate cellOptions to cell type
1723:build/openmote-cc2538_armgcc/openstack/02b-MAChigh/sixtop.c ****     if (cellOptions == CELLOPTIONS_TX){
 5738              		.loc 1 1723 0
 5739 240c 97F84030 		ldrb	r3, [r7, #64]	@ zero_extendqisi2
 5740 2410 012B     		cmp	r3, #1
 5741 2412 02D1     		bne	.L279
1724:build/openmote-cc2538_armgcc/openstack/02b-MAChigh/sixtop.c ****         type = CELLTYPE_TX;
 5742              		.loc 1 1724 0
 5743 2414 0123     		movs	r3, #1
 5744 2416 87F83430 		strb	r3, [r7, #52]
 5745              	.L279:
1725:build/openmote-cc2538_armgcc/openstack/02b-MAChigh/sixtop.c ****     }
1726:build/openmote-cc2538_armgcc/openstack/02b-MAChigh/sixtop.c ****     if (cellOptions == CELLOPTIONS_RX){
 5746              		.loc 1 1726 0
 5747 241a 97F84030 		ldrb	r3, [r7, #64]	@ zero_extendqisi2
 5748 241e 022B     		cmp	r3, #2
 5749 2420 02D1     		bne	.L280
1727:build/openmote-cc2538_armgcc/openstack/02b-MAChigh/sixtop.c ****         type = CELLTYPE_RX;
 5750              		.loc 1 1727 0
 5751 2422 0223     		movs	r3, #2
 5752 2424 87F83430 		strb	r3, [r7, #52]
 5753              	.L280:
1728:build/openmote-cc2538_armgcc/openstack/02b-MAChigh/sixtop.c ****     }
1729:build/openmote-cc2538_armgcc/openstack/02b-MAChigh/sixtop.c ****     if (cellOptions == (CELLOPTIONS_TX | CELLOPTIONS_RX | CELLOPTIONS_SHARED)){
 5754              		.loc 1 1729 0
 5755 2428 97F84030 		ldrb	r3, [r7, #64]	@ zero_extendqisi2
 5756 242c 072B     		cmp	r3, #7
 5757 242e 0BD1     		bne	.L281
1730:build/openmote-cc2538_armgcc/openstack/02b-MAChigh/sixtop.c ****         type = CELLTYPE_TXRX;
 5758              		.loc 1 1730 0
 5759 2430 0323     		movs	r3, #3
 5760 2432 87F83430 		strb	r3, [r7, #52]
1731:build/openmote-cc2538_armgcc/openstack/02b-MAChigh/sixtop.c ****         memset(&anycastAddr,0,sizeof(open_addr_t));
 5761              		.loc 1 1731 0
 5762 2436 07F11003 		add	r3, r7, #16
 5763 243a 1846     		mov	r0, r3
 5764 243c 0021     		movs	r1, #0
 5765 243e 1122     		movs	r2, #17
 5766 2440 FFF7FEFF 		bl	memset
1732:build/openmote-cc2538_armgcc/openstack/02b-MAChigh/sixtop.c ****         anycastAddr.type = ADDR_ANYCAST;
 5767              		.loc 1 1732 0
 5768 2444 0623     		movs	r3, #6
 5769 2446 3B74     		strb	r3, [r7, #16]
 5770              	.L281:
1733:build/openmote-cc2538_armgcc/openstack/02b-MAChigh/sixtop.c ****     }
1734:build/openmote-cc2538_armgcc/openstack/02b-MAChigh/sixtop.c **** 
1735:build/openmote-cc2538_armgcc/openstack/02b-MAChigh/sixtop.c ****     if(numOfCells == 0 || numOfCells>CELLLIST_MAX_LEN){
 5771              		.loc 1 1735 0
 5772 2448 BB7B     		ldrb	r3, [r7, #14]	@ zero_extendqisi2
 5773 244a 002B     		cmp	r3, #0
 5774 244c 02D0     		beq	.L282
 5775              		.loc 1 1735 0 is_stmt 0 discriminator 1
 5776 244e BB7B     		ldrb	r3, [r7, #14]	@ zero_extendqisi2
 5777 2450 052B     		cmp	r3, #5
 5778 2452 03D9     		bls	.L283
 5779              	.L282:
1736:build/openmote-cc2538_armgcc/openstack/02b-MAChigh/sixtop.c ****         // log wrong parameter error TODO
1737:build/openmote-cc2538_armgcc/openstack/02b-MAChigh/sixtop.c ****         available = FALSE;
 5780              		.loc 1 1737 0 is_stmt 1
 5781 2454 0023     		movs	r3, #0
 5782 2456 87F83530 		strb	r3, [r7, #53]
 5783 245a 76E0     		b	.L284
 5784              	.L283:
1738:build/openmote-cc2538_armgcc/openstack/02b-MAChigh/sixtop.c ****     } else {
1739:build/openmote-cc2538_armgcc/openstack/02b-MAChigh/sixtop.c ****         do {
1740:build/openmote-cc2538_armgcc/openstack/02b-MAChigh/sixtop.c ****             if (cellList[i].isUsed){
 5785              		.loc 1 1740 0
 5786 245c 97F83720 		ldrb	r2, [r7, #55]	@ zero_extendqisi2
 5787 2460 1346     		mov	r3, r2
 5788 2462 9B00     		lsls	r3, r3, #2
 5789 2464 1344     		add	r3, r3, r2
 5790 2466 BA68     		ldr	r2, [r7, #8]
 5791 2468 1344     		add	r3, r3, r2
 5792 246a 1B78     		ldrb	r3, [r3]	@ zero_extendqisi2
 5793 246c 002B     		cmp	r3, #0
 5794 246e 3ED0     		beq	.L285
1741:build/openmote-cc2538_armgcc/openstack/02b-MAChigh/sixtop.c ****                 memset(&info,0,sizeof(slotinfo_element_t));
 5795              		.loc 1 1741 0
 5796 2470 07F12403 		add	r3, r7, #36
 5797 2474 1846     		mov	r0, r3
 5798 2476 0021     		movs	r1, #0
 5799 2478 0E22     		movs	r2, #14
 5800 247a FFF7FEFF 		bl	memset
1742:build/openmote-cc2538_armgcc/openstack/02b-MAChigh/sixtop.c ****                 if (type==CELLTYPE_TXRX){
 5801              		.loc 1 1742 0
 5802 247e 97F83430 		ldrb	r3, [r7, #52]	@ zero_extendqisi2
 5803 2482 032B     		cmp	r3, #3
 5804 2484 13D1     		bne	.L286
1743:build/openmote-cc2538_armgcc/openstack/02b-MAChigh/sixtop.c ****                     schedule_getSlotInfo(cellList[i].slotoffset,&anycastAddr,&info);
 5805              		.loc 1 1743 0
 5806 2486 97F83720 		ldrb	r2, [r7, #55]	@ zero_extendqisi2
 5807 248a 1346     		mov	r3, r2
 5808 248c 9B00     		lsls	r3, r3, #2
 5809 248e 1344     		add	r3, r3, r2
 5810 2490 BA68     		ldr	r2, [r7, #8]
 5811 2492 1344     		add	r3, r3, r2
 5812 2494 B3F80130 		ldrh	r3, [r3, #1]	@ unaligned
 5813 2498 99B2     		uxth	r1, r3
 5814 249a 07F11002 		add	r2, r7, #16
 5815 249e 07F12403 		add	r3, r7, #36
 5816 24a2 0846     		mov	r0, r1
 5817 24a4 1146     		mov	r1, r2
 5818 24a6 1A46     		mov	r2, r3
 5819 24a8 FFF7FEFF 		bl	schedule_getSlotInfo
 5820 24ac 10E0     		b	.L287
 5821              	.L286:
1744:build/openmote-cc2538_armgcc/openstack/02b-MAChigh/sixtop.c ****                 } else {
1745:build/openmote-cc2538_armgcc/openstack/02b-MAChigh/sixtop.c ****                     schedule_getSlotInfo(cellList[i].slotoffset,neighbor,&info);
 5822              		.loc 1 1745 0
 5823 24ae 97F83720 		ldrb	r2, [r7, #55]	@ zero_extendqisi2
 5824 24b2 1346     		mov	r3, r2
 5825 24b4 9B00     		lsls	r3, r3, #2
 5826 24b6 1344     		add	r3, r3, r2
 5827 24b8 BA68     		ldr	r2, [r7, #8]
 5828 24ba 1344     		add	r3, r3, r2
 5829 24bc B3F80130 		ldrh	r3, [r3, #1]	@ unaligned
 5830 24c0 9AB2     		uxth	r2, r3
 5831 24c2 07F12403 		add	r3, r7, #36
 5832 24c6 1046     		mov	r0, r2
 5833 24c8 7968     		ldr	r1, [r7, #4]
 5834 24ca 1A46     		mov	r2, r3
 5835 24cc FFF7FEFF 		bl	schedule_getSlotInfo
 5836              	.L287:
1746:build/openmote-cc2538_armgcc/openstack/02b-MAChigh/sixtop.c ****                 }
1747:build/openmote-cc2538_armgcc/openstack/02b-MAChigh/sixtop.c ****                 if(info.link_type != type){
 5837              		.loc 1 1747 0
 5838 24d0 97F82C30 		ldrb	r3, [r7, #44]	@ zero_extendqisi2
 5839 24d4 97F83420 		ldrb	r2, [r7, #52]	@ zero_extendqisi2
 5840 24d8 9A42     		cmp	r2, r3
 5841 24da 03D0     		beq	.L288
1748:build/openmote-cc2538_armgcc/openstack/02b-MAChigh/sixtop.c ****                     available = FALSE;
 5842              		.loc 1 1748 0
 5843 24dc 0023     		movs	r3, #0
 5844 24de 87F83530 		strb	r3, [r7, #53]
1749:build/openmote-cc2538_armgcc/openstack/02b-MAChigh/sixtop.c ****                     break;
 5845              		.loc 1 1749 0
 5846 24e2 12E0     		b	.L289
 5847              	.L288:
1750:build/openmote-cc2538_armgcc/openstack/02b-MAChigh/sixtop.c ****                 } else {
1751:build/openmote-cc2538_armgcc/openstack/02b-MAChigh/sixtop.c ****                     numOfavailableCells++;
 5848              		.loc 1 1751 0
 5849 24e4 97F83630 		ldrb	r3, [r7, #54]	@ zero_extendqisi2
 5850 24e8 0133     		adds	r3, r3, #1
 5851 24ea 87F83630 		strb	r3, [r7, #54]
 5852              	.L285:
1752:build/openmote-cc2538_armgcc/openstack/02b-MAChigh/sixtop.c ****                 }
1753:build/openmote-cc2538_armgcc/openstack/02b-MAChigh/sixtop.c ****             }
1754:build/openmote-cc2538_armgcc/openstack/02b-MAChigh/sixtop.c ****             i++;
 5853              		.loc 1 1754 0
 5854 24ee 97F83730 		ldrb	r3, [r7, #55]	@ zero_extendqisi2
 5855 24f2 0133     		adds	r3, r3, #1
 5856 24f4 87F83730 		strb	r3, [r7, #55]
1755:build/openmote-cc2538_armgcc/openstack/02b-MAChigh/sixtop.c ****         }while(i<CELLLIST_MAX_LEN && numOfavailableCells<numOfCells);
 5857              		.loc 1 1755 0
 5858 24f8 97F83730 		ldrb	r3, [r7, #55]	@ zero_extendqisi2
 5859 24fc 042B     		cmp	r3, #4
 5860 24fe 04D8     		bhi	.L289
 5861              		.loc 1 1755 0 is_stmt 0 discriminator 1
 5862 2500 97F83620 		ldrb	r2, [r7, #54]	@ zero_extendqisi2
 5863 2504 BB7B     		ldrb	r3, [r7, #14]	@ zero_extendqisi2
 5864 2506 9A42     		cmp	r2, r3
 5865 2508 A8D3     		bcc	.L283
 5866              	.L289:
1756:build/openmote-cc2538_armgcc/openstack/02b-MAChigh/sixtop.c **** 
1757:build/openmote-cc2538_armgcc/openstack/02b-MAChigh/sixtop.c ****         if(numOfavailableCells==numOfCells && available == TRUE){
 5867              		.loc 1 1757 0 is_stmt 1
 5868 250a 97F83620 		ldrb	r2, [r7, #54]	@ zero_extendqisi2
 5869 250e BB7B     		ldrb	r3, [r7, #14]	@ zero_extendqisi2
 5870 2510 9A42     		cmp	r2, r3
 5871 2512 17D1     		bne	.L290
 5872              		.loc 1 1757 0 is_stmt 0 discriminator 1
 5873 2514 97F83530 		ldrb	r3, [r7, #53]	@ zero_extendqisi2
 5874 2518 002B     		cmp	r3, #0
 5875 251a 13D0     		beq	.L290
1758:build/openmote-cc2538_armgcc/openstack/02b-MAChigh/sixtop.c ****             //the rest link will not be scheduled, mark them as off type
1759:build/openmote-cc2538_armgcc/openstack/02b-MAChigh/sixtop.c ****             while(i<CELLLIST_MAX_LEN){
 5876              		.loc 1 1759 0 is_stmt 1
 5877 251c 0DE0     		b	.L291
 5878              	.L292:
1760:build/openmote-cc2538_armgcc/openstack/02b-MAChigh/sixtop.c ****                 cellList[i].isUsed = FALSE;
 5879              		.loc 1 1760 0
 5880 251e 97F83720 		ldrb	r2, [r7, #55]	@ zero_extendqisi2
 5881 2522 1346     		mov	r3, r2
 5882 2524 9B00     		lsls	r3, r3, #2
 5883 2526 1344     		add	r3, r3, r2
 5884 2528 BA68     		ldr	r2, [r7, #8]
 5885 252a 1344     		add	r3, r3, r2
 5886 252c 0022     		movs	r2, #0
 5887 252e 1A70     		strb	r2, [r3]
1761:build/openmote-cc2538_armgcc/openstack/02b-MAChigh/sixtop.c ****                 i++;
 5888              		.loc 1 1761 0
 5889 2530 97F83730 		ldrb	r3, [r7, #55]	@ zero_extendqisi2
 5890 2534 0133     		adds	r3, r3, #1
 5891 2536 87F83730 		strb	r3, [r7, #55]
 5892              	.L291:
1759:build/openmote-cc2538_armgcc/openstack/02b-MAChigh/sixtop.c ****                 cellList[i].isUsed = FALSE;
 5893              		.loc 1 1759 0
 5894 253a 97F83730 		ldrb	r3, [r7, #55]	@ zero_extendqisi2
 5895 253e 042B     		cmp	r3, #4
 5896 2540 EDD9     		bls	.L292
1757:build/openmote-cc2538_armgcc/openstack/02b-MAChigh/sixtop.c ****             //the rest link will not be scheduled, mark them as off type
 5897              		.loc 1 1757 0
 5898 2542 02E0     		b	.L284
 5899              	.L290:
1762:build/openmote-cc2538_armgcc/openstack/02b-MAChigh/sixtop.c ****             }
1763:build/openmote-cc2538_armgcc/openstack/02b-MAChigh/sixtop.c ****         } else {
1764:build/openmote-cc2538_armgcc/openstack/02b-MAChigh/sixtop.c ****             // local schedule can't satisfy the bandwidth of cell request
1765:build/openmote-cc2538_armgcc/openstack/02b-MAChigh/sixtop.c ****             available = FALSE;
 5900              		.loc 1 1765 0
 5901 2544 0023     		movs	r3, #0
 5902 2546 87F83530 		strb	r3, [r7, #53]
 5903              	.L284:
1766:build/openmote-cc2538_armgcc/openstack/02b-MAChigh/sixtop.c ****         }
1767:build/openmote-cc2538_armgcc/openstack/02b-MAChigh/sixtop.c ****    }
1768:build/openmote-cc2538_armgcc/openstack/02b-MAChigh/sixtop.c ****    return available;
 5904              		.loc 1 1768 0
 5905 254a 97F83530 		ldrb	r3, [r7, #53]	@ zero_extendqisi2
1769:build/openmote-cc2538_armgcc/openstack/02b-MAChigh/sixtop.c **** }
 5906              		.loc 1 1769 0
 5907 254e 1846     		mov	r0, r3
 5908 2550 3837     		adds	r7, r7, #56
 5909              		.cfi_def_cfa_offset 8
 5910 2552 BD46     		mov	sp, r7
 5911              		.cfi_def_cfa_register 13
 5912              		@ sp needed
 5913 2554 80BD     		pop	{r7, pc}
 5914              		.cfi_endproc
 5915              	.LFE26:
 5917              	.Letext0:
 5918              		.file 2 "/usr/include/newlib/machine/_default_types.h"
 5919              		.file 3 "/usr/include/newlib/sys/_stdint.h"
 5920              		.file 4 "inc/opendefs.h"
 5921              		.file 5 "drivers/common/opentimers.h"
 5922              		.file 6 "build/openmote-cc2538_armgcc/openstack/02b-MAChigh/sixtop.h"
 5923              		.file 7 "openstack/02a-MAClow/IEEE802154.h"
 5924              		.file 8 "openstack/02b-MAChigh/schedule.h"
 5925              		.file 9 "kernel/scheduler.h"
 5926              		.file 10 "bsp/boards/openmote-cc2538/board_info.h"
 5927              		.file 11 "openstack/03b-IPv6/icmpv6rpl.h"
 5928              		.file 12 "openstack/02a-MAClow/IEEE802154E.h"
 5929              		.file 13 "openstack/cross-layers/idmanager.h"
DEFINED SYMBOLS
                            *ABS*:0000000000000000 sixtop.c
     /tmp/cc7GdltN.s:19     .rodata:0000000000000000 $d
     /tmp/cc7GdltN.s:22     .rodata:0000000000000000 rreg_uriquery
     /tmp/cc7GdltN.s:27     .rodata:0000000000000008 infoBoardname
     /tmp/cc7GdltN.s:32     .rodata:0000000000000010 infouCName
     /tmp/cc7GdltN.s:37     .rodata:0000000000000018 infoRadioName
     /tmp/cc7GdltN.s:42     .rodata:0000000000000024 infoStackName
     /tmp/cc7GdltN.s:47     .rodata:0000000000000030 all_routers_multicast
     /tmp/cc7GdltN.s:67     .rodata:0000000000000040 chTemplate_default
     /tmp/cc7GdltN.s:87     .rodata:0000000000000050 ebIEsBytestream
     /tmp/cc7GdltN.s:119    .rodata:000000000000006c linklocalprefix
                            *COM*:0000000000000050 sixtop_vars
     /tmp/cc7GdltN.s:130    .text:0000000000000000 $t
     /tmp/cc7GdltN.s:135    .text:0000000000000000 sixtop_init
     /tmp/cc7GdltN.s:237    .text:000000000000009c $d
     /tmp/cc7GdltN.s:1731   .text:00000000000008fc sixtop_sendingEb_timer_cb
     /tmp/cc7GdltN.s:1770   .text:0000000000000918 sixtop_maintenance_timer_cb
     /tmp/cc7GdltN.s:243    .text:00000000000000a8 $t
     /tmp/cc7GdltN.s:248    .text:00000000000000a8 sixtop_setKaPeriod
     /tmp/cc7GdltN.s:292    .text:00000000000000d4 $d
     /tmp/cc7GdltN.s:296    .text:00000000000000d8 $t
     /tmp/cc7GdltN.s:301    .text:00000000000000d8 sixtop_setEBPeriod
     /tmp/cc7GdltN.s:340    .text:00000000000000fc $d
     /tmp/cc7GdltN.s:344    .text:0000000000000100 $t
     /tmp/cc7GdltN.s:349    .text:0000000000000100 sixtop_setSFcallback
     /tmp/cc7GdltN.s:396    .text:0000000000000130 $d
     /tmp/cc7GdltN.s:400    .text:0000000000000134 $t
     /tmp/cc7GdltN.s:405    .text:0000000000000134 sixtop_request
     /tmp/cc7GdltN.s:818    .text:00000000000003d8 $d
     /tmp/cc7GdltN.s:821    .text:00000000000003dc $t
     /tmp/cc7GdltN.s:1070   .text:0000000000000574 sixtop_send
     /tmp/cc7GdltN.s:990    .text:0000000000000510 $d
     /tmp/cc7GdltN.s:997    .text:000000000000052c $t
     /tmp/cc7GdltN.s:1061   .text:0000000000000570 $d
     /tmp/cc7GdltN.s:1065   .text:0000000000000574 $t
     /tmp/cc7GdltN.s:1638   .text:000000000000087c sixtop_send_internal
     /tmp/cc7GdltN.s:1199   .text:0000000000000640 task_sixtopNotifSendDone
     /tmp/cc7GdltN.s:2523   .text:0000000000000d3c sixtop_six2six_sendDone
     /tmp/cc7GdltN.s:1322   .text:00000000000006fc $d
     /tmp/cc7GdltN.s:1326   .text:0000000000000700 $t
     /tmp/cc7GdltN.s:1331   .text:0000000000000700 task_sixtopNotifReceive
     /tmp/cc7GdltN.s:2770   .text:0000000000000ed0 sixtop_processIEs
     /tmp/cc7GdltN.s:1505   .text:000000000000080c debugPrint_myDAGrank
     /tmp/cc7GdltN.s:1550   .text:0000000000000834 debugPrint_kaPeriod
     /tmp/cc7GdltN.s:1587   .text:0000000000000858 $d
     /tmp/cc7GdltN.s:1591   .text:000000000000085c $t
     /tmp/cc7GdltN.s:1596   .text:000000000000085c sixtop_setIsResponseEnabled
     /tmp/cc7GdltN.s:1629   .text:0000000000000878 $d
     /tmp/cc7GdltN.s:1633   .text:000000000000087c $t
     /tmp/cc7GdltN.s:1722   .text:00000000000008f8 $d
     /tmp/cc7GdltN.s:1726   .text:00000000000008fc $t
     /tmp/cc7GdltN.s:1761   .text:0000000000000914 $d
     /tmp/cc7GdltN.s:1848   .text:0000000000000950 timer_sixtop_sendEb_fired
     /tmp/cc7GdltN.s:1765   .text:0000000000000918 $t
     /tmp/cc7GdltN.s:1800   .text:0000000000000930 $d
     /tmp/cc7GdltN.s:1889   .text:000000000000097c timer_sixtop_management_fired
     /tmp/cc7GdltN.s:1804   .text:0000000000000934 $t
     /tmp/cc7GdltN.s:1809   .text:0000000000000934 sixtop_timeout_timer_cb
     /tmp/cc7GdltN.s:1839   .text:000000000000094c $d
     /tmp/cc7GdltN.s:2463   .text:0000000000000cf4 timer_sixtop_six2six_timeout_fired
     /tmp/cc7GdltN.s:1843   .text:0000000000000950 $t
     /tmp/cc7GdltN.s:1949   .text:00000000000009c4 sixtop_sendEB
     /tmp/cc7GdltN.s:2307   .text:0000000000000c10 sixtop_sendKA
     /tmp/cc7GdltN.s:1939   .text:00000000000009bc $d
     /tmp/cc7GdltN.s:1944   .text:00000000000009c4 $t
     /tmp/cc7GdltN.s:2296   .text:0000000000000c04 $d
     /tmp/cc7GdltN.s:2302   .text:0000000000000c10 $t
     /tmp/cc7GdltN.s:2454   .text:0000000000000cf0 $d
     /tmp/cc7GdltN.s:2458   .text:0000000000000cf4 $t
     /tmp/cc7GdltN.s:2513   .text:0000000000000d34 $d
     /tmp/cc7GdltN.s:2518   .text:0000000000000d3c $t
     /tmp/cc7GdltN.s:2569   .text:0000000000000d78 $d
     /tmp/cc7GdltN.s:2575   .text:0000000000000d90 $t
     /tmp/cc7GdltN.s:5331   .text:00000000000021c4 sixtop_addCells
     /tmp/cc7GdltN.s:5474   .text:00000000000022a8 sixtop_removeCells
     /tmp/cc7GdltN.s:2760   .text:0000000000000ec8 $d
     /tmp/cc7GdltN.s:2765   .text:0000000000000ed0 $t
     /tmp/cc7GdltN.s:3015   .text:0000000000001044 sixtop_six2six_notifyReceive
     /tmp/cc7GdltN.s:3454   .text:000000000000137c $d
     /tmp/cc7GdltN.s:3457   .text:0000000000001380 $t
     /tmp/cc7GdltN.s:5571   .text:0000000000002338 sixtop_areAvailableCellsToBeScheduled
     /tmp/cc7GdltN.s:5709   .text:00000000000023e8 sixtop_areAvailableCellsToBeRemoved
     /tmp/cc7GdltN.s:4710   .text:0000000000001d08 $d
     /tmp/cc7GdltN.s:4716   .text:0000000000001d20 $t
     /tmp/cc7GdltN.s:4906   .text:0000000000001e8c $d
     /tmp/cc7GdltN.s:4910   .text:0000000000001e94 $t
     /tmp/cc7GdltN.s:5320   .text:00000000000021b8 $d
     /tmp/cc7GdltN.s:5326   .text:00000000000021c4 $t
                     .debug_frame:0000000000000010 $d
                           .group:0000000000000000 wm4.0.c64f62fd52e22d94e2a6dd9c07eeb43e
                           .group:0000000000000000 wm4.features.h.22.2e382148a0560adabf236cddd4e880f4
                           .group:0000000000000000 wm4._default_types.h.15.933e8edd27a65e0b69af4a865eb623d2
                           .group:0000000000000000 wm4._intsup.h.10.35a45952db64d30146faa63a55c20c1c
                           .group:0000000000000000 wm4._stdint.h.10.f76354baea1c7088202064e6f3d4f5e3
                           .group:0000000000000000 wm4.stdint.h.23.373a9d32a9e4c2e88fd347156532d281
                           .group:0000000000000000 wm4.toolchain_defs.h.2.e5fd326231d01413e5361944b26cde07
                           .group:0000000000000000 wm4.newlib.h.8.2702bca278809460f0af6fba1d84eb68
                           .group:0000000000000000 wm4.config.h.220.a09b0b0de3c25be3f39d71990e617bff
                           .group:0000000000000000 wm4._ansi.h.23.84af8eb8cd468d25cc5f45f5eb13ec51
                           .group:0000000000000000 wm4.stddef.h.39.daafd3d79fe2f3a84d2d73d7d4e706f8
                           .group:0000000000000000 wm4.lock.h.2.9bc98482741e5e2a9450b12934a684ea
                           .group:0000000000000000 wm4._types.h.54.d3d34a3b7f3cc230cd159baf022b4b08
                           .group:0000000000000000 wm4.stddef.h.158.61317cdbfb4026324507d123a50b0fd6
                           .group:0000000000000000 wm4.reent.h.17.8bd9e4098e0428508c282cad794fae43
                           .group:0000000000000000 wm4.cdefs.h.47.e6563c1c3863188ba4ac4eaa2c85b6f1
                           .group:0000000000000000 wm4.string.h.15.dab3980bf35408a4c507182805e2de3a
                           .group:0000000000000000 wm4.stddef.h.158.a7efb00f6cbc6f43213b50e183c9830c
                           .group:0000000000000000 wm4.stdbool.h.29.1c9ee6859ce8145f7838a4f2549ccec2
                           .group:0000000000000000 wm4.hw_types.h.67.b10589a0806dcc2d274d6fab6b736519
                           .group:0000000000000000 wm4.interrupt.h.41.272fc4ec0e276feb439e7974d0f77eaf
                           .group:0000000000000000 wm4.board_info.h.22.b5c65365e76c8378df4f4b0ed59cbc39
                           .group:0000000000000000 wm4.opendefs.h.23.47191652995b7fa35f12da40c3552cda
                           .group:0000000000000000 wm4.opentimers.h.8.4ddb88466c5d61beaa6758270059ffcf
                           .group:0000000000000000 wm4.sixtop.h.17.5b7dfb7ceba80358fb88ed53e947efbb
                           .group:0000000000000000 wm4.stdio.h.27.3fc80220048df77954e38daec3bb9670
                           .group:0000000000000000 wm4.stdarg.h.34.3a23a216c0c293b3d2ea2e89281481e6
                           .group:0000000000000000 wm4.types.h.24.b2be5f53932a9c9d07787288b29b6d75
                           .group:0000000000000000 wm4.types.h.2.e9cec8c90ab35f77d9f499e06ae02400
                           .group:0000000000000000 wm4.types.h.82.82b71f3f44c70e3a459d0f66642b05eb
                           .group:0000000000000000 wm4.stdio.h.2.4aa87247282eca6c8f36f9de33d8df1a
                           .group:0000000000000000 wm4.stdio.h.68.a99a2db1e55915cfd1b035cc1e9fcff1
                           .group:0000000000000000 wm4.stdarg.h.31.48e922dd0aaedfb616aafd8a7b7a4949
                           .group:0000000000000000 wm4.openserial.h.32.c1b1c4db184af4a79a2b8ff62d908d4d
                           .group:0000000000000000 wm4.IEEE802154.h.2.38fb510ed33a23a9a0660164e6dfab69
                           .group:0000000000000000 wm4.icmpv6rpl.h.2.f31802bcce2a0808bf5db39ce34f4322
                           .group:0000000000000000 wm4.neighbors.h.15.2a77b1a66a5fa826e9ff514b195b0560
                           .group:0000000000000000 wm4.schedule.h.2.1e56c0a55af41b0871de1bf3babafbff
                           .group:0000000000000000 wm4.IEEE802154E.h.31.4df44943e63b807d05253db7aa10079f
                           .group:0000000000000000 wm4.iphc.h.2.9e7d9d56ac728a3c0b3014283a59854e
                           .group:0000000000000000 wm4.scheduler.h.2.d8d85f436d0d4b3991926a15b8490cf4
                           .group:0000000000000000 wm4.IEEE802154_security.h.35.26212369b49c5e0c3bd4f8181fa7153e
                           .group:0000000000000000 wm4.idmanager.h.2.8c0e2159b32ef3125cbb1e984805cbfe

UNDEFINED SYMBOLS
openrandom_get16b
opentimers_create
opentimers_scheduleIn
openqueue_getFreePacketBuffer
openserial_printError
memcpy
packetfunctions_reserveHeaderSize
neighbors_getSequenceNumber
openqueue_freePacketBuffer
idmanager_getIsDAGroot
icmpv6rpl_getPreferredParentEui64
schedule_hasDedicatedCellToNeighbor
IEEE802154_security_getSecurityLevel
IEEE802154_security_getDataKeyIndex
openqueue_sixtopGetSentPacket
openserial_printCritical
neighbors_indicateTx
iphc_sendDone
openqueue_sixtopGetReceivedPacket
neighbors_indicateRx
packetfunctions_tossHeader
iphc_receive
icmpv6rpl_getMyDAGrank
openserial_printStatus
packetfunctions_isBroadcastMulticast
ieee802154_prependHeader
scheduler_push_task
neighbors_getNumNeighbors
neighbors_removeOld
memset
ieee154e_isSynch
IEEE802154_security_isConfigured
icmpv6rpl_daoSent
openqueue_removeAllCreatedBy
schedule_getFrameLength
IEEE802154_security_getBeaconKeyIndex
neighbors_getKANeighbor
schedule_removeAllCells
neighbors_resetSequenceNumber
opentimers_cancel
neighbors_updateSequenceNumber
schedule_getOneCellAfterOffset
schedule_getNumberOfFreeEntries
openserial_printInfo
schedule_addActiveSlot
schedule_removeActiveSlot
schedule_isSlotOffsetAvailable
schedule_getSlotInfo
