   1              		.syntax unified
   2              		.cpu cortex-m3
   3              		.fpu softvfp
   4              		.eabi_attribute 20, 1
   5              		.eabi_attribute 21, 1
   6              		.eabi_attribute 23, 3
   7              		.eabi_attribute 24, 1
   8              		.eabi_attribute 25, 1
   9              		.eabi_attribute 26, 1
  10              		.eabi_attribute 30, 6
  11              		.eabi_attribute 34, 1
  12              		.eabi_attribute 18, 4
  13              		.thumb
  14              		.file	"sixtop.c"
  15              		.text
  16              	.Ltext0:
  17              		.cfi_sections	.debug_frame
  18              		.section	.rodata
  19              		.align	2
  22              	rreg_uriquery:
  23 0000 683D7563 		.ascii	"h=ucb\000"
  23      6200
  24 0006 0000     		.align	2
  27              	infoBoardname:
  28 0008 43433235 		.ascii	"CC2538\000"
  28      333800
  29 000f 00       		.align	2
  32              	infouCName:
  33 0010 43433235 		.ascii	"CC2538\000"
  33      333800
  34 0017 00       		.align	2
  37              	infoRadioName:
  38 0018 43433235 		.ascii	"CC2538 SoC\000"
  38      33382053 
  38      6F4300
  39 0023 00       		.align	2
  42              	infoStackName:
  43 0024 4F70656E 		.ascii	"OpenWSN \000"
  43      57534E20 
  43      00
  44 002d 000000   		.align	2
  47              	all_routers_multicast:
  48 0030 FF       		.byte	-1
  49 0031 02       		.byte	2
  50 0032 00       		.byte	0
  51 0033 00       		.byte	0
  52 0034 00       		.byte	0
  53 0035 00       		.byte	0
  54 0036 00       		.byte	0
  55 0037 00       		.byte	0
  56 0038 00       		.byte	0
  57 0039 00       		.byte	0
  58 003a 00       		.byte	0
  59 003b 00       		.byte	0
  60 003c 00       		.byte	0
  61 003d 00       		.byte	0
  62 003e 00       		.byte	0
  63 003f 1A       		.byte	26
  64              		.align	2
  67              	chTemplate_default:
  68 0040 05       		.byte	5
  69 0041 06       		.byte	6
  70 0042 0C       		.byte	12
  71 0043 07       		.byte	7
  72 0044 0F       		.byte	15
  73 0045 04       		.byte	4
  74 0046 0E       		.byte	14
  75 0047 0B       		.byte	11
  76 0048 08       		.byte	8
  77 0049 00       		.byte	0
  78 004a 01       		.byte	1
  79 004b 02       		.byte	2
  80 004c 0D       		.byte	13
  81 004d 03       		.byte	3
  82 004e 09       		.byte	9
  83 004f 0A       		.byte	10
  84              		.align	2
  87              	ebIEsBytestream:
  88 0050 1A       		.byte	26
  89 0051 88       		.byte	-120
  90 0052 06       		.byte	6
  91 0053 1A       		.byte	26
  92 0054 00       		.byte	0
  93 0055 00       		.byte	0
  94 0056 00       		.byte	0
  95 0057 00       		.byte	0
  96 0058 00       		.byte	0
  97 0059 00       		.byte	0
  98 005a 01       		.byte	1
  99 005b 1C       		.byte	28
 100 005c 00       		.byte	0
 101 005d 01       		.byte	1
 102 005e C8       		.byte	-56
 103 005f 00       		.byte	0
 104 0060 0A       		.byte	10
 105 0061 1B       		.byte	27
 106 0062 01       		.byte	1
 107 0063 00       		.byte	0
 108 0064 65       		.byte	101
 109 0065 00       		.byte	0
 110 0066 01       		.byte	1
 111 0067 00       		.byte	0
 112 0068 00       		.byte	0
 113 0069 00       		.byte	0
 114 006a 00       		.byte	0
 115 006b 0F       		.byte	15
 116              		.align	2
 119              	linklocalprefix:
 120 006c FE       		.byte	-2
 121 006d 80       		.byte	-128
 122 006e 00       		.byte	0
 123 006f 00       		.byte	0
 124 0070 00       		.byte	0
 125 0071 00       		.byte	0
 126 0072 00       		.byte	0
 127 0073 00       		.byte	0
 128              		.comm	sixtop_vars,80,4
 129              		.text
 130              		.align	2
 131              		.global	sixtop_init
 132              		.thumb
 133              		.thumb_func
 135              	sixtop_init:
 136              	.LFB0:
 137              		.file 1 "build/openmote-cc2538_armgcc/openstack/02b-MAChigh/sixtop.c"
   1:build/openmote-cc2538_armgcc/openstack/02b-MAChigh/sixtop.c **** #include "opendefs.h"
   2:build/openmote-cc2538_armgcc/openstack/02b-MAChigh/sixtop.c **** #include "sixtop.h"
   3:build/openmote-cc2538_armgcc/openstack/02b-MAChigh/sixtop.c **** #include "openserial.h"
   4:build/openmote-cc2538_armgcc/openstack/02b-MAChigh/sixtop.c **** #include "openqueue.h"
   5:build/openmote-cc2538_armgcc/openstack/02b-MAChigh/sixtop.c **** #include "neighbors.h"
   6:build/openmote-cc2538_armgcc/openstack/02b-MAChigh/sixtop.c **** #include "IEEE802154E.h"
   7:build/openmote-cc2538_armgcc/openstack/02b-MAChigh/sixtop.c **** #include "iphc.h"
   8:build/openmote-cc2538_armgcc/openstack/02b-MAChigh/sixtop.c **** #include "packetfunctions.h"
   9:build/openmote-cc2538_armgcc/openstack/02b-MAChigh/sixtop.c **** #include "openrandom.h"
  10:build/openmote-cc2538_armgcc/openstack/02b-MAChigh/sixtop.c **** #include "scheduler.h"
  11:build/openmote-cc2538_armgcc/openstack/02b-MAChigh/sixtop.c **** #include "opentimers.h"
  12:build/openmote-cc2538_armgcc/openstack/02b-MAChigh/sixtop.c **** #include "debugpins.h"
  13:build/openmote-cc2538_armgcc/openstack/02b-MAChigh/sixtop.c **** #include "leds.h"
  14:build/openmote-cc2538_armgcc/openstack/02b-MAChigh/sixtop.c **** #include "IEEE802154.h"
  15:build/openmote-cc2538_armgcc/openstack/02b-MAChigh/sixtop.c **** #include "IEEE802154_security.h"
  16:build/openmote-cc2538_armgcc/openstack/02b-MAChigh/sixtop.c **** #include "idmanager.h"
  17:build/openmote-cc2538_armgcc/openstack/02b-MAChigh/sixtop.c **** #include "schedule.h"
  18:build/openmote-cc2538_armgcc/openstack/02b-MAChigh/sixtop.c **** 
  19:build/openmote-cc2538_armgcc/openstack/02b-MAChigh/sixtop.c **** //=========================== define ==========================================
  20:build/openmote-cc2538_armgcc/openstack/02b-MAChigh/sixtop.c **** 
  21:build/openmote-cc2538_armgcc/openstack/02b-MAChigh/sixtop.c **** // in seconds: sixtop maintaince is called every 30 seconds
  22:build/openmote-cc2538_armgcc/openstack/02b-MAChigh/sixtop.c **** #define MAINTENANCE_PERIOD        30
  23:build/openmote-cc2538_armgcc/openstack/02b-MAChigh/sixtop.c **** 
  24:build/openmote-cc2538_armgcc/openstack/02b-MAChigh/sixtop.c **** //=========================== variables =======================================
  25:build/openmote-cc2538_armgcc/openstack/02b-MAChigh/sixtop.c **** 
  26:build/openmote-cc2538_armgcc/openstack/02b-MAChigh/sixtop.c **** sixtop_vars_t sixtop_vars;
  27:build/openmote-cc2538_armgcc/openstack/02b-MAChigh/sixtop.c **** 
  28:build/openmote-cc2538_armgcc/openstack/02b-MAChigh/sixtop.c **** //=========================== prototypes ======================================
  29:build/openmote-cc2538_armgcc/openstack/02b-MAChigh/sixtop.c **** 
  30:build/openmote-cc2538_armgcc/openstack/02b-MAChigh/sixtop.c **** // send internal
  31:build/openmote-cc2538_armgcc/openstack/02b-MAChigh/sixtop.c **** owerror_t     sixtop_send_internal(
  32:build/openmote-cc2538_armgcc/openstack/02b-MAChigh/sixtop.c ****    OpenQueueEntry_t*    msg,
  33:build/openmote-cc2538_armgcc/openstack/02b-MAChigh/sixtop.c ****    bool                 payloadIEPresent
  34:build/openmote-cc2538_armgcc/openstack/02b-MAChigh/sixtop.c **** );
  35:build/openmote-cc2538_armgcc/openstack/02b-MAChigh/sixtop.c **** 
  36:build/openmote-cc2538_armgcc/openstack/02b-MAChigh/sixtop.c **** // timer interrupt callbacks
  37:build/openmote-cc2538_armgcc/openstack/02b-MAChigh/sixtop.c **** void          sixtop_maintenance_timer_cb(opentimers_id_t id);
  38:build/openmote-cc2538_armgcc/openstack/02b-MAChigh/sixtop.c **** void          sixtop_timeout_timer_cb(opentimers_id_t id);
  39:build/openmote-cc2538_armgcc/openstack/02b-MAChigh/sixtop.c **** void          sixtop_sendingEb_timer_cb(opentimers_id_t id);
  40:build/openmote-cc2538_armgcc/openstack/02b-MAChigh/sixtop.c **** 
  41:build/openmote-cc2538_armgcc/openstack/02b-MAChigh/sixtop.c **** //=== EB/KA task
  42:build/openmote-cc2538_armgcc/openstack/02b-MAChigh/sixtop.c **** 
  43:build/openmote-cc2538_armgcc/openstack/02b-MAChigh/sixtop.c **** void          timer_sixtop_sendEb_fired(void);
  44:build/openmote-cc2538_armgcc/openstack/02b-MAChigh/sixtop.c **** void          timer_sixtop_management_fired(void);
  45:build/openmote-cc2538_armgcc/openstack/02b-MAChigh/sixtop.c **** void          sixtop_sendEB(void);
  46:build/openmote-cc2538_armgcc/openstack/02b-MAChigh/sixtop.c **** void          sixtop_sendKA(void);
  47:build/openmote-cc2538_armgcc/openstack/02b-MAChigh/sixtop.c **** 
  48:build/openmote-cc2538_armgcc/openstack/02b-MAChigh/sixtop.c **** //=== six2six task
  49:build/openmote-cc2538_armgcc/openstack/02b-MAChigh/sixtop.c **** 
  50:build/openmote-cc2538_armgcc/openstack/02b-MAChigh/sixtop.c **** void          timer_sixtop_six2six_timeout_fired(void);
  51:build/openmote-cc2538_armgcc/openstack/02b-MAChigh/sixtop.c **** void          sixtop_six2six_sendDone(
  52:build/openmote-cc2538_armgcc/openstack/02b-MAChigh/sixtop.c ****    OpenQueueEntry_t*    msg,
  53:build/openmote-cc2538_armgcc/openstack/02b-MAChigh/sixtop.c ****    owerror_t            error
  54:build/openmote-cc2538_armgcc/openstack/02b-MAChigh/sixtop.c **** );
  55:build/openmote-cc2538_armgcc/openstack/02b-MAChigh/sixtop.c **** bool          sixtop_processIEs(
  56:build/openmote-cc2538_armgcc/openstack/02b-MAChigh/sixtop.c ****    OpenQueueEntry_t*    pkt,
  57:build/openmote-cc2538_armgcc/openstack/02b-MAChigh/sixtop.c ****    uint16_t*            lenIE
  58:build/openmote-cc2538_armgcc/openstack/02b-MAChigh/sixtop.c **** );
  59:build/openmote-cc2538_armgcc/openstack/02b-MAChigh/sixtop.c **** void sixtop_six2six_notifyReceive(
  60:build/openmote-cc2538_armgcc/openstack/02b-MAChigh/sixtop.c ****    uint8_t              version,
  61:build/openmote-cc2538_armgcc/openstack/02b-MAChigh/sixtop.c ****    uint8_t              type,
  62:build/openmote-cc2538_armgcc/openstack/02b-MAChigh/sixtop.c ****    uint8_t              code,
  63:build/openmote-cc2538_armgcc/openstack/02b-MAChigh/sixtop.c ****    uint8_t              sfId,
  64:build/openmote-cc2538_armgcc/openstack/02b-MAChigh/sixtop.c ****    uint8_t              seqNum,
  65:build/openmote-cc2538_armgcc/openstack/02b-MAChigh/sixtop.c ****    uint8_t              ptr,
  66:build/openmote-cc2538_armgcc/openstack/02b-MAChigh/sixtop.c ****    uint8_t              length,
  67:build/openmote-cc2538_armgcc/openstack/02b-MAChigh/sixtop.c ****    OpenQueueEntry_t*    pkt
  68:build/openmote-cc2538_armgcc/openstack/02b-MAChigh/sixtop.c **** );
  69:build/openmote-cc2538_armgcc/openstack/02b-MAChigh/sixtop.c **** 
  70:build/openmote-cc2538_armgcc/openstack/02b-MAChigh/sixtop.c **** //=== helper functions
  71:build/openmote-cc2538_armgcc/openstack/02b-MAChigh/sixtop.c **** 
  72:build/openmote-cc2538_armgcc/openstack/02b-MAChigh/sixtop.c **** bool          sixtop_addCells(
  73:build/openmote-cc2538_armgcc/openstack/02b-MAChigh/sixtop.c ****    uint8_t              slotframeID,
  74:build/openmote-cc2538_armgcc/openstack/02b-MAChigh/sixtop.c ****    cellInfo_ht*         cellList,
  75:build/openmote-cc2538_armgcc/openstack/02b-MAChigh/sixtop.c ****    open_addr_t*         previousHop,
  76:build/openmote-cc2538_armgcc/openstack/02b-MAChigh/sixtop.c ****    uint8_t              cellOptions
  77:build/openmote-cc2538_armgcc/openstack/02b-MAChigh/sixtop.c **** );
  78:build/openmote-cc2538_armgcc/openstack/02b-MAChigh/sixtop.c **** bool          sixtop_removeCells(
  79:build/openmote-cc2538_armgcc/openstack/02b-MAChigh/sixtop.c ****    uint8_t              slotframeID,
  80:build/openmote-cc2538_armgcc/openstack/02b-MAChigh/sixtop.c ****    cellInfo_ht*         cellList,
  81:build/openmote-cc2538_armgcc/openstack/02b-MAChigh/sixtop.c ****    open_addr_t*         previousHop,
  82:build/openmote-cc2538_armgcc/openstack/02b-MAChigh/sixtop.c ****    uint8_t              cellOptions
  83:build/openmote-cc2538_armgcc/openstack/02b-MAChigh/sixtop.c **** );
  84:build/openmote-cc2538_armgcc/openstack/02b-MAChigh/sixtop.c **** bool          sixtop_areAvailableCellsToBeScheduled(
  85:build/openmote-cc2538_armgcc/openstack/02b-MAChigh/sixtop.c ****     uint8_t              frameID,
  86:build/openmote-cc2538_armgcc/openstack/02b-MAChigh/sixtop.c ****     uint8_t              numOfCells,
  87:build/openmote-cc2538_armgcc/openstack/02b-MAChigh/sixtop.c ****     cellInfo_ht*         cellList
  88:build/openmote-cc2538_armgcc/openstack/02b-MAChigh/sixtop.c **** );
  89:build/openmote-cc2538_armgcc/openstack/02b-MAChigh/sixtop.c **** bool sixtop_areAvailableCellsToBeRemoved(
  90:build/openmote-cc2538_armgcc/openstack/02b-MAChigh/sixtop.c ****     uint8_t      frameID,
  91:build/openmote-cc2538_armgcc/openstack/02b-MAChigh/sixtop.c ****     uint8_t      numOfCells,
  92:build/openmote-cc2538_armgcc/openstack/02b-MAChigh/sixtop.c ****     cellInfo_ht* cellList,
  93:build/openmote-cc2538_armgcc/openstack/02b-MAChigh/sixtop.c ****     open_addr_t* neighbor,
  94:build/openmote-cc2538_armgcc/openstack/02b-MAChigh/sixtop.c ****     uint8_t      cellOptions
  95:build/openmote-cc2538_armgcc/openstack/02b-MAChigh/sixtop.c **** );
  96:build/openmote-cc2538_armgcc/openstack/02b-MAChigh/sixtop.c **** 
  97:build/openmote-cc2538_armgcc/openstack/02b-MAChigh/sixtop.c **** //=========================== public ==========================================
  98:build/openmote-cc2538_armgcc/openstack/02b-MAChigh/sixtop.c **** 
  99:build/openmote-cc2538_armgcc/openstack/02b-MAChigh/sixtop.c **** void sixtop_init(void) {
 138              		.loc 1 99 0
 139              		.cfi_startproc
 140              		@ args = 0, pretend = 0, frame = 0
 141              		@ frame_needed = 1, uses_anonymous_args = 0
 142 0000 80B5     		push	{r7, lr}
 143              		.cfi_def_cfa_offset 8
 144              		.cfi_offset 7, -8
 145              		.cfi_offset 14, -4
 146 0002 82B0     		sub	sp, sp, #8
 147              		.cfi_def_cfa_offset 16
 148 0004 02AF     		add	r7, sp, #8
 149              		.cfi_def_cfa 7, 8
 100:build/openmote-cc2538_armgcc/openstack/02b-MAChigh/sixtop.c **** 
 101:build/openmote-cc2538_armgcc/openstack/02b-MAChigh/sixtop.c ****     sixtop_vars.periodMaintenance  = 872 +(openrandom_get16b()&0xff);
 150              		.loc 1 101 0
 151 0006 FFF7FEFF 		bl	openrandom_get16b
 152 000a 0346     		mov	r3, r0
 153 000c DBB2     		uxtb	r3, r3
 154 000e 9BB2     		uxth	r3, r3
 155 0010 03F55A73 		add	r3, r3, #872
 156 0014 9AB2     		uxth	r2, r3
 157 0016 214B     		ldr	r3, .L2
 158 0018 1A80     		strh	r2, [r3]	@ movhi
 102:build/openmote-cc2538_armgcc/openstack/02b-MAChigh/sixtop.c ****     sixtop_vars.busySendingKA      = FALSE;
 159              		.loc 1 102 0
 160 001a 204B     		ldr	r3, .L2
 161 001c 0022     		movs	r2, #0
 162 001e 9A70     		strb	r2, [r3, #2]
 103:build/openmote-cc2538_armgcc/openstack/02b-MAChigh/sixtop.c ****     sixtop_vars.busySendingEB      = FALSE;
 163              		.loc 1 103 0
 164 0020 1E4B     		ldr	r3, .L2
 165 0022 0022     		movs	r2, #0
 166 0024 DA70     		strb	r2, [r3, #3]
 104:build/openmote-cc2538_armgcc/openstack/02b-MAChigh/sixtop.c ****     sixtop_vars.dsn                = 0;
 167              		.loc 1 104 0
 168 0026 1D4B     		ldr	r3, .L2
 169 0028 0022     		movs	r2, #0
 170 002a 1A71     		strb	r2, [r3, #4]
 105:build/openmote-cc2538_armgcc/openstack/02b-MAChigh/sixtop.c ****     sixtop_vars.mgtTaskCounter     = 0;
 171              		.loc 1 105 0
 172 002c 1B4B     		ldr	r3, .L2
 173 002e 0022     		movs	r2, #0
 174 0030 5A71     		strb	r2, [r3, #5]
 106:build/openmote-cc2538_armgcc/openstack/02b-MAChigh/sixtop.c ****     sixtop_vars.kaPeriod           = MAXKAPERIOD;
 175              		.loc 1 106 0
 176 0032 1A4B     		ldr	r3, .L2
 177 0034 4FF47A72 		mov	r2, #1000
 178 0038 5A81     		strh	r2, [r3, #10]	@ movhi
 107:build/openmote-cc2538_armgcc/openstack/02b-MAChigh/sixtop.c ****     sixtop_vars.isResponseEnabled  = TRUE;
 179              		.loc 1 107 0
 180 003a 184B     		ldr	r3, .L2
 181 003c 0122     		movs	r2, #1
 182 003e 1A74     		strb	r2, [r3, #16]
 108:build/openmote-cc2538_armgcc/openstack/02b-MAChigh/sixtop.c ****     sixtop_vars.six2six_state      = SIX_STATE_IDLE;
 183              		.loc 1 108 0
 184 0040 164B     		ldr	r3, .L2
 185 0042 0022     		movs	r2, #0
 186 0044 9A73     		strb	r2, [r3, #14]
 109:build/openmote-cc2538_armgcc/openstack/02b-MAChigh/sixtop.c **** 
 110:build/openmote-cc2538_armgcc/openstack/02b-MAChigh/sixtop.c ****     sixtop_vars.ebSendingTimerId   = opentimers_create();
 187              		.loc 1 110 0
 188 0046 FFF7FEFF 		bl	opentimers_create
 189 004a 0346     		mov	r3, r0
 190 004c 1A46     		mov	r2, r3
 191 004e 134B     		ldr	r3, .L2
 192 0050 DA71     		strb	r2, [r3, #7]
 111:build/openmote-cc2538_armgcc/openstack/02b-MAChigh/sixtop.c ****     opentimers_scheduleIn(
 193              		.loc 1 111 0
 194 0052 124B     		ldr	r3, .L2
 195 0054 DA79     		ldrb	r2, [r3, #7]	@ zero_extendqisi2
 196 0056 124B     		ldr	r3, .L2+4
 197 0058 0093     		str	r3, [sp]
 198 005a 1046     		mov	r0, r2
 199 005c 40F2F231 		movw	r1, #1010
 200 0060 0022     		movs	r2, #0
 201 0062 0023     		movs	r3, #0
 202 0064 FFF7FEFF 		bl	opentimers_scheduleIn
 112:build/openmote-cc2538_armgcc/openstack/02b-MAChigh/sixtop.c ****         sixtop_vars.ebSendingTimerId,
 113:build/openmote-cc2538_armgcc/openstack/02b-MAChigh/sixtop.c ****         SLOTFRAME_LENGTH*SLOTDURATION,
 114:build/openmote-cc2538_armgcc/openstack/02b-MAChigh/sixtop.c ****         TIME_MS,
 115:build/openmote-cc2538_armgcc/openstack/02b-MAChigh/sixtop.c ****         TIMER_PERIODIC,
 116:build/openmote-cc2538_armgcc/openstack/02b-MAChigh/sixtop.c ****         sixtop_sendingEb_timer_cb
 117:build/openmote-cc2538_armgcc/openstack/02b-MAChigh/sixtop.c ****     );
 118:build/openmote-cc2538_armgcc/openstack/02b-MAChigh/sixtop.c **** 
 119:build/openmote-cc2538_armgcc/openstack/02b-MAChigh/sixtop.c ****     sixtop_vars.maintenanceTimerId   = opentimers_create();
 203              		.loc 1 119 0
 204 0068 FFF7FEFF 		bl	opentimers_create
 205 006c 0346     		mov	r3, r0
 206 006e 1A46     		mov	r2, r3
 207 0070 0A4B     		ldr	r3, .L2
 208 0072 1A72     		strb	r2, [r3, #8]
 120:build/openmote-cc2538_armgcc/openstack/02b-MAChigh/sixtop.c ****     opentimers_scheduleIn(
 209              		.loc 1 120 0
 210 0074 094B     		ldr	r3, .L2
 211 0076 1A7A     		ldrb	r2, [r3, #8]	@ zero_extendqisi2
 121:build/openmote-cc2538_armgcc/openstack/02b-MAChigh/sixtop.c ****         sixtop_vars.maintenanceTimerId,
 122:build/openmote-cc2538_armgcc/openstack/02b-MAChigh/sixtop.c ****         sixtop_vars.periodMaintenance,
 212              		.loc 1 122 0
 213 0078 084B     		ldr	r3, .L2
 214 007a 1B88     		ldrh	r3, [r3]
 120:build/openmote-cc2538_armgcc/openstack/02b-MAChigh/sixtop.c ****     opentimers_scheduleIn(
 215              		.loc 1 120 0
 216 007c 1946     		mov	r1, r3
 217 007e 094B     		ldr	r3, .L2+8
 218 0080 0093     		str	r3, [sp]
 219 0082 1046     		mov	r0, r2
 220 0084 0022     		movs	r2, #0
 221 0086 0023     		movs	r3, #0
 222 0088 FFF7FEFF 		bl	opentimers_scheduleIn
 123:build/openmote-cc2538_armgcc/openstack/02b-MAChigh/sixtop.c ****         TIME_MS,
 124:build/openmote-cc2538_armgcc/openstack/02b-MAChigh/sixtop.c ****         TIMER_PERIODIC,
 125:build/openmote-cc2538_armgcc/openstack/02b-MAChigh/sixtop.c ****         sixtop_maintenance_timer_cb
 126:build/openmote-cc2538_armgcc/openstack/02b-MAChigh/sixtop.c ****     );
 127:build/openmote-cc2538_armgcc/openstack/02b-MAChigh/sixtop.c **** 
 128:build/openmote-cc2538_armgcc/openstack/02b-MAChigh/sixtop.c ****     sixtop_vars.timeoutTimerId      =  opentimers_create();
 223              		.loc 1 128 0
 224 008c FFF7FEFF 		bl	opentimers_create
 225 0090 0346     		mov	r3, r0
 226 0092 1A46     		mov	r2, r3
 227 0094 014B     		ldr	r3, .L2
 228 0096 5A72     		strb	r2, [r3, #9]
 129:build/openmote-cc2538_armgcc/openstack/02b-MAChigh/sixtop.c **** }
 229              		.loc 1 129 0
 230 0098 BD46     		mov	sp, r7
 231              		.cfi_def_cfa_register 13
 232              		@ sp needed
 233 009a 80BD     		pop	{r7, pc}
 234              	.L3:
 235              		.align	2
 236              	.L2:
 237 009c 00000000 		.word	sixtop_vars
 238 00a0 00000000 		.word	sixtop_sendingEb_timer_cb
 239 00a4 00000000 		.word	sixtop_maintenance_timer_cb
 240              		.cfi_endproc
 241              	.LFE0:
 243              		.align	2
 244              		.global	sixtop_setKaPeriod
 245              		.thumb
 246              		.thumb_func
 248              	sixtop_setKaPeriod:
 249              	.LFB1:
 130:build/openmote-cc2538_armgcc/openstack/02b-MAChigh/sixtop.c **** 
 131:build/openmote-cc2538_armgcc/openstack/02b-MAChigh/sixtop.c **** void sixtop_setKaPeriod(uint16_t kaPeriod) {
 250              		.loc 1 131 0
 251              		.cfi_startproc
 252              		@ args = 0, pretend = 0, frame = 8
 253              		@ frame_needed = 1, uses_anonymous_args = 0
 254              		@ link register save eliminated.
 255 00a8 80B4     		push	{r7}
 256              		.cfi_def_cfa_offset 4
 257              		.cfi_offset 7, -4
 258 00aa 83B0     		sub	sp, sp, #12
 259              		.cfi_def_cfa_offset 16
 260 00ac 00AF     		add	r7, sp, #0
 261              		.cfi_def_cfa_register 7
 262 00ae 0346     		mov	r3, r0
 263 00b0 FB80     		strh	r3, [r7, #6]	@ movhi
 132:build/openmote-cc2538_armgcc/openstack/02b-MAChigh/sixtop.c ****     if(kaPeriod > MAXKAPERIOD) {
 264              		.loc 1 132 0
 265 00b2 FB88     		ldrh	r3, [r7, #6]
 266 00b4 B3F57A7F 		cmp	r3, #1000
 267 00b8 04D9     		bls	.L5
 133:build/openmote-cc2538_armgcc/openstack/02b-MAChigh/sixtop.c ****         sixtop_vars.kaPeriod = MAXKAPERIOD;
 268              		.loc 1 133 0
 269 00ba 064B     		ldr	r3, .L7
 270 00bc 4FF47A72 		mov	r2, #1000
 271 00c0 5A81     		strh	r2, [r3, #10]	@ movhi
 272 00c2 02E0     		b	.L4
 273              	.L5:
 134:build/openmote-cc2538_armgcc/openstack/02b-MAChigh/sixtop.c ****     } else {
 135:build/openmote-cc2538_armgcc/openstack/02b-MAChigh/sixtop.c ****         sixtop_vars.kaPeriod = kaPeriod;
 274              		.loc 1 135 0
 275 00c4 034A     		ldr	r2, .L7
 276 00c6 FB88     		ldrh	r3, [r7, #6]	@ movhi
 277 00c8 5381     		strh	r3, [r2, #10]	@ movhi
 278              	.L4:
 136:build/openmote-cc2538_armgcc/openstack/02b-MAChigh/sixtop.c ****     }
 137:build/openmote-cc2538_armgcc/openstack/02b-MAChigh/sixtop.c **** }
 279              		.loc 1 137 0
 280 00ca 0C37     		adds	r7, r7, #12
 281              		.cfi_def_cfa_offset 4
 282 00cc BD46     		mov	sp, r7
 283              		.cfi_def_cfa_register 13
 284              		@ sp needed
 285 00ce 5DF8047B 		ldr	r7, [sp], #4
 286              		.cfi_restore 7
 287              		.cfi_def_cfa_offset 0
 288 00d2 7047     		bx	lr
 289              	.L8:
 290              		.align	2
 291              	.L7:
 292 00d4 00000000 		.word	sixtop_vars
 293              		.cfi_endproc
 294              	.LFE1:
 296              		.align	2
 297              		.global	sixtop_setEBPeriod
 298              		.thumb
 299              		.thumb_func
 301              	sixtop_setEBPeriod:
 302              	.LFB2:
 138:build/openmote-cc2538_armgcc/openstack/02b-MAChigh/sixtop.c **** 
 139:build/openmote-cc2538_armgcc/openstack/02b-MAChigh/sixtop.c **** void sixtop_setEBPeriod(uint8_t ebPeriod) {
 303              		.loc 1 139 0
 304              		.cfi_startproc
 305              		@ args = 0, pretend = 0, frame = 8
 306              		@ frame_needed = 1, uses_anonymous_args = 0
 307              		@ link register save eliminated.
 308 00d8 80B4     		push	{r7}
 309              		.cfi_def_cfa_offset 4
 310              		.cfi_offset 7, -4
 311 00da 83B0     		sub	sp, sp, #12
 312              		.cfi_def_cfa_offset 16
 313 00dc 00AF     		add	r7, sp, #0
 314              		.cfi_def_cfa_register 7
 315 00de 0346     		mov	r3, r0
 316 00e0 FB71     		strb	r3, [r7, #7]
 140:build/openmote-cc2538_armgcc/openstack/02b-MAChigh/sixtop.c ****     if(ebPeriod != 0) {
 317              		.loc 1 140 0
 318 00e2 FB79     		ldrb	r3, [r7, #7]	@ zero_extendqisi2
 319 00e4 002B     		cmp	r3, #0
 320 00e6 03D0     		beq	.L9
 141:build/openmote-cc2538_armgcc/openstack/02b-MAChigh/sixtop.c ****         // convert parameter to miliseconds
 142:build/openmote-cc2538_armgcc/openstack/02b-MAChigh/sixtop.c ****         sixtop_vars.ebPeriod = ebPeriod;
 321              		.loc 1 142 0
 322 00e8 FB79     		ldrb	r3, [r7, #7]	@ zero_extendqisi2
 323 00ea 9AB2     		uxth	r2, r3
 324 00ec 034B     		ldr	r3, .L11
 325 00ee 9A81     		strh	r2, [r3, #12]	@ movhi
 326              	.L9:
 143:build/openmote-cc2538_armgcc/openstack/02b-MAChigh/sixtop.c ****     }
 144:build/openmote-cc2538_armgcc/openstack/02b-MAChigh/sixtop.c **** }
 327              		.loc 1 144 0
 328 00f0 0C37     		adds	r7, r7, #12
 329              		.cfi_def_cfa_offset 4
 330 00f2 BD46     		mov	sp, r7
 331              		.cfi_def_cfa_register 13
 332              		@ sp needed
 333 00f4 5DF8047B 		ldr	r7, [sp], #4
 334              		.cfi_restore 7
 335              		.cfi_def_cfa_offset 0
 336 00f8 7047     		bx	lr
 337              	.L12:
 338 00fa 00BF     		.align	2
 339              	.L11:
 340 00fc 00000000 		.word	sixtop_vars
 341              		.cfi_endproc
 342              	.LFE2:
 344              		.align	2
 345              		.global	sixtop_setSFcallback
 346              		.thumb
 347              		.thumb_func
 349              	sixtop_setSFcallback:
 350              	.LFB3:
 145:build/openmote-cc2538_armgcc/openstack/02b-MAChigh/sixtop.c **** 
 146:build/openmote-cc2538_armgcc/openstack/02b-MAChigh/sixtop.c **** void  sixtop_setSFcallback(
 147:build/openmote-cc2538_armgcc/openstack/02b-MAChigh/sixtop.c ****     sixtop_sf_getsfid           cb0,
 148:build/openmote-cc2538_armgcc/openstack/02b-MAChigh/sixtop.c ****     sixtop_sf_getmetadata       cb1,
 149:build/openmote-cc2538_armgcc/openstack/02b-MAChigh/sixtop.c ****     sixtop_sf_translatemetadata cb2,
 150:build/openmote-cc2538_armgcc/openstack/02b-MAChigh/sixtop.c ****     sixtop_sf_handle_callback   cb3
 151:build/openmote-cc2538_armgcc/openstack/02b-MAChigh/sixtop.c **** ){
 351              		.loc 1 151 0
 352              		.cfi_startproc
 353              		@ args = 0, pretend = 0, frame = 16
 354              		@ frame_needed = 1, uses_anonymous_args = 0
 355              		@ link register save eliminated.
 356 0100 80B4     		push	{r7}
 357              		.cfi_def_cfa_offset 4
 358              		.cfi_offset 7, -4
 359 0102 85B0     		sub	sp, sp, #20
 360              		.cfi_def_cfa_offset 24
 361 0104 00AF     		add	r7, sp, #0
 362              		.cfi_def_cfa_register 7
 363 0106 F860     		str	r0, [r7, #12]
 364 0108 B960     		str	r1, [r7, #8]
 365 010a 7A60     		str	r2, [r7, #4]
 366 010c 3B60     		str	r3, [r7]
 152:build/openmote-cc2538_armgcc/openstack/02b-MAChigh/sixtop.c ****    sixtop_vars.cb_sf_getsfid            = cb0;
 367              		.loc 1 152 0
 368 010e 084A     		ldr	r2, .L14
 369 0110 FB68     		ldr	r3, [r7, #12]
 370 0112 D362     		str	r3, [r2, #44]
 153:build/openmote-cc2538_armgcc/openstack/02b-MAChigh/sixtop.c ****    sixtop_vars.cb_sf_getMetadata        = cb1;
 371              		.loc 1 153 0
 372 0114 064A     		ldr	r2, .L14
 373 0116 BB68     		ldr	r3, [r7, #8]
 374 0118 1363     		str	r3, [r2, #48]
 154:build/openmote-cc2538_armgcc/openstack/02b-MAChigh/sixtop.c ****    sixtop_vars.cb_sf_translateMetadata  = cb2;
 375              		.loc 1 154 0
 376 011a 054A     		ldr	r2, .L14
 377 011c 7B68     		ldr	r3, [r7, #4]
 378 011e 5363     		str	r3, [r2, #52]
 155:build/openmote-cc2538_armgcc/openstack/02b-MAChigh/sixtop.c ****    sixtop_vars.cb_sf_handleRCError      = cb3;
 379              		.loc 1 155 0
 380 0120 034A     		ldr	r2, .L14
 381 0122 3B68     		ldr	r3, [r7]
 382 0124 9363     		str	r3, [r2, #56]
 156:build/openmote-cc2538_armgcc/openstack/02b-MAChigh/sixtop.c **** }
 383              		.loc 1 156 0
 384 0126 1437     		adds	r7, r7, #20
 385              		.cfi_def_cfa_offset 4
 386 0128 BD46     		mov	sp, r7
 387              		.cfi_def_cfa_register 13
 388              		@ sp needed
 389 012a 5DF8047B 		ldr	r7, [sp], #4
 390              		.cfi_restore 7
 391              		.cfi_def_cfa_offset 0
 392 012e 7047     		bx	lr
 393              	.L15:
 394              		.align	2
 395              	.L14:
 396 0130 00000000 		.word	sixtop_vars
 397              		.cfi_endproc
 398              	.LFE3:
 400              		.align	2
 401              		.global	sixtop_request
 402              		.thumb
 403              		.thumb_func
 405              	sixtop_request:
 406              	.LFB4:
 157:build/openmote-cc2538_armgcc/openstack/02b-MAChigh/sixtop.c **** 
 158:build/openmote-cc2538_armgcc/openstack/02b-MAChigh/sixtop.c **** //======= scheduling
 159:build/openmote-cc2538_armgcc/openstack/02b-MAChigh/sixtop.c **** 
 160:build/openmote-cc2538_armgcc/openstack/02b-MAChigh/sixtop.c **** owerror_t sixtop_request(
 161:build/openmote-cc2538_armgcc/openstack/02b-MAChigh/sixtop.c ****     uint8_t      code,
 162:build/openmote-cc2538_armgcc/openstack/02b-MAChigh/sixtop.c ****     open_addr_t* neighbor,
 163:build/openmote-cc2538_armgcc/openstack/02b-MAChigh/sixtop.c ****     uint8_t      numCells,
 164:build/openmote-cc2538_armgcc/openstack/02b-MAChigh/sixtop.c ****     uint8_t      cellOptions,
 165:build/openmote-cc2538_armgcc/openstack/02b-MAChigh/sixtop.c ****     cellInfo_ht* celllist_toBeAdded,
 166:build/openmote-cc2538_armgcc/openstack/02b-MAChigh/sixtop.c ****     cellInfo_ht* celllist_toBeDeleted,
 167:build/openmote-cc2538_armgcc/openstack/02b-MAChigh/sixtop.c ****     uint8_t      sfid,
 168:build/openmote-cc2538_armgcc/openstack/02b-MAChigh/sixtop.c ****     uint16_t     listingOffset,
 169:build/openmote-cc2538_armgcc/openstack/02b-MAChigh/sixtop.c ****     uint16_t     listingMaxNumCells
 170:build/openmote-cc2538_armgcc/openstack/02b-MAChigh/sixtop.c ****     ){
 407              		.loc 1 170 0
 408              		.cfi_startproc
 409              		@ args = 20, pretend = 0, frame = 24
 410              		@ frame_needed = 1, uses_anonymous_args = 0
 411 0134 B0B5     		push	{r4, r5, r7, lr}
 412              		.cfi_def_cfa_offset 16
 413              		.cfi_offset 4, -16
 414              		.cfi_offset 5, -12
 415              		.cfi_offset 7, -8
 416              		.cfi_offset 14, -4
 417 0136 86B0     		sub	sp, sp, #24
 418              		.cfi_def_cfa_offset 40
 419 0138 00AF     		add	r7, sp, #0
 420              		.cfi_def_cfa_register 7
 421 013a 3960     		str	r1, [r7]
 422 013c 1146     		mov	r1, r2
 423 013e 1A46     		mov	r2, r3
 424 0140 0346     		mov	r3, r0
 425 0142 FB71     		strb	r3, [r7, #7]
 426 0144 0B46     		mov	r3, r1
 427 0146 BB71     		strb	r3, [r7, #6]
 428 0148 1346     		mov	r3, r2
 429 014a 7B71     		strb	r3, [r7, #5]
 171:build/openmote-cc2538_armgcc/openstack/02b-MAChigh/sixtop.c ****     OpenQueueEntry_t* pkt;
 172:build/openmote-cc2538_armgcc/openstack/02b-MAChigh/sixtop.c ****     uint8_t           i;
 173:build/openmote-cc2538_armgcc/openstack/02b-MAChigh/sixtop.c ****     uint8_t           len;
 174:build/openmote-cc2538_armgcc/openstack/02b-MAChigh/sixtop.c ****     uint16_t          length_groupid_type;
 175:build/openmote-cc2538_armgcc/openstack/02b-MAChigh/sixtop.c ****     uint8_t           sequenceNumber;
 176:build/openmote-cc2538_armgcc/openstack/02b-MAChigh/sixtop.c ****     owerror_t         outcome;
 177:build/openmote-cc2538_armgcc/openstack/02b-MAChigh/sixtop.c **** 
 178:build/openmote-cc2538_armgcc/openstack/02b-MAChigh/sixtop.c ****     // filter parameters: handler, status and neighbor
 179:build/openmote-cc2538_armgcc/openstack/02b-MAChigh/sixtop.c ****     if(
 180:build/openmote-cc2538_armgcc/openstack/02b-MAChigh/sixtop.c ****         sixtop_vars.six2six_state != SIX_STATE_IDLE   ||
 430              		.loc 1 180 0
 431 014c A24B     		ldr	r3, .L47
 432 014e 9B7B     		ldrb	r3, [r3, #14]	@ zero_extendqisi2
 179:build/openmote-cc2538_armgcc/openstack/02b-MAChigh/sixtop.c ****         sixtop_vars.six2six_state != SIX_STATE_IDLE   ||
 433              		.loc 1 179 0
 434 0150 002B     		cmp	r3, #0
 435 0152 02D1     		bne	.L17
 436              		.loc 1 180 0
 437 0154 3B68     		ldr	r3, [r7]
 438 0156 002B     		cmp	r3, #0
 439 0158 01D1     		bne	.L18
 440              	.L17:
 181:build/openmote-cc2538_armgcc/openstack/02b-MAChigh/sixtop.c ****         neighbor                  == NULL
 182:build/openmote-cc2538_armgcc/openstack/02b-MAChigh/sixtop.c ****     ){
 183:build/openmote-cc2538_armgcc/openstack/02b-MAChigh/sixtop.c ****         // neighbor can't be none or previous transcation doesn't finishe yet
 184:build/openmote-cc2538_armgcc/openstack/02b-MAChigh/sixtop.c ****         return E_FAIL;
 441              		.loc 1 184 0
 442 015a 0123     		movs	r3, #1
 443 015c 03E2     		b	.L19
 444              	.L18:
 185:build/openmote-cc2538_armgcc/openstack/02b-MAChigh/sixtop.c ****     }
 186:build/openmote-cc2538_armgcc/openstack/02b-MAChigh/sixtop.c **** 
 187:build/openmote-cc2538_armgcc/openstack/02b-MAChigh/sixtop.c ****     // get a free packet buffer
 188:build/openmote-cc2538_armgcc/openstack/02b-MAChigh/sixtop.c ****     pkt = openqueue_getFreePacketBuffer(COMPONENT_SIXTOP_RES);
 445              		.loc 1 188 0
 446 015e 0F20     		movs	r0, #15
 447 0160 FFF7FEFF 		bl	openqueue_getFreePacketBuffer
 448 0164 3861     		str	r0, [r7, #16]
 189:build/openmote-cc2538_armgcc/openstack/02b-MAChigh/sixtop.c ****     if (pkt==NULL) {
 449              		.loc 1 189 0
 450 0166 3B69     		ldr	r3, [r7, #16]
 451 0168 002B     		cmp	r3, #0
 452 016a 07D1     		bne	.L20
 190:build/openmote-cc2538_armgcc/openstack/02b-MAChigh/sixtop.c ****         openserial_printError(
 453              		.loc 1 190 0
 454 016c 0F20     		movs	r0, #15
 455 016e 2C21     		movs	r1, #44
 456 0170 0022     		movs	r2, #0
 457 0172 0023     		movs	r3, #0
 458 0174 FFF7FEFF 		bl	openserial_printError
 191:build/openmote-cc2538_armgcc/openstack/02b-MAChigh/sixtop.c ****             COMPONENT_SIXTOP_RES,
 192:build/openmote-cc2538_armgcc/openstack/02b-MAChigh/sixtop.c ****             ERR_NO_FREE_PACKET_BUFFER,
 193:build/openmote-cc2538_armgcc/openstack/02b-MAChigh/sixtop.c ****             (errorparameter_t)0,
 194:build/openmote-cc2538_armgcc/openstack/02b-MAChigh/sixtop.c ****             (errorparameter_t)0
 195:build/openmote-cc2538_armgcc/openstack/02b-MAChigh/sixtop.c ****         );
 196:build/openmote-cc2538_armgcc/openstack/02b-MAChigh/sixtop.c ****         return E_FAIL;
 459              		.loc 1 196 0
 460 0178 0123     		movs	r3, #1
 461 017a F4E1     		b	.L19
 462              	.L20:
 197:build/openmote-cc2538_armgcc/openstack/02b-MAChigh/sixtop.c ****     }
 198:build/openmote-cc2538_armgcc/openstack/02b-MAChigh/sixtop.c **** 
 199:build/openmote-cc2538_armgcc/openstack/02b-MAChigh/sixtop.c ****     // take ownership
 200:build/openmote-cc2538_armgcc/openstack/02b-MAChigh/sixtop.c ****     pkt->creator = COMPONENT_SIXTOP_RES;
 463              		.loc 1 200 0
 464 017c 3B69     		ldr	r3, [r7, #16]
 465 017e 0F22     		movs	r2, #15
 466 0180 1A70     		strb	r2, [r3]
 201:build/openmote-cc2538_armgcc/openstack/02b-MAChigh/sixtop.c ****     pkt->owner   = COMPONENT_SIXTOP_RES;
 467              		.loc 1 201 0
 468 0182 3B69     		ldr	r3, [r7, #16]
 469 0184 0F22     		movs	r2, #15
 470 0186 5A70     		strb	r2, [r3, #1]
 202:build/openmote-cc2538_armgcc/openstack/02b-MAChigh/sixtop.c **** 
 203:build/openmote-cc2538_armgcc/openstack/02b-MAChigh/sixtop.c ****     memcpy(&(pkt->l2_nextORpreviousHop),neighbor,sizeof(open_addr_t));
 471              		.loc 1 203 0
 472 0188 3B69     		ldr	r3, [r7, #16]
 473 018a 3C33     		adds	r3, r3, #60
 474 018c 1846     		mov	r0, r3
 475 018e 3968     		ldr	r1, [r7]
 476 0190 1122     		movs	r2, #17
 477 0192 FFF7FEFF 		bl	memcpy
 204:build/openmote-cc2538_armgcc/openstack/02b-MAChigh/sixtop.c ****     if (celllist_toBeDeleted != NULL){
 478              		.loc 1 204 0
 479 0196 FB6A     		ldr	r3, [r7, #44]
 480 0198 002B     		cmp	r3, #0
 481 019a 10D0     		beq	.L21
 205:build/openmote-cc2538_armgcc/openstack/02b-MAChigh/sixtop.c ****         memcpy(sixtop_vars.celllist_toDelete,celllist_toBeDeleted,CELLLIST_MAX_LEN*sizeof(cellInfo_
 482              		.loc 1 205 0
 483 019c 8E4B     		ldr	r3, .L47
 484 019e FA6A     		ldr	r2, [r7, #44]
 485 01a0 1233     		adds	r3, r3, #18
 486 01a2 1068     		ldr	r0, [r2]	@ unaligned
 487 01a4 5168     		ldr	r1, [r2, #4]	@ unaligned
 488 01a6 9568     		ldr	r5, [r2, #8]	@ unaligned
 489 01a8 D468     		ldr	r4, [r2, #12]	@ unaligned
 490 01aa 1860     		str	r0, [r3]	@ unaligned
 491 01ac 5960     		str	r1, [r3, #4]	@ unaligned
 492 01ae 9D60     		str	r5, [r3, #8]	@ unaligned
 493 01b0 DC60     		str	r4, [r3, #12]	@ unaligned
 494 01b2 1069     		ldr	r0, [r2, #16]	@ unaligned
 495 01b4 5169     		ldr	r1, [r2, #20]	@ unaligned
 496 01b6 1861     		str	r0, [r3, #16]	@ unaligned
 497 01b8 5961     		str	r1, [r3, #20]	@ unaligned
 498 01ba 127E     		ldrb	r2, [r2, #24]
 499 01bc 1A76     		strb	r2, [r3, #24]
 500              	.L21:
 206:build/openmote-cc2538_armgcc/openstack/02b-MAChigh/sixtop.c ****     }
 207:build/openmote-cc2538_armgcc/openstack/02b-MAChigh/sixtop.c ****     sixtop_vars.cellOptions = cellOptions;
 501              		.loc 1 207 0
 502 01be 864A     		ldr	r2, .L47
 503 01c0 7B79     		ldrb	r3, [r7, #5]
 504 01c2 5374     		strb	r3, [r2, #17]
 208:build/openmote-cc2538_armgcc/openstack/02b-MAChigh/sixtop.c **** 
 209:build/openmote-cc2538_armgcc/openstack/02b-MAChigh/sixtop.c ****     len  = 0;
 505              		.loc 1 209 0
 506 01c4 0023     		movs	r3, #0
 507 01c6 BB75     		strb	r3, [r7, #22]
 210:build/openmote-cc2538_armgcc/openstack/02b-MAChigh/sixtop.c ****     if (
 508              		.loc 1 210 0
 509 01c8 FB79     		ldrb	r3, [r7, #7]	@ zero_extendqisi2
 510 01ca 012B     		cmp	r3, #1
 511 01cc 06D0     		beq	.L22
 211:build/openmote-cc2538_armgcc/openstack/02b-MAChigh/sixtop.c ****         code == IANA_6TOP_CMD_ADD      ||
 512              		.loc 1 211 0
 513 01ce FB79     		ldrb	r3, [r7, #7]	@ zero_extendqisi2
 514 01d0 022B     		cmp	r3, #2
 515 01d2 03D0     		beq	.L22
 212:build/openmote-cc2538_armgcc/openstack/02b-MAChigh/sixtop.c ****         code == IANA_6TOP_CMD_DELETE   ||
 516              		.loc 1 212 0
 517 01d4 FB79     		ldrb	r3, [r7, #7]	@ zero_extendqisi2
 518 01d6 032B     		cmp	r3, #3
 519 01d8 40F0BF80 		bne	.L23
 520              	.L22:
 213:build/openmote-cc2538_armgcc/openstack/02b-MAChigh/sixtop.c ****         code == IANA_6TOP_CMD_RELOCATE
 214:build/openmote-cc2538_armgcc/openstack/02b-MAChigh/sixtop.c ****     ){
 215:build/openmote-cc2538_armgcc/openstack/02b-MAChigh/sixtop.c ****         // append 6p celllists
 216:build/openmote-cc2538_armgcc/openstack/02b-MAChigh/sixtop.c ****         if (code == IANA_6TOP_CMD_ADD || code == IANA_6TOP_CMD_RELOCATE){
 521              		.loc 1 216 0
 522 01dc FB79     		ldrb	r3, [r7, #7]	@ zero_extendqisi2
 523 01de 012B     		cmp	r3, #1
 524 01e0 02D0     		beq	.L24
 525              		.loc 1 216 0 is_stmt 0 discriminator 1
 526 01e2 FB79     		ldrb	r3, [r7, #7]	@ zero_extendqisi2
 527 01e4 032B     		cmp	r3, #3
 528 01e6 53D1     		bne	.L25
 529              	.L24:
 217:build/openmote-cc2538_armgcc/openstack/02b-MAChigh/sixtop.c ****             for(i=0;i<CELLLIST_MAX_LEN;i++) {
 530              		.loc 1 217 0 is_stmt 1
 531 01e8 0023     		movs	r3, #0
 532 01ea FB75     		strb	r3, [r7, #23]
 533 01ec 4DE0     		b	.L26
 534              	.L28:
 218:build/openmote-cc2538_armgcc/openstack/02b-MAChigh/sixtop.c ****                 if(celllist_toBeAdded[i].isUsed){
 535              		.loc 1 218 0
 536 01ee FA7D     		ldrb	r2, [r7, #23]	@ zero_extendqisi2
 537 01f0 1346     		mov	r3, r2
 538 01f2 9B00     		lsls	r3, r3, #2
 539 01f4 1344     		add	r3, r3, r2
 540 01f6 BA6A     		ldr	r2, [r7, #40]
 541 01f8 1344     		add	r3, r3, r2
 542 01fa 1B78     		ldrb	r3, [r3]	@ zero_extendqisi2
 543 01fc 002B     		cmp	r3, #0
 544 01fe 41D0     		beq	.L27
 219:build/openmote-cc2538_armgcc/openstack/02b-MAChigh/sixtop.c ****                     packetfunctions_reserveHeaderSize(pkt,4);
 545              		.loc 1 219 0
 546 0200 3869     		ldr	r0, [r7, #16]
 547 0202 0421     		movs	r1, #4
 548 0204 FFF7FEFF 		bl	packetfunctions_reserveHeaderSize
 220:build/openmote-cc2538_armgcc/openstack/02b-MAChigh/sixtop.c ****                     pkt->payload[0] = (uint8_t)(celllist_toBeAdded[i].slotoffset         & 0x00FF);
 549              		.loc 1 220 0
 550 0208 3B69     		ldr	r3, [r7, #16]
 551 020a 5968     		ldr	r1, [r3, #4]
 552 020c FA7D     		ldrb	r2, [r7, #23]	@ zero_extendqisi2
 553 020e 1346     		mov	r3, r2
 554 0210 9B00     		lsls	r3, r3, #2
 555 0212 1344     		add	r3, r3, r2
 556 0214 BA6A     		ldr	r2, [r7, #40]
 557 0216 1344     		add	r3, r3, r2
 558 0218 B3F80130 		ldrh	r3, [r3, #1]	@ unaligned
 559 021c 9BB2     		uxth	r3, r3
 560 021e DBB2     		uxtb	r3, r3
 561 0220 0B70     		strb	r3, [r1]
 221:build/openmote-cc2538_armgcc/openstack/02b-MAChigh/sixtop.c ****                     pkt->payload[1] = (uint8_t)((celllist_toBeAdded[i].slotoffset        & 0xFF00)>
 562              		.loc 1 221 0
 563 0222 3B69     		ldr	r3, [r7, #16]
 564 0224 5B68     		ldr	r3, [r3, #4]
 565 0226 591C     		adds	r1, r3, #1
 566 0228 FA7D     		ldrb	r2, [r7, #23]	@ zero_extendqisi2
 567 022a 1346     		mov	r3, r2
 568 022c 9B00     		lsls	r3, r3, #2
 569 022e 1344     		add	r3, r3, r2
 570 0230 BA6A     		ldr	r2, [r7, #40]
 571 0232 1344     		add	r3, r3, r2
 572 0234 B3F80130 		ldrh	r3, [r3, #1]	@ unaligned
 573 0238 9BB2     		uxth	r3, r3
 574 023a 1B0A     		lsrs	r3, r3, #8
 575 023c 9BB2     		uxth	r3, r3
 576 023e DBB2     		uxtb	r3, r3
 577 0240 0B70     		strb	r3, [r1]
 222:build/openmote-cc2538_armgcc/openstack/02b-MAChigh/sixtop.c ****                     pkt->payload[2] = (uint8_t)(celllist_toBeAdded[i].channeloffset      & 0x00FF);
 578              		.loc 1 222 0
 579 0242 3B69     		ldr	r3, [r7, #16]
 580 0244 5B68     		ldr	r3, [r3, #4]
 581 0246 991C     		adds	r1, r3, #2
 582 0248 FA7D     		ldrb	r2, [r7, #23]	@ zero_extendqisi2
 583 024a 1346     		mov	r3, r2
 584 024c 9B00     		lsls	r3, r3, #2
 585 024e 1344     		add	r3, r3, r2
 586 0250 BA6A     		ldr	r2, [r7, #40]
 587 0252 1344     		add	r3, r3, r2
 588 0254 B3F80330 		ldrh	r3, [r3, #3]	@ unaligned
 589 0258 9BB2     		uxth	r3, r3
 590 025a DBB2     		uxtb	r3, r3
 591 025c 0B70     		strb	r3, [r1]
 223:build/openmote-cc2538_armgcc/openstack/02b-MAChigh/sixtop.c ****                     pkt->payload[3] = (uint8_t)((celllist_toBeAdded[i].channeloffset     & 0xFF00)>
 592              		.loc 1 223 0
 593 025e 3B69     		ldr	r3, [r7, #16]
 594 0260 5B68     		ldr	r3, [r3, #4]
 595 0262 D91C     		adds	r1, r3, #3
 596 0264 FA7D     		ldrb	r2, [r7, #23]	@ zero_extendqisi2
 597 0266 1346     		mov	r3, r2
 598 0268 9B00     		lsls	r3, r3, #2
 599 026a 1344     		add	r3, r3, r2
 600 026c BA6A     		ldr	r2, [r7, #40]
 601 026e 1344     		add	r3, r3, r2
 602 0270 B3F80330 		ldrh	r3, [r3, #3]	@ unaligned
 603 0274 9BB2     		uxth	r3, r3
 604 0276 1B0A     		lsrs	r3, r3, #8
 605 0278 9BB2     		uxth	r3, r3
 606 027a DBB2     		uxtb	r3, r3
 607 027c 0B70     		strb	r3, [r1]
 224:build/openmote-cc2538_armgcc/openstack/02b-MAChigh/sixtop.c ****                     len += 4;
 608              		.loc 1 224 0
 609 027e BB7D     		ldrb	r3, [r7, #22]
 610 0280 0433     		adds	r3, r3, #4
 611 0282 BB75     		strb	r3, [r7, #22]
 612              	.L27:
 217:build/openmote-cc2538_armgcc/openstack/02b-MAChigh/sixtop.c ****                 if(celllist_toBeAdded[i].isUsed){
 613              		.loc 1 217 0 discriminator 2
 614 0284 FB7D     		ldrb	r3, [r7, #23]	@ zero_extendqisi2
 615 0286 0133     		adds	r3, r3, #1
 616 0288 FB75     		strb	r3, [r7, #23]
 617              	.L26:
 217:build/openmote-cc2538_armgcc/openstack/02b-MAChigh/sixtop.c ****                 if(celllist_toBeAdded[i].isUsed){
 618              		.loc 1 217 0 is_stmt 0 discriminator 1
 619 028a FB7D     		ldrb	r3, [r7, #23]	@ zero_extendqisi2
 620 028c 042B     		cmp	r3, #4
 621 028e AED9     		bls	.L28
 622              	.L25:
 225:build/openmote-cc2538_armgcc/openstack/02b-MAChigh/sixtop.c ****                 }
 226:build/openmote-cc2538_armgcc/openstack/02b-MAChigh/sixtop.c ****             }
 227:build/openmote-cc2538_armgcc/openstack/02b-MAChigh/sixtop.c ****         }
 228:build/openmote-cc2538_armgcc/openstack/02b-MAChigh/sixtop.c ****         if (code == IANA_6TOP_CMD_DELETE || code == IANA_6TOP_CMD_RELOCATE){
 623              		.loc 1 228 0 is_stmt 1
 624 0290 FB79     		ldrb	r3, [r7, #7]	@ zero_extendqisi2
 625 0292 022B     		cmp	r3, #2
 626 0294 02D0     		beq	.L29
 627              		.loc 1 228 0 is_stmt 0 discriminator 1
 628 0296 FB79     		ldrb	r3, [r7, #7]	@ zero_extendqisi2
 629 0298 032B     		cmp	r3, #3
 630 029a 53D1     		bne	.L30
 631              	.L29:
 229:build/openmote-cc2538_armgcc/openstack/02b-MAChigh/sixtop.c ****             for(i=0;i<CELLLIST_MAX_LEN;i++) {
 632              		.loc 1 229 0 is_stmt 1
 633 029c 0023     		movs	r3, #0
 634 029e FB75     		strb	r3, [r7, #23]
 635 02a0 4DE0     		b	.L31
 636              	.L33:
 230:build/openmote-cc2538_armgcc/openstack/02b-MAChigh/sixtop.c ****                 if(celllist_toBeDeleted[i].isUsed){
 637              		.loc 1 230 0
 638 02a2 FA7D     		ldrb	r2, [r7, #23]	@ zero_extendqisi2
 639 02a4 1346     		mov	r3, r2
 640 02a6 9B00     		lsls	r3, r3, #2
 641 02a8 1344     		add	r3, r3, r2
 642 02aa FA6A     		ldr	r2, [r7, #44]
 643 02ac 1344     		add	r3, r3, r2
 644 02ae 1B78     		ldrb	r3, [r3]	@ zero_extendqisi2
 645 02b0 002B     		cmp	r3, #0
 646 02b2 41D0     		beq	.L32
 231:build/openmote-cc2538_armgcc/openstack/02b-MAChigh/sixtop.c ****                     packetfunctions_reserveHeaderSize(pkt,4);
 647              		.loc 1 231 0
 648 02b4 3869     		ldr	r0, [r7, #16]
 649 02b6 0421     		movs	r1, #4
 650 02b8 FFF7FEFF 		bl	packetfunctions_reserveHeaderSize
 232:build/openmote-cc2538_armgcc/openstack/02b-MAChigh/sixtop.c ****                     pkt->payload[0] = (uint8_t)(celllist_toBeDeleted[i].slotoffset       & 0x00FF);
 651              		.loc 1 232 0
 652 02bc 3B69     		ldr	r3, [r7, #16]
 653 02be 5968     		ldr	r1, [r3, #4]
 654 02c0 FA7D     		ldrb	r2, [r7, #23]	@ zero_extendqisi2
 655 02c2 1346     		mov	r3, r2
 656 02c4 9B00     		lsls	r3, r3, #2
 657 02c6 1344     		add	r3, r3, r2
 658 02c8 FA6A     		ldr	r2, [r7, #44]
 659 02ca 1344     		add	r3, r3, r2
 660 02cc B3F80130 		ldrh	r3, [r3, #1]	@ unaligned
 661 02d0 9BB2     		uxth	r3, r3
 662 02d2 DBB2     		uxtb	r3, r3
 663 02d4 0B70     		strb	r3, [r1]
 233:build/openmote-cc2538_armgcc/openstack/02b-MAChigh/sixtop.c ****                     pkt->payload[1] = (uint8_t)((celllist_toBeDeleted[i].slotoffset      & 0xFF00)>
 664              		.loc 1 233 0
 665 02d6 3B69     		ldr	r3, [r7, #16]
 666 02d8 5B68     		ldr	r3, [r3, #4]
 667 02da 591C     		adds	r1, r3, #1
 668 02dc FA7D     		ldrb	r2, [r7, #23]	@ zero_extendqisi2
 669 02de 1346     		mov	r3, r2
 670 02e0 9B00     		lsls	r3, r3, #2
 671 02e2 1344     		add	r3, r3, r2
 672 02e4 FA6A     		ldr	r2, [r7, #44]
 673 02e6 1344     		add	r3, r3, r2
 674 02e8 B3F80130 		ldrh	r3, [r3, #1]	@ unaligned
 675 02ec 9BB2     		uxth	r3, r3
 676 02ee 1B0A     		lsrs	r3, r3, #8
 677 02f0 9BB2     		uxth	r3, r3
 678 02f2 DBB2     		uxtb	r3, r3
 679 02f4 0B70     		strb	r3, [r1]
 234:build/openmote-cc2538_armgcc/openstack/02b-MAChigh/sixtop.c ****                     pkt->payload[2] = (uint8_t)(celllist_toBeDeleted[i].channeloffset    & 0x00FF);
 680              		.loc 1 234 0
 681 02f6 3B69     		ldr	r3, [r7, #16]
 682 02f8 5B68     		ldr	r3, [r3, #4]
 683 02fa 991C     		adds	r1, r3, #2
 684 02fc FA7D     		ldrb	r2, [r7, #23]	@ zero_extendqisi2
 685 02fe 1346     		mov	r3, r2
 686 0300 9B00     		lsls	r3, r3, #2
 687 0302 1344     		add	r3, r3, r2
 688 0304 FA6A     		ldr	r2, [r7, #44]
 689 0306 1344     		add	r3, r3, r2
 690 0308 B3F80330 		ldrh	r3, [r3, #3]	@ unaligned
 691 030c 9BB2     		uxth	r3, r3
 692 030e DBB2     		uxtb	r3, r3
 693 0310 0B70     		strb	r3, [r1]
 235:build/openmote-cc2538_armgcc/openstack/02b-MAChigh/sixtop.c ****                     pkt->payload[3] = (uint8_t)((celllist_toBeDeleted[i].channeloffset   & 0xFF00)>
 694              		.loc 1 235 0
 695 0312 3B69     		ldr	r3, [r7, #16]
 696 0314 5B68     		ldr	r3, [r3, #4]
 697 0316 D91C     		adds	r1, r3, #3
 698 0318 FA7D     		ldrb	r2, [r7, #23]	@ zero_extendqisi2
 699 031a 1346     		mov	r3, r2
 700 031c 9B00     		lsls	r3, r3, #2
 701 031e 1344     		add	r3, r3, r2
 702 0320 FA6A     		ldr	r2, [r7, #44]
 703 0322 1344     		add	r3, r3, r2
 704 0324 B3F80330 		ldrh	r3, [r3, #3]	@ unaligned
 705 0328 9BB2     		uxth	r3, r3
 706 032a 1B0A     		lsrs	r3, r3, #8
 707 032c 9BB2     		uxth	r3, r3
 708 032e DBB2     		uxtb	r3, r3
 709 0330 0B70     		strb	r3, [r1]
 236:build/openmote-cc2538_armgcc/openstack/02b-MAChigh/sixtop.c ****                     len += 4;
 710              		.loc 1 236 0
 711 0332 BB7D     		ldrb	r3, [r7, #22]
 712 0334 0433     		adds	r3, r3, #4
 713 0336 BB75     		strb	r3, [r7, #22]
 714              	.L32:
 229:build/openmote-cc2538_armgcc/openstack/02b-MAChigh/sixtop.c ****                 if(celllist_toBeDeleted[i].isUsed){
 715              		.loc 1 229 0 discriminator 2
 716 0338 FB7D     		ldrb	r3, [r7, #23]	@ zero_extendqisi2
 717 033a 0133     		adds	r3, r3, #1
 718 033c FB75     		strb	r3, [r7, #23]
 719              	.L31:
 229:build/openmote-cc2538_armgcc/openstack/02b-MAChigh/sixtop.c ****                 if(celllist_toBeDeleted[i].isUsed){
 720              		.loc 1 229 0 is_stmt 0 discriminator 1
 721 033e FB7D     		ldrb	r3, [r7, #23]	@ zero_extendqisi2
 722 0340 042B     		cmp	r3, #4
 723 0342 AED9     		bls	.L33
 724              	.L30:
 237:build/openmote-cc2538_armgcc/openstack/02b-MAChigh/sixtop.c ****                 }
 238:build/openmote-cc2538_armgcc/openstack/02b-MAChigh/sixtop.c ****             }
 239:build/openmote-cc2538_armgcc/openstack/02b-MAChigh/sixtop.c ****         }
 240:build/openmote-cc2538_armgcc/openstack/02b-MAChigh/sixtop.c ****         // append 6p numberCells
 241:build/openmote-cc2538_armgcc/openstack/02b-MAChigh/sixtop.c ****         packetfunctions_reserveHeaderSize(pkt,sizeof(uint8_t));
 725              		.loc 1 241 0 is_stmt 1
 726 0344 3869     		ldr	r0, [r7, #16]
 727 0346 0121     		movs	r1, #1
 728 0348 FFF7FEFF 		bl	packetfunctions_reserveHeaderSize
 242:build/openmote-cc2538_armgcc/openstack/02b-MAChigh/sixtop.c ****         *((uint8_t*)(pkt->payload)) = numCells;
 729              		.loc 1 242 0
 730 034c 3B69     		ldr	r3, [r7, #16]
 731 034e 5B68     		ldr	r3, [r3, #4]
 732 0350 BA79     		ldrb	r2, [r7, #6]
 733 0352 1A70     		strb	r2, [r3]
 243:build/openmote-cc2538_armgcc/openstack/02b-MAChigh/sixtop.c ****         len += 1;
 734              		.loc 1 243 0
 735 0354 BB7D     		ldrb	r3, [r7, #22]
 736 0356 0133     		adds	r3, r3, #1
 737 0358 BB75     		strb	r3, [r7, #22]
 738              	.L23:
 244:build/openmote-cc2538_armgcc/openstack/02b-MAChigh/sixtop.c ****     }
 245:build/openmote-cc2538_armgcc/openstack/02b-MAChigh/sixtop.c **** 
 246:build/openmote-cc2538_armgcc/openstack/02b-MAChigh/sixtop.c ****     if (code == IANA_6TOP_CMD_LIST){
 739              		.loc 1 246 0
 740 035a FB79     		ldrb	r3, [r7, #7]	@ zero_extendqisi2
 741 035c 052B     		cmp	r3, #5
 742 035e 2CD1     		bne	.L34
 247:build/openmote-cc2538_armgcc/openstack/02b-MAChigh/sixtop.c ****         // append 6p max number of cells
 248:build/openmote-cc2538_armgcc/openstack/02b-MAChigh/sixtop.c ****         packetfunctions_reserveHeaderSize(pkt,sizeof(uint16_t));
 743              		.loc 1 248 0
 744 0360 3869     		ldr	r0, [r7, #16]
 745 0362 0221     		movs	r1, #2
 746 0364 FFF7FEFF 		bl	packetfunctions_reserveHeaderSize
 249:build/openmote-cc2538_armgcc/openstack/02b-MAChigh/sixtop.c ****         *((uint8_t*)(pkt->payload))   = (uint8_t)(listingMaxNumCells & 0x00FF);
 747              		.loc 1 249 0
 748 0368 3B69     		ldr	r3, [r7, #16]
 749 036a 5B68     		ldr	r3, [r3, #4]
 750 036c 3A8F     		ldrh	r2, [r7, #56]	@ movhi
 751 036e D2B2     		uxtb	r2, r2
 752 0370 1A70     		strb	r2, [r3]
 250:build/openmote-cc2538_armgcc/openstack/02b-MAChigh/sixtop.c ****         *((uint8_t*)(pkt->payload+1)) = (uint8_t)(listingMaxNumCells & 0xFF00)>>8;
 753              		.loc 1 250 0
 754 0372 3B69     		ldr	r3, [r7, #16]
 755 0374 5B68     		ldr	r3, [r3, #4]
 756 0376 0133     		adds	r3, r3, #1
 757 0378 0022     		movs	r2, #0
 758 037a 1A70     		strb	r2, [r3]
 251:build/openmote-cc2538_armgcc/openstack/02b-MAChigh/sixtop.c ****         len +=2;
 759              		.loc 1 251 0
 760 037c BB7D     		ldrb	r3, [r7, #22]
 761 037e 0233     		adds	r3, r3, #2
 762 0380 BB75     		strb	r3, [r7, #22]
 252:build/openmote-cc2538_armgcc/openstack/02b-MAChigh/sixtop.c ****         // append 6p listing offset
 253:build/openmote-cc2538_armgcc/openstack/02b-MAChigh/sixtop.c ****         packetfunctions_reserveHeaderSize(pkt,sizeof(uint16_t));
 763              		.loc 1 253 0
 764 0382 3869     		ldr	r0, [r7, #16]
 765 0384 0221     		movs	r1, #2
 766 0386 FFF7FEFF 		bl	packetfunctions_reserveHeaderSize
 254:build/openmote-cc2538_armgcc/openstack/02b-MAChigh/sixtop.c ****         *((uint8_t*)(pkt->payload))   = (uint8_t)(listingOffset & 0x00FF);
 767              		.loc 1 254 0
 768 038a 3B69     		ldr	r3, [r7, #16]
 769 038c 5B68     		ldr	r3, [r3, #4]
 770 038e BA8E     		ldrh	r2, [r7, #52]	@ movhi
 771 0390 D2B2     		uxtb	r2, r2
 772 0392 1A70     		strb	r2, [r3]
 255:build/openmote-cc2538_armgcc/openstack/02b-MAChigh/sixtop.c ****         *((uint8_t*)(pkt->payload+1)) = (uint8_t)(listingOffset & 0xFF00)>>8;
 773              		.loc 1 255 0
 774 0394 3B69     		ldr	r3, [r7, #16]
 775 0396 5B68     		ldr	r3, [r3, #4]
 776 0398 0133     		adds	r3, r3, #1
 777 039a 0022     		movs	r2, #0
 778 039c 1A70     		strb	r2, [r3]
 256:build/openmote-cc2538_armgcc/openstack/02b-MAChigh/sixtop.c ****         len += 2;
 779              		.loc 1 256 0
 780 039e BB7D     		ldrb	r3, [r7, #22]
 781 03a0 0233     		adds	r3, r3, #2
 782 03a2 BB75     		strb	r3, [r7, #22]
 257:build/openmote-cc2538_armgcc/openstack/02b-MAChigh/sixtop.c ****         // append 6p Reserved field
 258:build/openmote-cc2538_armgcc/openstack/02b-MAChigh/sixtop.c ****         packetfunctions_reserveHeaderSize(pkt,sizeof(uint8_t));
 783              		.loc 1 258 0
 784 03a4 3869     		ldr	r0, [r7, #16]
 785 03a6 0121     		movs	r1, #1
 786 03a8 FFF7FEFF 		bl	packetfunctions_reserveHeaderSize
 259:build/openmote-cc2538_armgcc/openstack/02b-MAChigh/sixtop.c ****         *((uint8_t*)(pkt->payload)) = 0;
 787              		.loc 1 259 0
 788 03ac 3B69     		ldr	r3, [r7, #16]
 789 03ae 5B68     		ldr	r3, [r3, #4]
 790 03b0 0022     		movs	r2, #0
 791 03b2 1A70     		strb	r2, [r3]
 260:build/openmote-cc2538_armgcc/openstack/02b-MAChigh/sixtop.c ****         len += 1;
 792              		.loc 1 260 0
 793 03b4 BB7D     		ldrb	r3, [r7, #22]
 794 03b6 0133     		adds	r3, r3, #1
 795 03b8 BB75     		strb	r3, [r7, #22]
 796              	.L34:
 261:build/openmote-cc2538_armgcc/openstack/02b-MAChigh/sixtop.c ****     }
 262:build/openmote-cc2538_armgcc/openstack/02b-MAChigh/sixtop.c **** 
 263:build/openmote-cc2538_armgcc/openstack/02b-MAChigh/sixtop.c ****     if (code != IANA_6TOP_CMD_CLEAR){
 797              		.loc 1 263 0
 798 03ba FB79     		ldrb	r3, [r7, #7]	@ zero_extendqisi2
 799 03bc 072B     		cmp	r3, #7
 800 03be 0DD0     		beq	.L35
 264:build/openmote-cc2538_armgcc/openstack/02b-MAChigh/sixtop.c ****         // append 6p celloptions
 265:build/openmote-cc2538_armgcc/openstack/02b-MAChigh/sixtop.c ****         packetfunctions_reserveHeaderSize(pkt,sizeof(uint8_t));
 801              		.loc 1 265 0
 802 03c0 3869     		ldr	r0, [r7, #16]
 803 03c2 0121     		movs	r1, #1
 804 03c4 FFF7FEFF 		bl	packetfunctions_reserveHeaderSize
 266:build/openmote-cc2538_armgcc/openstack/02b-MAChigh/sixtop.c ****         *((uint8_t*)(pkt->payload)) = cellOptions;
 805              		.loc 1 266 0
 806 03c8 3B69     		ldr	r3, [r7, #16]
 807 03ca 5B68     		ldr	r3, [r3, #4]
 808 03cc 7A79     		ldrb	r2, [r7, #5]
 809 03ce 1A70     		strb	r2, [r3]
 267:build/openmote-cc2538_armgcc/openstack/02b-MAChigh/sixtop.c ****         len+=1;
 810              		.loc 1 267 0
 811 03d0 BB7D     		ldrb	r3, [r7, #22]
 812 03d2 0133     		adds	r3, r3, #1
 813 03d4 BB75     		strb	r3, [r7, #22]
 814 03d6 0DE0     		b	.L36
 815              	.L48:
 816              		.align	2
 817              	.L47:
 818 03d8 00000000 		.word	sixtop_vars
 819              	.L35:
 268:build/openmote-cc2538_armgcc/openstack/02b-MAChigh/sixtop.c ****     } else {
 269:build/openmote-cc2538_armgcc/openstack/02b-MAChigh/sixtop.c ****         // record the neighbor in case no response  for clear
 270:build/openmote-cc2538_armgcc/openstack/02b-MAChigh/sixtop.c ****         memcpy(&sixtop_vars.neighborToClearCells,neighbor,sizeof(open_addr_t));
 820              		.loc 1 270 0
 821 03dc 644B     		ldr	r3, .L49
 822 03de 3A68     		ldr	r2, [r7]
 823 03e0 03F13C04 		add	r4, r3, #60
 824 03e4 1546     		mov	r5, r2
 825 03e6 2868     		ldr	r0, [r5]	@ unaligned
 826 03e8 6968     		ldr	r1, [r5, #4]	@ unaligned
 827 03ea AA68     		ldr	r2, [r5, #8]	@ unaligned
 828 03ec EB68     		ldr	r3, [r5, #12]	@ unaligned
 829 03ee 0FC4     		stmia	r4!, {r0, r1, r2, r3}
 830 03f0 2B7C     		ldrb	r3, [r5, #16]
 831 03f2 2370     		strb	r3, [r4]
 832              	.L36:
 271:build/openmote-cc2538_armgcc/openstack/02b-MAChigh/sixtop.c ****     }
 272:build/openmote-cc2538_armgcc/openstack/02b-MAChigh/sixtop.c **** 
 273:build/openmote-cc2538_armgcc/openstack/02b-MAChigh/sixtop.c ****     // append 6p metadata
 274:build/openmote-cc2538_armgcc/openstack/02b-MAChigh/sixtop.c ****     packetfunctions_reserveHeaderSize(pkt,sizeof(uint16_t));
 833              		.loc 1 274 0
 834 03f4 3869     		ldr	r0, [r7, #16]
 835 03f6 0221     		movs	r1, #2
 836 03f8 FFF7FEFF 		bl	packetfunctions_reserveHeaderSize
 275:build/openmote-cc2538_armgcc/openstack/02b-MAChigh/sixtop.c ****     pkt->payload[0] = (uint8_t)( sixtop_vars.cb_sf_getMetadata() & 0x00FF);
 837              		.loc 1 275 0
 838 03fc 3B69     		ldr	r3, [r7, #16]
 839 03fe 5C68     		ldr	r4, [r3, #4]
 840 0400 5B4B     		ldr	r3, .L49
 841 0402 1B6B     		ldr	r3, [r3, #48]
 842 0404 9847     		blx	r3
 843 0406 0346     		mov	r3, r0
 844 0408 DBB2     		uxtb	r3, r3
 845 040a 2370     		strb	r3, [r4]
 276:build/openmote-cc2538_armgcc/openstack/02b-MAChigh/sixtop.c ****     pkt->payload[1] = (uint8_t)((sixtop_vars.cb_sf_getMetadata() & 0xFF00)>>8);
 846              		.loc 1 276 0
 847 040c 3B69     		ldr	r3, [r7, #16]
 848 040e 5B68     		ldr	r3, [r3, #4]
 849 0410 5C1C     		adds	r4, r3, #1
 850 0412 574B     		ldr	r3, .L49
 851 0414 1B6B     		ldr	r3, [r3, #48]
 852 0416 9847     		blx	r3
 853 0418 0346     		mov	r3, r0
 854 041a 1B0A     		lsrs	r3, r3, #8
 855 041c 9BB2     		uxth	r3, r3
 856 041e DBB2     		uxtb	r3, r3
 857 0420 2370     		strb	r3, [r4]
 277:build/openmote-cc2538_armgcc/openstack/02b-MAChigh/sixtop.c ****     len += 2;
 858              		.loc 1 277 0
 859 0422 BB7D     		ldrb	r3, [r7, #22]
 860 0424 0233     		adds	r3, r3, #2
 861 0426 BB75     		strb	r3, [r7, #22]
 278:build/openmote-cc2538_armgcc/openstack/02b-MAChigh/sixtop.c **** 
 279:build/openmote-cc2538_armgcc/openstack/02b-MAChigh/sixtop.c ****     // append 6p Seqnum and schedule Generation
 280:build/openmote-cc2538_armgcc/openstack/02b-MAChigh/sixtop.c ****     packetfunctions_reserveHeaderSize(pkt,sizeof(uint8_t));
 862              		.loc 1 280 0
 863 0428 3869     		ldr	r0, [r7, #16]
 864 042a 0121     		movs	r1, #1
 865 042c FFF7FEFF 		bl	packetfunctions_reserveHeaderSize
 281:build/openmote-cc2538_armgcc/openstack/02b-MAChigh/sixtop.c ****     sequenceNumber              = neighbors_getSequenceNumber(neighbor);
 866              		.loc 1 281 0
 867 0430 3868     		ldr	r0, [r7]
 868 0432 FFF7FEFF 		bl	neighbors_getSequenceNumber
 869 0436 0346     		mov	r3, r0
 870 0438 FB73     		strb	r3, [r7, #15]
 282:build/openmote-cc2538_armgcc/openstack/02b-MAChigh/sixtop.c ****     *((uint8_t*)(pkt->payload)) = sequenceNumber;
 871              		.loc 1 282 0
 872 043a 3B69     		ldr	r3, [r7, #16]
 873 043c 5B68     		ldr	r3, [r3, #4]
 874 043e FA7B     		ldrb	r2, [r7, #15]
 875 0440 1A70     		strb	r2, [r3]
 283:build/openmote-cc2538_armgcc/openstack/02b-MAChigh/sixtop.c ****     len += 1;
 876              		.loc 1 283 0
 877 0442 BB7D     		ldrb	r3, [r7, #22]
 878 0444 0133     		adds	r3, r3, #1
 879 0446 BB75     		strb	r3, [r7, #22]
 284:build/openmote-cc2538_armgcc/openstack/02b-MAChigh/sixtop.c **** 
 285:build/openmote-cc2538_armgcc/openstack/02b-MAChigh/sixtop.c ****     // append 6p sfid
 286:build/openmote-cc2538_armgcc/openstack/02b-MAChigh/sixtop.c ****     packetfunctions_reserveHeaderSize(pkt,sizeof(uint8_t));
 880              		.loc 1 286 0
 881 0448 3869     		ldr	r0, [r7, #16]
 882 044a 0121     		movs	r1, #1
 883 044c FFF7FEFF 		bl	packetfunctions_reserveHeaderSize
 287:build/openmote-cc2538_armgcc/openstack/02b-MAChigh/sixtop.c ****     *((uint8_t*)(pkt->payload)) = sfid;
 884              		.loc 1 287 0
 885 0450 3B69     		ldr	r3, [r7, #16]
 886 0452 5B68     		ldr	r3, [r3, #4]
 887 0454 97F83020 		ldrb	r2, [r7, #48]
 888 0458 1A70     		strb	r2, [r3]
 288:build/openmote-cc2538_armgcc/openstack/02b-MAChigh/sixtop.c ****     len += 1;
 889              		.loc 1 288 0
 890 045a BB7D     		ldrb	r3, [r7, #22]
 891 045c 0133     		adds	r3, r3, #1
 892 045e BB75     		strb	r3, [r7, #22]
 289:build/openmote-cc2538_armgcc/openstack/02b-MAChigh/sixtop.c **** 
 290:build/openmote-cc2538_armgcc/openstack/02b-MAChigh/sixtop.c ****     // append 6p code
 291:build/openmote-cc2538_armgcc/openstack/02b-MAChigh/sixtop.c ****     packetfunctions_reserveHeaderSize(pkt,sizeof(uint8_t));
 893              		.loc 1 291 0
 894 0460 3869     		ldr	r0, [r7, #16]
 895 0462 0121     		movs	r1, #1
 896 0464 FFF7FEFF 		bl	packetfunctions_reserveHeaderSize
 292:build/openmote-cc2538_armgcc/openstack/02b-MAChigh/sixtop.c ****     *((uint8_t*)(pkt->payload)) = code;
 897              		.loc 1 292 0
 898 0468 3B69     		ldr	r3, [r7, #16]
 899 046a 5B68     		ldr	r3, [r3, #4]
 900 046c FA79     		ldrb	r2, [r7, #7]
 901 046e 1A70     		strb	r2, [r3]
 293:build/openmote-cc2538_armgcc/openstack/02b-MAChigh/sixtop.c ****     // record the code to determine the action after 6p senddone
 294:build/openmote-cc2538_armgcc/openstack/02b-MAChigh/sixtop.c ****     pkt->l2_sixtop_command      = code;
 902              		.loc 1 294 0
 903 0470 3B69     		ldr	r3, [r7, #16]
 904 0472 FA79     		ldrb	r2, [r7, #7]
 905 0474 83F89120 		strb	r2, [r3, #145]
 295:build/openmote-cc2538_armgcc/openstack/02b-MAChigh/sixtop.c ****     len += 1;
 906              		.loc 1 295 0
 907 0478 BB7D     		ldrb	r3, [r7, #22]
 908 047a 0133     		adds	r3, r3, #1
 909 047c BB75     		strb	r3, [r7, #22]
 296:build/openmote-cc2538_armgcc/openstack/02b-MAChigh/sixtop.c **** 
 297:build/openmote-cc2538_armgcc/openstack/02b-MAChigh/sixtop.c ****     // append 6p version, T(type) and  R(reserved)
 298:build/openmote-cc2538_armgcc/openstack/02b-MAChigh/sixtop.c ****     packetfunctions_reserveHeaderSize(pkt,sizeof(uint8_t));
 910              		.loc 1 298 0
 911 047e 3869     		ldr	r0, [r7, #16]
 912 0480 0121     		movs	r1, #1
 913 0482 FFF7FEFF 		bl	packetfunctions_reserveHeaderSize
 299:build/openmote-cc2538_armgcc/openstack/02b-MAChigh/sixtop.c ****     *((uint8_t*)(pkt->payload)) = IANA_6TOP_6P_VERSION | IANA_6TOP_TYPE_REQUEST;
 914              		.loc 1 299 0
 915 0486 3B69     		ldr	r3, [r7, #16]
 916 0488 5B68     		ldr	r3, [r3, #4]
 917 048a 0022     		movs	r2, #0
 918 048c 1A70     		strb	r2, [r3]
 300:build/openmote-cc2538_armgcc/openstack/02b-MAChigh/sixtop.c ****     len += 1;
 919              		.loc 1 300 0
 920 048e BB7D     		ldrb	r3, [r7, #22]
 921 0490 0133     		adds	r3, r3, #1
 922 0492 BB75     		strb	r3, [r7, #22]
 301:build/openmote-cc2538_armgcc/openstack/02b-MAChigh/sixtop.c **** 
 302:build/openmote-cc2538_armgcc/openstack/02b-MAChigh/sixtop.c ****     // append 6p subtype id
 303:build/openmote-cc2538_armgcc/openstack/02b-MAChigh/sixtop.c ****     packetfunctions_reserveHeaderSize(pkt,sizeof(uint8_t));
 923              		.loc 1 303 0
 924 0494 3869     		ldr	r0, [r7, #16]
 925 0496 0121     		movs	r1, #1
 926 0498 FFF7FEFF 		bl	packetfunctions_reserveHeaderSize
 304:build/openmote-cc2538_armgcc/openstack/02b-MAChigh/sixtop.c ****     *((uint8_t*)(pkt->payload)) = IANA_6TOP_SUBIE_ID;
 927              		.loc 1 304 0
 928 049c 3B69     		ldr	r3, [r7, #16]
 929 049e 5B68     		ldr	r3, [r3, #4]
 930 04a0 C922     		movs	r2, #201
 931 04a2 1A70     		strb	r2, [r3]
 305:build/openmote-cc2538_armgcc/openstack/02b-MAChigh/sixtop.c ****     len += 1;
 932              		.loc 1 305 0
 933 04a4 BB7D     		ldrb	r3, [r7, #22]
 934 04a6 0133     		adds	r3, r3, #1
 935 04a8 BB75     		strb	r3, [r7, #22]
 306:build/openmote-cc2538_armgcc/openstack/02b-MAChigh/sixtop.c **** 
 307:build/openmote-cc2538_armgcc/openstack/02b-MAChigh/sixtop.c ****     // append IETF IE header (length_groupid_type)
 308:build/openmote-cc2538_armgcc/openstack/02b-MAChigh/sixtop.c ****     packetfunctions_reserveHeaderSize(pkt, sizeof(uint16_t));
 936              		.loc 1 308 0
 937 04aa 3869     		ldr	r0, [r7, #16]
 938 04ac 0221     		movs	r1, #2
 939 04ae FFF7FEFF 		bl	packetfunctions_reserveHeaderSize
 309:build/openmote-cc2538_armgcc/openstack/02b-MAChigh/sixtop.c ****     length_groupid_type  = len;
 940              		.loc 1 309 0
 941 04b2 BB7D     		ldrb	r3, [r7, #22]	@ zero_extendqisi2
 942 04b4 BB81     		strh	r3, [r7, #12]	@ movhi
 310:build/openmote-cc2538_armgcc/openstack/02b-MAChigh/sixtop.c ****     length_groupid_type |= (IANA_IETF_IE_GROUP_ID  | IANA_IETF_IE_TYPE);
 943              		.loc 1 310 0
 944 04b6 BB89     		ldrh	r3, [r7, #12]	@ movhi
 945 04b8 43F07F43 		orr	r3, r3, #-16777216
 946 04bc 43F47F03 		orr	r3, r3, #16711680
 947 04c0 43F42843 		orr	r3, r3, #43008
 948 04c4 BB81     		strh	r3, [r7, #12]	@ movhi
 311:build/openmote-cc2538_armgcc/openstack/02b-MAChigh/sixtop.c ****     pkt->payload[0]      = length_groupid_type        & 0xFF;
 949              		.loc 1 311 0
 950 04c6 3B69     		ldr	r3, [r7, #16]
 951 04c8 5B68     		ldr	r3, [r3, #4]
 952 04ca BA89     		ldrh	r2, [r7, #12]	@ movhi
 953 04cc D2B2     		uxtb	r2, r2
 954 04ce 1A70     		strb	r2, [r3]
 312:build/openmote-cc2538_armgcc/openstack/02b-MAChigh/sixtop.c ****     pkt->payload[1]      = (length_groupid_type >> 8) & 0xFF;
 955              		.loc 1 312 0
 956 04d0 3B69     		ldr	r3, [r7, #16]
 957 04d2 5B68     		ldr	r3, [r3, #4]
 958 04d4 0133     		adds	r3, r3, #1
 959 04d6 BA89     		ldrh	r2, [r7, #12]
 960 04d8 120A     		lsrs	r2, r2, #8
 961 04da 92B2     		uxth	r2, r2
 962 04dc D2B2     		uxtb	r2, r2
 963 04de 1A70     		strb	r2, [r3]
 313:build/openmote-cc2538_armgcc/openstack/02b-MAChigh/sixtop.c **** 
 314:build/openmote-cc2538_armgcc/openstack/02b-MAChigh/sixtop.c ****     // indicate IEs present
 315:build/openmote-cc2538_armgcc/openstack/02b-MAChigh/sixtop.c ****     pkt->l2_payloadIEpresent = TRUE;
 964              		.loc 1 315 0
 965 04e0 3B69     		ldr	r3, [r7, #16]
 966 04e2 0122     		movs	r2, #1
 967 04e4 83F89A20 		strb	r2, [r3, #154]
 316:build/openmote-cc2538_armgcc/openstack/02b-MAChigh/sixtop.c ****     // record this packet as sixtop request message
 317:build/openmote-cc2538_armgcc/openstack/02b-MAChigh/sixtop.c ****     pkt->l2_sixtop_messageType    = SIXTOP_CELL_REQUEST;
 968              		.loc 1 317 0
 969 04e8 3B69     		ldr	r3, [r7, #16]
 970 04ea 0022     		movs	r2, #0
 971 04ec 83F89020 		strb	r2, [r3, #144]
 318:build/openmote-cc2538_armgcc/openstack/02b-MAChigh/sixtop.c **** 
 319:build/openmote-cc2538_armgcc/openstack/02b-MAChigh/sixtop.c ****     // send packet
 320:build/openmote-cc2538_armgcc/openstack/02b-MAChigh/sixtop.c ****     outcome = sixtop_send(pkt);
 972              		.loc 1 320 0
 973 04f0 3869     		ldr	r0, [r7, #16]
 974 04f2 FFF7FEFF 		bl	sixtop_send
 975 04f6 0346     		mov	r3, r0
 976 04f8 FB72     		strb	r3, [r7, #11]
 321:build/openmote-cc2538_armgcc/openstack/02b-MAChigh/sixtop.c **** 
 322:build/openmote-cc2538_armgcc/openstack/02b-MAChigh/sixtop.c ****     if (outcome == E_SUCCESS){
 977              		.loc 1 322 0
 978 04fa FB7A     		ldrb	r3, [r7, #11]	@ zero_extendqisi2
 979 04fc 002B     		cmp	r3, #0
 980 04fe 2ED1     		bne	.L37
 323:build/openmote-cc2538_armgcc/openstack/02b-MAChigh/sixtop.c ****         //update states
 324:build/openmote-cc2538_armgcc/openstack/02b-MAChigh/sixtop.c ****         switch(code){
 981              		.loc 1 324 0
 982 0500 FB79     		ldrb	r3, [r7, #7]	@ zero_extendqisi2
 983 0502 013B     		subs	r3, r3, #1
 984 0504 062B     		cmp	r3, #6
 985 0506 2DD8     		bhi	.L46
 986 0508 01A2     		adr	r2, .L40
 987 050a 52F823F0 		ldr	pc, [r2, r3, lsl #2]
 988 050e 00BF     		.p2align 2
 989              	.L40:
 990 0510 2D050000 		.word	.L39+1
 991 0514 35050000 		.word	.L41+1
 992 0518 3D050000 		.word	.L42+1
 993 051c 45050000 		.word	.L43+1
 994 0520 4D050000 		.word	.L44+1
 995 0524 65050000 		.word	.L46+1
 996 0528 55050000 		.word	.L45+1
 997              		.p2align 1
 998              	.L39:
 325:build/openmote-cc2538_armgcc/openstack/02b-MAChigh/sixtop.c ****         case IANA_6TOP_CMD_ADD:
 326:build/openmote-cc2538_armgcc/openstack/02b-MAChigh/sixtop.c ****             sixtop_vars.six2six_state = SIX_STATE_WAIT_ADDREQUEST_SENDDONE;
 999              		.loc 1 326 0
 1000 052c 104B     		ldr	r3, .L49
 1001 052e 0122     		movs	r2, #1
 1002 0530 9A73     		strb	r2, [r3, #14]
 327:build/openmote-cc2538_armgcc/openstack/02b-MAChigh/sixtop.c ****             break;
 1003              		.loc 1 327 0
 1004 0532 13E0     		b	.L38
 1005              	.L41:
 328:build/openmote-cc2538_armgcc/openstack/02b-MAChigh/sixtop.c ****         case IANA_6TOP_CMD_DELETE:
 329:build/openmote-cc2538_armgcc/openstack/02b-MAChigh/sixtop.c ****             sixtop_vars.six2six_state = SIX_STATE_WAIT_DELETEREQUEST_SENDDONE;
 1006              		.loc 1 329 0
 1007 0534 0E4B     		ldr	r3, .L49
 1008 0536 0222     		movs	r2, #2
 1009 0538 9A73     		strb	r2, [r3, #14]
 330:build/openmote-cc2538_armgcc/openstack/02b-MAChigh/sixtop.c ****             break;
 1010              		.loc 1 330 0
 1011 053a 0FE0     		b	.L38
 1012              	.L42:
 331:build/openmote-cc2538_armgcc/openstack/02b-MAChigh/sixtop.c ****         case IANA_6TOP_CMD_RELOCATE:
 332:build/openmote-cc2538_armgcc/openstack/02b-MAChigh/sixtop.c ****             sixtop_vars.six2six_state = SIX_STATE_WAIT_RELOCATEREQUEST_SENDDONE;
 1013              		.loc 1 332 0
 1014 053c 0C4B     		ldr	r3, .L49
 1015 053e 0322     		movs	r2, #3
 1016 0540 9A73     		strb	r2, [r3, #14]
 333:build/openmote-cc2538_armgcc/openstack/02b-MAChigh/sixtop.c ****             break;
 1017              		.loc 1 333 0
 1018 0542 0BE0     		b	.L38
 1019              	.L43:
 334:build/openmote-cc2538_armgcc/openstack/02b-MAChigh/sixtop.c ****         case IANA_6TOP_CMD_COUNT:
 335:build/openmote-cc2538_armgcc/openstack/02b-MAChigh/sixtop.c ****             sixtop_vars.six2six_state = SIX_STATE_WAIT_COUNTREQUEST_SENDDONE;
 1020              		.loc 1 335 0
 1021 0544 0A4B     		ldr	r3, .L49
 1022 0546 0422     		movs	r2, #4
 1023 0548 9A73     		strb	r2, [r3, #14]
 336:build/openmote-cc2538_armgcc/openstack/02b-MAChigh/sixtop.c ****             break;
 1024              		.loc 1 336 0
 1025 054a 07E0     		b	.L38
 1026              	.L44:
 337:build/openmote-cc2538_armgcc/openstack/02b-MAChigh/sixtop.c ****         case IANA_6TOP_CMD_LIST:
 338:build/openmote-cc2538_armgcc/openstack/02b-MAChigh/sixtop.c ****             sixtop_vars.six2six_state = SIX_STATE_WAIT_LISTREQUEST_SENDDONE;
 1027              		.loc 1 338 0
 1028 054c 084B     		ldr	r3, .L49
 1029 054e 0522     		movs	r2, #5
 1030 0550 9A73     		strb	r2, [r3, #14]
 339:build/openmote-cc2538_armgcc/openstack/02b-MAChigh/sixtop.c ****             break;
 1031              		.loc 1 339 0
 1032 0552 03E0     		b	.L38
 1033              	.L45:
 340:build/openmote-cc2538_armgcc/openstack/02b-MAChigh/sixtop.c ****         case IANA_6TOP_CMD_CLEAR:
 341:build/openmote-cc2538_armgcc/openstack/02b-MAChigh/sixtop.c ****             sixtop_vars.six2six_state = SIX_STATE_WAIT_CLEARREQUEST_SENDDONE;
 1034              		.loc 1 341 0
 1035 0554 064B     		ldr	r3, .L49
 1036 0556 0622     		movs	r2, #6
 1037 0558 9A73     		strb	r2, [r3, #14]
 342:build/openmote-cc2538_armgcc/openstack/02b-MAChigh/sixtop.c ****             break;
 1038              		.loc 1 342 0
 1039 055a 00BF     		nop
 1040              	.L38:
 1041 055c 02E0     		b	.L46
 1042              	.L37:
 343:build/openmote-cc2538_armgcc/openstack/02b-MAChigh/sixtop.c ****         }
 344:build/openmote-cc2538_armgcc/openstack/02b-MAChigh/sixtop.c ****     } else {
 345:build/openmote-cc2538_armgcc/openstack/02b-MAChigh/sixtop.c ****         openqueue_freePacketBuffer(pkt);
 1043              		.loc 1 345 0
 1044 055e 3869     		ldr	r0, [r7, #16]
 1045 0560 FFF7FEFF 		bl	openqueue_freePacketBuffer
 1046              	.L46:
 346:build/openmote-cc2538_armgcc/openstack/02b-MAChigh/sixtop.c ****     }
 347:build/openmote-cc2538_armgcc/openstack/02b-MAChigh/sixtop.c ****     return outcome;
 1047              		.loc 1 347 0
 1048 0564 FB7A     		ldrb	r3, [r7, #11]	@ zero_extendqisi2
 1049              	.L19:
 348:build/openmote-cc2538_armgcc/openstack/02b-MAChigh/sixtop.c **** }
 1050              		.loc 1 348 0
 1051 0566 1846     		mov	r0, r3
 1052 0568 1837     		adds	r7, r7, #24
 1053              		.cfi_def_cfa_offset 16
 1054 056a BD46     		mov	sp, r7
 1055              		.cfi_def_cfa_register 13
 1056              		@ sp needed
 1057 056c B0BD     		pop	{r4, r5, r7, pc}
 1058              	.L50:
 1059 056e 00BF     		.align	2
 1060              	.L49:
 1061 0570 00000000 		.word	sixtop_vars
 1062              		.cfi_endproc
 1063              	.LFE4:
 1065              		.align	2
 1066              		.global	sixtop_send
 1067              		.thumb
 1068              		.thumb_func
 1070              	sixtop_send:
 1071              	.LFB5:
 349:build/openmote-cc2538_armgcc/openstack/02b-MAChigh/sixtop.c **** 
 350:build/openmote-cc2538_armgcc/openstack/02b-MAChigh/sixtop.c **** //======= from upper layer
 351:build/openmote-cc2538_armgcc/openstack/02b-MAChigh/sixtop.c **** 
 352:build/openmote-cc2538_armgcc/openstack/02b-MAChigh/sixtop.c **** owerror_t sixtop_send(OpenQueueEntry_t *msg) {
 1072              		.loc 1 352 0
 1073              		.cfi_startproc
 1074              		@ args = 0, pretend = 0, frame = 32
 1075              		@ frame_needed = 1, uses_anonymous_args = 0
 1076 0574 80B5     		push	{r7, lr}
 1077              		.cfi_def_cfa_offset 8
 1078              		.cfi_offset 7, -8
 1079              		.cfi_offset 14, -4
 1080 0576 88B0     		sub	sp, sp, #32
 1081              		.cfi_def_cfa_offset 40
 1082 0578 00AF     		add	r7, sp, #0
 1083              		.cfi_def_cfa_register 7
 1084 057a 7860     		str	r0, [r7, #4]
 353:build/openmote-cc2538_armgcc/openstack/02b-MAChigh/sixtop.c **** 
 354:build/openmote-cc2538_armgcc/openstack/02b-MAChigh/sixtop.c ****     open_addr_t addressToWrite;
 355:build/openmote-cc2538_armgcc/openstack/02b-MAChigh/sixtop.c **** 
 356:build/openmote-cc2538_armgcc/openstack/02b-MAChigh/sixtop.c ****     if (
 357:build/openmote-cc2538_armgcc/openstack/02b-MAChigh/sixtop.c ****         idmanager_getIsDAGroot() == FALSE               &&
 1085              		.loc 1 357 0
 1086 057c FFF7FEFF 		bl	idmanager_getIsDAGroot
 1087 0580 0346     		mov	r3, r0
 1088 0582 83F00103 		eor	r3, r3, #1
 1089 0586 DBB2     		uxtb	r3, r3
 356:build/openmote-cc2538_armgcc/openstack/02b-MAChigh/sixtop.c ****         idmanager_getIsDAGroot() == FALSE               &&
 1090              		.loc 1 356 0
 1091 0588 002B     		cmp	r3, #0
 1092 058a 27D0     		beq	.L52
 358:build/openmote-cc2538_armgcc/openstack/02b-MAChigh/sixtop.c ****         (
 359:build/openmote-cc2538_armgcc/openstack/02b-MAChigh/sixtop.c ****             msg->creator != COMPONENT_SIXTOP_RES        &&
 1093              		.loc 1 359 0
 1094 058c 7B68     		ldr	r3, [r7, #4]
 1095 058e 1B78     		ldrb	r3, [r3]	@ zero_extendqisi2
 357:build/openmote-cc2538_armgcc/openstack/02b-MAChigh/sixtop.c ****         (
 1096              		.loc 1 357 0
 1097 0590 0F2B     		cmp	r3, #15
 1098 0592 23D0     		beq	.L52
 360:build/openmote-cc2538_armgcc/openstack/02b-MAChigh/sixtop.c ****             msg->creator != COMPONENT_CJOIN             &&
 1099              		.loc 1 360 0
 1100 0594 7B68     		ldr	r3, [r7, #4]
 1101 0596 1B78     		ldrb	r3, [r3]	@ zero_extendqisi2
 359:build/openmote-cc2538_armgcc/openstack/02b-MAChigh/sixtop.c ****             msg->creator != COMPONENT_CJOIN             &&
 1102              		.loc 1 359 0
 1103 0598 272B     		cmp	r3, #39
 1104 059a 1FD0     		beq	.L52
 361:build/openmote-cc2538_armgcc/openstack/02b-MAChigh/sixtop.c ****             (
 362:build/openmote-cc2538_armgcc/openstack/02b-MAChigh/sixtop.c ****                 icmpv6rpl_getPreferredParentEui64(&addressToWrite) == FALSE      ||
 1105              		.loc 1 362 0
 1106 059c 07F10C03 		add	r3, r7, #12
 1107 05a0 1846     		mov	r0, r3
 1108 05a2 FFF7FEFF 		bl	icmpv6rpl_getPreferredParentEui64
 1109 05a6 0346     		mov	r3, r0
 1110 05a8 83F00103 		eor	r3, r3, #1
 1111 05ac DBB2     		uxtb	r3, r3
 360:build/openmote-cc2538_armgcc/openstack/02b-MAChigh/sixtop.c ****             (
 1112              		.loc 1 360 0
 1113 05ae 002B     		cmp	r3, #0
 1114 05b0 12D1     		bne	.L53
 363:build/openmote-cc2538_armgcc/openstack/02b-MAChigh/sixtop.c ****                 (
 364:build/openmote-cc2538_armgcc/openstack/02b-MAChigh/sixtop.c ****                     icmpv6rpl_getPreferredParentEui64(&addressToWrite)           &&
 1115              		.loc 1 364 0
 1116 05b2 07F10C03 		add	r3, r7, #12
 1117 05b6 1846     		mov	r0, r3
 1118 05b8 FFF7FEFF 		bl	icmpv6rpl_getPreferredParentEui64
 1119 05bc 0346     		mov	r3, r0
 362:build/openmote-cc2538_armgcc/openstack/02b-MAChigh/sixtop.c ****                 (
 1120              		.loc 1 362 0
 1121 05be 002B     		cmp	r3, #0
 1122 05c0 0CD0     		beq	.L52
 365:build/openmote-cc2538_armgcc/openstack/02b-MAChigh/sixtop.c ****                     schedule_hasDedicatedCellToNeighbor(&addressToWrite)== FALSE
 1123              		.loc 1 365 0
 1124 05c2 07F10C03 		add	r3, r7, #12
 1125 05c6 1846     		mov	r0, r3
 1126 05c8 FFF7FEFF 		bl	schedule_hasDedicatedCellToNeighbor
 1127 05cc 0346     		mov	r3, r0
 1128 05ce 83F00103 		eor	r3, r3, #1
 1129 05d2 DBB2     		uxtb	r3, r3
 364:build/openmote-cc2538_armgcc/openstack/02b-MAChigh/sixtop.c ****                     schedule_hasDedicatedCellToNeighbor(&addressToWrite)== FALSE
 1130              		.loc 1 364 0
 1131 05d4 002B     		cmp	r3, #0
 1132 05d6 01D0     		beq	.L52
 1133              	.L53:
 366:build/openmote-cc2538_armgcc/openstack/02b-MAChigh/sixtop.c ****                 )
 367:build/openmote-cc2538_armgcc/openstack/02b-MAChigh/sixtop.c ****             )
 368:build/openmote-cc2538_armgcc/openstack/02b-MAChigh/sixtop.c ****         )
 369:build/openmote-cc2538_armgcc/openstack/02b-MAChigh/sixtop.c ****     ){
 370:build/openmote-cc2538_armgcc/openstack/02b-MAChigh/sixtop.c ****         return E_FAIL;
 1134              		.loc 1 370 0
 1135 05d8 0123     		movs	r3, #1
 1136 05da 2CE0     		b	.L56
 1137              	.L52:
 371:build/openmote-cc2538_armgcc/openstack/02b-MAChigh/sixtop.c ****     }
 372:build/openmote-cc2538_armgcc/openstack/02b-MAChigh/sixtop.c **** 
 373:build/openmote-cc2538_armgcc/openstack/02b-MAChigh/sixtop.c ****     // set metadata
 374:build/openmote-cc2538_armgcc/openstack/02b-MAChigh/sixtop.c ****     msg->owner        = COMPONENT_SIXTOP;
 1138              		.loc 1 374 0
 1139 05dc 7B68     		ldr	r3, [r7, #4]
 1140 05de 0C22     		movs	r2, #12
 1141 05e0 5A70     		strb	r2, [r3, #1]
 375:build/openmote-cc2538_armgcc/openstack/02b-MAChigh/sixtop.c ****     msg->l2_frameType = IEEE154_TYPE_DATA;
 1142              		.loc 1 375 0
 1143 05e2 7B68     		ldr	r3, [r7, #4]
 1144 05e4 0122     		movs	r2, #1
 1145 05e6 83F84D20 		strb	r2, [r3, #77]
 376:build/openmote-cc2538_armgcc/openstack/02b-MAChigh/sixtop.c **** 
 377:build/openmote-cc2538_armgcc/openstack/02b-MAChigh/sixtop.c ****     // set l2-security attributes
 378:build/openmote-cc2538_armgcc/openstack/02b-MAChigh/sixtop.c ****     msg->l2_securityLevel   = IEEE802154_security_getSecurityLevel(msg);
 1146              		.loc 1 378 0
 1147 05ea 7868     		ldr	r0, [r7, #4]
 1148 05ec FFF7FEFF 		bl	IEEE802154_security_getSecurityLevel
 1149 05f0 0346     		mov	r3, r0
 1150 05f2 1A46     		mov	r2, r3
 1151 05f4 7B68     		ldr	r3, [r7, #4]
 1152 05f6 83F8A020 		strb	r2, [r3, #160]
 379:build/openmote-cc2538_armgcc/openstack/02b-MAChigh/sixtop.c ****     msg->l2_keyIdMode       = IEEE802154_SECURITY_KEYIDMODE;
 1153              		.loc 1 379 0
 1154 05fa 7B68     		ldr	r3, [r7, #4]
 1155 05fc 0022     		movs	r2, #0
 1156 05fe 83F8A120 		strb	r2, [r3, #161]
 380:build/openmote-cc2538_armgcc/openstack/02b-MAChigh/sixtop.c ****     msg->l2_keyIndex        = IEEE802154_security_getDataKeyIndex();
 1157              		.loc 1 380 0
 1158 0602 FFF7FEFF 		bl	IEEE802154_security_getDataKeyIndex
 1159 0606 0346     		mov	r3, r0
 1160 0608 1A46     		mov	r2, r3
 1161 060a 7B68     		ldr	r3, [r7, #4]
 1162 060c 83F8A220 		strb	r2, [r3, #162]
 381:build/openmote-cc2538_armgcc/openstack/02b-MAChigh/sixtop.c **** 
 382:build/openmote-cc2538_armgcc/openstack/02b-MAChigh/sixtop.c ****     if (msg->l2_payloadIEpresent == FALSE) {
 1163              		.loc 1 382 0
 1164 0610 7B68     		ldr	r3, [r7, #4]
 1165 0612 93F89A30 		ldrb	r3, [r3, #154]	@ zero_extendqisi2
 1166 0616 83F00103 		eor	r3, r3, #1
 1167 061a DBB2     		uxtb	r3, r3
 1168 061c 002B     		cmp	r3, #0
 1169 061e 05D0     		beq	.L55
 383:build/openmote-cc2538_armgcc/openstack/02b-MAChigh/sixtop.c ****         return sixtop_send_internal(
 1170              		.loc 1 383 0
 1171 0620 7868     		ldr	r0, [r7, #4]
 1172 0622 0021     		movs	r1, #0
 1173 0624 FFF7FEFF 		bl	sixtop_send_internal
 1174 0628 0346     		mov	r3, r0
 1175 062a 04E0     		b	.L56
 1176              	.L55:
 384:build/openmote-cc2538_armgcc/openstack/02b-MAChigh/sixtop.c ****             msg,
 385:build/openmote-cc2538_armgcc/openstack/02b-MAChigh/sixtop.c ****             FALSE
 386:build/openmote-cc2538_armgcc/openstack/02b-MAChigh/sixtop.c ****         );
 387:build/openmote-cc2538_armgcc/openstack/02b-MAChigh/sixtop.c ****     } else {
 388:build/openmote-cc2538_armgcc/openstack/02b-MAChigh/sixtop.c ****         return sixtop_send_internal(
 1177              		.loc 1 388 0
 1178 062c 7868     		ldr	r0, [r7, #4]
 1179 062e 0121     		movs	r1, #1
 1180 0630 FFF7FEFF 		bl	sixtop_send_internal
 1181 0634 0346     		mov	r3, r0
 1182              	.L56:
 389:build/openmote-cc2538_armgcc/openstack/02b-MAChigh/sixtop.c ****             msg,
 390:build/openmote-cc2538_armgcc/openstack/02b-MAChigh/sixtop.c ****             TRUE
 391:build/openmote-cc2538_armgcc/openstack/02b-MAChigh/sixtop.c ****         );
 392:build/openmote-cc2538_armgcc/openstack/02b-MAChigh/sixtop.c ****     }
 393:build/openmote-cc2538_armgcc/openstack/02b-MAChigh/sixtop.c **** }
 1183              		.loc 1 393 0 discriminator 1
 1184 0636 1846     		mov	r0, r3
 1185 0638 2037     		adds	r7, r7, #32
 1186              		.cfi_def_cfa_offset 8
 1187 063a BD46     		mov	sp, r7
 1188              		.cfi_def_cfa_register 13
 1189              		@ sp needed
 1190 063c 80BD     		pop	{r7, pc}
 1191              		.cfi_endproc
 1192              	.LFE5:
 1194 063e 00BF     		.align	2
 1195              		.global	task_sixtopNotifSendDone
 1196              		.thumb
 1197              		.thumb_func
 1199              	task_sixtopNotifSendDone:
 1200              	.LFB6:
 394:build/openmote-cc2538_armgcc/openstack/02b-MAChigh/sixtop.c **** 
 395:build/openmote-cc2538_armgcc/openstack/02b-MAChigh/sixtop.c **** //======= from lower layer
 396:build/openmote-cc2538_armgcc/openstack/02b-MAChigh/sixtop.c **** 
 397:build/openmote-cc2538_armgcc/openstack/02b-MAChigh/sixtop.c **** void task_sixtopNotifSendDone(void) {
 1201              		.loc 1 397 0
 1202              		.cfi_startproc
 1203              		@ args = 0, pretend = 0, frame = 8
 1204              		@ frame_needed = 1, uses_anonymous_args = 0
 1205 0640 80B5     		push	{r7, lr}
 1206              		.cfi_def_cfa_offset 8
 1207              		.cfi_offset 7, -8
 1208              		.cfi_offset 14, -4
 1209 0642 82B0     		sub	sp, sp, #8
 1210              		.cfi_def_cfa_offset 16
 1211 0644 00AF     		add	r7, sp, #0
 1212              		.cfi_def_cfa_register 7
 398:build/openmote-cc2538_armgcc/openstack/02b-MAChigh/sixtop.c ****     OpenQueueEntry_t* msg;
 399:build/openmote-cc2538_armgcc/openstack/02b-MAChigh/sixtop.c **** 
 400:build/openmote-cc2538_armgcc/openstack/02b-MAChigh/sixtop.c ****     // get recently-sent packet from openqueue
 401:build/openmote-cc2538_armgcc/openstack/02b-MAChigh/sixtop.c ****     msg = openqueue_sixtopGetSentPacket();
 1213              		.loc 1 401 0
 1214 0646 FFF7FEFF 		bl	openqueue_sixtopGetSentPacket
 1215 064a 7860     		str	r0, [r7, #4]
 402:build/openmote-cc2538_armgcc/openstack/02b-MAChigh/sixtop.c ****     if (msg==NULL) {
 1216              		.loc 1 402 0
 1217 064c 7B68     		ldr	r3, [r7, #4]
 1218 064e 002B     		cmp	r3, #0
 1219 0650 06D1     		bne	.L58
 403:build/openmote-cc2538_armgcc/openstack/02b-MAChigh/sixtop.c ****         openserial_printCritical(
 1220              		.loc 1 403 0
 1221 0652 0C20     		movs	r0, #12
 1222 0654 1521     		movs	r1, #21
 1223 0656 0022     		movs	r2, #0
 1224 0658 0023     		movs	r3, #0
 1225 065a FFF7FEFF 		bl	openserial_printCritical
 404:build/openmote-cc2538_armgcc/openstack/02b-MAChigh/sixtop.c ****             COMPONENT_SIXTOP,
 405:build/openmote-cc2538_armgcc/openstack/02b-MAChigh/sixtop.c ****             ERR_NO_SENT_PACKET,
 406:build/openmote-cc2538_armgcc/openstack/02b-MAChigh/sixtop.c ****             (errorparameter_t)0,
 407:build/openmote-cc2538_armgcc/openstack/02b-MAChigh/sixtop.c ****             (errorparameter_t)0
 408:build/openmote-cc2538_armgcc/openstack/02b-MAChigh/sixtop.c ****         );
 409:build/openmote-cc2538_armgcc/openstack/02b-MAChigh/sixtop.c ****         return;
 1226              		.loc 1 409 0
 1227 065e 49E0     		b	.L57
 1228              	.L58:
 410:build/openmote-cc2538_armgcc/openstack/02b-MAChigh/sixtop.c ****     }
 411:build/openmote-cc2538_armgcc/openstack/02b-MAChigh/sixtop.c **** 
 412:build/openmote-cc2538_armgcc/openstack/02b-MAChigh/sixtop.c ****     // take ownership
 413:build/openmote-cc2538_armgcc/openstack/02b-MAChigh/sixtop.c ****     msg->owner = COMPONENT_SIXTOP;
 1229              		.loc 1 413 0
 1230 0660 7B68     		ldr	r3, [r7, #4]
 1231 0662 0C22     		movs	r2, #12
 1232 0664 5A70     		strb	r2, [r3, #1]
 414:build/openmote-cc2538_armgcc/openstack/02b-MAChigh/sixtop.c **** 
 415:build/openmote-cc2538_armgcc/openstack/02b-MAChigh/sixtop.c ****     // update neighbor statistics
 416:build/openmote-cc2538_armgcc/openstack/02b-MAChigh/sixtop.c ****     if (msg->l2_sendDoneError==E_SUCCESS) {
 1233              		.loc 1 416 0
 1234 0666 7B68     		ldr	r3, [r7, #4]
 1235 0668 93F83B30 		ldrb	r3, [r3, #59]	@ zero_extendqisi2
 1236 066c 002B     		cmp	r3, #0
 1237 066e 0DD1     		bne	.L60
 417:build/openmote-cc2538_armgcc/openstack/02b-MAChigh/sixtop.c ****         neighbors_indicateTx(
 1238              		.loc 1 417 0
 1239 0670 7B68     		ldr	r3, [r7, #4]
 1240 0672 03F13C01 		add	r1, r3, #60
 1241 0676 7B68     		ldr	r3, [r7, #4]
 1242 0678 93F85020 		ldrb	r2, [r3, #80]	@ zero_extendqisi2
 1243 067c 7B68     		ldr	r3, [r7, #4]
 1244 067e 5133     		adds	r3, r3, #81
 1245 0680 0846     		mov	r0, r1
 1246 0682 1146     		mov	r1, r2
 1247 0684 0122     		movs	r2, #1
 1248 0686 FFF7FEFF 		bl	neighbors_indicateTx
 1249 068a 0CE0     		b	.L61
 1250              	.L60:
 418:build/openmote-cc2538_armgcc/openstack/02b-MAChigh/sixtop.c ****             &(msg->l2_nextORpreviousHop),
 419:build/openmote-cc2538_armgcc/openstack/02b-MAChigh/sixtop.c ****             msg->l2_numTxAttempts,
 420:build/openmote-cc2538_armgcc/openstack/02b-MAChigh/sixtop.c ****             TRUE,
 421:build/openmote-cc2538_armgcc/openstack/02b-MAChigh/sixtop.c ****             &msg->l2_asn
 422:build/openmote-cc2538_armgcc/openstack/02b-MAChigh/sixtop.c ****         );
 423:build/openmote-cc2538_armgcc/openstack/02b-MAChigh/sixtop.c ****     } else {
 424:build/openmote-cc2538_armgcc/openstack/02b-MAChigh/sixtop.c ****         neighbors_indicateTx(
 1251              		.loc 1 424 0
 1252 068c 7B68     		ldr	r3, [r7, #4]
 1253 068e 03F13C01 		add	r1, r3, #60
 1254 0692 7B68     		ldr	r3, [r7, #4]
 1255 0694 93F85020 		ldrb	r2, [r3, #80]	@ zero_extendqisi2
 1256 0698 7B68     		ldr	r3, [r7, #4]
 1257 069a 5133     		adds	r3, r3, #81
 1258 069c 0846     		mov	r0, r1
 1259 069e 1146     		mov	r1, r2
 1260 06a0 0022     		movs	r2, #0
 1261 06a2 FFF7FEFF 		bl	neighbors_indicateTx
 1262              	.L61:
 425:build/openmote-cc2538_armgcc/openstack/02b-MAChigh/sixtop.c ****              &(msg->l2_nextORpreviousHop),
 426:build/openmote-cc2538_armgcc/openstack/02b-MAChigh/sixtop.c ****              msg->l2_numTxAttempts,
 427:build/openmote-cc2538_armgcc/openstack/02b-MAChigh/sixtop.c ****              FALSE,
 428:build/openmote-cc2538_armgcc/openstack/02b-MAChigh/sixtop.c ****              &msg->l2_asn
 429:build/openmote-cc2538_armgcc/openstack/02b-MAChigh/sixtop.c ****         );
 430:build/openmote-cc2538_armgcc/openstack/02b-MAChigh/sixtop.c ****     }
 431:build/openmote-cc2538_armgcc/openstack/02b-MAChigh/sixtop.c **** 
 432:build/openmote-cc2538_armgcc/openstack/02b-MAChigh/sixtop.c ****     // send the packet to where it belongs
 433:build/openmote-cc2538_armgcc/openstack/02b-MAChigh/sixtop.c ****     switch (msg->creator) {
 1263              		.loc 1 433 0
 1264 06a6 7B68     		ldr	r3, [r7, #4]
 1265 06a8 1B78     		ldrb	r3, [r3]	@ zero_extendqisi2
 1266 06aa 0C2B     		cmp	r3, #12
 1267 06ac 02D0     		beq	.L63
 1268 06ae 0F2B     		cmp	r3, #15
 1269 06b0 10D0     		beq	.L64
 1270 06b2 17E0     		b	.L67
 1271              	.L63:
 434:build/openmote-cc2538_armgcc/openstack/02b-MAChigh/sixtop.c ****         case COMPONENT_SIXTOP:
 435:build/openmote-cc2538_armgcc/openstack/02b-MAChigh/sixtop.c ****             if (msg->l2_frameType==IEEE154_TYPE_BEACON) {
 1272              		.loc 1 435 0
 1273 06b4 7B68     		ldr	r3, [r7, #4]
 1274 06b6 93F84D30 		ldrb	r3, [r3, #77]	@ zero_extendqisi2
 1275 06ba 002B     		cmp	r3, #0
 1276 06bc 03D1     		bne	.L65
 436:build/openmote-cc2538_armgcc/openstack/02b-MAChigh/sixtop.c ****                 // this is a EB
 437:build/openmote-cc2538_armgcc/openstack/02b-MAChigh/sixtop.c **** 
 438:build/openmote-cc2538_armgcc/openstack/02b-MAChigh/sixtop.c ****                 // not busy sending EB anymore
 439:build/openmote-cc2538_armgcc/openstack/02b-MAChigh/sixtop.c ****                 sixtop_vars.busySendingEB = FALSE;
 1277              		.loc 1 439 0
 1278 06be 0F4B     		ldr	r3, .L68
 1279 06c0 0022     		movs	r2, #0
 1280 06c2 DA70     		strb	r2, [r3, #3]
 1281 06c4 02E0     		b	.L66
 1282              	.L65:
 440:build/openmote-cc2538_armgcc/openstack/02b-MAChigh/sixtop.c ****             } else {
 441:build/openmote-cc2538_armgcc/openstack/02b-MAChigh/sixtop.c ****                 // this is a KA
 442:build/openmote-cc2538_armgcc/openstack/02b-MAChigh/sixtop.c **** 
 443:build/openmote-cc2538_armgcc/openstack/02b-MAChigh/sixtop.c ****                 // not busy sending KA anymore
 444:build/openmote-cc2538_armgcc/openstack/02b-MAChigh/sixtop.c ****                 sixtop_vars.busySendingKA = FALSE;
 1283              		.loc 1 444 0
 1284 06c6 0D4B     		ldr	r3, .L68
 1285 06c8 0022     		movs	r2, #0
 1286 06ca 9A70     		strb	r2, [r3, #2]
 1287              	.L66:
 445:build/openmote-cc2538_armgcc/openstack/02b-MAChigh/sixtop.c ****             }
 446:build/openmote-cc2538_armgcc/openstack/02b-MAChigh/sixtop.c ****             // discard packets
 447:build/openmote-cc2538_armgcc/openstack/02b-MAChigh/sixtop.c ****             openqueue_freePacketBuffer(msg);
 1288              		.loc 1 447 0
 1289 06cc 7868     		ldr	r0, [r7, #4]
 1290 06ce FFF7FEFF 		bl	openqueue_freePacketBuffer
 448:build/openmote-cc2538_armgcc/openstack/02b-MAChigh/sixtop.c ****             break;
 1291              		.loc 1 448 0
 1292 06d2 0FE0     		b	.L57
 1293              	.L64:
 449:build/openmote-cc2538_armgcc/openstack/02b-MAChigh/sixtop.c ****         case COMPONENT_SIXTOP_RES:
 450:build/openmote-cc2538_armgcc/openstack/02b-MAChigh/sixtop.c ****             sixtop_six2six_sendDone(msg,msg->l2_sendDoneError);
 1294              		.loc 1 450 0
 1295 06d4 7B68     		ldr	r3, [r7, #4]
 1296 06d6 93F83B30 		ldrb	r3, [r3, #59]	@ zero_extendqisi2
 1297 06da 7868     		ldr	r0, [r7, #4]
 1298 06dc 1946     		mov	r1, r3
 1299 06de FFF7FEFF 		bl	sixtop_six2six_sendDone
 451:build/openmote-cc2538_armgcc/openstack/02b-MAChigh/sixtop.c ****             break;
 1300              		.loc 1 451 0
 1301 06e2 07E0     		b	.L57
 1302              	.L67:
 452:build/openmote-cc2538_armgcc/openstack/02b-MAChigh/sixtop.c ****         default:
 453:build/openmote-cc2538_armgcc/openstack/02b-MAChigh/sixtop.c ****             // send the rest up the stack
 454:build/openmote-cc2538_armgcc/openstack/02b-MAChigh/sixtop.c ****             iphc_sendDone(msg,msg->l2_sendDoneError);
 1303              		.loc 1 454 0
 1304 06e4 7B68     		ldr	r3, [r7, #4]
 1305 06e6 93F83B30 		ldrb	r3, [r3, #59]	@ zero_extendqisi2
 1306 06ea 7868     		ldr	r0, [r7, #4]
 1307 06ec 1946     		mov	r1, r3
 1308 06ee FFF7FEFF 		bl	iphc_sendDone
 455:build/openmote-cc2538_armgcc/openstack/02b-MAChigh/sixtop.c ****             break;
 1309              		.loc 1 455 0
 1310 06f2 00BF     		nop
 1311              	.L57:
 456:build/openmote-cc2538_armgcc/openstack/02b-MAChigh/sixtop.c ****     }
 457:build/openmote-cc2538_armgcc/openstack/02b-MAChigh/sixtop.c **** }
 1312              		.loc 1 457 0
 1313 06f4 0837     		adds	r7, r7, #8
 1314              		.cfi_def_cfa_offset 8
 1315 06f6 BD46     		mov	sp, r7
 1316              		.cfi_def_cfa_register 13
 1317              		@ sp needed
 1318 06f8 80BD     		pop	{r7, pc}
 1319              	.L69:
 1320 06fa 00BF     		.align	2
 1321              	.L68:
 1322 06fc 00000000 		.word	sixtop_vars
 1323              		.cfi_endproc
 1324              	.LFE6:
 1326              		.align	2
 1327              		.global	task_sixtopNotifReceive
 1328              		.thumb
 1329              		.thumb_func
 1331              	task_sixtopNotifReceive:
 1332              	.LFB7:
 458:build/openmote-cc2538_armgcc/openstack/02b-MAChigh/sixtop.c **** 
 459:build/openmote-cc2538_armgcc/openstack/02b-MAChigh/sixtop.c **** void task_sixtopNotifReceive(void) {
 1333              		.loc 1 459 0
 1334              		.cfi_startproc
 1335              		@ args = 0, pretend = 0, frame = 8
 1336              		@ frame_needed = 1, uses_anonymous_args = 0
 1337 0700 B0B5     		push	{r4, r5, r7, lr}
 1338              		.cfi_def_cfa_offset 16
 1339              		.cfi_offset 4, -16
 1340              		.cfi_offset 5, -12
 1341              		.cfi_offset 7, -8
 1342              		.cfi_offset 14, -4
 1343 0702 84B0     		sub	sp, sp, #16
 1344              		.cfi_def_cfa_offset 32
 1345 0704 02AF     		add	r7, sp, #8
 1346              		.cfi_def_cfa 7, 24
 460:build/openmote-cc2538_armgcc/openstack/02b-MAChigh/sixtop.c ****     OpenQueueEntry_t* msg;
 461:build/openmote-cc2538_armgcc/openstack/02b-MAChigh/sixtop.c ****     uint16_t          lenIE;
 462:build/openmote-cc2538_armgcc/openstack/02b-MAChigh/sixtop.c ****     // get received packet from openqueue
 463:build/openmote-cc2538_armgcc/openstack/02b-MAChigh/sixtop.c ****     msg = openqueue_sixtopGetReceivedPacket();
 1347              		.loc 1 463 0
 1348 0706 FFF7FEFF 		bl	openqueue_sixtopGetReceivedPacket
 1349 070a 7860     		str	r0, [r7, #4]
 464:build/openmote-cc2538_armgcc/openstack/02b-MAChigh/sixtop.c ****     if (msg==NULL) {
 1350              		.loc 1 464 0
 1351 070c 7B68     		ldr	r3, [r7, #4]
 1352 070e 002B     		cmp	r3, #0
 1353 0710 06D1     		bne	.L71
 465:build/openmote-cc2538_armgcc/openstack/02b-MAChigh/sixtop.c ****         openserial_printCritical(
 1354              		.loc 1 465 0
 1355 0712 0C20     		movs	r0, #12
 1356 0714 1621     		movs	r1, #22
 1357 0716 0022     		movs	r2, #0
 1358 0718 0023     		movs	r3, #0
 1359 071a FFF7FEFF 		bl	openserial_printCritical
 466:build/openmote-cc2538_armgcc/openstack/02b-MAChigh/sixtop.c ****             COMPONENT_SIXTOP,
 467:build/openmote-cc2538_armgcc/openstack/02b-MAChigh/sixtop.c ****             ERR_NO_RECEIVED_PACKET,
 468:build/openmote-cc2538_armgcc/openstack/02b-MAChigh/sixtop.c ****             (errorparameter_t)0,
 469:build/openmote-cc2538_armgcc/openstack/02b-MAChigh/sixtop.c ****             (errorparameter_t)0
 470:build/openmote-cc2538_armgcc/openstack/02b-MAChigh/sixtop.c ****         );
 471:build/openmote-cc2538_armgcc/openstack/02b-MAChigh/sixtop.c ****         return;
 1360              		.loc 1 471 0
 1361 071e 71E0     		b	.L70
 1362              	.L71:
 472:build/openmote-cc2538_armgcc/openstack/02b-MAChigh/sixtop.c ****     }
 473:build/openmote-cc2538_armgcc/openstack/02b-MAChigh/sixtop.c **** 
 474:build/openmote-cc2538_armgcc/openstack/02b-MAChigh/sixtop.c ****     // take ownership
 475:build/openmote-cc2538_armgcc/openstack/02b-MAChigh/sixtop.c ****     msg->owner = COMPONENT_SIXTOP;
 1363              		.loc 1 475 0
 1364 0720 7B68     		ldr	r3, [r7, #4]
 1365 0722 0C22     		movs	r2, #12
 1366 0724 5A70     		strb	r2, [r3, #1]
 476:build/openmote-cc2538_armgcc/openstack/02b-MAChigh/sixtop.c **** 
 477:build/openmote-cc2538_armgcc/openstack/02b-MAChigh/sixtop.c ****     // update neighbor statistics
 478:build/openmote-cc2538_armgcc/openstack/02b-MAChigh/sixtop.c ****     neighbors_indicateRx(
 1367              		.loc 1 478 0
 1368 0726 7B68     		ldr	r3, [r7, #4]
 1369 0728 03F13C00 		add	r0, r3, #60
 1370 072c 7B68     		ldr	r3, [r7, #4]
 1371 072e 93F8BD10 		ldrb	r1, [r3, #189]	@ zero_extendqisi2
 1372 0732 7B68     		ldr	r3, [r7, #4]
 1373 0734 03F15105 		add	r5, r3, #81
 1374 0738 7B68     		ldr	r3, [r7, #4]
 1375 073a 93F89B40 		ldrb	r4, [r3, #155]	@ zero_extendqisi2
 1376 073e 7B68     		ldr	r3, [r7, #4]
 1377 0740 93F89820 		ldrb	r2, [r3, #152]	@ zero_extendqisi2
 479:build/openmote-cc2538_armgcc/openstack/02b-MAChigh/sixtop.c ****         &(msg->l2_nextORpreviousHop),
 480:build/openmote-cc2538_armgcc/openstack/02b-MAChigh/sixtop.c ****         msg->l1_rssi,
 481:build/openmote-cc2538_armgcc/openstack/02b-MAChigh/sixtop.c ****         &msg->l2_asn,
 482:build/openmote-cc2538_armgcc/openstack/02b-MAChigh/sixtop.c ****         msg->l2_joinPriorityPresent,
 483:build/openmote-cc2538_armgcc/openstack/02b-MAChigh/sixtop.c ****         msg->l2_joinPriority,
 484:build/openmote-cc2538_armgcc/openstack/02b-MAChigh/sixtop.c ****         msg->l2_securityLevel == IEEE154_ASH_SLF_TYPE_NOSEC ? TRUE : FALSE
 1378              		.loc 1 484 0
 1379 0744 7B68     		ldr	r3, [r7, #4]
 1380 0746 93F8A030 		ldrb	r3, [r3, #160]	@ zero_extendqisi2
 478:build/openmote-cc2538_armgcc/openstack/02b-MAChigh/sixtop.c ****         &(msg->l2_nextORpreviousHop),
 1381              		.loc 1 478 0
 1382 074a 002B     		cmp	r3, #0
 1383 074c 0CBF     		ite	eq
 1384 074e 0123     		moveq	r3, #1
 1385 0750 0023     		movne	r3, #0
 1386 0752 DBB2     		uxtb	r3, r3
 1387 0754 49B2     		sxtb	r1, r1
 1388 0756 0092     		str	r2, [sp]
 1389 0758 0193     		str	r3, [sp, #4]
 1390 075a 2A46     		mov	r2, r5
 1391 075c 2346     		mov	r3, r4
 1392 075e FFF7FEFF 		bl	neighbors_indicateRx
 485:build/openmote-cc2538_armgcc/openstack/02b-MAChigh/sixtop.c ****     );
 486:build/openmote-cc2538_armgcc/openstack/02b-MAChigh/sixtop.c **** 
 487:build/openmote-cc2538_armgcc/openstack/02b-MAChigh/sixtop.c ****     // process the header IEs
 488:build/openmote-cc2538_armgcc/openstack/02b-MAChigh/sixtop.c ****     lenIE=0;
 1393              		.loc 1 488 0
 1394 0762 0023     		movs	r3, #0
 1395 0764 7B80     		strh	r3, [r7, #2]	@ movhi
 489:build/openmote-cc2538_armgcc/openstack/02b-MAChigh/sixtop.c ****     if(
 490:build/openmote-cc2538_armgcc/openstack/02b-MAChigh/sixtop.c ****         msg->l2_frameType              == IEEE154_TYPE_DATA  &&
 1396              		.loc 1 490 0
 1397 0766 7B68     		ldr	r3, [r7, #4]
 1398 0768 93F84D30 		ldrb	r3, [r3, #77]	@ zero_extendqisi2
 489:build/openmote-cc2538_armgcc/openstack/02b-MAChigh/sixtop.c ****     if(
 1399              		.loc 1 489 0
 1400 076c 012B     		cmp	r3, #1
 1401 076e 13D1     		bne	.L73
 491:build/openmote-cc2538_armgcc/openstack/02b-MAChigh/sixtop.c ****         msg->l2_payloadIEpresent       == TRUE               &&
 1402              		.loc 1 491 0
 1403 0770 7B68     		ldr	r3, [r7, #4]
 1404 0772 93F89A30 		ldrb	r3, [r3, #154]	@ zero_extendqisi2
 490:build/openmote-cc2538_armgcc/openstack/02b-MAChigh/sixtop.c ****         msg->l2_payloadIEpresent       == TRUE               &&
 1405              		.loc 1 490 0
 1406 0776 002B     		cmp	r3, #0
 1407 0778 0ED0     		beq	.L73
 492:build/openmote-cc2538_armgcc/openstack/02b-MAChigh/sixtop.c ****         sixtop_processIEs(msg, &lenIE) == FALSE
 1408              		.loc 1 492 0
 1409 077a BB1C     		adds	r3, r7, #2
 1410 077c 7868     		ldr	r0, [r7, #4]
 1411 077e 1946     		mov	r1, r3
 1412 0780 FFF7FEFF 		bl	sixtop_processIEs
 1413 0784 0346     		mov	r3, r0
 1414 0786 83F00103 		eor	r3, r3, #1
 1415 078a DBB2     		uxtb	r3, r3
 491:build/openmote-cc2538_armgcc/openstack/02b-MAChigh/sixtop.c ****         msg->l2_payloadIEpresent       == TRUE               &&
 1416              		.loc 1 491 0
 1417 078c 002B     		cmp	r3, #0
 1418 078e 03D0     		beq	.L73
 493:build/openmote-cc2538_armgcc/openstack/02b-MAChigh/sixtop.c ****     ) {
 494:build/openmote-cc2538_armgcc/openstack/02b-MAChigh/sixtop.c ****         // free the packet's RAM memory
 495:build/openmote-cc2538_armgcc/openstack/02b-MAChigh/sixtop.c ****         openqueue_freePacketBuffer(msg);
 1419              		.loc 1 495 0
 1420 0790 7868     		ldr	r0, [r7, #4]
 1421 0792 FFF7FEFF 		bl	openqueue_freePacketBuffer
 496:build/openmote-cc2538_armgcc/openstack/02b-MAChigh/sixtop.c ****         //log error
 497:build/openmote-cc2538_armgcc/openstack/02b-MAChigh/sixtop.c ****         return;
 1422              		.loc 1 497 0
 1423 0796 35E0     		b	.L70
 1424              	.L73:
 498:build/openmote-cc2538_armgcc/openstack/02b-MAChigh/sixtop.c ****     }
 499:build/openmote-cc2538_armgcc/openstack/02b-MAChigh/sixtop.c **** 
 500:build/openmote-cc2538_armgcc/openstack/02b-MAChigh/sixtop.c ****     // toss the header IEs
 501:build/openmote-cc2538_armgcc/openstack/02b-MAChigh/sixtop.c ****     packetfunctions_tossHeader(msg,lenIE);
 1425              		.loc 1 501 0
 1426 0798 7B88     		ldrh	r3, [r7, #2]
 1427 079a DBB2     		uxtb	r3, r3
 1428 079c 7868     		ldr	r0, [r7, #4]
 1429 079e 1946     		mov	r1, r3
 1430 07a0 FFF7FEFF 		bl	packetfunctions_tossHeader
 502:build/openmote-cc2538_armgcc/openstack/02b-MAChigh/sixtop.c **** 
 503:build/openmote-cc2538_armgcc/openstack/02b-MAChigh/sixtop.c ****     // reset it to avoid race conditions with this var.
 504:build/openmote-cc2538_armgcc/openstack/02b-MAChigh/sixtop.c ****     msg->l2_joinPriorityPresent = FALSE;
 1431              		.loc 1 504 0
 1432 07a4 7B68     		ldr	r3, [r7, #4]
 1433 07a6 0022     		movs	r2, #0
 1434 07a8 83F89B20 		strb	r2, [r3, #155]
 505:build/openmote-cc2538_armgcc/openstack/02b-MAChigh/sixtop.c **** 
 506:build/openmote-cc2538_armgcc/openstack/02b-MAChigh/sixtop.c ****     // send the packet up the stack, if it qualifies
 507:build/openmote-cc2538_armgcc/openstack/02b-MAChigh/sixtop.c ****     switch (msg->l2_frameType) {
 1435              		.loc 1 507 0
 1436 07ac 7B68     		ldr	r3, [r7, #4]
 1437 07ae 93F84D30 		ldrb	r3, [r3, #77]	@ zero_extendqisi2
 1438 07b2 002B     		cmp	r3, #0
 1439 07b4 18DB     		blt	.L74
 1440 07b6 012B     		cmp	r3, #1
 1441 07b8 01DD     		ble	.L75
 1442 07ba 032B     		cmp	r3, #3
 1443 07bc 14D1     		bne	.L74
 1444              	.L75:
 508:build/openmote-cc2538_armgcc/openstack/02b-MAChigh/sixtop.c ****     case IEEE154_TYPE_BEACON:
 509:build/openmote-cc2538_armgcc/openstack/02b-MAChigh/sixtop.c ****     case IEEE154_TYPE_DATA:
 510:build/openmote-cc2538_armgcc/openstack/02b-MAChigh/sixtop.c ****     case IEEE154_TYPE_CMD:
 511:build/openmote-cc2538_armgcc/openstack/02b-MAChigh/sixtop.c ****         if (msg->length>0) {
 1445              		.loc 1 511 0
 1446 07be 7B68     		ldr	r3, [r7, #4]
 1447 07c0 1B7A     		ldrb	r3, [r3, #8]	@ zero_extendqisi2
 1448 07c2 002B     		cmp	r3, #0
 1449 07c4 0CD0     		beq	.L76
 512:build/openmote-cc2538_armgcc/openstack/02b-MAChigh/sixtop.c ****             if (msg->l2_frameType == IEEE154_TYPE_BEACON){
 1450              		.loc 1 512 0
 1451 07c6 7B68     		ldr	r3, [r7, #4]
 1452 07c8 93F84D30 		ldrb	r3, [r3, #77]	@ zero_extendqisi2
 1453 07cc 002B     		cmp	r3, #0
 1454 07ce 03D1     		bne	.L77
 513:build/openmote-cc2538_armgcc/openstack/02b-MAChigh/sixtop.c ****                 // I have one byte frequence field, no useful for upper layer
 514:build/openmote-cc2538_armgcc/openstack/02b-MAChigh/sixtop.c ****                 // free up the RAM
 515:build/openmote-cc2538_armgcc/openstack/02b-MAChigh/sixtop.c ****                 openqueue_freePacketBuffer(msg);
 1455              		.loc 1 515 0
 1456 07d0 7868     		ldr	r0, [r7, #4]
 1457 07d2 FFF7FEFF 		bl	openqueue_freePacketBuffer
 516:build/openmote-cc2538_armgcc/openstack/02b-MAChigh/sixtop.c ****                 break;
 1458              		.loc 1 516 0
 1459 07d6 15E0     		b	.L78
 1460              	.L77:
 517:build/openmote-cc2538_armgcc/openstack/02b-MAChigh/sixtop.c ****             }
 518:build/openmote-cc2538_armgcc/openstack/02b-MAChigh/sixtop.c ****             // send to upper layer
 519:build/openmote-cc2538_armgcc/openstack/02b-MAChigh/sixtop.c ****             iphc_receive(msg);
 1461              		.loc 1 519 0
 1462 07d8 7868     		ldr	r0, [r7, #4]
 1463 07da FFF7FEFF 		bl	iphc_receive
 520:build/openmote-cc2538_armgcc/openstack/02b-MAChigh/sixtop.c ****         } else {
 521:build/openmote-cc2538_armgcc/openstack/02b-MAChigh/sixtop.c ****             // free up the RAM
 522:build/openmote-cc2538_armgcc/openstack/02b-MAChigh/sixtop.c ****             openqueue_freePacketBuffer(msg);
 523:build/openmote-cc2538_armgcc/openstack/02b-MAChigh/sixtop.c ****         }
 524:build/openmote-cc2538_armgcc/openstack/02b-MAChigh/sixtop.c ****         break;
 1464              		.loc 1 524 0
 1465 07de 11E0     		b	.L78
 1466              	.L76:
 522:build/openmote-cc2538_armgcc/openstack/02b-MAChigh/sixtop.c ****         }
 1467              		.loc 1 522 0
 1468 07e0 7868     		ldr	r0, [r7, #4]
 1469 07e2 FFF7FEFF 		bl	openqueue_freePacketBuffer
 1470              		.loc 1 524 0
 1471 07e6 0DE0     		b	.L78
 1472              	.L74:
 525:build/openmote-cc2538_armgcc/openstack/02b-MAChigh/sixtop.c ****     case IEEE154_TYPE_ACK:
 526:build/openmote-cc2538_armgcc/openstack/02b-MAChigh/sixtop.c ****     default:
 527:build/openmote-cc2538_armgcc/openstack/02b-MAChigh/sixtop.c ****         // free the packet's RAM memory
 528:build/openmote-cc2538_armgcc/openstack/02b-MAChigh/sixtop.c ****         openqueue_freePacketBuffer(msg);
 1473              		.loc 1 528 0
 1474 07e8 7868     		ldr	r0, [r7, #4]
 1475 07ea FFF7FEFF 		bl	openqueue_freePacketBuffer
 529:build/openmote-cc2538_armgcc/openstack/02b-MAChigh/sixtop.c ****         // log the error
 530:build/openmote-cc2538_armgcc/openstack/02b-MAChigh/sixtop.c ****         openserial_printError(
 531:build/openmote-cc2538_armgcc/openstack/02b-MAChigh/sixtop.c ****             COMPONENT_SIXTOP,
 532:build/openmote-cc2538_armgcc/openstack/02b-MAChigh/sixtop.c ****             ERR_MSG_UNKNOWN_TYPE,
 533:build/openmote-cc2538_armgcc/openstack/02b-MAChigh/sixtop.c ****             (errorparameter_t)msg->l2_frameType,
 1476              		.loc 1 533 0
 1477 07ee 7B68     		ldr	r3, [r7, #4]
 1478 07f0 93F84D30 		ldrb	r3, [r3, #77]	@ zero_extendqisi2
 530:build/openmote-cc2538_armgcc/openstack/02b-MAChigh/sixtop.c ****             COMPONENT_SIXTOP,
 1479              		.loc 1 530 0
 1480 07f4 9BB2     		uxth	r3, r3
 1481 07f6 0C20     		movs	r0, #12
 1482 07f8 3021     		movs	r1, #48
 1483 07fa 1A46     		mov	r2, r3
 1484 07fc 0023     		movs	r3, #0
 1485 07fe FFF7FEFF 		bl	openserial_printError
 534:build/openmote-cc2538_armgcc/openstack/02b-MAChigh/sixtop.c ****             (errorparameter_t)0
 535:build/openmote-cc2538_armgcc/openstack/02b-MAChigh/sixtop.c ****         );
 536:build/openmote-cc2538_armgcc/openstack/02b-MAChigh/sixtop.c ****         break;
 1486              		.loc 1 536 0
 1487 0802 00BF     		nop
 1488              	.L78:
 1489              	.L70:
 537:build/openmote-cc2538_armgcc/openstack/02b-MAChigh/sixtop.c ****     }
 538:build/openmote-cc2538_armgcc/openstack/02b-MAChigh/sixtop.c **** }
 1490              		.loc 1 538 0
 1491 0804 0837     		adds	r7, r7, #8
 1492              		.cfi_def_cfa_offset 16
 1493 0806 BD46     		mov	sp, r7
 1494              		.cfi_def_cfa_register 13
 1495              		@ sp needed
 1496 0808 B0BD     		pop	{r4, r5, r7, pc}
 1497              		.cfi_endproc
 1498              	.LFE7:
 1500 080a 00BF     		.align	2
 1501              		.global	debugPrint_myDAGrank
 1502              		.thumb
 1503              		.thumb_func
 1505              	debugPrint_myDAGrank:
 1506              	.LFB8:
 539:build/openmote-cc2538_armgcc/openstack/02b-MAChigh/sixtop.c **** 
 540:build/openmote-cc2538_armgcc/openstack/02b-MAChigh/sixtop.c **** //======= debugging
 541:build/openmote-cc2538_armgcc/openstack/02b-MAChigh/sixtop.c **** 
 542:build/openmote-cc2538_armgcc/openstack/02b-MAChigh/sixtop.c **** /**
 543:build/openmote-cc2538_armgcc/openstack/02b-MAChigh/sixtop.c **** \brief Trigger this module to print status information, over serial.
 544:build/openmote-cc2538_armgcc/openstack/02b-MAChigh/sixtop.c **** 
 545:build/openmote-cc2538_armgcc/openstack/02b-MAChigh/sixtop.c **** debugPrint_* functions are used by the openserial module to continuously print
 546:build/openmote-cc2538_armgcc/openstack/02b-MAChigh/sixtop.c **** status information about several modules in the OpenWSN stack.
 547:build/openmote-cc2538_armgcc/openstack/02b-MAChigh/sixtop.c **** 
 548:build/openmote-cc2538_armgcc/openstack/02b-MAChigh/sixtop.c **** \returns TRUE if this function printed something, FALSE otherwise.
 549:build/openmote-cc2538_armgcc/openstack/02b-MAChigh/sixtop.c **** */
 550:build/openmote-cc2538_armgcc/openstack/02b-MAChigh/sixtop.c **** bool debugPrint_myDAGrank(void) {
 1507              		.loc 1 550 0
 1508              		.cfi_startproc
 1509              		@ args = 0, pretend = 0, frame = 8
 1510              		@ frame_needed = 1, uses_anonymous_args = 0
 1511 080c 80B5     		push	{r7, lr}
 1512              		.cfi_def_cfa_offset 8
 1513              		.cfi_offset 7, -8
 1514              		.cfi_offset 14, -4
 1515 080e 82B0     		sub	sp, sp, #8
 1516              		.cfi_def_cfa_offset 16
 1517 0810 00AF     		add	r7, sp, #0
 1518              		.cfi_def_cfa_register 7
 551:build/openmote-cc2538_armgcc/openstack/02b-MAChigh/sixtop.c ****     uint16_t output;
 552:build/openmote-cc2538_armgcc/openstack/02b-MAChigh/sixtop.c **** 
 553:build/openmote-cc2538_armgcc/openstack/02b-MAChigh/sixtop.c ****     output = 0;
 1519              		.loc 1 553 0
 1520 0812 0023     		movs	r3, #0
 1521 0814 FB80     		strh	r3, [r7, #6]	@ movhi
 554:build/openmote-cc2538_armgcc/openstack/02b-MAChigh/sixtop.c ****     output = icmpv6rpl_getMyDAGrank();
 1522              		.loc 1 554 0
 1523 0816 FFF7FEFF 		bl	icmpv6rpl_getMyDAGrank
 1524 081a 0346     		mov	r3, r0
 1525 081c FB80     		strh	r3, [r7, #6]	@ movhi
 555:build/openmote-cc2538_armgcc/openstack/02b-MAChigh/sixtop.c ****     openserial_printStatus(STATUS_DAGRANK,(uint8_t*)&output,sizeof(uint16_t));
 1526              		.loc 1 555 0
 1527 081e BB1D     		adds	r3, r7, #6
 1528 0820 0220     		movs	r0, #2
 1529 0822 1946     		mov	r1, r3
 1530 0824 0222     		movs	r2, #2
 1531 0826 FFF7FEFF 		bl	openserial_printStatus
 556:build/openmote-cc2538_armgcc/openstack/02b-MAChigh/sixtop.c ****     return TRUE;
 1532              		.loc 1 556 0
 1533 082a 0123     		movs	r3, #1
 557:build/openmote-cc2538_armgcc/openstack/02b-MAChigh/sixtop.c **** }
 1534              		.loc 1 557 0
 1535 082c 1846     		mov	r0, r3
 1536 082e 0837     		adds	r7, r7, #8
 1537              		.cfi_def_cfa_offset 8
 1538 0830 BD46     		mov	sp, r7
 1539              		.cfi_def_cfa_register 13
 1540              		@ sp needed
 1541 0832 80BD     		pop	{r7, pc}
 1542              		.cfi_endproc
 1543              	.LFE8:
 1545              		.align	2
 1546              		.global	debugPrint_kaPeriod
 1547              		.thumb
 1548              		.thumb_func
 1550              	debugPrint_kaPeriod:
 1551              	.LFB9:
 558:build/openmote-cc2538_armgcc/openstack/02b-MAChigh/sixtop.c **** 
 559:build/openmote-cc2538_armgcc/openstack/02b-MAChigh/sixtop.c **** /**
 560:build/openmote-cc2538_armgcc/openstack/02b-MAChigh/sixtop.c **** \brief Trigger this module to print status information, over serial.
 561:build/openmote-cc2538_armgcc/openstack/02b-MAChigh/sixtop.c **** 
 562:build/openmote-cc2538_armgcc/openstack/02b-MAChigh/sixtop.c **** debugPrint_* functions are used by the openserial module to continuously print
 563:build/openmote-cc2538_armgcc/openstack/02b-MAChigh/sixtop.c **** status information about several modules in the OpenWSN stack.
 564:build/openmote-cc2538_armgcc/openstack/02b-MAChigh/sixtop.c **** 
 565:build/openmote-cc2538_armgcc/openstack/02b-MAChigh/sixtop.c **** \returns TRUE if this function printed something, FALSE otherwise.
 566:build/openmote-cc2538_armgcc/openstack/02b-MAChigh/sixtop.c **** */
 567:build/openmote-cc2538_armgcc/openstack/02b-MAChigh/sixtop.c **** bool debugPrint_kaPeriod(void) {
 1552              		.loc 1 567 0
 1553              		.cfi_startproc
 1554              		@ args = 0, pretend = 0, frame = 8
 1555              		@ frame_needed = 1, uses_anonymous_args = 0
 1556 0834 80B5     		push	{r7, lr}
 1557              		.cfi_def_cfa_offset 8
 1558              		.cfi_offset 7, -8
 1559              		.cfi_offset 14, -4
 1560 0836 82B0     		sub	sp, sp, #8
 1561              		.cfi_def_cfa_offset 16
 1562 0838 00AF     		add	r7, sp, #0
 1563              		.cfi_def_cfa_register 7
 568:build/openmote-cc2538_armgcc/openstack/02b-MAChigh/sixtop.c ****     uint16_t output;
 569:build/openmote-cc2538_armgcc/openstack/02b-MAChigh/sixtop.c **** 
 570:build/openmote-cc2538_armgcc/openstack/02b-MAChigh/sixtop.c ****     output = sixtop_vars.kaPeriod;
 1564              		.loc 1 570 0
 1565 083a 074B     		ldr	r3, .L85
 1566 083c 5B89     		ldrh	r3, [r3, #10]
 1567 083e FB80     		strh	r3, [r7, #6]	@ movhi
 571:build/openmote-cc2538_armgcc/openstack/02b-MAChigh/sixtop.c ****     openserial_printStatus(
 1568              		.loc 1 571 0
 1569 0840 BB1D     		adds	r3, r7, #6
 1570 0842 0A20     		movs	r0, #10
 1571 0844 1946     		mov	r1, r3
 1572 0846 0222     		movs	r2, #2
 1573 0848 FFF7FEFF 		bl	openserial_printStatus
 572:build/openmote-cc2538_armgcc/openstack/02b-MAChigh/sixtop.c ****         STATUS_KAPERIOD,
 573:build/openmote-cc2538_armgcc/openstack/02b-MAChigh/sixtop.c ****         (uint8_t*)&output,
 574:build/openmote-cc2538_armgcc/openstack/02b-MAChigh/sixtop.c ****         sizeof(output)
 575:build/openmote-cc2538_armgcc/openstack/02b-MAChigh/sixtop.c ****     );
 576:build/openmote-cc2538_armgcc/openstack/02b-MAChigh/sixtop.c ****     return TRUE;
 1574              		.loc 1 576 0
 1575 084c 0123     		movs	r3, #1
 577:build/openmote-cc2538_armgcc/openstack/02b-MAChigh/sixtop.c **** }
 1576              		.loc 1 577 0
 1577 084e 1846     		mov	r0, r3
 1578 0850 0837     		adds	r7, r7, #8
 1579              		.cfi_def_cfa_offset 8
 1580 0852 BD46     		mov	sp, r7
 1581              		.cfi_def_cfa_register 13
 1582              		@ sp needed
 1583 0854 80BD     		pop	{r7, pc}
 1584              	.L86:
 1585 0856 00BF     		.align	2
 1586              	.L85:
 1587 0858 00000000 		.word	sixtop_vars
 1588              		.cfi_endproc
 1589              	.LFE9:
 1591              		.align	2
 1592              		.global	sixtop_setIsResponseEnabled
 1593              		.thumb
 1594              		.thumb_func
 1596              	sixtop_setIsResponseEnabled:
 1597              	.LFB10:
 578:build/openmote-cc2538_armgcc/openstack/02b-MAChigh/sixtop.c **** 
 579:build/openmote-cc2538_armgcc/openstack/02b-MAChigh/sixtop.c **** void sixtop_setIsResponseEnabled(bool isEnabled){
 1598              		.loc 1 579 0
 1599              		.cfi_startproc
 1600              		@ args = 0, pretend = 0, frame = 8
 1601              		@ frame_needed = 1, uses_anonymous_args = 0
 1602              		@ link register save eliminated.
 1603 085c 80B4     		push	{r7}
 1604              		.cfi_def_cfa_offset 4
 1605              		.cfi_offset 7, -4
 1606 085e 83B0     		sub	sp, sp, #12
 1607              		.cfi_def_cfa_offset 16
 1608 0860 00AF     		add	r7, sp, #0
 1609              		.cfi_def_cfa_register 7
 1610 0862 0346     		mov	r3, r0
 1611 0864 FB71     		strb	r3, [r7, #7]
 580:build/openmote-cc2538_armgcc/openstack/02b-MAChigh/sixtop.c ****     sixtop_vars.isResponseEnabled = isEnabled;
 1612              		.loc 1 580 0
 1613 0866 044A     		ldr	r2, .L88
 1614 0868 FB79     		ldrb	r3, [r7, #7]
 1615 086a 1374     		strb	r3, [r2, #16]
 581:build/openmote-cc2538_armgcc/openstack/02b-MAChigh/sixtop.c **** }
 1616              		.loc 1 581 0
 1617 086c 0C37     		adds	r7, r7, #12
 1618              		.cfi_def_cfa_offset 4
 1619 086e BD46     		mov	sp, r7
 1620              		.cfi_def_cfa_register 13
 1621              		@ sp needed
 1622 0870 5DF8047B 		ldr	r7, [sp], #4
 1623              		.cfi_restore 7
 1624              		.cfi_def_cfa_offset 0
 1625 0874 7047     		bx	lr
 1626              	.L89:
 1627 0876 00BF     		.align	2
 1628              	.L88:
 1629 0878 00000000 		.word	sixtop_vars
 1630              		.cfi_endproc
 1631              	.LFE10:
 1633              		.align	2
 1634              		.global	sixtop_send_internal
 1635              		.thumb
 1636              		.thumb_func
 1638              	sixtop_send_internal:
 1639              	.LFB11:
 582:build/openmote-cc2538_armgcc/openstack/02b-MAChigh/sixtop.c **** 
 583:build/openmote-cc2538_armgcc/openstack/02b-MAChigh/sixtop.c **** //=========================== private =========================================
 584:build/openmote-cc2538_armgcc/openstack/02b-MAChigh/sixtop.c **** 
 585:build/openmote-cc2538_armgcc/openstack/02b-MAChigh/sixtop.c **** /**
 586:build/openmote-cc2538_armgcc/openstack/02b-MAChigh/sixtop.c **** \brief Transfer packet to MAC.
 587:build/openmote-cc2538_armgcc/openstack/02b-MAChigh/sixtop.c **** 
 588:build/openmote-cc2538_armgcc/openstack/02b-MAChigh/sixtop.c **** This function adds a IEEE802.15.4 header to the packet and leaves it the
 589:build/openmote-cc2538_armgcc/openstack/02b-MAChigh/sixtop.c **** OpenQueue buffer. The very last thing it does is assigning this packet to the
 590:build/openmote-cc2538_armgcc/openstack/02b-MAChigh/sixtop.c **** virtual component COMPONENT_SIXTOP_TO_IEEE802154E. Whenever it gets a change,
 591:build/openmote-cc2538_armgcc/openstack/02b-MAChigh/sixtop.c **** IEEE802154E will handle the packet.
 592:build/openmote-cc2538_armgcc/openstack/02b-MAChigh/sixtop.c **** 
 593:build/openmote-cc2538_armgcc/openstack/02b-MAChigh/sixtop.c **** \param[in] msg The packet to the transmitted
 594:build/openmote-cc2538_armgcc/openstack/02b-MAChigh/sixtop.c **** \param[in] payloadIEPresent Indicates wheter an Information Element is present in the
 595:build/openmote-cc2538_armgcc/openstack/02b-MAChigh/sixtop.c ****    packet.
 596:build/openmote-cc2538_armgcc/openstack/02b-MAChigh/sixtop.c **** 
 597:build/openmote-cc2538_armgcc/openstack/02b-MAChigh/sixtop.c **** \returns E_SUCCESS iff successful.
 598:build/openmote-cc2538_armgcc/openstack/02b-MAChigh/sixtop.c **** */
 599:build/openmote-cc2538_armgcc/openstack/02b-MAChigh/sixtop.c **** owerror_t sixtop_send_internal(
 600:build/openmote-cc2538_armgcc/openstack/02b-MAChigh/sixtop.c ****     OpenQueueEntry_t* msg,
 601:build/openmote-cc2538_armgcc/openstack/02b-MAChigh/sixtop.c ****     bool    payloadIEPresent) {
 1640              		.loc 1 601 0
 1641              		.cfi_startproc
 1642              		@ args = 0, pretend = 0, frame = 8
 1643              		@ frame_needed = 1, uses_anonymous_args = 0
 1644 087c 90B5     		push	{r4, r7, lr}
 1645              		.cfi_def_cfa_offset 12
 1646              		.cfi_offset 4, -12
 1647              		.cfi_offset 7, -8
 1648              		.cfi_offset 14, -4
 1649 087e 85B0     		sub	sp, sp, #20
 1650              		.cfi_def_cfa_offset 32
 1651 0880 02AF     		add	r7, sp, #8
 1652              		.cfi_def_cfa 7, 24
 1653 0882 7860     		str	r0, [r7, #4]
 1654 0884 0B46     		mov	r3, r1
 1655 0886 FB70     		strb	r3, [r7, #3]
 602:build/openmote-cc2538_armgcc/openstack/02b-MAChigh/sixtop.c **** 
 603:build/openmote-cc2538_armgcc/openstack/02b-MAChigh/sixtop.c ****     // assign a number of retries
 604:build/openmote-cc2538_armgcc/openstack/02b-MAChigh/sixtop.c ****     if (
 605:build/openmote-cc2538_armgcc/openstack/02b-MAChigh/sixtop.c ****         packetfunctions_isBroadcastMulticast(&(msg->l2_nextORpreviousHop))==TRUE
 1656              		.loc 1 605 0
 1657 0888 7B68     		ldr	r3, [r7, #4]
 1658 088a 3C33     		adds	r3, r3, #60
 1659 088c 1846     		mov	r0, r3
 1660 088e FFF7FEFF 		bl	packetfunctions_isBroadcastMulticast
 1661 0892 0346     		mov	r3, r0
 604:build/openmote-cc2538_armgcc/openstack/02b-MAChigh/sixtop.c ****         packetfunctions_isBroadcastMulticast(&(msg->l2_nextORpreviousHop))==TRUE
 1662              		.loc 1 604 0
 1663 0894 002B     		cmp	r3, #0
 1664 0896 04D0     		beq	.L91
 606:build/openmote-cc2538_armgcc/openstack/02b-MAChigh/sixtop.c ****     ) {
 607:build/openmote-cc2538_armgcc/openstack/02b-MAChigh/sixtop.c ****         msg->l2_retriesLeft = 1;
 1665              		.loc 1 607 0
 1666 0898 7B68     		ldr	r3, [r7, #4]
 1667 089a 0122     		movs	r2, #1
 1668 089c 83F84F20 		strb	r2, [r3, #79]
 1669 08a0 03E0     		b	.L92
 1670              	.L91:
 608:build/openmote-cc2538_armgcc/openstack/02b-MAChigh/sixtop.c ****     } else {
 609:build/openmote-cc2538_armgcc/openstack/02b-MAChigh/sixtop.c ****         msg->l2_retriesLeft = TXRETRIES + 1;
 1671              		.loc 1 609 0
 1672 08a2 7B68     		ldr	r3, [r7, #4]
 1673 08a4 0422     		movs	r2, #4
 1674 08a6 83F84F20 		strb	r2, [r3, #79]
 1675              	.L92:
 610:build/openmote-cc2538_armgcc/openstack/02b-MAChigh/sixtop.c ****     }
 611:build/openmote-cc2538_armgcc/openstack/02b-MAChigh/sixtop.c ****     // record this packet's dsn (for matching the ACK)
 612:build/openmote-cc2538_armgcc/openstack/02b-MAChigh/sixtop.c ****     msg->l2_dsn = sixtop_vars.dsn++;
 1676              		.loc 1 612 0
 1677 08aa 134B     		ldr	r3, .L94
 1678 08ac 1B79     		ldrb	r3, [r3, #4]	@ zero_extendqisi2
 1679 08ae 5A1C     		adds	r2, r3, #1
 1680 08b0 D1B2     		uxtb	r1, r2
 1681 08b2 114A     		ldr	r2, .L94
 1682 08b4 1171     		strb	r1, [r2, #4]
 1683 08b6 7A68     		ldr	r2, [r7, #4]
 1684 08b8 82F84E30 		strb	r3, [r2, #78]
 613:build/openmote-cc2538_armgcc/openstack/02b-MAChigh/sixtop.c ****     // this is a new packet which I never attempted to send
 614:build/openmote-cc2538_armgcc/openstack/02b-MAChigh/sixtop.c ****     msg->l2_numTxAttempts = 0;
 1685              		.loc 1 614 0
 1686 08bc 7B68     		ldr	r3, [r7, #4]
 1687 08be 0022     		movs	r2, #0
 1688 08c0 83F85020 		strb	r2, [r3, #80]
 615:build/openmote-cc2538_armgcc/openstack/02b-MAChigh/sixtop.c ****     // transmit with the default TX power
 616:build/openmote-cc2538_armgcc/openstack/02b-MAChigh/sixtop.c ****     msg->l1_txPower = TX_POWER;
 1689              		.loc 1 616 0
 1690 08c4 7B68     		ldr	r3, [r7, #4]
 1691 08c6 1F22     		movs	r2, #31
 1692 08c8 83F8BC20 		strb	r2, [r3, #188]
 617:build/openmote-cc2538_armgcc/openstack/02b-MAChigh/sixtop.c ****     // add a IEEE802.15.4 header
 618:build/openmote-cc2538_armgcc/openstack/02b-MAChigh/sixtop.c ****     ieee802154_prependHeader(
 1693              		.loc 1 618 0
 1694 08cc 7B68     		ldr	r3, [r7, #4]
 1695 08ce 93F84D10 		ldrb	r1, [r3, #77]	@ zero_extendqisi2
 1696 08d2 7B68     		ldr	r3, [r7, #4]
 1697 08d4 93F84E40 		ldrb	r4, [r3, #78]	@ zero_extendqisi2
 1698 08d8 7B68     		ldr	r3, [r7, #4]
 1699 08da 3C33     		adds	r3, r3, #60
 1700 08dc FA78     		ldrb	r2, [r7, #3]	@ zero_extendqisi2
 1701 08de 0093     		str	r3, [sp]
 1702 08e0 7868     		ldr	r0, [r7, #4]
 1703 08e2 2346     		mov	r3, r4
 1704 08e4 FFF7FEFF 		bl	ieee802154_prependHeader
 619:build/openmote-cc2538_armgcc/openstack/02b-MAChigh/sixtop.c ****         msg,
 620:build/openmote-cc2538_armgcc/openstack/02b-MAChigh/sixtop.c ****         msg->l2_frameType,
 621:build/openmote-cc2538_armgcc/openstack/02b-MAChigh/sixtop.c ****         payloadIEPresent,
 622:build/openmote-cc2538_armgcc/openstack/02b-MAChigh/sixtop.c ****         msg->l2_dsn,
 623:build/openmote-cc2538_armgcc/openstack/02b-MAChigh/sixtop.c ****         &(msg->l2_nextORpreviousHop)
 624:build/openmote-cc2538_armgcc/openstack/02b-MAChigh/sixtop.c ****     );
 625:build/openmote-cc2538_armgcc/openstack/02b-MAChigh/sixtop.c ****     // change owner to IEEE802154E fetches it from queue
 626:build/openmote-cc2538_armgcc/openstack/02b-MAChigh/sixtop.c ****     msg->owner  = COMPONENT_SIXTOP_TO_IEEE802154E;
 1705              		.loc 1 626 0
 1706 08e8 7B68     		ldr	r3, [r7, #4]
 1707 08ea 0A22     		movs	r2, #10
 1708 08ec 5A70     		strb	r2, [r3, #1]
 627:build/openmote-cc2538_armgcc/openstack/02b-MAChigh/sixtop.c ****     return E_SUCCESS;
 1709              		.loc 1 627 0
 1710 08ee 0023     		movs	r3, #0
 628:build/openmote-cc2538_armgcc/openstack/02b-MAChigh/sixtop.c **** }
 1711              		.loc 1 628 0
 1712 08f0 1846     		mov	r0, r3
 1713 08f2 0C37     		adds	r7, r7, #12
 1714              		.cfi_def_cfa_offset 12
 1715 08f4 BD46     		mov	sp, r7
 1716              		.cfi_def_cfa_register 13
 1717              		@ sp needed
 1718 08f6 90BD     		pop	{r4, r7, pc}
 1719              	.L95:
 1720              		.align	2
 1721              	.L94:
 1722 08f8 00000000 		.word	sixtop_vars
 1723              		.cfi_endproc
 1724              	.LFE11:
 1726              		.align	2
 1727              		.global	sixtop_sendingEb_timer_cb
 1728              		.thumb
 1729              		.thumb_func
 1731              	sixtop_sendingEb_timer_cb:
 1732              	.LFB12:
 629:build/openmote-cc2538_armgcc/openstack/02b-MAChigh/sixtop.c **** 
 630:build/openmote-cc2538_armgcc/openstack/02b-MAChigh/sixtop.c **** // timer interrupt callbacks
 631:build/openmote-cc2538_armgcc/openstack/02b-MAChigh/sixtop.c **** void sixtop_sendingEb_timer_cb(opentimers_id_t id){
 1733              		.loc 1 631 0
 1734              		.cfi_startproc
 1735              		@ args = 0, pretend = 0, frame = 8
 1736              		@ frame_needed = 1, uses_anonymous_args = 0
 1737 08fc 80B5     		push	{r7, lr}
 1738              		.cfi_def_cfa_offset 8
 1739              		.cfi_offset 7, -8
 1740              		.cfi_offset 14, -4
 1741 08fe 82B0     		sub	sp, sp, #8
 1742              		.cfi_def_cfa_offset 16
 1743 0900 00AF     		add	r7, sp, #0
 1744              		.cfi_def_cfa_register 7
 1745 0902 0346     		mov	r3, r0
 1746 0904 FB71     		strb	r3, [r7, #7]
 632:build/openmote-cc2538_armgcc/openstack/02b-MAChigh/sixtop.c ****     scheduler_push_task(timer_sixtop_sendEb_fired,TASKPRIO_SIXTOP);
 1747              		.loc 1 632 0
 1748 0906 0348     		ldr	r0, .L97
 1749 0908 0321     		movs	r1, #3
 1750 090a FFF7FEFF 		bl	scheduler_push_task
 633:build/openmote-cc2538_armgcc/openstack/02b-MAChigh/sixtop.c **** }
 1751              		.loc 1 633 0
 1752 090e 0837     		adds	r7, r7, #8
 1753              		.cfi_def_cfa_offset 8
 1754 0910 BD46     		mov	sp, r7
 1755              		.cfi_def_cfa_register 13
 1756              		@ sp needed
 1757 0912 80BD     		pop	{r7, pc}
 1758              	.L98:
 1759              		.align	2
 1760              	.L97:
 1761 0914 00000000 		.word	timer_sixtop_sendEb_fired
 1762              		.cfi_endproc
 1763              	.LFE12:
 1765              		.align	2
 1766              		.global	sixtop_maintenance_timer_cb
 1767              		.thumb
 1768              		.thumb_func
 1770              	sixtop_maintenance_timer_cb:
 1771              	.LFB13:
 634:build/openmote-cc2538_armgcc/openstack/02b-MAChigh/sixtop.c **** 
 635:build/openmote-cc2538_armgcc/openstack/02b-MAChigh/sixtop.c **** void sixtop_maintenance_timer_cb(opentimers_id_t id) {
 1772              		.loc 1 635 0
 1773              		.cfi_startproc
 1774              		@ args = 0, pretend = 0, frame = 8
 1775              		@ frame_needed = 1, uses_anonymous_args = 0
 1776 0918 80B5     		push	{r7, lr}
 1777              		.cfi_def_cfa_offset 8
 1778              		.cfi_offset 7, -8
 1779              		.cfi_offset 14, -4
 1780 091a 82B0     		sub	sp, sp, #8
 1781              		.cfi_def_cfa_offset 16
 1782 091c 00AF     		add	r7, sp, #0
 1783              		.cfi_def_cfa_register 7
 1784 091e 0346     		mov	r3, r0
 1785 0920 FB71     		strb	r3, [r7, #7]
 636:build/openmote-cc2538_armgcc/openstack/02b-MAChigh/sixtop.c ****     scheduler_push_task(timer_sixtop_management_fired,TASKPRIO_SIXTOP);
 1786              		.loc 1 636 0
 1787 0922 0348     		ldr	r0, .L100
 1788 0924 0321     		movs	r1, #3
 1789 0926 FFF7FEFF 		bl	scheduler_push_task
 637:build/openmote-cc2538_armgcc/openstack/02b-MAChigh/sixtop.c **** }
 1790              		.loc 1 637 0
 1791 092a 0837     		adds	r7, r7, #8
 1792              		.cfi_def_cfa_offset 8
 1793 092c BD46     		mov	sp, r7
 1794              		.cfi_def_cfa_register 13
 1795              		@ sp needed
 1796 092e 80BD     		pop	{r7, pc}
 1797              	.L101:
 1798              		.align	2
 1799              	.L100:
 1800 0930 00000000 		.word	timer_sixtop_management_fired
 1801              		.cfi_endproc
 1802              	.LFE13:
 1804              		.align	2
 1805              		.global	sixtop_timeout_timer_cb
 1806              		.thumb
 1807              		.thumb_func
 1809              	sixtop_timeout_timer_cb:
 1810              	.LFB14:
 638:build/openmote-cc2538_armgcc/openstack/02b-MAChigh/sixtop.c **** 
 639:build/openmote-cc2538_armgcc/openstack/02b-MAChigh/sixtop.c **** void sixtop_timeout_timer_cb(opentimers_id_t id) {
 1811              		.loc 1 639 0
 1812              		.cfi_startproc
 1813              		@ args = 0, pretend = 0, frame = 8
 1814              		@ frame_needed = 1, uses_anonymous_args = 0
 1815 0934 80B5     		push	{r7, lr}
 1816              		.cfi_def_cfa_offset 8
 1817              		.cfi_offset 7, -8
 1818              		.cfi_offset 14, -4
 1819 0936 82B0     		sub	sp, sp, #8
 1820              		.cfi_def_cfa_offset 16
 1821 0938 00AF     		add	r7, sp, #0
 1822              		.cfi_def_cfa_register 7
 1823 093a 0346     		mov	r3, r0
 1824 093c FB71     		strb	r3, [r7, #7]
 640:build/openmote-cc2538_armgcc/openstack/02b-MAChigh/sixtop.c ****     scheduler_push_task(timer_sixtop_six2six_timeout_fired,TASKPRIO_SIXTOP_TIMEOUT);
 1825              		.loc 1 640 0
 1826 093e 0348     		ldr	r0, .L103
 1827 0940 0A21     		movs	r1, #10
 1828 0942 FFF7FEFF 		bl	scheduler_push_task
 641:build/openmote-cc2538_armgcc/openstack/02b-MAChigh/sixtop.c **** }
 1829              		.loc 1 641 0
 1830 0946 0837     		adds	r7, r7, #8
 1831              		.cfi_def_cfa_offset 8
 1832 0948 BD46     		mov	sp, r7
 1833              		.cfi_def_cfa_register 13
 1834              		@ sp needed
 1835 094a 80BD     		pop	{r7, pc}
 1836              	.L104:
 1837              		.align	2
 1838              	.L103:
 1839 094c 00000000 		.word	timer_sixtop_six2six_timeout_fired
 1840              		.cfi_endproc
 1841              	.LFE14:
 1843              		.align	2
 1844              		.global	timer_sixtop_sendEb_fired
 1845              		.thumb
 1846              		.thumb_func
 1848              	timer_sixtop_sendEb_fired:
 1849              	.LFB15:
 642:build/openmote-cc2538_armgcc/openstack/02b-MAChigh/sixtop.c **** 
 643:build/openmote-cc2538_armgcc/openstack/02b-MAChigh/sixtop.c **** //======= EB/KA task
 644:build/openmote-cc2538_armgcc/openstack/02b-MAChigh/sixtop.c **** 
 645:build/openmote-cc2538_armgcc/openstack/02b-MAChigh/sixtop.c **** void timer_sixtop_sendEb_fired(void) {
 1850              		.loc 1 645 0
 1851              		.cfi_startproc
 1852              		@ args = 0, pretend = 0, frame = 0
 1853              		@ frame_needed = 1, uses_anonymous_args = 0
 1854 0950 98B5     		push	{r3, r4, r7, lr}
 1855              		.cfi_def_cfa_offset 16
 1856              		.cfi_offset 3, -16
 1857              		.cfi_offset 4, -12
 1858              		.cfi_offset 7, -8
 1859              		.cfi_offset 14, -4
 1860 0952 00AF     		add	r7, sp, #0
 1861              		.cfi_def_cfa_register 7
 646:build/openmote-cc2538_armgcc/openstack/02b-MAChigh/sixtop.c ****     // send EBs on a portion of the minimal cells not exceeding 1/(3(N+1))
 647:build/openmote-cc2538_armgcc/openstack/02b-MAChigh/sixtop.c ****     // https://tools.ietf.org/html/draft-chang-6tisch-msf-01#section-2
 648:build/openmote-cc2538_armgcc/openstack/02b-MAChigh/sixtop.c ****     if(openrandom_get16b()<0xffff/(3*(neighbors_getNumNeighbors()+1))){
 1862              		.loc 1 648 0
 1863 0954 FFF7FEFF 		bl	openrandom_get16b
 1864 0958 0346     		mov	r3, r0
 1865 095a 1C46     		mov	r4, r3
 1866 095c FFF7FEFF 		bl	neighbors_getNumNeighbors
 1867 0960 0346     		mov	r3, r0
 1868 0962 5A1C     		adds	r2, r3, #1
 1869 0964 1346     		mov	r3, r2
 1870 0966 5B00     		lsls	r3, r3, #1
 1871 0968 1344     		add	r3, r3, r2
 1872 096a 4FF6FF72 		movw	r2, #65535
 1873 096e 92FBF3F3 		sdiv	r3, r2, r3
 1874 0972 9C42     		cmp	r4, r3
 1875 0974 01DA     		bge	.L105
 649:build/openmote-cc2538_armgcc/openstack/02b-MAChigh/sixtop.c ****         sixtop_sendEB();
 1876              		.loc 1 649 0
 1877 0976 FFF7FEFF 		bl	sixtop_sendEB
 1878              	.L105:
 650:build/openmote-cc2538_armgcc/openstack/02b-MAChigh/sixtop.c ****     }
 651:build/openmote-cc2538_armgcc/openstack/02b-MAChigh/sixtop.c **** }
 1879              		.loc 1 651 0
 1880 097a 98BD     		pop	{r3, r4, r7, pc}
 1881              		.cfi_endproc
 1882              	.LFE15:
 1884              		.align	2
 1885              		.global	timer_sixtop_management_fired
 1886              		.thumb
 1887              		.thumb_func
 1889              	timer_sixtop_management_fired:
 1890              	.LFB16:
 652:build/openmote-cc2538_armgcc/openstack/02b-MAChigh/sixtop.c **** 
 653:build/openmote-cc2538_armgcc/openstack/02b-MAChigh/sixtop.c **** /**
 654:build/openmote-cc2538_armgcc/openstack/02b-MAChigh/sixtop.c **** \brief Timer handlers which triggers MAC management task.
 655:build/openmote-cc2538_armgcc/openstack/02b-MAChigh/sixtop.c **** 
 656:build/openmote-cc2538_armgcc/openstack/02b-MAChigh/sixtop.c **** This function is called in task context by the scheduler after the RES timer
 657:build/openmote-cc2538_armgcc/openstack/02b-MAChigh/sixtop.c **** has fired. This timer is set to fire every second, on average.
 658:build/openmote-cc2538_armgcc/openstack/02b-MAChigh/sixtop.c **** 
 659:build/openmote-cc2538_armgcc/openstack/02b-MAChigh/sixtop.c **** The body of this function executes one of the MAC management task.
 660:build/openmote-cc2538_armgcc/openstack/02b-MAChigh/sixtop.c **** */
 661:build/openmote-cc2538_armgcc/openstack/02b-MAChigh/sixtop.c **** void timer_sixtop_management_fired(void) {
 1891              		.loc 1 661 0
 1892              		.cfi_startproc
 1893              		@ args = 0, pretend = 0, frame = 0
 1894              		@ frame_needed = 1, uses_anonymous_args = 0
 1895 097c 80B5     		push	{r7, lr}
 1896              		.cfi_def_cfa_offset 8
 1897              		.cfi_offset 7, -8
 1898              		.cfi_offset 14, -4
 1899 097e 00AF     		add	r7, sp, #0
 1900              		.cfi_def_cfa_register 7
 662:build/openmote-cc2538_armgcc/openstack/02b-MAChigh/sixtop.c **** 
 663:build/openmote-cc2538_armgcc/openstack/02b-MAChigh/sixtop.c ****     sixtop_vars.mgtTaskCounter = (sixtop_vars.mgtTaskCounter+1)%MAINTENANCE_PERIOD;
 1901              		.loc 1 663 0
 1902 0980 0E4B     		ldr	r3, .L112
 1903 0982 5B79     		ldrb	r3, [r3, #5]	@ zero_extendqisi2
 1904 0984 5A1C     		adds	r2, r3, #1
 1905 0986 0E4B     		ldr	r3, .L112+4
 1906 0988 82FB0301 		smull	r0, r1, r2, r3
 1907 098c 5318     		adds	r3, r2, r1
 1908 098e 1911     		asrs	r1, r3, #4
 1909 0990 D317     		asrs	r3, r2, #31
 1910 0992 C91A     		subs	r1, r1, r3
 1911 0994 0B46     		mov	r3, r1
 1912 0996 1B01     		lsls	r3, r3, #4
 1913 0998 5B1A     		subs	r3, r3, r1
 1914 099a 5B00     		lsls	r3, r3, #1
 1915 099c D11A     		subs	r1, r2, r3
 1916 099e CAB2     		uxtb	r2, r1
 1917 09a0 064B     		ldr	r3, .L112
 1918 09a2 5A71     		strb	r2, [r3, #5]
 664:build/openmote-cc2538_armgcc/openstack/02b-MAChigh/sixtop.c **** 
 665:build/openmote-cc2538_armgcc/openstack/02b-MAChigh/sixtop.c ****     switch (sixtop_vars.mgtTaskCounter) {
 1919              		.loc 1 665 0
 1920 09a4 054B     		ldr	r3, .L112
 1921 09a6 5B79     		ldrb	r3, [r3, #5]	@ zero_extendqisi2
 1922 09a8 002B     		cmp	r3, #0
 1923 09aa 02D1     		bne	.L111
 666:build/openmote-cc2538_armgcc/openstack/02b-MAChigh/sixtop.c ****         case 0:
 667:build/openmote-cc2538_armgcc/openstack/02b-MAChigh/sixtop.c ****             // called every MAINTENANCE_PERIOD seconds
 668:build/openmote-cc2538_armgcc/openstack/02b-MAChigh/sixtop.c ****             neighbors_removeOld();
 1924              		.loc 1 668 0
 1925 09ac FFF7FEFF 		bl	neighbors_removeOld
 669:build/openmote-cc2538_armgcc/openstack/02b-MAChigh/sixtop.c ****             break;
 1926              		.loc 1 669 0
 1927 09b0 02E0     		b	.L107
 1928              	.L111:
 670:build/openmote-cc2538_armgcc/openstack/02b-MAChigh/sixtop.c ****         default:
 671:build/openmote-cc2538_armgcc/openstack/02b-MAChigh/sixtop.c ****             // called every second, except once every MAINTENANCE_PERIOD seconds
 672:build/openmote-cc2538_armgcc/openstack/02b-MAChigh/sixtop.c ****             sixtop_sendKA();
 1929              		.loc 1 672 0
 1930 09b2 FFF7FEFF 		bl	sixtop_sendKA
 673:build/openmote-cc2538_armgcc/openstack/02b-MAChigh/sixtop.c ****             break;
 1931              		.loc 1 673 0
 1932 09b6 00BF     		nop
 1933              	.L107:
 674:build/openmote-cc2538_armgcc/openstack/02b-MAChigh/sixtop.c ****     }
 675:build/openmote-cc2538_armgcc/openstack/02b-MAChigh/sixtop.c **** }
 1934              		.loc 1 675 0
 1935 09b8 80BD     		pop	{r7, pc}
 1936              	.L113:
 1937 09ba 00BF     		.align	2
 1938              	.L112:
 1939 09bc 00000000 		.word	sixtop_vars
 1940 09c0 89888888 		.word	-2004318071
 1941              		.cfi_endproc
 1942              	.LFE16:
 1944              		.align	2
 1945              		.global	sixtop_sendEB
 1946              		.thumb
 1947              		.thumb_func
 1949              	sixtop_sendEB:
 1950              	.LFB17:
 676:build/openmote-cc2538_armgcc/openstack/02b-MAChigh/sixtop.c **** 
 677:build/openmote-cc2538_armgcc/openstack/02b-MAChigh/sixtop.c **** /**
 678:build/openmote-cc2538_armgcc/openstack/02b-MAChigh/sixtop.c **** \brief Send an EB.
 679:build/openmote-cc2538_armgcc/openstack/02b-MAChigh/sixtop.c **** 
 680:build/openmote-cc2538_armgcc/openstack/02b-MAChigh/sixtop.c **** This is one of the MAC management tasks. This function inlines in the
 681:build/openmote-cc2538_armgcc/openstack/02b-MAChigh/sixtop.c **** timers_res_fired() function, but is declared as a separate function for better
 682:build/openmote-cc2538_armgcc/openstack/02b-MAChigh/sixtop.c **** readability of the code.
 683:build/openmote-cc2538_armgcc/openstack/02b-MAChigh/sixtop.c **** */
 684:build/openmote-cc2538_armgcc/openstack/02b-MAChigh/sixtop.c **** port_INLINE void sixtop_sendEB(void) {
 1951              		.loc 1 684 0
 1952              		.cfi_startproc
 1953              		@ args = 0, pretend = 0, frame = 32
 1954              		@ frame_needed = 1, uses_anonymous_args = 0
 1955 09c4 90B5     		push	{r4, r7, lr}
 1956              		.cfi_def_cfa_offset 12
 1957              		.cfi_offset 4, -12
 1958              		.cfi_offset 7, -8
 1959              		.cfi_offset 14, -4
 1960 09c6 89B0     		sub	sp, sp, #36
 1961              		.cfi_def_cfa_offset 48
 1962 09c8 00AF     		add	r7, sp, #0
 1963              		.cfi_def_cfa_register 7
 685:build/openmote-cc2538_armgcc/openstack/02b-MAChigh/sixtop.c ****     OpenQueueEntry_t* eb;
 686:build/openmote-cc2538_armgcc/openstack/02b-MAChigh/sixtop.c ****     uint8_t     i;
 687:build/openmote-cc2538_armgcc/openstack/02b-MAChigh/sixtop.c ****     uint8_t     eb_len;
 688:build/openmote-cc2538_armgcc/openstack/02b-MAChigh/sixtop.c ****     uint16_t    temp16b;
 689:build/openmote-cc2538_armgcc/openstack/02b-MAChigh/sixtop.c ****     open_addr_t addressToWrite;
 690:build/openmote-cc2538_armgcc/openstack/02b-MAChigh/sixtop.c **** 
 691:build/openmote-cc2538_armgcc/openstack/02b-MAChigh/sixtop.c ****     memset(&addressToWrite,0,sizeof(open_addr_t));
 1964              		.loc 1 691 0
 1965 09ca 3B46     		mov	r3, r7
 1966 09cc 1846     		mov	r0, r3
 1967 09ce 0021     		movs	r1, #0
 1968 09d0 1122     		movs	r2, #17
 1969 09d2 FFF7FEFF 		bl	memset
 692:build/openmote-cc2538_armgcc/openstack/02b-MAChigh/sixtop.c ****     if (
 693:build/openmote-cc2538_armgcc/openstack/02b-MAChigh/sixtop.c ****         (ieee154e_isSynch()==FALSE)                     ||
 1970              		.loc 1 693 0
 1971 09d6 FFF7FEFF 		bl	ieee154e_isSynch
 1972 09da 0346     		mov	r3, r0
 1973 09dc 83F00103 		eor	r3, r3, #1
 1974 09e0 DBB2     		uxtb	r3, r3
 692:build/openmote-cc2538_armgcc/openstack/02b-MAChigh/sixtop.c ****     if (
 1975              		.loc 1 692 0
 1976 09e2 002B     		cmp	r3, #0
 1977 09e4 17D1     		bne	.L115
 694:build/openmote-cc2538_armgcc/openstack/02b-MAChigh/sixtop.c ****         (IEEE802154_security_isConfigured()==FALSE)     ||
 1978              		.loc 1 694 0
 1979 09e6 FFF7FEFF 		bl	IEEE802154_security_isConfigured
 1980 09ea 0346     		mov	r3, r0
 1981 09ec 83F00103 		eor	r3, r3, #1
 1982 09f0 DBB2     		uxtb	r3, r3
 693:build/openmote-cc2538_armgcc/openstack/02b-MAChigh/sixtop.c ****         (IEEE802154_security_isConfigured()==FALSE)     ||
 1983              		.loc 1 693 0
 1984 09f2 002B     		cmp	r3, #0
 1985 09f4 0FD1     		bne	.L115
 695:build/openmote-cc2538_armgcc/openstack/02b-MAChigh/sixtop.c ****         (icmpv6rpl_getMyDAGrank()==DEFAULTDAGRANK)      ||
 1986              		.loc 1 695 0
 1987 09f6 FFF7FEFF 		bl	icmpv6rpl_getMyDAGrank
 1988 09fa 0346     		mov	r3, r0
 1989 09fc 1A46     		mov	r2, r3
 694:build/openmote-cc2538_armgcc/openstack/02b-MAChigh/sixtop.c ****         (IEEE802154_security_isConfigured()==FALSE)     ||
 1990              		.loc 1 694 0
 1991 09fe 4FF6FF73 		movw	r3, #65535
 1992 0a02 9A42     		cmp	r2, r3
 1993 0a04 07D0     		beq	.L115
 696:build/openmote-cc2538_armgcc/openstack/02b-MAChigh/sixtop.c ****         icmpv6rpl_daoSent()==FALSE
 1994              		.loc 1 696 0
 1995 0a06 FFF7FEFF 		bl	icmpv6rpl_daoSent
 1996 0a0a 0346     		mov	r3, r0
 1997 0a0c 83F00103 		eor	r3, r3, #1
 1998 0a10 DBB2     		uxtb	r3, r3
 695:build/openmote-cc2538_armgcc/openstack/02b-MAChigh/sixtop.c ****         (icmpv6rpl_getMyDAGrank()==DEFAULTDAGRANK)      ||
 1999              		.loc 1 695 0
 2000 0a12 002B     		cmp	r3, #0
 2001 0a14 09D0     		beq	.L116
 2002              	.L115:
 697:build/openmote-cc2538_armgcc/openstack/02b-MAChigh/sixtop.c ****     ) {
 698:build/openmote-cc2538_armgcc/openstack/02b-MAChigh/sixtop.c ****         // I'm not sync'ed, or did not join, or did not acquire a DAGrank or did not send out a DAO
 699:build/openmote-cc2538_armgcc/openstack/02b-MAChigh/sixtop.c ****         // before starting to advertize the network, we need to make sure that we are reachable dow
 700:build/openmote-cc2538_armgcc/openstack/02b-MAChigh/sixtop.c ****         // thus, the condition if DAO was sent
 701:build/openmote-cc2538_armgcc/openstack/02b-MAChigh/sixtop.c **** 
 702:build/openmote-cc2538_armgcc/openstack/02b-MAChigh/sixtop.c ****         // delete packets genereted by this module (EB and KA) from openqueue
 703:build/openmote-cc2538_armgcc/openstack/02b-MAChigh/sixtop.c ****         openqueue_removeAllCreatedBy(COMPONENT_SIXTOP);
 2003              		.loc 1 703 0
 2004 0a16 0C20     		movs	r0, #12
 2005 0a18 FFF7FEFF 		bl	openqueue_removeAllCreatedBy
 704:build/openmote-cc2538_armgcc/openstack/02b-MAChigh/sixtop.c **** 
 705:build/openmote-cc2538_armgcc/openstack/02b-MAChigh/sixtop.c ****         // I'm not busy sending an EB or KA
 706:build/openmote-cc2538_armgcc/openstack/02b-MAChigh/sixtop.c ****         sixtop_vars.busySendingEB = FALSE;
 2006              		.loc 1 706 0
 2007 0a1c 794B     		ldr	r3, .L129
 2008 0a1e 0022     		movs	r2, #0
 2009 0a20 DA70     		strb	r2, [r3, #3]
 707:build/openmote-cc2538_armgcc/openstack/02b-MAChigh/sixtop.c ****         sixtop_vars.busySendingKA = FALSE;
 2010              		.loc 1 707 0
 2011 0a22 784B     		ldr	r3, .L129
 2012 0a24 0022     		movs	r2, #0
 2013 0a26 9A70     		strb	r2, [r3, #2]
 708:build/openmote-cc2538_armgcc/openstack/02b-MAChigh/sixtop.c **** 
 709:build/openmote-cc2538_armgcc/openstack/02b-MAChigh/sixtop.c ****         // stop here
 710:build/openmote-cc2538_armgcc/openstack/02b-MAChigh/sixtop.c ****         return;
 2014              		.loc 1 710 0
 2015 0a28 E8E0     		b	.L114
 2016              	.L116:
 711:build/openmote-cc2538_armgcc/openstack/02b-MAChigh/sixtop.c ****     }
 712:build/openmote-cc2538_armgcc/openstack/02b-MAChigh/sixtop.c **** 
 713:build/openmote-cc2538_armgcc/openstack/02b-MAChigh/sixtop.c ****     if (
 714:build/openmote-cc2538_armgcc/openstack/02b-MAChigh/sixtop.c ****         idmanager_getIsDAGroot() == FALSE &&
 2017              		.loc 1 714 0
 2018 0a2a FFF7FEFF 		bl	idmanager_getIsDAGroot
 2019 0a2e 0346     		mov	r3, r0
 2020 0a30 83F00103 		eor	r3, r3, #1
 2021 0a34 DBB2     		uxtb	r3, r3
 713:build/openmote-cc2538_armgcc/openstack/02b-MAChigh/sixtop.c ****         idmanager_getIsDAGroot() == FALSE &&
 2022              		.loc 1 713 0
 2023 0a36 002B     		cmp	r3, #0
 2024 0a38 24D0     		beq	.L118
 715:build/openmote-cc2538_armgcc/openstack/02b-MAChigh/sixtop.c ****         (
 716:build/openmote-cc2538_armgcc/openstack/02b-MAChigh/sixtop.c ****             icmpv6rpl_getPreferredParentEui64(&addressToWrite) == FALSE ||
 2025              		.loc 1 716 0
 2026 0a3a 3B46     		mov	r3, r7
 2027 0a3c 1846     		mov	r0, r3
 2028 0a3e FFF7FEFF 		bl	icmpv6rpl_getPreferredParentEui64
 2029 0a42 0346     		mov	r3, r0
 2030 0a44 83F00103 		eor	r3, r3, #1
 2031 0a48 DBB2     		uxtb	r3, r3
 714:build/openmote-cc2538_armgcc/openstack/02b-MAChigh/sixtop.c ****         (
 2032              		.loc 1 714 0
 2033 0a4a 002B     		cmp	r3, #0
 2034 0a4c 10D1     		bne	.L119
 717:build/openmote-cc2538_armgcc/openstack/02b-MAChigh/sixtop.c ****             (
 718:build/openmote-cc2538_armgcc/openstack/02b-MAChigh/sixtop.c ****                 icmpv6rpl_getPreferredParentEui64(&addressToWrite) &&
 2035              		.loc 1 718 0
 2036 0a4e 3B46     		mov	r3, r7
 2037 0a50 1846     		mov	r0, r3
 2038 0a52 FFF7FEFF 		bl	icmpv6rpl_getPreferredParentEui64
 2039 0a56 0346     		mov	r3, r0
 716:build/openmote-cc2538_armgcc/openstack/02b-MAChigh/sixtop.c ****             (
 2040              		.loc 1 716 0
 2041 0a58 002B     		cmp	r3, #0
 2042 0a5a 13D0     		beq	.L118
 719:build/openmote-cc2538_armgcc/openstack/02b-MAChigh/sixtop.c ****                 schedule_hasDedicatedCellToNeighbor(&addressToWrite) == FALSE
 2043              		.loc 1 719 0
 2044 0a5c 3B46     		mov	r3, r7
 2045 0a5e 1846     		mov	r0, r3
 2046 0a60 FFF7FEFF 		bl	schedule_hasDedicatedCellToNeighbor
 2047 0a64 0346     		mov	r3, r0
 2048 0a66 83F00103 		eor	r3, r3, #1
 2049 0a6a DBB2     		uxtb	r3, r3
 718:build/openmote-cc2538_armgcc/openstack/02b-MAChigh/sixtop.c ****                 schedule_hasDedicatedCellToNeighbor(&addressToWrite) == FALSE
 2050              		.loc 1 718 0
 2051 0a6c 002B     		cmp	r3, #0
 2052 0a6e 09D0     		beq	.L118
 2053              	.L119:
 720:build/openmote-cc2538_armgcc/openstack/02b-MAChigh/sixtop.c ****             )
 721:build/openmote-cc2538_armgcc/openstack/02b-MAChigh/sixtop.c ****         )
 722:build/openmote-cc2538_armgcc/openstack/02b-MAChigh/sixtop.c ****     ){
 723:build/openmote-cc2538_armgcc/openstack/02b-MAChigh/sixtop.c ****         // delete packets genereted by this module (EB and KA) from openqueue
 724:build/openmote-cc2538_armgcc/openstack/02b-MAChigh/sixtop.c ****         openqueue_removeAllCreatedBy(COMPONENT_SIXTOP);
 2054              		.loc 1 724 0
 2055 0a70 0C20     		movs	r0, #12
 2056 0a72 FFF7FEFF 		bl	openqueue_removeAllCreatedBy
 725:build/openmote-cc2538_armgcc/openstack/02b-MAChigh/sixtop.c **** 
 726:build/openmote-cc2538_armgcc/openstack/02b-MAChigh/sixtop.c ****         // I'm not busy sending an EB or KA
 727:build/openmote-cc2538_armgcc/openstack/02b-MAChigh/sixtop.c ****         sixtop_vars.busySendingEB = FALSE;
 2057              		.loc 1 727 0
 2058 0a76 634B     		ldr	r3, .L129
 2059 0a78 0022     		movs	r2, #0
 2060 0a7a DA70     		strb	r2, [r3, #3]
 728:build/openmote-cc2538_armgcc/openstack/02b-MAChigh/sixtop.c ****         sixtop_vars.busySendingKA = FALSE;
 2061              		.loc 1 728 0
 2062 0a7c 614B     		ldr	r3, .L129
 2063 0a7e 0022     		movs	r2, #0
 2064 0a80 9A70     		strb	r2, [r3, #2]
 729:build/openmote-cc2538_armgcc/openstack/02b-MAChigh/sixtop.c **** 
 730:build/openmote-cc2538_armgcc/openstack/02b-MAChigh/sixtop.c ****         return;
 2065              		.loc 1 730 0
 2066 0a82 BBE0     		b	.L114
 2067              	.L118:
 731:build/openmote-cc2538_armgcc/openstack/02b-MAChigh/sixtop.c ****     }
 732:build/openmote-cc2538_armgcc/openstack/02b-MAChigh/sixtop.c **** 
 733:build/openmote-cc2538_armgcc/openstack/02b-MAChigh/sixtop.c ****     if (sixtop_vars.busySendingEB==TRUE) {
 2068              		.loc 1 733 0
 2069 0a84 5F4B     		ldr	r3, .L129
 2070 0a86 DB78     		ldrb	r3, [r3, #3]	@ zero_extendqisi2
 2071 0a88 002B     		cmp	r3, #0
 2072 0a8a 00D0     		beq	.L120
 734:build/openmote-cc2538_armgcc/openstack/02b-MAChigh/sixtop.c ****         // don't continue if I'm still sending a previous EB
 735:build/openmote-cc2538_armgcc/openstack/02b-MAChigh/sixtop.c ****         return;
 2073              		.loc 1 735 0
 2074 0a8c B6E0     		b	.L114
 2075              	.L120:
 736:build/openmote-cc2538_armgcc/openstack/02b-MAChigh/sixtop.c ****     }
 737:build/openmote-cc2538_armgcc/openstack/02b-MAChigh/sixtop.c **** 
 738:build/openmote-cc2538_armgcc/openstack/02b-MAChigh/sixtop.c ****     // if I get here, I will send an EB
 739:build/openmote-cc2538_armgcc/openstack/02b-MAChigh/sixtop.c **** 
 740:build/openmote-cc2538_armgcc/openstack/02b-MAChigh/sixtop.c ****     // get a free packet buffer
 741:build/openmote-cc2538_armgcc/openstack/02b-MAChigh/sixtop.c ****     eb = openqueue_getFreePacketBuffer(COMPONENT_SIXTOP);
 2076              		.loc 1 741 0
 2077 0a8e 0C20     		movs	r0, #12
 2078 0a90 FFF7FEFF 		bl	openqueue_getFreePacketBuffer
 2079 0a94 B861     		str	r0, [r7, #24]
 742:build/openmote-cc2538_armgcc/openstack/02b-MAChigh/sixtop.c ****     if (eb==NULL) {
 2080              		.loc 1 742 0
 2081 0a96 BB69     		ldr	r3, [r7, #24]
 2082 0a98 002B     		cmp	r3, #0
 2083 0a9a 06D1     		bne	.L121
 743:build/openmote-cc2538_armgcc/openstack/02b-MAChigh/sixtop.c ****         openserial_printError(
 2084              		.loc 1 743 0
 2085 0a9c 0C20     		movs	r0, #12
 2086 0a9e 2C21     		movs	r1, #44
 2087 0aa0 0022     		movs	r2, #0
 2088 0aa2 0023     		movs	r3, #0
 2089 0aa4 FFF7FEFF 		bl	openserial_printError
 744:build/openmote-cc2538_armgcc/openstack/02b-MAChigh/sixtop.c ****             COMPONENT_SIXTOP,
 745:build/openmote-cc2538_armgcc/openstack/02b-MAChigh/sixtop.c ****             ERR_NO_FREE_PACKET_BUFFER,
 746:build/openmote-cc2538_armgcc/openstack/02b-MAChigh/sixtop.c ****             (errorparameter_t)0,
 747:build/openmote-cc2538_armgcc/openstack/02b-MAChigh/sixtop.c ****             (errorparameter_t)0
 748:build/openmote-cc2538_armgcc/openstack/02b-MAChigh/sixtop.c ****         );
 749:build/openmote-cc2538_armgcc/openstack/02b-MAChigh/sixtop.c ****         return;
 2090              		.loc 1 749 0
 2091 0aa8 A8E0     		b	.L114
 2092              	.L121:
 750:build/openmote-cc2538_armgcc/openstack/02b-MAChigh/sixtop.c ****     }
 751:build/openmote-cc2538_armgcc/openstack/02b-MAChigh/sixtop.c **** 
 752:build/openmote-cc2538_armgcc/openstack/02b-MAChigh/sixtop.c ****     // declare ownership over that packet
 753:build/openmote-cc2538_armgcc/openstack/02b-MAChigh/sixtop.c ****     eb->creator = COMPONENT_SIXTOP;
 2093              		.loc 1 753 0
 2094 0aaa BB69     		ldr	r3, [r7, #24]
 2095 0aac 0C22     		movs	r2, #12
 2096 0aae 1A70     		strb	r2, [r3]
 754:build/openmote-cc2538_armgcc/openstack/02b-MAChigh/sixtop.c ****     eb->owner   = COMPONENT_SIXTOP;
 2097              		.loc 1 754 0
 2098 0ab0 BB69     		ldr	r3, [r7, #24]
 2099 0ab2 0C22     		movs	r2, #12
 2100 0ab4 5A70     		strb	r2, [r3, #1]
 755:build/openmote-cc2538_armgcc/openstack/02b-MAChigh/sixtop.c **** 
 756:build/openmote-cc2538_armgcc/openstack/02b-MAChigh/sixtop.c ****     // in case we none default number of shared cells defined in minimal configuration
 757:build/openmote-cc2538_armgcc/openstack/02b-MAChigh/sixtop.c ****     if (ebIEsBytestream[EB_SLOTFRAME_NUMLINK_OFFSET]>1){
 2101              		.loc 1 757 0
 2102 0ab6 0123     		movs	r3, #1
 2103 0ab8 012B     		cmp	r3, #1
 2104 0aba 25D9     		bls	.L122
 758:build/openmote-cc2538_armgcc/openstack/02b-MAChigh/sixtop.c ****         for (i=ebIEsBytestream[EB_SLOTFRAME_NUMLINK_OFFSET]-1;i>0;i--){
 2105              		.loc 1 758 0
 2106 0abc 0123     		movs	r3, #1
 2107 0abe 013B     		subs	r3, r3, #1
 2108 0ac0 FB77     		strb	r3, [r7, #31]
 2109 0ac2 1EE0     		b	.L123
 2110              	.L124:
 759:build/openmote-cc2538_armgcc/openstack/02b-MAChigh/sixtop.c ****             packetfunctions_reserveHeaderSize(eb,5);
 2111              		.loc 1 759 0 discriminator 3
 2112 0ac4 B869     		ldr	r0, [r7, #24]
 2113 0ac6 0521     		movs	r1, #5
 2114 0ac8 FFF7FEFF 		bl	packetfunctions_reserveHeaderSize
 760:build/openmote-cc2538_armgcc/openstack/02b-MAChigh/sixtop.c ****             eb->payload[0]   = i;    // slot offset
 2115              		.loc 1 760 0 discriminator 3
 2116 0acc BB69     		ldr	r3, [r7, #24]
 2117 0ace 5B68     		ldr	r3, [r3, #4]
 2118 0ad0 FA7F     		ldrb	r2, [r7, #31]
 2119 0ad2 1A70     		strb	r2, [r3]
 761:build/openmote-cc2538_armgcc/openstack/02b-MAChigh/sixtop.c ****             eb->payload[1]   = 0x00;
 2120              		.loc 1 761 0 discriminator 3
 2121 0ad4 BB69     		ldr	r3, [r7, #24]
 2122 0ad6 5B68     		ldr	r3, [r3, #4]
 2123 0ad8 0133     		adds	r3, r3, #1
 2124 0ada 0022     		movs	r2, #0
 2125 0adc 1A70     		strb	r2, [r3]
 762:build/openmote-cc2538_armgcc/openstack/02b-MAChigh/sixtop.c ****             eb->payload[2]   = 0x00; // channel offset
 2126              		.loc 1 762 0 discriminator 3
 2127 0ade BB69     		ldr	r3, [r7, #24]
 2128 0ae0 5B68     		ldr	r3, [r3, #4]
 2129 0ae2 0233     		adds	r3, r3, #2
 2130 0ae4 0022     		movs	r2, #0
 2131 0ae6 1A70     		strb	r2, [r3]
 763:build/openmote-cc2538_armgcc/openstack/02b-MAChigh/sixtop.c ****             eb->payload[3]   = 0x00;
 2132              		.loc 1 763 0 discriminator 3
 2133 0ae8 BB69     		ldr	r3, [r7, #24]
 2134 0aea 5B68     		ldr	r3, [r3, #4]
 2135 0aec 0333     		adds	r3, r3, #3
 2136 0aee 0022     		movs	r2, #0
 2137 0af0 1A70     		strb	r2, [r3]
 764:build/openmote-cc2538_armgcc/openstack/02b-MAChigh/sixtop.c ****             eb->payload[4]   = 0x0F; // link options
 2138              		.loc 1 764 0 discriminator 3
 2139 0af2 BB69     		ldr	r3, [r7, #24]
 2140 0af4 5B68     		ldr	r3, [r3, #4]
 2141 0af6 0433     		adds	r3, r3, #4
 2142 0af8 0F22     		movs	r2, #15
 2143 0afa 1A70     		strb	r2, [r3]
 758:build/openmote-cc2538_armgcc/openstack/02b-MAChigh/sixtop.c ****             packetfunctions_reserveHeaderSize(eb,5);
 2144              		.loc 1 758 0 discriminator 3
 2145 0afc FB7F     		ldrb	r3, [r7, #31]	@ zero_extendqisi2
 2146 0afe 013B     		subs	r3, r3, #1
 2147 0b00 FB77     		strb	r3, [r7, #31]
 2148              	.L123:
 758:build/openmote-cc2538_armgcc/openstack/02b-MAChigh/sixtop.c ****             packetfunctions_reserveHeaderSize(eb,5);
 2149              		.loc 1 758 0 is_stmt 0 discriminator 1
 2150 0b02 FB7F     		ldrb	r3, [r7, #31]	@ zero_extendqisi2
 2151 0b04 002B     		cmp	r3, #0
 2152 0b06 DDD1     		bne	.L124
 2153              	.L122:
 765:build/openmote-cc2538_armgcc/openstack/02b-MAChigh/sixtop.c ****         }
 766:build/openmote-cc2538_armgcc/openstack/02b-MAChigh/sixtop.c ****     }
 767:build/openmote-cc2538_armgcc/openstack/02b-MAChigh/sixtop.c **** 
 768:build/openmote-cc2538_armgcc/openstack/02b-MAChigh/sixtop.c ****     // reserve space for EB IEs
 769:build/openmote-cc2538_armgcc/openstack/02b-MAChigh/sixtop.c ****     packetfunctions_reserveHeaderSize(eb,EB_IE_LEN);
 2154              		.loc 1 769 0 is_stmt 1
 2155 0b08 B869     		ldr	r0, [r7, #24]
 2156 0b0a 1C21     		movs	r1, #28
 2157 0b0c FFF7FEFF 		bl	packetfunctions_reserveHeaderSize
 770:build/openmote-cc2538_armgcc/openstack/02b-MAChigh/sixtop.c ****     for (i=0;i<EB_IE_LEN;i++){
 2158              		.loc 1 770 0
 2159 0b10 0023     		movs	r3, #0
 2160 0b12 FB77     		strb	r3, [r7, #31]
 2161 0b14 0AE0     		b	.L125
 2162              	.L126:
 771:build/openmote-cc2538_armgcc/openstack/02b-MAChigh/sixtop.c ****         eb->payload[i]   = ebIEsBytestream[i];
 2163              		.loc 1 771 0 discriminator 3
 2164 0b16 BB69     		ldr	r3, [r7, #24]
 2165 0b18 5A68     		ldr	r2, [r3, #4]
 2166 0b1a FB7F     		ldrb	r3, [r7, #31]	@ zero_extendqisi2
 2167 0b1c 1344     		add	r3, r3, r2
 2168 0b1e FA7F     		ldrb	r2, [r7, #31]	@ zero_extendqisi2
 2169 0b20 3949     		ldr	r1, .L129+4
 2170 0b22 8A5C     		ldrb	r2, [r1, r2]	@ zero_extendqisi2
 2171 0b24 1A70     		strb	r2, [r3]
 770:build/openmote-cc2538_armgcc/openstack/02b-MAChigh/sixtop.c ****     for (i=0;i<EB_IE_LEN;i++){
 2172              		.loc 1 770 0 discriminator 3
 2173 0b26 FB7F     		ldrb	r3, [r7, #31]	@ zero_extendqisi2
 2174 0b28 0133     		adds	r3, r3, #1
 2175 0b2a FB77     		strb	r3, [r7, #31]
 2176              	.L125:
 770:build/openmote-cc2538_armgcc/openstack/02b-MAChigh/sixtop.c ****     for (i=0;i<EB_IE_LEN;i++){
 2177              		.loc 1 770 0 is_stmt 0 discriminator 1
 2178 0b2c FB7F     		ldrb	r3, [r7, #31]	@ zero_extendqisi2
 2179 0b2e 1B2B     		cmp	r3, #27
 2180 0b30 F1D9     		bls	.L126
 772:build/openmote-cc2538_armgcc/openstack/02b-MAChigh/sixtop.c ****     }
 773:build/openmote-cc2538_armgcc/openstack/02b-MAChigh/sixtop.c **** 
 774:build/openmote-cc2538_armgcc/openstack/02b-MAChigh/sixtop.c ****     if (ebIEsBytestream[EB_SLOTFRAME_NUMLINK_OFFSET]>1){
 2181              		.loc 1 774 0 is_stmt 1
 2182 0b32 0123     		movs	r3, #1
 2183 0b34 012B     		cmp	r3, #1
 2184 0b36 1AD9     		bls	.L127
 775:build/openmote-cc2538_armgcc/openstack/02b-MAChigh/sixtop.c ****         // reconstruct the MLME IE header since length changed
 776:build/openmote-cc2538_armgcc/openstack/02b-MAChigh/sixtop.c ****         eb_len = EB_IE_LEN-2+5*(ebIEsBytestream[EB_SLOTFRAME_NUMLINK_OFFSET]-1);
 2185              		.loc 1 776 0
 2186 0b38 0123     		movs	r3, #1
 2187 0b3a 013B     		subs	r3, r3, #1
 2188 0b3c DBB2     		uxtb	r3, r3
 2189 0b3e 1A46     		mov	r2, r3
 2190 0b40 9200     		lsls	r2, r2, #2
 2191 0b42 1344     		add	r3, r3, r2
 2192 0b44 DBB2     		uxtb	r3, r3
 2193 0b46 1A33     		adds	r3, r3, #26
 2194 0b48 FB75     		strb	r3, [r7, #23]
 777:build/openmote-cc2538_armgcc/openstack/02b-MAChigh/sixtop.c ****         temp16b = eb_len | IEEE802154E_PAYLOAD_DESC_GROUP_ID_MLME | IEEE802154E_PAYLOAD_DESC_TYPE_M
 2195              		.loc 1 777 0
 2196 0b4a FB7D     		ldrb	r3, [r7, #23]	@ zero_extendqisi2
 2197 0b4c 9AB2     		uxth	r2, r3
 2198 0b4e 2F4B     		ldr	r3, .L129+8
 2199 0b50 1343     		orrs	r3, r3, r2
 2200 0b52 BB82     		strh	r3, [r7, #20]	@ movhi
 778:build/openmote-cc2538_armgcc/openstack/02b-MAChigh/sixtop.c ****         eb->payload[0] = (uint8_t)(temp16b & 0x00ff);
 2201              		.loc 1 778 0
 2202 0b54 BB69     		ldr	r3, [r7, #24]
 2203 0b56 5B68     		ldr	r3, [r3, #4]
 2204 0b58 BA8A     		ldrh	r2, [r7, #20]	@ movhi
 2205 0b5a D2B2     		uxtb	r2, r2
 2206 0b5c 1A70     		strb	r2, [r3]
 779:build/openmote-cc2538_armgcc/openstack/02b-MAChigh/sixtop.c ****         eb->payload[1] = (uint8_t)((temp16b & 0xff00)>>8);
 2207              		.loc 1 779 0
 2208 0b5e BB69     		ldr	r3, [r7, #24]
 2209 0b60 5B68     		ldr	r3, [r3, #4]
 2210 0b62 0133     		adds	r3, r3, #1
 2211 0b64 BA8A     		ldrh	r2, [r7, #20]
 2212 0b66 120A     		lsrs	r2, r2, #8
 2213 0b68 92B2     		uxth	r2, r2
 2214 0b6a D2B2     		uxtb	r2, r2
 2215 0b6c 1A70     		strb	r2, [r3]
 2216              	.L127:
 780:build/openmote-cc2538_armgcc/openstack/02b-MAChigh/sixtop.c ****     }
 781:build/openmote-cc2538_armgcc/openstack/02b-MAChigh/sixtop.c **** 
 782:build/openmote-cc2538_armgcc/openstack/02b-MAChigh/sixtop.c ****     eb->payload[EB_SLOTFRAME_LEN_OFFSET]   = (uint8_t)(0x00FF & (schedule_getFrameLength()));
 2217              		.loc 1 782 0
 2218 0b6e BB69     		ldr	r3, [r7, #24]
 2219 0b70 5B68     		ldr	r3, [r3, #4]
 2220 0b72 03F11404 		add	r4, r3, #20
 2221 0b76 FFF7FEFF 		bl	schedule_getFrameLength
 2222 0b7a 0346     		mov	r3, r0
 2223 0b7c DBB2     		uxtb	r3, r3
 2224 0b7e 2370     		strb	r3, [r4]
 783:build/openmote-cc2538_armgcc/openstack/02b-MAChigh/sixtop.c ****     eb->payload[EB_SLOTFRAME_LEN_OFFSET+1] = (uint8_t)(0x00FF & (schedule_getFrameLength()>>8));
 2225              		.loc 1 783 0
 2226 0b80 BB69     		ldr	r3, [r7, #24]
 2227 0b82 5B68     		ldr	r3, [r3, #4]
 2228 0b84 03F11504 		add	r4, r3, #21
 2229 0b88 FFF7FEFF 		bl	schedule_getFrameLength
 2230 0b8c 0346     		mov	r3, r0
 2231 0b8e 1B0A     		lsrs	r3, r3, #8
 2232 0b90 9BB2     		uxth	r3, r3
 2233 0b92 DBB2     		uxtb	r3, r3
 2234 0b94 2370     		strb	r3, [r4]
 784:build/openmote-cc2538_armgcc/openstack/02b-MAChigh/sixtop.c **** 
 785:build/openmote-cc2538_armgcc/openstack/02b-MAChigh/sixtop.c ****     // Keep a pointer to where the ASN will be
 786:build/openmote-cc2538_armgcc/openstack/02b-MAChigh/sixtop.c ****     // Note: the actual value of the current ASN and JP will be written by the
 787:build/openmote-cc2538_armgcc/openstack/02b-MAChigh/sixtop.c ****     //    IEEE802.15.4e when transmitting
 788:build/openmote-cc2538_armgcc/openstack/02b-MAChigh/sixtop.c ****     eb->l2_ASNpayload               = &eb->payload[EB_ASN0_OFFSET];
 2235              		.loc 1 788 0
 2236 0b96 BB69     		ldr	r3, [r7, #24]
 2237 0b98 5B68     		ldr	r3, [r3, #4]
 2238 0b9a 1A1D     		adds	r2, r3, #4
 2239 0b9c BB69     		ldr	r3, [r7, #24]
 2240 0b9e C3F89420 		str	r2, [r3, #148]
 789:build/openmote-cc2538_armgcc/openstack/02b-MAChigh/sixtop.c **** 
 790:build/openmote-cc2538_armgcc/openstack/02b-MAChigh/sixtop.c ****     // some l2 information about this packet
 791:build/openmote-cc2538_armgcc/openstack/02b-MAChigh/sixtop.c ****     eb->l2_frameType                     = IEEE154_TYPE_BEACON;
 2241              		.loc 1 791 0
 2242 0ba2 BB69     		ldr	r3, [r7, #24]
 2243 0ba4 0022     		movs	r2, #0
 2244 0ba6 83F84D20 		strb	r2, [r3, #77]
 792:build/openmote-cc2538_armgcc/openstack/02b-MAChigh/sixtop.c ****     eb->l2_nextORpreviousHop.type        = ADDR_16B;
 2245              		.loc 1 792 0
 2246 0baa BB69     		ldr	r3, [r7, #24]
 2247 0bac 0122     		movs	r2, #1
 2248 0bae 83F83C20 		strb	r2, [r3, #60]
 793:build/openmote-cc2538_armgcc/openstack/02b-MAChigh/sixtop.c ****     eb->l2_nextORpreviousHop.addr_16b[0] = 0xff;
 2249              		.loc 1 793 0
 2250 0bb2 BB69     		ldr	r3, [r7, #24]
 2251 0bb4 FF22     		movs	r2, #255
 2252 0bb6 83F83D20 		strb	r2, [r3, #61]
 794:build/openmote-cc2538_armgcc/openstack/02b-MAChigh/sixtop.c ****     eb->l2_nextORpreviousHop.addr_16b[1] = 0xff;
 2253              		.loc 1 794 0
 2254 0bba BB69     		ldr	r3, [r7, #24]
 2255 0bbc FF22     		movs	r2, #255
 2256 0bbe 83F83E20 		strb	r2, [r3, #62]
 795:build/openmote-cc2538_armgcc/openstack/02b-MAChigh/sixtop.c **** 
 796:build/openmote-cc2538_armgcc/openstack/02b-MAChigh/sixtop.c ****     //I has an IE in my payload
 797:build/openmote-cc2538_armgcc/openstack/02b-MAChigh/sixtop.c ****     eb->l2_payloadIEpresent = TRUE;
 2257              		.loc 1 797 0
 2258 0bc2 BB69     		ldr	r3, [r7, #24]
 2259 0bc4 0122     		movs	r2, #1
 2260 0bc6 83F89A20 		strb	r2, [r3, #154]
 798:build/openmote-cc2538_armgcc/openstack/02b-MAChigh/sixtop.c **** 
 799:build/openmote-cc2538_armgcc/openstack/02b-MAChigh/sixtop.c ****     // set l2-security attributes
 800:build/openmote-cc2538_armgcc/openstack/02b-MAChigh/sixtop.c ****     eb->l2_securityLevel   = IEEE802154_SECURITY_LEVEL_BEACON;
 2261              		.loc 1 800 0
 2262 0bca BB69     		ldr	r3, [r7, #24]
 2263 0bcc 0022     		movs	r2, #0
 2264 0bce 83F8A020 		strb	r2, [r3, #160]
 801:build/openmote-cc2538_armgcc/openstack/02b-MAChigh/sixtop.c ****     eb->l2_keyIdMode       = IEEE802154_SECURITY_KEYIDMODE;
 2265              		.loc 1 801 0
 2266 0bd2 BB69     		ldr	r3, [r7, #24]
 2267 0bd4 0022     		movs	r2, #0
 2268 0bd6 83F8A120 		strb	r2, [r3, #161]
 802:build/openmote-cc2538_armgcc/openstack/02b-MAChigh/sixtop.c ****     eb->l2_keyIndex        = IEEE802154_security_getBeaconKeyIndex();
 2269              		.loc 1 802 0
 2270 0bda FFF7FEFF 		bl	IEEE802154_security_getBeaconKeyIndex
 2271 0bde 0346     		mov	r3, r0
 2272 0be0 1A46     		mov	r2, r3
 2273 0be2 BB69     		ldr	r3, [r7, #24]
 2274 0be4 83F8A220 		strb	r2, [r3, #162]
 803:build/openmote-cc2538_armgcc/openstack/02b-MAChigh/sixtop.c **** 
 804:build/openmote-cc2538_armgcc/openstack/02b-MAChigh/sixtop.c ****     // put in queue for MAC to handle
 805:build/openmote-cc2538_armgcc/openstack/02b-MAChigh/sixtop.c ****     sixtop_send_internal(eb,eb->l2_payloadIEpresent);
 2275              		.loc 1 805 0
 2276 0be8 BB69     		ldr	r3, [r7, #24]
 2277 0bea 93F89A30 		ldrb	r3, [r3, #154]	@ zero_extendqisi2
 2278 0bee B869     		ldr	r0, [r7, #24]
 2279 0bf0 1946     		mov	r1, r3
 2280 0bf2 FFF7FEFF 		bl	sixtop_send_internal
 806:build/openmote-cc2538_armgcc/openstack/02b-MAChigh/sixtop.c **** 
 807:build/openmote-cc2538_armgcc/openstack/02b-MAChigh/sixtop.c ****     // I'm now busy sending an EB
 808:build/openmote-cc2538_armgcc/openstack/02b-MAChigh/sixtop.c ****     sixtop_vars.busySendingEB = TRUE;
 2281              		.loc 1 808 0
 2282 0bf6 034B     		ldr	r3, .L129
 2283 0bf8 0122     		movs	r2, #1
 2284 0bfa DA70     		strb	r2, [r3, #3]
 2285              	.L114:
 809:build/openmote-cc2538_armgcc/openstack/02b-MAChigh/sixtop.c **** }
 2286              		.loc 1 809 0
 2287 0bfc 2437     		adds	r7, r7, #36
 2288              		.cfi_def_cfa_offset 12
 2289 0bfe BD46     		mov	sp, r7
 2290              		.cfi_def_cfa_register 13
 2291              		@ sp needed
 2292 0c00 90BD     		pop	{r4, r7, pc}
 2293              	.L130:
 2294 0c02 00BF     		.align	2
 2295              	.L129:
 2296 0c04 00000000 		.word	sixtop_vars
 2297 0c08 50000000 		.word	ebIEsBytestream
 2298 0c0c 0088FFFF 		.word	-30720
 2299              		.cfi_endproc
 2300              	.LFE17:
 2302              		.align	2
 2303              		.global	sixtop_sendKA
 2304              		.thumb
 2305              		.thumb_func
 2307              	sixtop_sendKA:
 2308              	.LFB18:
 810:build/openmote-cc2538_armgcc/openstack/02b-MAChigh/sixtop.c **** 
 811:build/openmote-cc2538_armgcc/openstack/02b-MAChigh/sixtop.c **** /**
 812:build/openmote-cc2538_armgcc/openstack/02b-MAChigh/sixtop.c **** \brief Send an keep-alive message, if necessary.
 813:build/openmote-cc2538_armgcc/openstack/02b-MAChigh/sixtop.c **** 
 814:build/openmote-cc2538_armgcc/openstack/02b-MAChigh/sixtop.c **** This is one of the MAC management tasks. This function inlines in the
 815:build/openmote-cc2538_armgcc/openstack/02b-MAChigh/sixtop.c **** timers_res_fired() function, but is declared as a separate function for better
 816:build/openmote-cc2538_armgcc/openstack/02b-MAChigh/sixtop.c **** readability of the code.
 817:build/openmote-cc2538_armgcc/openstack/02b-MAChigh/sixtop.c **** */
 818:build/openmote-cc2538_armgcc/openstack/02b-MAChigh/sixtop.c **** port_INLINE void sixtop_sendKA(void) {
 2309              		.loc 1 818 0
 2310              		.cfi_startproc
 2311              		@ args = 0, pretend = 0, frame = 8
 2312              		@ frame_needed = 1, uses_anonymous_args = 0
 2313 0c10 80B5     		push	{r7, lr}
 2314              		.cfi_def_cfa_offset 8
 2315              		.cfi_offset 7, -8
 2316              		.cfi_offset 14, -4
 2317 0c12 82B0     		sub	sp, sp, #8
 2318              		.cfi_def_cfa_offset 16
 2319 0c14 00AF     		add	r7, sp, #0
 2320              		.cfi_def_cfa_register 7
 819:build/openmote-cc2538_armgcc/openstack/02b-MAChigh/sixtop.c ****     OpenQueueEntry_t* kaPkt;
 820:build/openmote-cc2538_armgcc/openstack/02b-MAChigh/sixtop.c ****     open_addr_t*      kaNeighAddr;
 821:build/openmote-cc2538_armgcc/openstack/02b-MAChigh/sixtop.c **** 
 822:build/openmote-cc2538_armgcc/openstack/02b-MAChigh/sixtop.c ****     if (ieee154e_isSynch()==FALSE) {
 2321              		.loc 1 822 0
 2322 0c16 FFF7FEFF 		bl	ieee154e_isSynch
 2323 0c1a 0346     		mov	r3, r0
 2324 0c1c 83F00103 		eor	r3, r3, #1
 2325 0c20 DBB2     		uxtb	r3, r3
 2326 0c22 002B     		cmp	r3, #0
 2327 0c24 09D0     		beq	.L132
 823:build/openmote-cc2538_armgcc/openstack/02b-MAChigh/sixtop.c ****         // I'm not sync'ed
 824:build/openmote-cc2538_armgcc/openstack/02b-MAChigh/sixtop.c **** 
 825:build/openmote-cc2538_armgcc/openstack/02b-MAChigh/sixtop.c ****         // delete packets genereted by this module (EB and KA) from openqueue
 826:build/openmote-cc2538_armgcc/openstack/02b-MAChigh/sixtop.c ****         openqueue_removeAllCreatedBy(COMPONENT_SIXTOP);
 2328              		.loc 1 826 0
 2329 0c26 0C20     		movs	r0, #12
 2330 0c28 FFF7FEFF 		bl	openqueue_removeAllCreatedBy
 827:build/openmote-cc2538_armgcc/openstack/02b-MAChigh/sixtop.c **** 
 828:build/openmote-cc2538_armgcc/openstack/02b-MAChigh/sixtop.c ****         // I'm not busy sending an EB or KA
 829:build/openmote-cc2538_armgcc/openstack/02b-MAChigh/sixtop.c ****         sixtop_vars.busySendingEB = FALSE;
 2331              		.loc 1 829 0
 2332 0c2c 304B     		ldr	r3, .L138
 2333 0c2e 0022     		movs	r2, #0
 2334 0c30 DA70     		strb	r2, [r3, #3]
 830:build/openmote-cc2538_armgcc/openstack/02b-MAChigh/sixtop.c ****         sixtop_vars.busySendingKA = FALSE;
 2335              		.loc 1 830 0
 2336 0c32 2F4B     		ldr	r3, .L138
 2337 0c34 0022     		movs	r2, #0
 2338 0c36 9A70     		strb	r2, [r3, #2]
 831:build/openmote-cc2538_armgcc/openstack/02b-MAChigh/sixtop.c **** 
 832:build/openmote-cc2538_armgcc/openstack/02b-MAChigh/sixtop.c ****         // stop here
 833:build/openmote-cc2538_armgcc/openstack/02b-MAChigh/sixtop.c ****         return;
 2339              		.loc 1 833 0
 2340 0c38 56E0     		b	.L131
 2341              	.L132:
 834:build/openmote-cc2538_armgcc/openstack/02b-MAChigh/sixtop.c ****     }
 835:build/openmote-cc2538_armgcc/openstack/02b-MAChigh/sixtop.c **** 
 836:build/openmote-cc2538_armgcc/openstack/02b-MAChigh/sixtop.c ****     if (sixtop_vars.busySendingKA==TRUE) {
 2342              		.loc 1 836 0
 2343 0c3a 2D4B     		ldr	r3, .L138
 2344 0c3c 9B78     		ldrb	r3, [r3, #2]	@ zero_extendqisi2
 2345 0c3e 002B     		cmp	r3, #0
 2346 0c40 00D0     		beq	.L134
 837:build/openmote-cc2538_armgcc/openstack/02b-MAChigh/sixtop.c ****         // don't proceed if I'm still sending a KA
 838:build/openmote-cc2538_armgcc/openstack/02b-MAChigh/sixtop.c ****         return;
 2347              		.loc 1 838 0
 2348 0c42 51E0     		b	.L131
 2349              	.L134:
 839:build/openmote-cc2538_armgcc/openstack/02b-MAChigh/sixtop.c ****     }
 840:build/openmote-cc2538_armgcc/openstack/02b-MAChigh/sixtop.c **** 
 841:build/openmote-cc2538_armgcc/openstack/02b-MAChigh/sixtop.c ****     kaNeighAddr = neighbors_getKANeighbor(sixtop_vars.kaPeriod);
 2350              		.loc 1 841 0
 2351 0c44 2A4B     		ldr	r3, .L138
 2352 0c46 5B89     		ldrh	r3, [r3, #10]
 2353 0c48 1846     		mov	r0, r3
 2354 0c4a FFF7FEFF 		bl	neighbors_getKANeighbor
 2355 0c4e 7860     		str	r0, [r7, #4]
 842:build/openmote-cc2538_armgcc/openstack/02b-MAChigh/sixtop.c ****     if (kaNeighAddr==NULL) {
 2356              		.loc 1 842 0
 2357 0c50 7B68     		ldr	r3, [r7, #4]
 2358 0c52 002B     		cmp	r3, #0
 2359 0c54 00D1     		bne	.L135
 843:build/openmote-cc2538_armgcc/openstack/02b-MAChigh/sixtop.c ****         // don't proceed if I have no neighbor I need to send a KA to
 844:build/openmote-cc2538_armgcc/openstack/02b-MAChigh/sixtop.c ****         return;
 2360              		.loc 1 844 0 discriminator 2
 2361 0c56 47E0     		b	.L131
 2362              	.L135:
 845:build/openmote-cc2538_armgcc/openstack/02b-MAChigh/sixtop.c ****     }
 846:build/openmote-cc2538_armgcc/openstack/02b-MAChigh/sixtop.c **** 
 847:build/openmote-cc2538_armgcc/openstack/02b-MAChigh/sixtop.c ****     if (schedule_hasDedicatedCellToNeighbor(kaNeighAddr) == FALSE){
 2363              		.loc 1 847 0
 2364 0c58 7868     		ldr	r0, [r7, #4]
 2365 0c5a FFF7FEFF 		bl	schedule_hasDedicatedCellToNeighbor
 2366 0c5e 0346     		mov	r3, r0
 2367 0c60 83F00103 		eor	r3, r3, #1
 2368 0c64 DBB2     		uxtb	r3, r3
 2369 0c66 002B     		cmp	r3, #0
 2370 0c68 09D0     		beq	.L136
 848:build/openmote-cc2538_armgcc/openstack/02b-MAChigh/sixtop.c ****         // delete packets genereted by this module (EB and KA) from openqueue
 849:build/openmote-cc2538_armgcc/openstack/02b-MAChigh/sixtop.c ****         openqueue_removeAllCreatedBy(COMPONENT_SIXTOP);
 2371              		.loc 1 849 0
 2372 0c6a 0C20     		movs	r0, #12
 2373 0c6c FFF7FEFF 		bl	openqueue_removeAllCreatedBy
 850:build/openmote-cc2538_armgcc/openstack/02b-MAChigh/sixtop.c **** 
 851:build/openmote-cc2538_armgcc/openstack/02b-MAChigh/sixtop.c ****         // I'm not busy sending an EB or KA
 852:build/openmote-cc2538_armgcc/openstack/02b-MAChigh/sixtop.c ****         sixtop_vars.busySendingEB = FALSE;
 2374              		.loc 1 852 0
 2375 0c70 1F4B     		ldr	r3, .L138
 2376 0c72 0022     		movs	r2, #0
 2377 0c74 DA70     		strb	r2, [r3, #3]
 853:build/openmote-cc2538_armgcc/openstack/02b-MAChigh/sixtop.c ****         sixtop_vars.busySendingKA = FALSE;
 2378              		.loc 1 853 0
 2379 0c76 1E4B     		ldr	r3, .L138
 2380 0c78 0022     		movs	r2, #0
 2381 0c7a 9A70     		strb	r2, [r3, #2]
 854:build/openmote-cc2538_armgcc/openstack/02b-MAChigh/sixtop.c **** 
 855:build/openmote-cc2538_armgcc/openstack/02b-MAChigh/sixtop.c ****         return;
 2382              		.loc 1 855 0
 2383 0c7c 34E0     		b	.L131
 2384              	.L136:
 856:build/openmote-cc2538_armgcc/openstack/02b-MAChigh/sixtop.c ****     }
 857:build/openmote-cc2538_armgcc/openstack/02b-MAChigh/sixtop.c **** 
 858:build/openmote-cc2538_armgcc/openstack/02b-MAChigh/sixtop.c ****     // if I get here, I will send a KA
 859:build/openmote-cc2538_armgcc/openstack/02b-MAChigh/sixtop.c **** 
 860:build/openmote-cc2538_armgcc/openstack/02b-MAChigh/sixtop.c ****     // get a free packet buffer
 861:build/openmote-cc2538_armgcc/openstack/02b-MAChigh/sixtop.c ****     kaPkt = openqueue_getFreePacketBuffer(COMPONENT_SIXTOP);
 2385              		.loc 1 861 0
 2386 0c7e 0C20     		movs	r0, #12
 2387 0c80 FFF7FEFF 		bl	openqueue_getFreePacketBuffer
 2388 0c84 3860     		str	r0, [r7]
 862:build/openmote-cc2538_armgcc/openstack/02b-MAChigh/sixtop.c ****     if (kaPkt==NULL) {
 2389              		.loc 1 862 0
 2390 0c86 3B68     		ldr	r3, [r7]
 2391 0c88 002B     		cmp	r3, #0
 2392 0c8a 06D1     		bne	.L137
 863:build/openmote-cc2538_armgcc/openstack/02b-MAChigh/sixtop.c ****         openserial_printError(
 2393              		.loc 1 863 0
 2394 0c8c 0C20     		movs	r0, #12
 2395 0c8e 2C21     		movs	r1, #44
 2396 0c90 0122     		movs	r2, #1
 2397 0c92 0023     		movs	r3, #0
 2398 0c94 FFF7FEFF 		bl	openserial_printError
 864:build/openmote-cc2538_armgcc/openstack/02b-MAChigh/sixtop.c ****             COMPONENT_SIXTOP,
 865:build/openmote-cc2538_armgcc/openstack/02b-MAChigh/sixtop.c ****             ERR_NO_FREE_PACKET_BUFFER,
 866:build/openmote-cc2538_armgcc/openstack/02b-MAChigh/sixtop.c ****             (errorparameter_t)1,
 867:build/openmote-cc2538_armgcc/openstack/02b-MAChigh/sixtop.c ****             (errorparameter_t)0
 868:build/openmote-cc2538_armgcc/openstack/02b-MAChigh/sixtop.c ****         );
 869:build/openmote-cc2538_armgcc/openstack/02b-MAChigh/sixtop.c ****         return;
 2399              		.loc 1 869 0
 2400 0c98 26E0     		b	.L131
 2401              	.L137:
 870:build/openmote-cc2538_armgcc/openstack/02b-MAChigh/sixtop.c ****    }
 871:build/openmote-cc2538_armgcc/openstack/02b-MAChigh/sixtop.c **** 
 872:build/openmote-cc2538_armgcc/openstack/02b-MAChigh/sixtop.c ****     // declare ownership over that packet
 873:build/openmote-cc2538_armgcc/openstack/02b-MAChigh/sixtop.c ****     kaPkt->creator = COMPONENT_SIXTOP;
 2402              		.loc 1 873 0
 2403 0c9a 3B68     		ldr	r3, [r7]
 2404 0c9c 0C22     		movs	r2, #12
 2405 0c9e 1A70     		strb	r2, [r3]
 874:build/openmote-cc2538_armgcc/openstack/02b-MAChigh/sixtop.c ****     kaPkt->owner   = COMPONENT_SIXTOP;
 2406              		.loc 1 874 0
 2407 0ca0 3B68     		ldr	r3, [r7]
 2408 0ca2 0C22     		movs	r2, #12
 2409 0ca4 5A70     		strb	r2, [r3, #1]
 875:build/openmote-cc2538_armgcc/openstack/02b-MAChigh/sixtop.c **** 
 876:build/openmote-cc2538_armgcc/openstack/02b-MAChigh/sixtop.c ****     // some l2 information about this packet
 877:build/openmote-cc2538_armgcc/openstack/02b-MAChigh/sixtop.c ****     kaPkt->l2_frameType = IEEE154_TYPE_DATA;
 2410              		.loc 1 877 0
 2411 0ca6 3B68     		ldr	r3, [r7]
 2412 0ca8 0122     		movs	r2, #1
 2413 0caa 83F84D20 		strb	r2, [r3, #77]
 878:build/openmote-cc2538_armgcc/openstack/02b-MAChigh/sixtop.c ****     memcpy(&(kaPkt->l2_nextORpreviousHop),kaNeighAddr,sizeof(open_addr_t));
 2414              		.loc 1 878 0
 2415 0cae 3B68     		ldr	r3, [r7]
 2416 0cb0 3C33     		adds	r3, r3, #60
 2417 0cb2 1846     		mov	r0, r3
 2418 0cb4 7968     		ldr	r1, [r7, #4]
 2419 0cb6 1122     		movs	r2, #17
 2420 0cb8 FFF7FEFF 		bl	memcpy
 879:build/openmote-cc2538_armgcc/openstack/02b-MAChigh/sixtop.c **** 
 880:build/openmote-cc2538_armgcc/openstack/02b-MAChigh/sixtop.c ****     // set l2-security attributes
 881:build/openmote-cc2538_armgcc/openstack/02b-MAChigh/sixtop.c ****     kaPkt->l2_securityLevel   = IEEE802154_SECURITY_LEVEL; // do not exchange KAs with
 2421              		.loc 1 881 0
 2422 0cbc 3B68     		ldr	r3, [r7]
 2423 0cbe 0022     		movs	r2, #0
 2424 0cc0 83F8A020 		strb	r2, [r3, #160]
 882:build/openmote-cc2538_armgcc/openstack/02b-MAChigh/sixtop.c ****     kaPkt->l2_keyIdMode       = IEEE802154_SECURITY_KEYIDMODE;
 2425              		.loc 1 882 0
 2426 0cc4 3B68     		ldr	r3, [r7]
 2427 0cc6 0022     		movs	r2, #0
 2428 0cc8 83F8A120 		strb	r2, [r3, #161]
 883:build/openmote-cc2538_armgcc/openstack/02b-MAChigh/sixtop.c ****     kaPkt->l2_keyIndex        = IEEE802154_security_getDataKeyIndex();
 2429              		.loc 1 883 0
 2430 0ccc FFF7FEFF 		bl	IEEE802154_security_getDataKeyIndex
 2431 0cd0 0346     		mov	r3, r0
 2432 0cd2 1A46     		mov	r2, r3
 2433 0cd4 3B68     		ldr	r3, [r7]
 2434 0cd6 83F8A220 		strb	r2, [r3, #162]
 884:build/openmote-cc2538_armgcc/openstack/02b-MAChigh/sixtop.c **** 
 885:build/openmote-cc2538_armgcc/openstack/02b-MAChigh/sixtop.c ****     // put in queue for MAC to handle
 886:build/openmote-cc2538_armgcc/openstack/02b-MAChigh/sixtop.c ****     sixtop_send_internal(kaPkt,FALSE);
 2435              		.loc 1 886 0
 2436 0cda 3868     		ldr	r0, [r7]
 2437 0cdc 0021     		movs	r1, #0
 2438 0cde FFF7FEFF 		bl	sixtop_send_internal
 887:build/openmote-cc2538_armgcc/openstack/02b-MAChigh/sixtop.c **** 
 888:build/openmote-cc2538_armgcc/openstack/02b-MAChigh/sixtop.c ****     // I'm now busy sending a KA
 889:build/openmote-cc2538_armgcc/openstack/02b-MAChigh/sixtop.c ****     sixtop_vars.busySendingKA = TRUE;
 2439              		.loc 1 889 0
 2440 0ce2 034B     		ldr	r3, .L138
 2441 0ce4 0122     		movs	r2, #1
 2442 0ce6 9A70     		strb	r2, [r3, #2]
 2443              	.L131:
 890:build/openmote-cc2538_armgcc/openstack/02b-MAChigh/sixtop.c **** 
 891:build/openmote-cc2538_armgcc/openstack/02b-MAChigh/sixtop.c **** #ifdef OPENSIM
 892:build/openmote-cc2538_armgcc/openstack/02b-MAChigh/sixtop.c ****     debugpins_ka_set();
 893:build/openmote-cc2538_armgcc/openstack/02b-MAChigh/sixtop.c ****     debugpins_ka_clr();
 894:build/openmote-cc2538_armgcc/openstack/02b-MAChigh/sixtop.c **** #endif
 895:build/openmote-cc2538_armgcc/openstack/02b-MAChigh/sixtop.c **** }
 2444              		.loc 1 895 0
 2445 0ce8 0837     		adds	r7, r7, #8
 2446              		.cfi_def_cfa_offset 8
 2447 0cea BD46     		mov	sp, r7
 2448              		.cfi_def_cfa_register 13
 2449              		@ sp needed
 2450 0cec 80BD     		pop	{r7, pc}
 2451              	.L139:
 2452 0cee 00BF     		.align	2
 2453              	.L138:
 2454 0cf0 00000000 		.word	sixtop_vars
 2455              		.cfi_endproc
 2456              	.LFE18:
 2458              		.align	2
 2459              		.global	timer_sixtop_six2six_timeout_fired
 2460              		.thumb
 2461              		.thumb_func
 2463              	timer_sixtop_six2six_timeout_fired:
 2464              	.LFB19:
 896:build/openmote-cc2538_armgcc/openstack/02b-MAChigh/sixtop.c **** 
 897:build/openmote-cc2538_armgcc/openstack/02b-MAChigh/sixtop.c **** //======= six2six task
 898:build/openmote-cc2538_armgcc/openstack/02b-MAChigh/sixtop.c **** 
 899:build/openmote-cc2538_armgcc/openstack/02b-MAChigh/sixtop.c **** void timer_sixtop_six2six_timeout_fired(void) {
 2465              		.loc 1 899 0
 2466              		.cfi_startproc
 2467              		@ args = 0, pretend = 0, frame = 0
 2468              		@ frame_needed = 1, uses_anonymous_args = 0
 2469 0cf4 80B5     		push	{r7, lr}
 2470              		.cfi_def_cfa_offset 8
 2471              		.cfi_offset 7, -8
 2472              		.cfi_offset 14, -4
 2473 0cf6 00AF     		add	r7, sp, #0
 2474              		.cfi_def_cfa_register 7
 900:build/openmote-cc2538_armgcc/openstack/02b-MAChigh/sixtop.c **** 
 901:build/openmote-cc2538_armgcc/openstack/02b-MAChigh/sixtop.c ****     if (sixtop_vars.six2six_state == SIX_STATE_WAIT_CLEARRESPONSE){
 2475              		.loc 1 901 0
 2476 0cf8 0E4B     		ldr	r3, .L142
 2477 0cfa 9B7B     		ldrb	r3, [r3, #14]	@ zero_extendqisi2
 2478 0cfc 0C2B     		cmp	r3, #12
 2479 0cfe 10D1     		bne	.L141
 902:build/openmote-cc2538_armgcc/openstack/02b-MAChigh/sixtop.c ****         // no response for the 6p clear, just clear locally
 903:build/openmote-cc2538_armgcc/openstack/02b-MAChigh/sixtop.c ****         schedule_removeAllCells(
 904:build/openmote-cc2538_armgcc/openstack/02b-MAChigh/sixtop.c ****             sixtop_vars.cb_sf_getMetadata(),
 2480              		.loc 1 904 0
 2481 0d00 0C4B     		ldr	r3, .L142
 2482 0d02 1B6B     		ldr	r3, [r3, #48]
 2483 0d04 9847     		blx	r3
 2484 0d06 0346     		mov	r3, r0
 903:build/openmote-cc2538_armgcc/openstack/02b-MAChigh/sixtop.c ****             sixtop_vars.cb_sf_getMetadata(),
 2485              		.loc 1 903 0
 2486 0d08 DBB2     		uxtb	r3, r3
 2487 0d0a 1846     		mov	r0, r3
 2488 0d0c 0A49     		ldr	r1, .L142+4
 2489 0d0e FFF7FEFF 		bl	schedule_removeAllCells
 905:build/openmote-cc2538_armgcc/openstack/02b-MAChigh/sixtop.c ****             &sixtop_vars.neighborToClearCells
 906:build/openmote-cc2538_armgcc/openstack/02b-MAChigh/sixtop.c ****         );
 907:build/openmote-cc2538_armgcc/openstack/02b-MAChigh/sixtop.c ****         neighbors_resetSequenceNumber(&sixtop_vars.neighborToClearCells);
 2490              		.loc 1 907 0
 2491 0d12 0948     		ldr	r0, .L142+4
 2492 0d14 FFF7FEFF 		bl	neighbors_resetSequenceNumber
 908:build/openmote-cc2538_armgcc/openstack/02b-MAChigh/sixtop.c ****         memset(&sixtop_vars.neighborToClearCells,0,sizeof(open_addr_t));
 2493              		.loc 1 908 0
 2494 0d18 0748     		ldr	r0, .L142+4
 2495 0d1a 0021     		movs	r1, #0
 2496 0d1c 1122     		movs	r2, #17
 2497 0d1e FFF7FEFF 		bl	memset
 2498              	.L141:
 909:build/openmote-cc2538_armgcc/openstack/02b-MAChigh/sixtop.c ****     }
 910:build/openmote-cc2538_armgcc/openstack/02b-MAChigh/sixtop.c ****     // timeout timer fired, reset the state of sixtop to idle
 911:build/openmote-cc2538_armgcc/openstack/02b-MAChigh/sixtop.c ****     sixtop_vars.six2six_state = SIX_STATE_IDLE;
 2499              		.loc 1 911 0
 2500 0d22 044B     		ldr	r3, .L142
 2501 0d24 0022     		movs	r2, #0
 2502 0d26 9A73     		strb	r2, [r3, #14]
 912:build/openmote-cc2538_armgcc/openstack/02b-MAChigh/sixtop.c ****     opentimers_cancel(sixtop_vars.timeoutTimerId);
 2503              		.loc 1 912 0
 2504 0d28 024B     		ldr	r3, .L142
 2505 0d2a 5B7A     		ldrb	r3, [r3, #9]	@ zero_extendqisi2
 2506 0d2c 1846     		mov	r0, r3
 2507 0d2e FFF7FEFF 		bl	opentimers_cancel
 913:build/openmote-cc2538_armgcc/openstack/02b-MAChigh/sixtop.c **** }
 2508              		.loc 1 913 0
 2509 0d32 80BD     		pop	{r7, pc}
 2510              	.L143:
 2511              		.align	2
 2512              	.L142:
 2513 0d34 00000000 		.word	sixtop_vars
 2514 0d38 3C000000 		.word	sixtop_vars+60
 2515              		.cfi_endproc
 2516              	.LFE19:
 2518              		.align	2
 2519              		.global	sixtop_six2six_sendDone
 2520              		.thumb
 2521              		.thumb_func
 2523              	sixtop_six2six_sendDone:
 2524              	.LFB20:
 914:build/openmote-cc2538_armgcc/openstack/02b-MAChigh/sixtop.c **** 
 915:build/openmote-cc2538_armgcc/openstack/02b-MAChigh/sixtop.c **** void sixtop_six2six_sendDone(OpenQueueEntry_t* msg, owerror_t error){
 2525              		.loc 1 915 0
 2526              		.cfi_startproc
 2527              		@ args = 0, pretend = 0, frame = 8
 2528              		@ frame_needed = 1, uses_anonymous_args = 0
 2529 0d3c 80B5     		push	{r7, lr}
 2530              		.cfi_def_cfa_offset 8
 2531              		.cfi_offset 7, -8
 2532              		.cfi_offset 14, -4
 2533 0d3e 84B0     		sub	sp, sp, #16
 2534              		.cfi_def_cfa_offset 24
 2535 0d40 02AF     		add	r7, sp, #8
 2536              		.cfi_def_cfa 7, 16
 2537 0d42 7860     		str	r0, [r7, #4]
 2538 0d44 0B46     		mov	r3, r1
 2539 0d46 FB70     		strb	r3, [r7, #3]
 916:build/openmote-cc2538_armgcc/openstack/02b-MAChigh/sixtop.c **** 
 917:build/openmote-cc2538_armgcc/openstack/02b-MAChigh/sixtop.c ****     msg->owner = COMPONENT_SIXTOP_RES;
 2540              		.loc 1 917 0
 2541 0d48 7B68     		ldr	r3, [r7, #4]
 2542 0d4a 0F22     		movs	r2, #15
 2543 0d4c 5A70     		strb	r2, [r3, #1]
 918:build/openmote-cc2538_armgcc/openstack/02b-MAChigh/sixtop.c **** 
 919:build/openmote-cc2538_armgcc/openstack/02b-MAChigh/sixtop.c ****     // if this is a request send done
 920:build/openmote-cc2538_armgcc/openstack/02b-MAChigh/sixtop.c ****     if (msg->l2_sixtop_messageType == SIXTOP_CELL_REQUEST){
 2544              		.loc 1 920 0
 2545 0d4e 7B68     		ldr	r3, [r7, #4]
 2546 0d50 93F89030 		ldrb	r3, [r3, #144]	@ zero_extendqisi2
 2547 0d54 002B     		cmp	r3, #0
 2548 0d56 3FD1     		bne	.L145
 921:build/openmote-cc2538_armgcc/openstack/02b-MAChigh/sixtop.c ****         if(error == E_FAIL) {
 2549              		.loc 1 921 0
 2550 0d58 FB78     		ldrb	r3, [r7, #3]	@ zero_extendqisi2
 2551 0d5a 012B     		cmp	r3, #1
 2552 0d5c 03D1     		bne	.L146
 922:build/openmote-cc2538_armgcc/openstack/02b-MAChigh/sixtop.c ****             // reset handler and state if the request is failed to send out
 923:build/openmote-cc2538_armgcc/openstack/02b-MAChigh/sixtop.c ****             sixtop_vars.six2six_state = SIX_STATE_IDLE;
 2553              		.loc 1 923 0
 2554 0d5e 5A4B     		ldr	r3, .L162
 2555 0d60 0022     		movs	r2, #0
 2556 0d62 9A73     		strb	r2, [r3, #14]
 2557 0d64 38E0     		b	.L145
 2558              	.L146:
 924:build/openmote-cc2538_armgcc/openstack/02b-MAChigh/sixtop.c ****         } else {
 925:build/openmote-cc2538_armgcc/openstack/02b-MAChigh/sixtop.c ****             // the packet has been sent out successfully
 926:build/openmote-cc2538_armgcc/openstack/02b-MAChigh/sixtop.c ****             switch (sixtop_vars.six2six_state) {
 2559              		.loc 1 926 0
 2560 0d66 584B     		ldr	r3, .L162
 2561 0d68 9B7B     		ldrb	r3, [r3, #14]	@ zero_extendqisi2
 2562 0d6a 013B     		subs	r3, r3, #1
 2563 0d6c 052B     		cmp	r3, #5
 2564 0d6e 27D8     		bhi	.L161
 2565 0d70 01A2     		adr	r2, .L149
 2566 0d72 52F823F0 		ldr	pc, [r2, r3, lsl #2]
 2567 0d76 00BF     		.p2align 2
 2568              	.L149:
 2569 0d78 910D0000 		.word	.L148+1
 2570 0d7c 990D0000 		.word	.L150+1
 2571 0d80 A10D0000 		.word	.L151+1
 2572 0d84 B10D0000 		.word	.L152+1
 2573 0d88 A90D0000 		.word	.L153+1
 2574 0d8c B90D0000 		.word	.L154+1
 2575              		.p2align 1
 2576              	.L148:
 927:build/openmote-cc2538_armgcc/openstack/02b-MAChigh/sixtop.c ****             case SIX_STATE_WAIT_ADDREQUEST_SENDDONE:
 928:build/openmote-cc2538_armgcc/openstack/02b-MAChigh/sixtop.c ****                 sixtop_vars.six2six_state = SIX_STATE_WAIT_ADDRESPONSE;
 2577              		.loc 1 928 0
 2578 0d90 4D4B     		ldr	r3, .L162
 2579 0d92 0722     		movs	r2, #7
 2580 0d94 9A73     		strb	r2, [r3, #14]
 929:build/openmote-cc2538_armgcc/openstack/02b-MAChigh/sixtop.c ****                 break;
 2581              		.loc 1 929 0
 2582 0d96 14E0     		b	.L155
 2583              	.L150:
 930:build/openmote-cc2538_armgcc/openstack/02b-MAChigh/sixtop.c ****             case SIX_STATE_WAIT_DELETEREQUEST_SENDDONE:
 931:build/openmote-cc2538_armgcc/openstack/02b-MAChigh/sixtop.c ****                 sixtop_vars.six2six_state = SIX_STATE_WAIT_DELETERESPONSE;
 2584              		.loc 1 931 0
 2585 0d98 4B4B     		ldr	r3, .L162
 2586 0d9a 0822     		movs	r2, #8
 2587 0d9c 9A73     		strb	r2, [r3, #14]
 932:build/openmote-cc2538_armgcc/openstack/02b-MAChigh/sixtop.c ****                 break;
 2588              		.loc 1 932 0
 2589 0d9e 10E0     		b	.L155
 2590              	.L151:
 933:build/openmote-cc2538_armgcc/openstack/02b-MAChigh/sixtop.c ****             case SIX_STATE_WAIT_RELOCATEREQUEST_SENDDONE:
 934:build/openmote-cc2538_armgcc/openstack/02b-MAChigh/sixtop.c ****                 sixtop_vars.six2six_state = SIX_STATE_WAIT_RELOCATERESPONSE;
 2591              		.loc 1 934 0
 2592 0da0 494B     		ldr	r3, .L162
 2593 0da2 0922     		movs	r2, #9
 2594 0da4 9A73     		strb	r2, [r3, #14]
 935:build/openmote-cc2538_armgcc/openstack/02b-MAChigh/sixtop.c ****                 break;
 2595              		.loc 1 935 0
 2596 0da6 0CE0     		b	.L155
 2597              	.L153:
 936:build/openmote-cc2538_armgcc/openstack/02b-MAChigh/sixtop.c ****             case SIX_STATE_WAIT_LISTREQUEST_SENDDONE:
 937:build/openmote-cc2538_armgcc/openstack/02b-MAChigh/sixtop.c ****                 sixtop_vars.six2six_state = SIX_STATE_WAIT_LISTRESPONSE;
 2598              		.loc 1 937 0
 2599 0da8 474B     		ldr	r3, .L162
 2600 0daa 0B22     		movs	r2, #11
 2601 0dac 9A73     		strb	r2, [r3, #14]
 938:build/openmote-cc2538_armgcc/openstack/02b-MAChigh/sixtop.c ****                 break;
 2602              		.loc 1 938 0
 2603 0dae 08E0     		b	.L155
 2604              	.L152:
 939:build/openmote-cc2538_armgcc/openstack/02b-MAChigh/sixtop.c ****             case SIX_STATE_WAIT_COUNTREQUEST_SENDDONE:
 940:build/openmote-cc2538_armgcc/openstack/02b-MAChigh/sixtop.c ****                 sixtop_vars.six2six_state = SIX_STATE_WAIT_COUNTRESPONSE;
 2605              		.loc 1 940 0
 2606 0db0 454B     		ldr	r3, .L162
 2607 0db2 0A22     		movs	r2, #10
 2608 0db4 9A73     		strb	r2, [r3, #14]
 941:build/openmote-cc2538_armgcc/openstack/02b-MAChigh/sixtop.c ****                 break;
 2609              		.loc 1 941 0
 2610 0db6 04E0     		b	.L155
 2611              	.L154:
 942:build/openmote-cc2538_armgcc/openstack/02b-MAChigh/sixtop.c ****             case SIX_STATE_WAIT_CLEARREQUEST_SENDDONE:
 943:build/openmote-cc2538_armgcc/openstack/02b-MAChigh/sixtop.c ****                 sixtop_vars.six2six_state = SIX_STATE_WAIT_CLEARRESPONSE;
 2612              		.loc 1 943 0
 2613 0db8 434B     		ldr	r3, .L162
 2614 0dba 0C22     		movs	r2, #12
 2615 0dbc 9A73     		strb	r2, [r3, #14]
 944:build/openmote-cc2538_armgcc/openstack/02b-MAChigh/sixtop.c ****                 break;
 2616              		.loc 1 944 0
 2617 0dbe 00E0     		b	.L155
 2618              	.L161:
 945:build/openmote-cc2538_armgcc/openstack/02b-MAChigh/sixtop.c ****             default:
 946:build/openmote-cc2538_armgcc/openstack/02b-MAChigh/sixtop.c ****                 // should never happen
 947:build/openmote-cc2538_armgcc/openstack/02b-MAChigh/sixtop.c ****                 break;
 2619              		.loc 1 947 0
 2620 0dc0 00BF     		nop
 2621              	.L155:
 948:build/openmote-cc2538_armgcc/openstack/02b-MAChigh/sixtop.c ****             }
 949:build/openmote-cc2538_armgcc/openstack/02b-MAChigh/sixtop.c ****             // start timeout timer if I am waiting for a response
 950:build/openmote-cc2538_armgcc/openstack/02b-MAChigh/sixtop.c ****             opentimers_scheduleIn(
 2622              		.loc 1 950 0
 2623 0dc2 414B     		ldr	r3, .L162
 2624 0dc4 5A7A     		ldrb	r2, [r3, #9]	@ zero_extendqisi2
 2625 0dc6 414B     		ldr	r3, .L162+4
 2626 0dc8 0093     		str	r3, [sp]
 2627 0dca 1046     		mov	r0, r2
 2628 0dcc 4FF6FF71 		movw	r1, #65535
 2629 0dd0 0022     		movs	r2, #0
 2630 0dd2 0123     		movs	r3, #1
 2631 0dd4 FFF7FEFF 		bl	opentimers_scheduleIn
 2632              	.L145:
 951:build/openmote-cc2538_armgcc/openstack/02b-MAChigh/sixtop.c ****                 sixtop_vars.timeoutTimerId,
 952:build/openmote-cc2538_armgcc/openstack/02b-MAChigh/sixtop.c ****                 SIX2SIX_TIMEOUT_MS,
 953:build/openmote-cc2538_armgcc/openstack/02b-MAChigh/sixtop.c ****                 TIME_MS,
 954:build/openmote-cc2538_armgcc/openstack/02b-MAChigh/sixtop.c ****                 TIMER_ONESHOT,
 955:build/openmote-cc2538_armgcc/openstack/02b-MAChigh/sixtop.c ****                 sixtop_timeout_timer_cb
 956:build/openmote-cc2538_armgcc/openstack/02b-MAChigh/sixtop.c ****             );
 957:build/openmote-cc2538_armgcc/openstack/02b-MAChigh/sixtop.c ****         }
 958:build/openmote-cc2538_armgcc/openstack/02b-MAChigh/sixtop.c ****     }
 959:build/openmote-cc2538_armgcc/openstack/02b-MAChigh/sixtop.c **** 
 960:build/openmote-cc2538_armgcc/openstack/02b-MAChigh/sixtop.c ****     // if this is a response send done
 961:build/openmote-cc2538_armgcc/openstack/02b-MAChigh/sixtop.c ****     if (msg->l2_sixtop_messageType == SIXTOP_CELL_RESPONSE){
 2633              		.loc 1 961 0
 2634 0dd8 7B68     		ldr	r3, [r7, #4]
 2635 0dda 93F89030 		ldrb	r3, [r3, #144]	@ zero_extendqisi2
 2636 0dde 012B     		cmp	r3, #1
 2637 0de0 6BD1     		bne	.L156
 962:build/openmote-cc2538_armgcc/openstack/02b-MAChigh/sixtop.c ****         if(error == E_SUCCESS) {
 2638              		.loc 1 962 0
 2639 0de2 FB78     		ldrb	r3, [r7, #3]	@ zero_extendqisi2
 2640 0de4 002B     		cmp	r3, #0
 2641 0de6 68D1     		bne	.L156
 963:build/openmote-cc2538_armgcc/openstack/02b-MAChigh/sixtop.c ****             neighbors_updateSequenceNumber(&(msg->l2_nextORpreviousHop));
 2642              		.loc 1 963 0
 2643 0de8 7B68     		ldr	r3, [r7, #4]
 2644 0dea 3C33     		adds	r3, r3, #60
 2645 0dec 1846     		mov	r0, r3
 2646 0dee FFF7FEFF 		bl	neighbors_updateSequenceNumber
 964:build/openmote-cc2538_armgcc/openstack/02b-MAChigh/sixtop.c ****             // in case a response is sent out, check the return code
 965:build/openmote-cc2538_armgcc/openstack/02b-MAChigh/sixtop.c ****             if (msg->l2_sixtop_returnCode == IANA_6TOP_RC_SUCCESS){
 2647              		.loc 1 965 0
 2648 0df2 7B68     		ldr	r3, [r7, #4]
 2649 0df4 93F89330 		ldrb	r3, [r3, #147]	@ zero_extendqisi2
 2650 0df8 002B     		cmp	r3, #0
 2651 0dfa 5ED1     		bne	.L156
 966:build/openmote-cc2538_armgcc/openstack/02b-MAChigh/sixtop.c ****                 if (msg->l2_sixtop_command == IANA_6TOP_CMD_ADD){
 2652              		.loc 1 966 0
 2653 0dfc 7B68     		ldr	r3, [r7, #4]
 2654 0dfe 93F89130 		ldrb	r3, [r3, #145]	@ zero_extendqisi2
 2655 0e02 012B     		cmp	r3, #1
 2656 0e04 0ED1     		bne	.L157
 967:build/openmote-cc2538_armgcc/openstack/02b-MAChigh/sixtop.c ****                     sixtop_addCells(
 968:build/openmote-cc2538_armgcc/openstack/02b-MAChigh/sixtop.c ****                         msg->l2_sixtop_frameID,
 2657              		.loc 1 968 0
 2658 0e06 7B68     		ldr	r3, [r7, #4]
 2659 0e08 B3F88E30 		ldrh	r3, [r3, #142]
 967:build/openmote-cc2538_armgcc/openstack/02b-MAChigh/sixtop.c ****                     sixtop_addCells(
 2660              		.loc 1 967 0
 2661 0e0c D8B2     		uxtb	r0, r3
 969:build/openmote-cc2538_armgcc/openstack/02b-MAChigh/sixtop.c ****                         msg->l2_sixtop_celllist_add,
 2662              		.loc 1 969 0
 2663 0e0e 7B68     		ldr	r3, [r7, #4]
 2664 0e10 03F15C01 		add	r1, r3, #92
 967:build/openmote-cc2538_armgcc/openstack/02b-MAChigh/sixtop.c ****                     sixtop_addCells(
 2665              		.loc 1 967 0
 2666 0e14 7B68     		ldr	r3, [r7, #4]
 2667 0e16 03F13C02 		add	r2, r3, #60
 2668 0e1a 7B68     		ldr	r3, [r7, #4]
 2669 0e1c 93F89230 		ldrb	r3, [r3, #146]	@ zero_extendqisi2
 2670 0e20 FFF7FEFF 		bl	sixtop_addCells
 2671              	.L157:
 970:build/openmote-cc2538_armgcc/openstack/02b-MAChigh/sixtop.c ****                         &(msg->l2_nextORpreviousHop),
 971:build/openmote-cc2538_armgcc/openstack/02b-MAChigh/sixtop.c ****                         msg->l2_sixtop_cellOptions
 972:build/openmote-cc2538_armgcc/openstack/02b-MAChigh/sixtop.c ****                     );
 973:build/openmote-cc2538_armgcc/openstack/02b-MAChigh/sixtop.c ****                 }
 974:build/openmote-cc2538_armgcc/openstack/02b-MAChigh/sixtop.c **** 
 975:build/openmote-cc2538_armgcc/openstack/02b-MAChigh/sixtop.c ****                 if (msg->l2_sixtop_command == IANA_6TOP_CMD_DELETE){
 2672              		.loc 1 975 0
 2673 0e24 7B68     		ldr	r3, [r7, #4]
 2674 0e26 93F89130 		ldrb	r3, [r3, #145]	@ zero_extendqisi2
 2675 0e2a 022B     		cmp	r3, #2
 2676 0e2c 0ED1     		bne	.L158
 976:build/openmote-cc2538_armgcc/openstack/02b-MAChigh/sixtop.c ****                     sixtop_removeCells(
 977:build/openmote-cc2538_armgcc/openstack/02b-MAChigh/sixtop.c ****                       msg->l2_sixtop_frameID,
 2677              		.loc 1 977 0
 2678 0e2e 7B68     		ldr	r3, [r7, #4]
 2679 0e30 B3F88E30 		ldrh	r3, [r3, #142]
 976:build/openmote-cc2538_armgcc/openstack/02b-MAChigh/sixtop.c ****                     sixtop_removeCells(
 2680              		.loc 1 976 0
 2681 0e34 D8B2     		uxtb	r0, r3
 978:build/openmote-cc2538_armgcc/openstack/02b-MAChigh/sixtop.c ****                         msg->l2_sixtop_celllist_delete,
 2682              		.loc 1 978 0
 2683 0e36 7B68     		ldr	r3, [r7, #4]
 2684 0e38 03F17501 		add	r1, r3, #117
 976:build/openmote-cc2538_armgcc/openstack/02b-MAChigh/sixtop.c ****                     sixtop_removeCells(
 2685              		.loc 1 976 0
 2686 0e3c 7B68     		ldr	r3, [r7, #4]
 2687 0e3e 03F13C02 		add	r2, r3, #60
 2688 0e42 7B68     		ldr	r3, [r7, #4]
 2689 0e44 93F89230 		ldrb	r3, [r3, #146]	@ zero_extendqisi2
 2690 0e48 FFF7FEFF 		bl	sixtop_removeCells
 2691              	.L158:
 979:build/openmote-cc2538_armgcc/openstack/02b-MAChigh/sixtop.c ****                       &(msg->l2_nextORpreviousHop),
 980:build/openmote-cc2538_armgcc/openstack/02b-MAChigh/sixtop.c ****                         msg->l2_sixtop_cellOptions
 981:build/openmote-cc2538_armgcc/openstack/02b-MAChigh/sixtop.c ****                     );
 982:build/openmote-cc2538_armgcc/openstack/02b-MAChigh/sixtop.c ****                 }
 983:build/openmote-cc2538_armgcc/openstack/02b-MAChigh/sixtop.c **** 
 984:build/openmote-cc2538_armgcc/openstack/02b-MAChigh/sixtop.c ****                 if ( msg->l2_sixtop_command == IANA_6TOP_CMD_RELOCATE){
 2692              		.loc 1 984 0
 2693 0e4c 7B68     		ldr	r3, [r7, #4]
 2694 0e4e 93F89130 		ldrb	r3, [r3, #145]	@ zero_extendqisi2
 2695 0e52 032B     		cmp	r3, #3
 2696 0e54 1DD1     		bne	.L159
 985:build/openmote-cc2538_armgcc/openstack/02b-MAChigh/sixtop.c ****                     sixtop_removeCells(
 986:build/openmote-cc2538_armgcc/openstack/02b-MAChigh/sixtop.c ****                         msg->l2_sixtop_frameID,
 2697              		.loc 1 986 0
 2698 0e56 7B68     		ldr	r3, [r7, #4]
 2699 0e58 B3F88E30 		ldrh	r3, [r3, #142]
 985:build/openmote-cc2538_armgcc/openstack/02b-MAChigh/sixtop.c ****                     sixtop_removeCells(
 2700              		.loc 1 985 0
 2701 0e5c D8B2     		uxtb	r0, r3
 987:build/openmote-cc2538_armgcc/openstack/02b-MAChigh/sixtop.c ****                         msg->l2_sixtop_celllist_delete,
 2702              		.loc 1 987 0
 2703 0e5e 7B68     		ldr	r3, [r7, #4]
 2704 0e60 03F17501 		add	r1, r3, #117
 985:build/openmote-cc2538_armgcc/openstack/02b-MAChigh/sixtop.c ****                     sixtop_removeCells(
 2705              		.loc 1 985 0
 2706 0e64 7B68     		ldr	r3, [r7, #4]
 2707 0e66 03F13C02 		add	r2, r3, #60
 2708 0e6a 7B68     		ldr	r3, [r7, #4]
 2709 0e6c 93F89230 		ldrb	r3, [r3, #146]	@ zero_extendqisi2
 2710 0e70 FFF7FEFF 		bl	sixtop_removeCells
 988:build/openmote-cc2538_armgcc/openstack/02b-MAChigh/sixtop.c ****                         &(msg->l2_nextORpreviousHop),
 989:build/openmote-cc2538_armgcc/openstack/02b-MAChigh/sixtop.c ****                         msg->l2_sixtop_cellOptions
 990:build/openmote-cc2538_armgcc/openstack/02b-MAChigh/sixtop.c ****                     );
 991:build/openmote-cc2538_armgcc/openstack/02b-MAChigh/sixtop.c ****                     sixtop_addCells(
 992:build/openmote-cc2538_armgcc/openstack/02b-MAChigh/sixtop.c ****                         msg->l2_sixtop_frameID,
 2711              		.loc 1 992 0
 2712 0e74 7B68     		ldr	r3, [r7, #4]
 2713 0e76 B3F88E30 		ldrh	r3, [r3, #142]
 991:build/openmote-cc2538_armgcc/openstack/02b-MAChigh/sixtop.c ****                         msg->l2_sixtop_frameID,
 2714              		.loc 1 991 0
 2715 0e7a D8B2     		uxtb	r0, r3
 993:build/openmote-cc2538_armgcc/openstack/02b-MAChigh/sixtop.c ****                         msg->l2_sixtop_celllist_add,
 2716              		.loc 1 993 0
 2717 0e7c 7B68     		ldr	r3, [r7, #4]
 2718 0e7e 03F15C01 		add	r1, r3, #92
 991:build/openmote-cc2538_armgcc/openstack/02b-MAChigh/sixtop.c ****                         msg->l2_sixtop_frameID,
 2719              		.loc 1 991 0
 2720 0e82 7B68     		ldr	r3, [r7, #4]
 2721 0e84 03F13C02 		add	r2, r3, #60
 2722 0e88 7B68     		ldr	r3, [r7, #4]
 2723 0e8a 93F89230 		ldrb	r3, [r3, #146]	@ zero_extendqisi2
 2724 0e8e FFF7FEFF 		bl	sixtop_addCells
 2725              	.L159:
 994:build/openmote-cc2538_armgcc/openstack/02b-MAChigh/sixtop.c ****                         &(msg->l2_nextORpreviousHop),
 995:build/openmote-cc2538_armgcc/openstack/02b-MAChigh/sixtop.c ****                         msg->l2_sixtop_cellOptions
 996:build/openmote-cc2538_armgcc/openstack/02b-MAChigh/sixtop.c ****                     );
 997:build/openmote-cc2538_armgcc/openstack/02b-MAChigh/sixtop.c ****                 }
 998:build/openmote-cc2538_armgcc/openstack/02b-MAChigh/sixtop.c **** 
 999:build/openmote-cc2538_armgcc/openstack/02b-MAChigh/sixtop.c ****                 if ( msg->l2_sixtop_command == IANA_6TOP_CMD_CLEAR){
 2726              		.loc 1 999 0
 2727 0e92 7B68     		ldr	r3, [r7, #4]
 2728 0e94 93F89130 		ldrb	r3, [r3, #145]	@ zero_extendqisi2
 2729 0e98 072B     		cmp	r3, #7
 2730 0e9a 0ED1     		bne	.L156
1000:build/openmote-cc2538_armgcc/openstack/02b-MAChigh/sixtop.c ****                     schedule_removeAllCells(
1001:build/openmote-cc2538_armgcc/openstack/02b-MAChigh/sixtop.c ****                         msg->l2_sixtop_frameID,
 2731              		.loc 1 1001 0
 2732 0e9c 7B68     		ldr	r3, [r7, #4]
 2733 0e9e B3F88E30 		ldrh	r3, [r3, #142]
1000:build/openmote-cc2538_armgcc/openstack/02b-MAChigh/sixtop.c ****                     schedule_removeAllCells(
 2734              		.loc 1 1000 0
 2735 0ea2 DAB2     		uxtb	r2, r3
 2736 0ea4 7B68     		ldr	r3, [r7, #4]
 2737 0ea6 3C33     		adds	r3, r3, #60
 2738 0ea8 1046     		mov	r0, r2
 2739 0eaa 1946     		mov	r1, r3
 2740 0eac FFF7FEFF 		bl	schedule_removeAllCells
1002:build/openmote-cc2538_armgcc/openstack/02b-MAChigh/sixtop.c ****                         &(msg->l2_nextORpreviousHop)
1003:build/openmote-cc2538_armgcc/openstack/02b-MAChigh/sixtop.c ****                     );
1004:build/openmote-cc2538_armgcc/openstack/02b-MAChigh/sixtop.c ****                     neighbors_resetSequenceNumber(&(msg->l2_nextORpreviousHop));
 2741              		.loc 1 1004 0
 2742 0eb0 7B68     		ldr	r3, [r7, #4]
 2743 0eb2 3C33     		adds	r3, r3, #60
 2744 0eb4 1846     		mov	r0, r3
 2745 0eb6 FFF7FEFF 		bl	neighbors_resetSequenceNumber
 2746              	.L156:
1005:build/openmote-cc2538_armgcc/openstack/02b-MAChigh/sixtop.c ****                 }
1006:build/openmote-cc2538_armgcc/openstack/02b-MAChigh/sixtop.c ****             } else {
1007:build/openmote-cc2538_armgcc/openstack/02b-MAChigh/sixtop.c ****                 // the return code doesn't end up with SUCCESS
1008:build/openmote-cc2538_armgcc/openstack/02b-MAChigh/sixtop.c ****                 // The return code will be processed on request side.
1009:build/openmote-cc2538_armgcc/openstack/02b-MAChigh/sixtop.c ****             }
1010:build/openmote-cc2538_armgcc/openstack/02b-MAChigh/sixtop.c ****         } else {
1011:build/openmote-cc2538_armgcc/openstack/02b-MAChigh/sixtop.c ****             // doesn't receive the ACK of response packet from request side after maximum retries.
1012:build/openmote-cc2538_armgcc/openstack/02b-MAChigh/sixtop.c ****         }
1013:build/openmote-cc2538_armgcc/openstack/02b-MAChigh/sixtop.c ****     }
1014:build/openmote-cc2538_armgcc/openstack/02b-MAChigh/sixtop.c ****     // free the buffer
1015:build/openmote-cc2538_armgcc/openstack/02b-MAChigh/sixtop.c ****     openqueue_freePacketBuffer(msg);
 2747              		.loc 1 1015 0
 2748 0eba 7868     		ldr	r0, [r7, #4]
 2749 0ebc FFF7FEFF 		bl	openqueue_freePacketBuffer
1016:build/openmote-cc2538_armgcc/openstack/02b-MAChigh/sixtop.c **** }
 2750              		.loc 1 1016 0
 2751 0ec0 0837     		adds	r7, r7, #8
 2752              		.cfi_def_cfa_offset 8
 2753 0ec2 BD46     		mov	sp, r7
 2754              		.cfi_def_cfa_register 13
 2755              		@ sp needed
 2756 0ec4 80BD     		pop	{r7, pc}
 2757              	.L163:
 2758 0ec6 00BF     		.align	2
 2759              	.L162:
 2760 0ec8 00000000 		.word	sixtop_vars
 2761 0ecc 00000000 		.word	sixtop_timeout_timer_cb
 2762              		.cfi_endproc
 2763              	.LFE20:
 2765              		.align	2
 2766              		.global	sixtop_processIEs
 2767              		.thumb
 2768              		.thumb_func
 2770              	sixtop_processIEs:
 2771              	.LFB21:
1017:build/openmote-cc2538_armgcc/openstack/02b-MAChigh/sixtop.c **** 
1018:build/openmote-cc2538_armgcc/openstack/02b-MAChigh/sixtop.c **** port_INLINE bool sixtop_processIEs(OpenQueueEntry_t* pkt, uint16_t * lenIE) {
 2772              		.loc 1 1018 0
 2773              		.cfi_startproc
 2774              		@ args = 0, pretend = 0, frame = 24
 2775              		@ frame_needed = 1, uses_anonymous_args = 0
 2776 0ed0 B0B5     		push	{r4, r5, r7, lr}
 2777              		.cfi_def_cfa_offset 16
 2778              		.cfi_offset 4, -16
 2779              		.cfi_offset 5, -12
 2780              		.cfi_offset 7, -8
 2781              		.cfi_offset 14, -4
 2782 0ed2 8AB0     		sub	sp, sp, #40
 2783              		.cfi_def_cfa_offset 56
 2784 0ed4 04AF     		add	r7, sp, #16
 2785              		.cfi_def_cfa 7, 40
 2786 0ed6 7860     		str	r0, [r7, #4]
 2787 0ed8 3960     		str	r1, [r7]
1019:build/openmote-cc2538_armgcc/openstack/02b-MAChigh/sixtop.c ****     uint8_t ptr;
1020:build/openmote-cc2538_armgcc/openstack/02b-MAChigh/sixtop.c ****     uint8_t temp_8b;
1021:build/openmote-cc2538_armgcc/openstack/02b-MAChigh/sixtop.c ****     uint8_t subtypeid,code,sfid,version,type,seqNum;
1022:build/openmote-cc2538_armgcc/openstack/02b-MAChigh/sixtop.c ****     uint16_t temp_16b,len,headerlen;
1023:build/openmote-cc2538_armgcc/openstack/02b-MAChigh/sixtop.c **** 
1024:build/openmote-cc2538_armgcc/openstack/02b-MAChigh/sixtop.c ****     ptr         = 0;
 2788              		.loc 1 1024 0
 2789 0eda 0023     		movs	r3, #0
 2790 0edc FB75     		strb	r3, [r7, #23]
1025:build/openmote-cc2538_armgcc/openstack/02b-MAChigh/sixtop.c ****     headerlen   = 0;
 2791              		.loc 1 1025 0
 2792 0ede 0023     		movs	r3, #0
 2793 0ee0 BB82     		strh	r3, [r7, #20]	@ movhi
1026:build/openmote-cc2538_armgcc/openstack/02b-MAChigh/sixtop.c **** 
1027:build/openmote-cc2538_armgcc/openstack/02b-MAChigh/sixtop.c ****     //candidate IE header  if type ==0 header IE if type==1 payload IE
1028:build/openmote-cc2538_armgcc/openstack/02b-MAChigh/sixtop.c ****     temp_8b     = *((uint8_t*)(pkt->payload)+ptr);
 2794              		.loc 1 1028 0
 2795 0ee2 7B68     		ldr	r3, [r7, #4]
 2796 0ee4 5A68     		ldr	r2, [r3, #4]
 2797 0ee6 FB7D     		ldrb	r3, [r7, #23]	@ zero_extendqisi2
 2798 0ee8 1344     		add	r3, r3, r2
 2799 0eea 1B78     		ldrb	r3, [r3]
 2800 0eec FB74     		strb	r3, [r7, #19]
1029:build/openmote-cc2538_armgcc/openstack/02b-MAChigh/sixtop.c ****     ptr++;
 2801              		.loc 1 1029 0
 2802 0eee FB7D     		ldrb	r3, [r7, #23]	@ zero_extendqisi2
 2803 0ef0 0133     		adds	r3, r3, #1
 2804 0ef2 FB75     		strb	r3, [r7, #23]
1030:build/openmote-cc2538_armgcc/openstack/02b-MAChigh/sixtop.c ****     temp_16b    = temp_8b + ((*((uint8_t*)(pkt->payload)+ptr))<<8);
 2805              		.loc 1 1030 0
 2806 0ef4 FB7C     		ldrb	r3, [r7, #19]	@ zero_extendqisi2
 2807 0ef6 9AB2     		uxth	r2, r3
 2808 0ef8 7B68     		ldr	r3, [r7, #4]
 2809 0efa 5968     		ldr	r1, [r3, #4]
 2810 0efc FB7D     		ldrb	r3, [r7, #23]	@ zero_extendqisi2
 2811 0efe 0B44     		add	r3, r3, r1
 2812 0f00 1B78     		ldrb	r3, [r3]	@ zero_extendqisi2
 2813 0f02 9BB2     		uxth	r3, r3
 2814 0f04 1B02     		lsls	r3, r3, #8
 2815 0f06 9BB2     		uxth	r3, r3
 2816 0f08 1344     		add	r3, r3, r2
 2817 0f0a 3B82     		strh	r3, [r7, #16]	@ movhi
1031:build/openmote-cc2538_armgcc/openstack/02b-MAChigh/sixtop.c ****     ptr++;
 2818              		.loc 1 1031 0
 2819 0f0c FB7D     		ldrb	r3, [r7, #23]	@ zero_extendqisi2
 2820 0f0e 0133     		adds	r3, r3, #1
 2821 0f10 FB75     		strb	r3, [r7, #23]
1032:build/openmote-cc2538_armgcc/openstack/02b-MAChigh/sixtop.c ****     *lenIE += 2;
 2822              		.loc 1 1032 0
 2823 0f12 3B68     		ldr	r3, [r7]
 2824 0f14 1B88     		ldrh	r3, [r3]
 2825 0f16 0233     		adds	r3, r3, #2
 2826 0f18 9AB2     		uxth	r2, r3
 2827 0f1a 3B68     		ldr	r3, [r7]
 2828 0f1c 1A80     		strh	r2, [r3]	@ movhi
1033:build/openmote-cc2538_armgcc/openstack/02b-MAChigh/sixtop.c ****     // check ietf ie group id, type
1034:build/openmote-cc2538_armgcc/openstack/02b-MAChigh/sixtop.c ****     if ((temp_16b & IEEE802154E_DESC_LEN_PAYLOAD_ID_TYPE_MASK) != (IANA_IETF_IE_GROUP_ID | IANA_IET
 2829              		.loc 1 1034 0
 2830 0f1e 3B8A     		ldrh	r3, [r7, #16]
 2831 0f20 03F47843 		and	r3, r3, #63488
 2832 0f24 B3F5284F 		cmp	r3, #43008
 2833 0f28 07D0     		beq	.L165
1035:build/openmote-cc2538_armgcc/openstack/02b-MAChigh/sixtop.c ****         // wrong IE ID or type, record and drop the packet
1036:build/openmote-cc2538_armgcc/openstack/02b-MAChigh/sixtop.c ****         openserial_printError(COMPONENT_SIXTOP,ERR_UNSUPPORTED_FORMAT,0,0);
 2834              		.loc 1 1036 0
 2835 0f2a 0C20     		movs	r0, #12
 2836 0f2c 4021     		movs	r1, #64
 2837 0f2e 0022     		movs	r2, #0
 2838 0f30 0023     		movs	r3, #0
 2839 0f32 FFF7FEFF 		bl	openserial_printError
1037:build/openmote-cc2538_armgcc/openstack/02b-MAChigh/sixtop.c ****         return FALSE;
 2840              		.loc 1 1037 0
 2841 0f36 0023     		movs	r3, #0
 2842 0f38 80E0     		b	.L166
 2843              	.L165:
1038:build/openmote-cc2538_armgcc/openstack/02b-MAChigh/sixtop.c ****     }
1039:build/openmote-cc2538_armgcc/openstack/02b-MAChigh/sixtop.c ****     len = temp_16b & IEEE802154E_DESC_LEN_PAYLOAD_IE_MASK;
 2844              		.loc 1 1039 0
 2845 0f3a 3B8A     		ldrh	r3, [r7, #16]	@ movhi
 2846 0f3c C3F30A03 		ubfx	r3, r3, #0, #11
 2847 0f40 FB81     		strh	r3, [r7, #14]	@ movhi
1040:build/openmote-cc2538_armgcc/openstack/02b-MAChigh/sixtop.c ****     *lenIE += len;
 2848              		.loc 1 1040 0
 2849 0f42 3B68     		ldr	r3, [r7]
 2850 0f44 1A88     		ldrh	r2, [r3]
 2851 0f46 FB89     		ldrh	r3, [r7, #14]	@ movhi
 2852 0f48 1344     		add	r3, r3, r2
 2853 0f4a 9AB2     		uxth	r2, r3
 2854 0f4c 3B68     		ldr	r3, [r7]
 2855 0f4e 1A80     		strh	r2, [r3]	@ movhi
1041:build/openmote-cc2538_armgcc/openstack/02b-MAChigh/sixtop.c **** 
1042:build/openmote-cc2538_armgcc/openstack/02b-MAChigh/sixtop.c ****     // check 6p subtype Id
1043:build/openmote-cc2538_armgcc/openstack/02b-MAChigh/sixtop.c ****     subtypeid  = *((uint8_t*)(pkt->payload)+ptr);
 2856              		.loc 1 1043 0
 2857 0f50 7B68     		ldr	r3, [r7, #4]
 2858 0f52 5A68     		ldr	r2, [r3, #4]
 2859 0f54 FB7D     		ldrb	r3, [r7, #23]	@ zero_extendqisi2
 2860 0f56 1344     		add	r3, r3, r2
 2861 0f58 1B78     		ldrb	r3, [r3]
 2862 0f5a 7B73     		strb	r3, [r7, #13]
1044:build/openmote-cc2538_armgcc/openstack/02b-MAChigh/sixtop.c ****     ptr += 1;
 2863              		.loc 1 1044 0
 2864 0f5c FB7D     		ldrb	r3, [r7, #23]
 2865 0f5e 0133     		adds	r3, r3, #1
 2866 0f60 FB75     		strb	r3, [r7, #23]
1045:build/openmote-cc2538_armgcc/openstack/02b-MAChigh/sixtop.c ****     if (subtypeid != IANA_6TOP_SUBIE_ID){
 2867              		.loc 1 1045 0
 2868 0f62 7B7B     		ldrb	r3, [r7, #13]	@ zero_extendqisi2
 2869 0f64 C92B     		cmp	r3, #201
 2870 0f66 07D0     		beq	.L167
1046:build/openmote-cc2538_armgcc/openstack/02b-MAChigh/sixtop.c ****         // wrong subtypeID, record and drop the packet
1047:build/openmote-cc2538_armgcc/openstack/02b-MAChigh/sixtop.c ****         openserial_printError(COMPONENT_SIXTOP,ERR_UNSUPPORTED_FORMAT,1,0);
 2871              		.loc 1 1047 0
 2872 0f68 0C20     		movs	r0, #12
 2873 0f6a 4021     		movs	r1, #64
 2874 0f6c 0122     		movs	r2, #1
 2875 0f6e 0023     		movs	r3, #0
 2876 0f70 FFF7FEFF 		bl	openserial_printError
1048:build/openmote-cc2538_armgcc/openstack/02b-MAChigh/sixtop.c ****         return FALSE;
 2877              		.loc 1 1048 0
 2878 0f74 0023     		movs	r3, #0
 2879 0f76 61E0     		b	.L166
 2880              	.L167:
1049:build/openmote-cc2538_armgcc/openstack/02b-MAChigh/sixtop.c ****     }
1050:build/openmote-cc2538_armgcc/openstack/02b-MAChigh/sixtop.c ****     headerlen += 1;
 2881              		.loc 1 1050 0
 2882 0f78 BB8A     		ldrh	r3, [r7, #20]	@ movhi
 2883 0f7a 0133     		adds	r3, r3, #1
 2884 0f7c BB82     		strh	r3, [r7, #20]	@ movhi
1051:build/openmote-cc2538_armgcc/openstack/02b-MAChigh/sixtop.c **** 
1052:build/openmote-cc2538_armgcc/openstack/02b-MAChigh/sixtop.c ****     // check 6p version
1053:build/openmote-cc2538_armgcc/openstack/02b-MAChigh/sixtop.c ****     temp_8b = *((uint8_t*)(pkt->payload)+ptr);
 2885              		.loc 1 1053 0
 2886 0f7e 7B68     		ldr	r3, [r7, #4]
 2887 0f80 5A68     		ldr	r2, [r3, #4]
 2888 0f82 FB7D     		ldrb	r3, [r7, #23]	@ zero_extendqisi2
 2889 0f84 1344     		add	r3, r3, r2
 2890 0f86 1B78     		ldrb	r3, [r3]
 2891 0f88 FB74     		strb	r3, [r7, #19]
1054:build/openmote-cc2538_armgcc/openstack/02b-MAChigh/sixtop.c ****     ptr += 1;
 2892              		.loc 1 1054 0
 2893 0f8a FB7D     		ldrb	r3, [r7, #23]
 2894 0f8c 0133     		adds	r3, r3, #1
 2895 0f8e FB75     		strb	r3, [r7, #23]
1055:build/openmote-cc2538_armgcc/openstack/02b-MAChigh/sixtop.c ****     // 6p doesn't define type 3
1056:build/openmote-cc2538_armgcc/openstack/02b-MAChigh/sixtop.c ****     if (temp_8b>>IANA_6TOP_TYPE_SHIFT == 3){
 2896              		.loc 1 1056 0
 2897 0f90 FB7C     		ldrb	r3, [r7, #19]	@ zero_extendqisi2
 2898 0f92 1B09     		lsrs	r3, r3, #4
 2899 0f94 DBB2     		uxtb	r3, r3
 2900 0f96 032B     		cmp	r3, #3
 2901 0f98 07D1     		bne	.L168
1057:build/openmote-cc2538_armgcc/openstack/02b-MAChigh/sixtop.c ****         // wrong type, record and drop the packet
1058:build/openmote-cc2538_armgcc/openstack/02b-MAChigh/sixtop.c ****         openserial_printError(COMPONENT_SIXTOP,ERR_UNSUPPORTED_FORMAT,2,0);
 2902              		.loc 1 1058 0
 2903 0f9a 0C20     		movs	r0, #12
 2904 0f9c 4021     		movs	r1, #64
 2905 0f9e 0222     		movs	r2, #2
 2906 0fa0 0023     		movs	r3, #0
 2907 0fa2 FFF7FEFF 		bl	openserial_printError
1059:build/openmote-cc2538_armgcc/openstack/02b-MAChigh/sixtop.c ****         return FALSE;
 2908              		.loc 1 1059 0
 2909 0fa6 0023     		movs	r3, #0
 2910 0fa8 48E0     		b	.L166
 2911              	.L168:
1060:build/openmote-cc2538_armgcc/openstack/02b-MAChigh/sixtop.c ****     }
1061:build/openmote-cc2538_armgcc/openstack/02b-MAChigh/sixtop.c ****     version    = temp_8b &  IANA_6TOP_VESION_MASK;
 2912              		.loc 1 1061 0
 2913 0faa FB7C     		ldrb	r3, [r7, #19]
 2914 0fac 03F00F03 		and	r3, r3, #15
 2915 0fb0 3B73     		strb	r3, [r7, #12]
1062:build/openmote-cc2538_armgcc/openstack/02b-MAChigh/sixtop.c ****     type       = temp_8b >> IANA_6TOP_TYPE_SHIFT;
 2916              		.loc 1 1062 0
 2917 0fb2 FB7C     		ldrb	r3, [r7, #19]	@ zero_extendqisi2
 2918 0fb4 1B09     		lsrs	r3, r3, #4
 2919 0fb6 FB72     		strb	r3, [r7, #11]
1063:build/openmote-cc2538_armgcc/openstack/02b-MAChigh/sixtop.c ****     headerlen += 1;
 2920              		.loc 1 1063 0
 2921 0fb8 BB8A     		ldrh	r3, [r7, #20]	@ movhi
 2922 0fba 0133     		adds	r3, r3, #1
 2923 0fbc BB82     		strh	r3, [r7, #20]	@ movhi
1064:build/openmote-cc2538_armgcc/openstack/02b-MAChigh/sixtop.c **** 
1065:build/openmote-cc2538_armgcc/openstack/02b-MAChigh/sixtop.c ****     // get 6p code
1066:build/openmote-cc2538_armgcc/openstack/02b-MAChigh/sixtop.c ****     code       = *((uint8_t*)(pkt->payload)+ptr);
 2924              		.loc 1 1066 0
 2925 0fbe 7B68     		ldr	r3, [r7, #4]
 2926 0fc0 5A68     		ldr	r2, [r3, #4]
 2927 0fc2 FB7D     		ldrb	r3, [r7, #23]	@ zero_extendqisi2
 2928 0fc4 1344     		add	r3, r3, r2
 2929 0fc6 1B78     		ldrb	r3, [r3]
 2930 0fc8 BB72     		strb	r3, [r7, #10]
1067:build/openmote-cc2538_armgcc/openstack/02b-MAChigh/sixtop.c ****     ptr       += 1;
 2931              		.loc 1 1067 0
 2932 0fca FB7D     		ldrb	r3, [r7, #23]
 2933 0fcc 0133     		adds	r3, r3, #1
 2934 0fce FB75     		strb	r3, [r7, #23]
1068:build/openmote-cc2538_armgcc/openstack/02b-MAChigh/sixtop.c ****     headerlen += 1;
 2935              		.loc 1 1068 0
 2936 0fd0 BB8A     		ldrh	r3, [r7, #20]	@ movhi
 2937 0fd2 0133     		adds	r3, r3, #1
 2938 0fd4 BB82     		strh	r3, [r7, #20]	@ movhi
1069:build/openmote-cc2538_armgcc/openstack/02b-MAChigh/sixtop.c ****     // get 6p sfid
1070:build/openmote-cc2538_armgcc/openstack/02b-MAChigh/sixtop.c ****     sfid       = *((uint8_t*)(pkt->payload)+ptr);
 2939              		.loc 1 1070 0
 2940 0fd6 7B68     		ldr	r3, [r7, #4]
 2941 0fd8 5A68     		ldr	r2, [r3, #4]
 2942 0fda FB7D     		ldrb	r3, [r7, #23]	@ zero_extendqisi2
 2943 0fdc 1344     		add	r3, r3, r2
 2944 0fde 1B78     		ldrb	r3, [r3]
 2945 0fe0 7B72     		strb	r3, [r7, #9]
1071:build/openmote-cc2538_armgcc/openstack/02b-MAChigh/sixtop.c ****     ptr       += 1;
 2946              		.loc 1 1071 0
 2947 0fe2 FB7D     		ldrb	r3, [r7, #23]
 2948 0fe4 0133     		adds	r3, r3, #1
 2949 0fe6 FB75     		strb	r3, [r7, #23]
1072:build/openmote-cc2538_armgcc/openstack/02b-MAChigh/sixtop.c ****     headerlen += 1;
 2950              		.loc 1 1072 0
 2951 0fe8 BB8A     		ldrh	r3, [r7, #20]	@ movhi
 2952 0fea 0133     		adds	r3, r3, #1
 2953 0fec BB82     		strh	r3, [r7, #20]	@ movhi
1073:build/openmote-cc2538_armgcc/openstack/02b-MAChigh/sixtop.c ****     // get 6p seqNum and GEN
1074:build/openmote-cc2538_armgcc/openstack/02b-MAChigh/sixtop.c ****     seqNum     =  *((uint8_t*)(pkt->payload)+ptr) & 0xff;
 2954              		.loc 1 1074 0
 2955 0fee 7B68     		ldr	r3, [r7, #4]
 2956 0ff0 5A68     		ldr	r2, [r3, #4]
 2957 0ff2 FB7D     		ldrb	r3, [r7, #23]	@ zero_extendqisi2
 2958 0ff4 1344     		add	r3, r3, r2
 2959 0ff6 1B78     		ldrb	r3, [r3]
 2960 0ff8 3B72     		strb	r3, [r7, #8]
1075:build/openmote-cc2538_armgcc/openstack/02b-MAChigh/sixtop.c ****     ptr       += 1;
 2961              		.loc 1 1075 0
 2962 0ffa FB7D     		ldrb	r3, [r7, #23]
 2963 0ffc 0133     		adds	r3, r3, #1
 2964 0ffe FB75     		strb	r3, [r7, #23]
1076:build/openmote-cc2538_armgcc/openstack/02b-MAChigh/sixtop.c ****     headerlen += 1;
 2965              		.loc 1 1076 0
 2966 1000 BB8A     		ldrh	r3, [r7, #20]	@ movhi
 2967 1002 0133     		adds	r3, r3, #1
 2968 1004 BB82     		strh	r3, [r7, #20]	@ movhi
1077:build/openmote-cc2538_armgcc/openstack/02b-MAChigh/sixtop.c **** 
1078:build/openmote-cc2538_armgcc/openstack/02b-MAChigh/sixtop.c ****     // give six2six to process
1079:build/openmote-cc2538_armgcc/openstack/02b-MAChigh/sixtop.c ****     sixtop_six2six_notifyReceive(version,type,code,sfid,seqNum,ptr,len-headerlen,pkt);
 2969              		.loc 1 1079 0
 2970 1006 FB89     		ldrh	r3, [r7, #14]	@ movhi
 2971 1008 DAB2     		uxtb	r2, r3
 2972 100a BB8A     		ldrh	r3, [r7, #20]	@ movhi
 2973 100c DBB2     		uxtb	r3, r3
 2974 100e D31A     		subs	r3, r2, r3
 2975 1010 DBB2     		uxtb	r3, r3
 2976 1012 387B     		ldrb	r0, [r7, #12]	@ zero_extendqisi2
 2977 1014 F97A     		ldrb	r1, [r7, #11]	@ zero_extendqisi2
 2978 1016 BD7A     		ldrb	r5, [r7, #10]	@ zero_extendqisi2
 2979 1018 7C7A     		ldrb	r4, [r7, #9]	@ zero_extendqisi2
 2980 101a 3A7A     		ldrb	r2, [r7, #8]	@ zero_extendqisi2
 2981 101c 0092     		str	r2, [sp]
 2982 101e FA7D     		ldrb	r2, [r7, #23]	@ zero_extendqisi2
 2983 1020 0192     		str	r2, [sp, #4]
 2984 1022 0293     		str	r3, [sp, #8]
 2985 1024 7B68     		ldr	r3, [r7, #4]
 2986 1026 0393     		str	r3, [sp, #12]
 2987 1028 2A46     		mov	r2, r5
 2988 102a 2346     		mov	r3, r4
 2989 102c FFF7FEFF 		bl	sixtop_six2six_notifyReceive
1080:build/openmote-cc2538_armgcc/openstack/02b-MAChigh/sixtop.c ****     *lenIE     = len+2;
 2990              		.loc 1 1080 0
 2991 1030 FB89     		ldrh	r3, [r7, #14]	@ movhi
 2992 1032 0233     		adds	r3, r3, #2
 2993 1034 9AB2     		uxth	r2, r3
 2994 1036 3B68     		ldr	r3, [r7]
 2995 1038 1A80     		strh	r2, [r3]	@ movhi
1081:build/openmote-cc2538_armgcc/openstack/02b-MAChigh/sixtop.c ****     return TRUE;
 2996              		.loc 1 1081 0
 2997 103a 0123     		movs	r3, #1
 2998              	.L166:
1082:build/openmote-cc2538_armgcc/openstack/02b-MAChigh/sixtop.c **** }
 2999              		.loc 1 1082 0
 3000 103c 1846     		mov	r0, r3
 3001 103e 1837     		adds	r7, r7, #24
 3002              		.cfi_def_cfa_offset 16
 3003 1040 BD46     		mov	sp, r7
 3004              		.cfi_def_cfa_register 13
 3005              		@ sp needed
 3006 1042 B0BD     		pop	{r4, r5, r7, pc}
 3007              		.cfi_endproc
 3008              	.LFE21:
 3010              		.align	2
 3011              		.global	sixtop_six2six_notifyReceive
 3012              		.thumb
 3013              		.thumb_func
 3015              	sixtop_six2six_notifyReceive:
 3016              	.LFB22:
1083:build/openmote-cc2538_armgcc/openstack/02b-MAChigh/sixtop.c **** 
1084:build/openmote-cc2538_armgcc/openstack/02b-MAChigh/sixtop.c **** void sixtop_six2six_notifyReceive(
1085:build/openmote-cc2538_armgcc/openstack/02b-MAChigh/sixtop.c ****     uint8_t           version,
1086:build/openmote-cc2538_armgcc/openstack/02b-MAChigh/sixtop.c ****     uint8_t           type,
1087:build/openmote-cc2538_armgcc/openstack/02b-MAChigh/sixtop.c ****     uint8_t           code,
1088:build/openmote-cc2538_armgcc/openstack/02b-MAChigh/sixtop.c ****     uint8_t           sfId,
1089:build/openmote-cc2538_armgcc/openstack/02b-MAChigh/sixtop.c ****     uint8_t           seqNum,
1090:build/openmote-cc2538_armgcc/openstack/02b-MAChigh/sixtop.c ****     uint8_t           ptr,
1091:build/openmote-cc2538_armgcc/openstack/02b-MAChigh/sixtop.c ****     uint8_t           length,
1092:build/openmote-cc2538_armgcc/openstack/02b-MAChigh/sixtop.c ****     OpenQueueEntry_t* pkt
1093:build/openmote-cc2538_armgcc/openstack/02b-MAChigh/sixtop.c **** ){
 3017              		.loc 1 1093 0
 3018              		.cfi_startproc
 3019              		@ args = 16, pretend = 0, frame = 64
 3020              		@ frame_needed = 1, uses_anonymous_args = 0
 3021 1044 90B5     		push	{r4, r7, lr}
 3022              		.cfi_def_cfa_offset 12
 3023              		.cfi_offset 4, -12
 3024              		.cfi_offset 7, -8
 3025              		.cfi_offset 14, -4
 3026 1046 93B0     		sub	sp, sp, #76
 3027              		.cfi_def_cfa_offset 88
 3028 1048 02AF     		add	r7, sp, #8
 3029              		.cfi_def_cfa 7, 80
 3030 104a 0446     		mov	r4, r0
 3031 104c 0846     		mov	r0, r1
 3032 104e 1146     		mov	r1, r2
 3033 1050 1A46     		mov	r2, r3
 3034 1052 2346     		mov	r3, r4
 3035 1054 FB71     		strb	r3, [r7, #7]
 3036 1056 0346     		mov	r3, r0
 3037 1058 BB71     		strb	r3, [r7, #6]
 3038 105a 0B46     		mov	r3, r1
 3039 105c 7B71     		strb	r3, [r7, #5]
 3040 105e 1346     		mov	r3, r2
 3041 1060 3B71     		strb	r3, [r7, #4]
1094:build/openmote-cc2538_armgcc/openstack/02b-MAChigh/sixtop.c ****     uint8_t           returnCode        = -1;
 3042              		.loc 1 1094 0
 3043 1062 FF23     		movs	r3, #255
 3044 1064 87F83F30 		strb	r3, [r7, #63]
1095:build/openmote-cc2538_armgcc/openstack/02b-MAChigh/sixtop.c ****     uint16_t          metadata          = -1;
 3045              		.loc 1 1095 0
 3046 1068 4FF6FF73 		movw	r3, #65535
 3047 106c BB87     		strh	r3, [r7, #60]	@ movhi
1096:build/openmote-cc2538_armgcc/openstack/02b-MAChigh/sixtop.c ****     uint8_t           cellOptions       = -1;
 3048              		.loc 1 1096 0
 3049 106e FF23     		movs	r3, #255
 3050 1070 87F83B30 		strb	r3, [r7, #59]
1097:build/openmote-cc2538_armgcc/openstack/02b-MAChigh/sixtop.c ****     uint8_t           cellOptions_transformed;
1098:build/openmote-cc2538_armgcc/openstack/02b-MAChigh/sixtop.c ****     uint16_t          offset;
1099:build/openmote-cc2538_armgcc/openstack/02b-MAChigh/sixtop.c ****     uint16_t          length_groupid_type;
1100:build/openmote-cc2538_armgcc/openstack/02b-MAChigh/sixtop.c ****     uint16_t          startingOffset;
1101:build/openmote-cc2538_armgcc/openstack/02b-MAChigh/sixtop.c ****     uint8_t           maxNumCells;
1102:build/openmote-cc2538_armgcc/openstack/02b-MAChigh/sixtop.c ****     uint16_t          i;
1103:build/openmote-cc2538_armgcc/openstack/02b-MAChigh/sixtop.c ****     uint16_t          slotoffset;
1104:build/openmote-cc2538_armgcc/openstack/02b-MAChigh/sixtop.c ****     uint16_t          channeloffset;
1105:build/openmote-cc2538_armgcc/openstack/02b-MAChigh/sixtop.c ****     uint16_t          numCells;
1106:build/openmote-cc2538_armgcc/openstack/02b-MAChigh/sixtop.c ****     uint16_t          temp16;
1107:build/openmote-cc2538_armgcc/openstack/02b-MAChigh/sixtop.c ****     OpenQueueEntry_t* response_pkt;
1108:build/openmote-cc2538_armgcc/openstack/02b-MAChigh/sixtop.c ****     uint8_t           pktLen            = length;
 3051              		.loc 1 1108 0
 3052 1074 97F85830 		ldrb	r3, [r7, #88]
 3053 1078 87F83130 		strb	r3, [r7, #49]
1109:build/openmote-cc2538_armgcc/openstack/02b-MAChigh/sixtop.c ****     uint8_t           response_pktLen   = 0;
 3054              		.loc 1 1109 0
 3055 107c 0023     		movs	r3, #0
 3056 107e 87F83030 		strb	r3, [r7, #48]
1110:build/openmote-cc2538_armgcc/openstack/02b-MAChigh/sixtop.c ****     cellInfo_ht       celllist_list[CELLLIST_MAX_LEN];
1111:build/openmote-cc2538_armgcc/openstack/02b-MAChigh/sixtop.c **** 
1112:build/openmote-cc2538_armgcc/openstack/02b-MAChigh/sixtop.c ****     if (type == SIXTOP_CELL_REQUEST){
 3057              		.loc 1 1112 0
 3058 1082 BB79     		ldrb	r3, [r7, #6]	@ zero_extendqisi2
 3059 1084 002B     		cmp	r3, #0
 3060 1086 40F02686 		bne	.L170
1113:build/openmote-cc2538_armgcc/openstack/02b-MAChigh/sixtop.c ****         // if this is a 6p request message
1114:build/openmote-cc2538_armgcc/openstack/02b-MAChigh/sixtop.c **** 
1115:build/openmote-cc2538_armgcc/openstack/02b-MAChigh/sixtop.c ****         // get a free packet buffer
1116:build/openmote-cc2538_armgcc/openstack/02b-MAChigh/sixtop.c ****         response_pkt = openqueue_getFreePacketBuffer(COMPONENT_SIXTOP_RES);
 3061              		.loc 1 1116 0
 3062 108a 0F20     		movs	r0, #15
 3063 108c FFF7FEFF 		bl	openqueue_getFreePacketBuffer
 3064 1090 F862     		str	r0, [r7, #44]
1117:build/openmote-cc2538_armgcc/openstack/02b-MAChigh/sixtop.c ****         if (response_pkt==NULL) {
 3065              		.loc 1 1117 0
 3066 1092 FB6A     		ldr	r3, [r7, #44]
 3067 1094 002B     		cmp	r3, #0
 3068 1096 07D1     		bne	.L171
1118:build/openmote-cc2538_armgcc/openstack/02b-MAChigh/sixtop.c ****             openserial_printError(
 3069              		.loc 1 1118 0
 3070 1098 0F20     		movs	r0, #15
 3071 109a 2C21     		movs	r1, #44
 3072 109c 0022     		movs	r2, #0
 3073 109e 0023     		movs	r3, #0
 3074 10a0 FFF7FEFF 		bl	openserial_printError
 3075 10a4 01F085B8 		b	.L169
 3076              	.L171:
1119:build/openmote-cc2538_armgcc/openstack/02b-MAChigh/sixtop.c ****                 COMPONENT_SIXTOP_RES,
1120:build/openmote-cc2538_armgcc/openstack/02b-MAChigh/sixtop.c ****                 ERR_NO_FREE_PACKET_BUFFER,
1121:build/openmote-cc2538_armgcc/openstack/02b-MAChigh/sixtop.c ****                 (errorparameter_t)0,
1122:build/openmote-cc2538_armgcc/openstack/02b-MAChigh/sixtop.c ****                 (errorparameter_t)0
1123:build/openmote-cc2538_armgcc/openstack/02b-MAChigh/sixtop.c ****             );
1124:build/openmote-cc2538_armgcc/openstack/02b-MAChigh/sixtop.c ****             return;
1125:build/openmote-cc2538_armgcc/openstack/02b-MAChigh/sixtop.c ****         }
1126:build/openmote-cc2538_armgcc/openstack/02b-MAChigh/sixtop.c **** 
1127:build/openmote-cc2538_armgcc/openstack/02b-MAChigh/sixtop.c ****         // take ownership
1128:build/openmote-cc2538_armgcc/openstack/02b-MAChigh/sixtop.c ****         response_pkt->creator = COMPONENT_SIXTOP_RES;
 3077              		.loc 1 1128 0
 3078 10a8 FB6A     		ldr	r3, [r7, #44]
 3079 10aa 0F22     		movs	r2, #15
 3080 10ac 1A70     		strb	r2, [r3]
1129:build/openmote-cc2538_armgcc/openstack/02b-MAChigh/sixtop.c ****         response_pkt->owner   = COMPONENT_SIXTOP_RES;
 3081              		.loc 1 1129 0
 3082 10ae FB6A     		ldr	r3, [r7, #44]
 3083 10b0 0F22     		movs	r2, #15
 3084 10b2 5A70     		strb	r2, [r3, #1]
1130:build/openmote-cc2538_armgcc/openstack/02b-MAChigh/sixtop.c **** 
1131:build/openmote-cc2538_armgcc/openstack/02b-MAChigh/sixtop.c ****         memcpy(&(response_pkt->l2_nextORpreviousHop),
 3085              		.loc 1 1131 0
 3086 10b4 FB6A     		ldr	r3, [r7, #44]
 3087 10b6 03F13C02 		add	r2, r3, #60
1132:build/openmote-cc2538_armgcc/openstack/02b-MAChigh/sixtop.c ****                &(pkt->l2_nextORpreviousHop),
 3088              		.loc 1 1132 0
 3089 10ba FB6D     		ldr	r3, [r7, #92]
 3090 10bc 3C33     		adds	r3, r3, #60
1131:build/openmote-cc2538_armgcc/openstack/02b-MAChigh/sixtop.c ****                &(pkt->l2_nextORpreviousHop),
 3091              		.loc 1 1131 0
 3092 10be 1046     		mov	r0, r2
 3093 10c0 1946     		mov	r1, r3
 3094 10c2 1122     		movs	r2, #17
 3095 10c4 FFF7FEFF 		bl	memcpy
1133:build/openmote-cc2538_armgcc/openstack/02b-MAChigh/sixtop.c ****                sizeof(open_addr_t)
1134:build/openmote-cc2538_armgcc/openstack/02b-MAChigh/sixtop.c ****         );
1135:build/openmote-cc2538_armgcc/openstack/02b-MAChigh/sixtop.c **** 
1136:build/openmote-cc2538_armgcc/openstack/02b-MAChigh/sixtop.c ****         // the follow while loop only execute once
1137:build/openmote-cc2538_armgcc/openstack/02b-MAChigh/sixtop.c ****         do{
1138:build/openmote-cc2538_armgcc/openstack/02b-MAChigh/sixtop.c ****             // version check
1139:build/openmote-cc2538_armgcc/openstack/02b-MAChigh/sixtop.c ****             if (version != IANA_6TOP_6P_VERSION){
 3096              		.loc 1 1139 0
 3097 10c8 FB79     		ldrb	r3, [r7, #7]	@ zero_extendqisi2
 3098 10ca 002B     		cmp	r3, #0
 3099 10cc 04D0     		beq	.L173
1140:build/openmote-cc2538_armgcc/openstack/02b-MAChigh/sixtop.c ****                 returnCode = IANA_6TOP_RC_VER_ERR;
 3100              		.loc 1 1140 0
 3101 10ce 0423     		movs	r3, #4
 3102 10d0 87F83F30 		strb	r3, [r7, #63]
1141:build/openmote-cc2538_armgcc/openstack/02b-MAChigh/sixtop.c ****                 break;
 3103              		.loc 1 1141 0
 3104 10d4 00F069BD 		b	.L174
 3105              	.L173:
1142:build/openmote-cc2538_armgcc/openstack/02b-MAChigh/sixtop.c ****             }
1143:build/openmote-cc2538_armgcc/openstack/02b-MAChigh/sixtop.c ****             // sfid check
1144:build/openmote-cc2538_armgcc/openstack/02b-MAChigh/sixtop.c ****             if (sfId != sixtop_vars.cb_sf_getsfid()){
 3106              		.loc 1 1144 0
 3107 10d8 A84B     		ldr	r3, .L248
 3108 10da DB6A     		ldr	r3, [r3, #44]
 3109 10dc 9847     		blx	r3
 3110 10de 0346     		mov	r3, r0
 3111 10e0 1A46     		mov	r2, r3
 3112 10e2 3B79     		ldrb	r3, [r7, #4]	@ zero_extendqisi2
 3113 10e4 9342     		cmp	r3, r2
 3114 10e6 04D0     		beq	.L175
1145:build/openmote-cc2538_armgcc/openstack/02b-MAChigh/sixtop.c ****                 returnCode = IANA_6TOP_RC_SFID_ERR;
 3115              		.loc 1 1145 0
 3116 10e8 0523     		movs	r3, #5
 3117 10ea 87F83F30 		strb	r3, [r7, #63]
1146:build/openmote-cc2538_armgcc/openstack/02b-MAChigh/sixtop.c ****                 break;
 3118              		.loc 1 1146 0
 3119 10ee 00F05CBD 		b	.L174
 3120              	.L175:
1147:build/openmote-cc2538_armgcc/openstack/02b-MAChigh/sixtop.c ****             }
1148:build/openmote-cc2538_armgcc/openstack/02b-MAChigh/sixtop.c ****             // sequenceNumber check
1149:build/openmote-cc2538_armgcc/openstack/02b-MAChigh/sixtop.c ****             if (seqNum != neighbors_getSequenceNumber(&(pkt->l2_nextORpreviousHop)) && code != IANA
 3121              		.loc 1 1149 0
 3122 10f2 FB6D     		ldr	r3, [r7, #92]
 3123 10f4 3C33     		adds	r3, r3, #60
 3124 10f6 1846     		mov	r0, r3
 3125 10f8 FFF7FEFF 		bl	neighbors_getSequenceNumber
 3126 10fc 0346     		mov	r3, r0
 3127 10fe 1A46     		mov	r2, r3
 3128 1100 97F85030 		ldrb	r3, [r7, #80]	@ zero_extendqisi2
 3129 1104 9342     		cmp	r3, r2
 3130 1106 07D0     		beq	.L176
 3131              		.loc 1 1149 0 is_stmt 0 discriminator 1
 3132 1108 7B79     		ldrb	r3, [r7, #5]	@ zero_extendqisi2
 3133 110a 072B     		cmp	r3, #7
 3134 110c 04D0     		beq	.L176
1150:build/openmote-cc2538_armgcc/openstack/02b-MAChigh/sixtop.c ****                 returnCode = IANA_6TOP_RC_SEQNUM_ERR;
 3135              		.loc 1 1150 0 is_stmt 1
 3136 110e 0623     		movs	r3, #6
 3137 1110 87F83F30 		strb	r3, [r7, #63]
1151:build/openmote-cc2538_armgcc/openstack/02b-MAChigh/sixtop.c ****                 break;
 3138              		.loc 1 1151 0
 3139 1114 00F049BD 		b	.L174
 3140              	.L176:
1152:build/openmote-cc2538_armgcc/openstack/02b-MAChigh/sixtop.c ****             }
1153:build/openmote-cc2538_armgcc/openstack/02b-MAChigh/sixtop.c ****             // previous 6p transcation check
1154:build/openmote-cc2538_armgcc/openstack/02b-MAChigh/sixtop.c ****             if (sixtop_vars.six2six_state != SIX_STATE_IDLE){
 3141              		.loc 1 1154 0
 3142 1118 984B     		ldr	r3, .L248
 3143 111a 9B7B     		ldrb	r3, [r3, #14]	@ zero_extendqisi2
 3144 111c 002B     		cmp	r3, #0
 3145 111e 04D0     		beq	.L177
1155:build/openmote-cc2538_armgcc/openstack/02b-MAChigh/sixtop.c ****                 returnCode = IANA_6TOP_RC_RESET;
 3146              		.loc 1 1155 0
 3147 1120 0323     		movs	r3, #3
 3148 1122 87F83F30 		strb	r3, [r7, #63]
1156:build/openmote-cc2538_armgcc/openstack/02b-MAChigh/sixtop.c ****                 break;
 3149              		.loc 1 1156 0
 3150 1126 00F040BD 		b	.L174
 3151              	.L177:
1157:build/openmote-cc2538_armgcc/openstack/02b-MAChigh/sixtop.c ****             }
1158:build/openmote-cc2538_armgcc/openstack/02b-MAChigh/sixtop.c ****             // metadata meaning check
1159:build/openmote-cc2538_armgcc/openstack/02b-MAChigh/sixtop.c ****             if (sixtop_vars.cb_sf_translateMetadata()!=METADATA_TYPE_FRAMEID){
 3152              		.loc 1 1159 0
 3153 112a 944B     		ldr	r3, .L248
 3154 112c 5B6B     		ldr	r3, [r3, #52]
 3155 112e 9847     		blx	r3
 3156 1130 0346     		mov	r3, r0
 3157 1132 002B     		cmp	r3, #0
 3158 1134 0FD0     		beq	.L178
1160:build/openmote-cc2538_armgcc/openstack/02b-MAChigh/sixtop.c ****                 openserial_printError(
1161:build/openmote-cc2538_armgcc/openstack/02b-MAChigh/sixtop.c ****                     COMPONENT_SIXTOP,
1162:build/openmote-cc2538_armgcc/openstack/02b-MAChigh/sixtop.c ****                     ERR_UNSUPPORTED_METADATA,
1163:build/openmote-cc2538_armgcc/openstack/02b-MAChigh/sixtop.c ****                     sixtop_vars.cb_sf_translateMetadata(),
 3159              		.loc 1 1163 0
 3160 1136 914B     		ldr	r3, .L248
 3161 1138 5B6B     		ldr	r3, [r3, #52]
 3162 113a 9847     		blx	r3
 3163 113c 0346     		mov	r3, r0
1160:build/openmote-cc2538_armgcc/openstack/02b-MAChigh/sixtop.c ****                 openserial_printError(
 3164              		.loc 1 1160 0
 3165 113e 9BB2     		uxth	r3, r3
 3166 1140 0C20     		movs	r0, #12
 3167 1142 4121     		movs	r1, #65
 3168 1144 1A46     		mov	r2, r3
 3169 1146 0023     		movs	r3, #0
 3170 1148 FFF7FEFF 		bl	openserial_printError
1164:build/openmote-cc2538_armgcc/openstack/02b-MAChigh/sixtop.c ****                     0
1165:build/openmote-cc2538_armgcc/openstack/02b-MAChigh/sixtop.c ****                 );
1166:build/openmote-cc2538_armgcc/openstack/02b-MAChigh/sixtop.c ****                 returnCode = IANA_6TOP_RC_ERROR;
 3171              		.loc 1 1166 0
 3172 114c 0223     		movs	r3, #2
 3173 114e 87F83F30 		strb	r3, [r7, #63]
1167:build/openmote-cc2538_armgcc/openstack/02b-MAChigh/sixtop.c ****                 break;
 3174              		.loc 1 1167 0
 3175 1152 00F02ABD 		b	.L174
 3176              	.L178:
1168:build/openmote-cc2538_armgcc/openstack/02b-MAChigh/sixtop.c ****             }
1169:build/openmote-cc2538_armgcc/openstack/02b-MAChigh/sixtop.c **** 
1170:build/openmote-cc2538_armgcc/openstack/02b-MAChigh/sixtop.c ****             // commands check
1171:build/openmote-cc2538_armgcc/openstack/02b-MAChigh/sixtop.c **** 
1172:build/openmote-cc2538_armgcc/openstack/02b-MAChigh/sixtop.c ****             // get metadata, metadata indicates frame id
1173:build/openmote-cc2538_armgcc/openstack/02b-MAChigh/sixtop.c ****             metadata  = *((uint8_t*)(pkt->payload)+ptr);
 3177              		.loc 1 1173 0
 3178 1156 FB6D     		ldr	r3, [r7, #92]
 3179 1158 5A68     		ldr	r2, [r3, #4]
 3180 115a 97F85430 		ldrb	r3, [r7, #84]	@ zero_extendqisi2
 3181 115e 1344     		add	r3, r3, r2
 3182 1160 1B78     		ldrb	r3, [r3]	@ zero_extendqisi2
 3183 1162 BB87     		strh	r3, [r7, #60]	@ movhi
1174:build/openmote-cc2538_armgcc/openstack/02b-MAChigh/sixtop.c ****             metadata |= *((uint8_t*)(pkt->payload)+ptr+1)<<8;
 3184              		.loc 1 1174 0
 3185 1164 FB6D     		ldr	r3, [r7, #92]
 3186 1166 5A68     		ldr	r2, [r3, #4]
 3187 1168 97F85430 		ldrb	r3, [r7, #84]	@ zero_extendqisi2
 3188 116c 0133     		adds	r3, r3, #1
 3189 116e 1344     		add	r3, r3, r2
 3190 1170 1B78     		ldrb	r3, [r3]	@ zero_extendqisi2
 3191 1172 1B02     		lsls	r3, r3, #8
 3192 1174 9AB2     		uxth	r2, r3
 3193 1176 BB8F     		ldrh	r3, [r7, #60]
 3194 1178 1343     		orrs	r3, r3, r2
 3195 117a 9BB2     		uxth	r3, r3
 3196 117c BB87     		strh	r3, [r7, #60]	@ movhi
1175:build/openmote-cc2538_armgcc/openstack/02b-MAChigh/sixtop.c ****             ptr      += 2;
 3197              		.loc 1 1175 0
 3198 117e 97F85430 		ldrb	r3, [r7, #84]
 3199 1182 0233     		adds	r3, r3, #2
 3200 1184 87F85430 		strb	r3, [r7, #84]
1176:build/openmote-cc2538_armgcc/openstack/02b-MAChigh/sixtop.c ****             pktLen   -= 2;
 3201              		.loc 1 1176 0
 3202 1188 97F83130 		ldrb	r3, [r7, #49]
 3203 118c 023B     		subs	r3, r3, #2
 3204 118e 87F83130 		strb	r3, [r7, #49]
1177:build/openmote-cc2538_armgcc/openstack/02b-MAChigh/sixtop.c **** 
1178:build/openmote-cc2538_armgcc/openstack/02b-MAChigh/sixtop.c ****             // clear command
1179:build/openmote-cc2538_armgcc/openstack/02b-MAChigh/sixtop.c ****             if (code == IANA_6TOP_CMD_CLEAR){
 3205              		.loc 1 1179 0
 3206 1192 7B79     		ldrb	r3, [r7, #5]	@ zero_extendqisi2
 3207 1194 072B     		cmp	r3, #7
 3208 1196 04D1     		bne	.L179
1180:build/openmote-cc2538_armgcc/openstack/02b-MAChigh/sixtop.c ****                 // the cells will be removed when the repsonse sendone successfully
1181:build/openmote-cc2538_armgcc/openstack/02b-MAChigh/sixtop.c ****                 // don't clear cells here
1182:build/openmote-cc2538_armgcc/openstack/02b-MAChigh/sixtop.c ****                 returnCode = IANA_6TOP_RC_SUCCESS;
 3209              		.loc 1 1182 0
 3210 1198 0023     		movs	r3, #0
 3211 119a 87F83F30 		strb	r3, [r7, #63]
1183:build/openmote-cc2538_armgcc/openstack/02b-MAChigh/sixtop.c ****                 break;
 3212              		.loc 1 1183 0
 3213 119e 00F004BD 		b	.L174
 3214              	.L179:
1184:build/openmote-cc2538_armgcc/openstack/02b-MAChigh/sixtop.c ****             }
1185:build/openmote-cc2538_armgcc/openstack/02b-MAChigh/sixtop.c **** 
1186:build/openmote-cc2538_armgcc/openstack/02b-MAChigh/sixtop.c ****             cellOptions  = *((uint8_t*)(pkt->payload)+ptr);
 3215              		.loc 1 1186 0
 3216 11a2 FB6D     		ldr	r3, [r7, #92]
 3217 11a4 5A68     		ldr	r2, [r3, #4]
 3218 11a6 97F85430 		ldrb	r3, [r7, #84]	@ zero_extendqisi2
 3219 11aa 1344     		add	r3, r3, r2
 3220 11ac 1B78     		ldrb	r3, [r3]
 3221 11ae 87F83B30 		strb	r3, [r7, #59]
1187:build/openmote-cc2538_armgcc/openstack/02b-MAChigh/sixtop.c ****             ptr         += 1;
 3222              		.loc 1 1187 0
 3223 11b2 97F85430 		ldrb	r3, [r7, #84]
 3224 11b6 0133     		adds	r3, r3, #1
 3225 11b8 87F85430 		strb	r3, [r7, #84]
1188:build/openmote-cc2538_armgcc/openstack/02b-MAChigh/sixtop.c ****             pktLen      -= 1;
 3226              		.loc 1 1188 0
 3227 11bc 97F83130 		ldrb	r3, [r7, #49]
 3228 11c0 013B     		subs	r3, r3, #1
 3229 11c2 87F83130 		strb	r3, [r7, #49]
1189:build/openmote-cc2538_armgcc/openstack/02b-MAChigh/sixtop.c **** 
1190:build/openmote-cc2538_armgcc/openstack/02b-MAChigh/sixtop.c ****             // list command
1191:build/openmote-cc2538_armgcc/openstack/02b-MAChigh/sixtop.c ****             if (code == IANA_6TOP_CMD_LIST){
 3230              		.loc 1 1191 0
 3231 11c6 7B79     		ldrb	r3, [r7, #5]	@ zero_extendqisi2
 3232 11c8 052B     		cmp	r3, #5
 3233 11ca 40F0BC80 		bne	.L180
1192:build/openmote-cc2538_armgcc/openstack/02b-MAChigh/sixtop.c ****                 ptr += 1; // skip the one byte reserved field
 3234              		.loc 1 1192 0
 3235 11ce 97F85430 		ldrb	r3, [r7, #84]
 3236 11d2 0133     		adds	r3, r3, #1
 3237 11d4 87F85430 		strb	r3, [r7, #84]
1193:build/openmote-cc2538_armgcc/openstack/02b-MAChigh/sixtop.c ****                 offset  = *((uint8_t*)(pkt->payload)+ptr);
 3238              		.loc 1 1193 0
 3239 11d8 FB6D     		ldr	r3, [r7, #92]
 3240 11da 5A68     		ldr	r2, [r3, #4]
 3241 11dc 97F85430 		ldrb	r3, [r7, #84]	@ zero_extendqisi2
 3242 11e0 1344     		add	r3, r3, r2
 3243 11e2 1B78     		ldrb	r3, [r3]	@ zero_extendqisi2
 3244 11e4 7B85     		strh	r3, [r7, #42]	@ movhi
1194:build/openmote-cc2538_armgcc/openstack/02b-MAChigh/sixtop.c ****                 offset |= *((uint8_t*)(pkt->payload)+ptr+1)<<8;
 3245              		.loc 1 1194 0
 3246 11e6 FB6D     		ldr	r3, [r7, #92]
 3247 11e8 5A68     		ldr	r2, [r3, #4]
 3248 11ea 97F85430 		ldrb	r3, [r7, #84]	@ zero_extendqisi2
 3249 11ee 0133     		adds	r3, r3, #1
 3250 11f0 1344     		add	r3, r3, r2
 3251 11f2 1B78     		ldrb	r3, [r3]	@ zero_extendqisi2
 3252 11f4 1B02     		lsls	r3, r3, #8
 3253 11f6 9AB2     		uxth	r2, r3
 3254 11f8 7B8D     		ldrh	r3, [r7, #42]
 3255 11fa 1343     		orrs	r3, r3, r2
 3256 11fc 9BB2     		uxth	r3, r3
 3257 11fe 7B85     		strh	r3, [r7, #42]	@ movhi
1195:build/openmote-cc2538_armgcc/openstack/02b-MAChigh/sixtop.c ****                 ptr += 2;
 3258              		.loc 1 1195 0
 3259 1200 97F85430 		ldrb	r3, [r7, #84]
 3260 1204 0233     		adds	r3, r3, #2
 3261 1206 87F85430 		strb	r3, [r7, #84]
1196:build/openmote-cc2538_armgcc/openstack/02b-MAChigh/sixtop.c ****                 maxNumCells  = *((uint8_t*)(pkt->payload)+ptr);
 3262              		.loc 1 1196 0
 3263 120a FB6D     		ldr	r3, [r7, #92]
 3264 120c 5A68     		ldr	r2, [r3, #4]
 3265 120e 97F85430 		ldrb	r3, [r7, #84]	@ zero_extendqisi2
 3266 1212 1344     		add	r3, r3, r2
 3267 1214 1B78     		ldrb	r3, [r3]
 3268 1216 87F82930 		strb	r3, [r7, #41]
1197:build/openmote-cc2538_armgcc/openstack/02b-MAChigh/sixtop.c ****                 maxNumCells |= *((uint8_t*)(pkt->payload)+ptr+1)<<8;
 3269              		.loc 1 1197 0
 3270 121a FB6D     		ldr	r3, [r7, #92]
 3271 121c 5A68     		ldr	r2, [r3, #4]
 3272 121e 97F85430 		ldrb	r3, [r7, #84]	@ zero_extendqisi2
 3273 1222 0133     		adds	r3, r3, #1
 3274 1224 1344     		add	r3, r3, r2
 3275 1226 1B78     		ldrb	r3, [r3]	@ zero_extendqisi2
 3276 1228 1B02     		lsls	r3, r3, #8
 3277 122a DAB2     		uxtb	r2, r3
 3278 122c 97F82930 		ldrb	r3, [r7, #41]	@ zero_extendqisi2
 3279 1230 1343     		orrs	r3, r3, r2
 3280 1232 DBB2     		uxtb	r3, r3
 3281 1234 87F82930 		strb	r3, [r7, #41]
1198:build/openmote-cc2538_armgcc/openstack/02b-MAChigh/sixtop.c ****                 ptr += 2;
 3282              		.loc 1 1198 0
 3283 1238 97F85430 		ldrb	r3, [r7, #84]
 3284 123c 0233     		adds	r3, r3, #2
 3285 123e 87F85430 		strb	r3, [r7, #84]
1199:build/openmote-cc2538_armgcc/openstack/02b-MAChigh/sixtop.c **** 
1200:build/openmote-cc2538_armgcc/openstack/02b-MAChigh/sixtop.c ****                 returnCode = IANA_6TOP_RC_SUCCESS;
 3286              		.loc 1 1200 0
 3287 1242 0023     		movs	r3, #0
 3288 1244 87F83F30 		strb	r3, [r7, #63]
1201:build/openmote-cc2538_armgcc/openstack/02b-MAChigh/sixtop.c ****                 startingOffset = offset;
 3289              		.loc 1 1201 0
 3290 1248 7B8D     		ldrh	r3, [r7, #42]	@ movhi
 3291 124a 3B87     		strh	r3, [r7, #56]	@ movhi
1202:build/openmote-cc2538_armgcc/openstack/02b-MAChigh/sixtop.c ****                 if ((cellOptions & (CELLOPTIONS_TX | CELLOPTIONS_RX)) != (CELLOPTIONS_TX | CELLOPTI
 3292              		.loc 1 1202 0
 3293 124c 97F83B30 		ldrb	r3, [r7, #59]	@ zero_extendqisi2
 3294 1250 03F00303 		and	r3, r3, #3
 3295 1254 032B     		cmp	r3, #3
 3296 1256 06D0     		beq	.L181
1203:build/openmote-cc2538_armgcc/openstack/02b-MAChigh/sixtop.c ****                     cellOptions_transformed = cellOptions ^ (CELLOPTIONS_TX | CELLOPTIONS_RX);
 3297              		.loc 1 1203 0
 3298 1258 97F83B30 		ldrb	r3, [r7, #59]
 3299 125c 83F00303 		eor	r3, r3, #3
 3300 1260 87F83A30 		strb	r3, [r7, #58]
 3301 1264 03E0     		b	.L182
 3302              	.L181:
1204:build/openmote-cc2538_armgcc/openstack/02b-MAChigh/sixtop.c ****                 } else {
